
../ath9k-htc-firmware-blob/magpie/fw.elf:     Dateiformat elf32-xtensa-be
../ath9k-htc-firmware-blob/magpie/fw.elf
Architektur: xtensa, Flags 0x00000112:
EXEC_P, HAS_SYMS, D_PAGED
Startadresse 0x00906000

Xtensa header:

Machine     = Base
Insn tables = true
Literal tables = true

Programm-Header:
    LOAD off    0x00501000 vaddr 0x00501000 paddr 0x00501000 align 2**29
         filesz 0x00001ae8 memsz 0x00001ae8 flags r--
    LOAD off    0x00510d00 vaddr 0x00510d00 paddr 0x00510d00 align 2**29
         filesz 0x00001f68 memsz 0x00002210 flags rw-
    LOAD off    0x00906000 vaddr 0x00906000 paddr 0x00906000 align 2**29
         filesz 0x00009211 memsz 0x00009211 flags r-x

Sektionen:
Idx Name          Größe     VMA       LMA       Datei-Off Ausr.
  0 .lit4         00019000  004e8000  004e8000  00000000  2**0
                  ALLOC
  1 .rodata       000012bc  00501000  00501000  00501000  2**2
                  CONTENTS, ALLOC, LOAD, READONLY, DATA
  2 .literals     0000082c  005022bc  005022bc  005022bc  2**2
                  CONTENTS, ALLOC, LOAD, READONLY, DATA
  3 .dport0.bss   00000000  00510d00  00510d00  0090f211  2**0
                  CONTENTS
  4 .data         00001f68  00510d00  00510d00  00510d00  2**2
                  CONTENTS, ALLOC, LOAD, DATA
  5 .bss          000002a8  00512c68  00512c68  00512c68  2**2
                  ALLOC
  6 .boot         00000270  00906000  00906000  00906000  2**2
                  CONTENTS, ALLOC, LOAD, READONLY, CODE
  7 .text         00008fa1  00906270  00906270  00906270  2**2
                  CONTENTS, ALLOC, LOAD, READONLY, CODE
  8 .debug_aranges 00000348  00000000  00000000  0090f211  2**0
                  CONTENTS, READONLY, DEBUGGING
  9 .debug_info   00060024  00000000  00000000  0090f559  2**0
                  CONTENTS, READONLY, DEBUGGING
 10 .debug_abbrev 00006524  00000000  00000000  0096f57d  2**0
                  CONTENTS, READONLY, DEBUGGING
 11 .debug_line   00012f87  00000000  00000000  00975aa1  2**0
                  CONTENTS, READONLY, DEBUGGING
 12 .debug_frame  00001fb8  00000000  00000000  00988a28  2**2
                  CONTENTS, READONLY, DEBUGGING
 13 .debug_str    00009246  00000000  00000000  0098a9e0  2**0
                  CONTENTS, READONLY, DEBUGGING
 14 .debug_loc    0000d0e9  00000000  00000000  00993c26  2**0
                  CONTENTS, READONLY, DEBUGGING
 15 .xt.prop      0000504c  00000000  00000000  009a0d0f  2**0
                  CONTENTS, READONLY
 16 .debug_ranges 00000f58  00000000  00000000  009a5d5b  2**0
                  CONTENTS, READONLY, DEBUGGING
 17 .comment      0000006d  00000000  00000000  009a6cb3  2**0
                  CONTENTS, READONLY
 18 .xtensa.info  00000038  00000000  00000000  009a6d20  2**0
                  CONTENTS, READONLY
SYMBOL TABLE:
004e8000 l    d  .lit4	00000000 .lit4
00501000 l    d  .rodata	00000000 .rodata
005022bc l    d  .literals	00000000 .literals
00510d00 l    d  .dport0.bss	00000000 .dport0.bss
00510d00 l    d  .data	00000000 .data
00512c68 l    d  .bss	00000000 .bss
00906000 l    d  .boot	00000000 .boot
00906270 l    d  .text	00000000 .text
00000000 l    d  .debug_aranges	00000000 .debug_aranges
00000000 l    d  .debug_info	00000000 .debug_info
00000000 l    d  .debug_abbrev	00000000 .debug_abbrev
00000000 l    d  .debug_line	00000000 .debug_line
00000000 l    d  .debug_frame	00000000 .debug_frame
00000000 l    d  .debug_str	00000000 .debug_str
00000000 l    d  .debug_loc	00000000 .debug_loc
00000000 l    d  .xt.prop	00000000 .xt.prop
00000000 l    d  .debug_ranges	00000000 .debug_ranges
00000000 l    d  .comment	00000000 .comment
00000000 l    d  .xtensa.info	00000000 .xtensa.info
00000000 l    df *ABS*	00000000 magpie.c
00501000 l     O .rodata	0000000d __FUNCTION__$3904
00000000 l    df *ABS*	00000000 adf_nbuf.c
005010d7 l     O .rodata	00000010 __FUNCTION__$4939
005010bb l     O .rodata	0000001c __FUNCTION__$4944
0050109f l     O .rodata	0000001c __FUNCTION__$4949
0050108d l     O .rodata	00000012 __FUNCTION__$4955
00501068 l     O .rodata	00000010 __FUNCTION__$4984
00501055 l     O .rodata	00000013 __FUNCTION__$4989
00501041 l     O .rodata	00000014 __FUNCTION__$5002
00501026 l     O .rodata	0000001b __FUNCTION__$5059
0050100d l     O .rodata	00000019 __FUNCTION__$5072
00501078 l     O .rodata	00000015 __FUNCTION__$4979
00000000 l    df *ABS*	00000000 dbg_api.c
00906dc0 l     F .text	00000011 db_incorect_format
00906dd4 l     F .text	00000028 zf_debug_init
00906dfc l     F .text	0000006a db_ascii_to_hex
00906e68 l     F .text	00000038 db_hex_to_ascii
00906ea0 l     F .text	00000035 db_help_cmd
00906ed8 l     F .text	00000013 db_cmd_starthtc
00906eec l     F .text	0000005c db_cmd_memcmp
00906f48 l     F .text	0000009c db_cmd_memdump
00906fe4 l     F .text	000000bc db_str_cmd
009070a0 l     F .text	00000088 db_ldr_cmd
00907128 l     F .text	000000d9 db_intr_cmd
00907204 l     F .text	00000146 db_wdt_cmd
0090734c l     F .text	00000036 db_usb_cmd
00907384 l     F .text	00000024 db_info_cmd
009073a8 l     F .text	00000243 zf_debug_task
00907628 l     F .text	0000006c db_clock_cmd
00000000 l    df *ABS*	00000000 usb_api_main_patch.c
00510d02 l     O .data	00000002 cmd_is_new$5398
00512c94 l     O .bss	00000004 evntbuf$5396
00512c90 l     O .bss	00000004 regaddr$5397
00512c8c l     O .bss	00000002 buf_len$5395
00510d00 l     O .data	00000002 cmd_is_new$5417
00512c88 l     O .bss	00000004 buf$5415
00512c84 l     O .bss	00000002 cmd_len$5414
005011b4 l     O .rodata	00000012 __func__$5418
00512c80 l     O .bss	00000004 regaddr$5413
00000000 l    df *ABS*	00000000 if_ath.c
00907ae4 l     F .text	00000014 __adf_os_mem_alloc
00907af8 l     F .text	00000013 __adf_os_mem_copy
00907b0c l     F .text	00000013 __adf_os_mem_set
00907b20 l     F .text	00000005 tgt_HTCRecv_uapsdhandler
0050124e l     O .rodata	00000019 __FUNCTION__$7815
00907b28 l     F .text	0000001c dispatch_magpie_sys_cmds
00907b44 l     F .text	00000005 htc_setup_comp
00908084 l     F .text	0000010a tgt_HTCSendCompleteHandler
00907f78 l     F .text	00000074 tgt_ServiceConnect
00907b4c l     F .text	0000002e tgt_reg_service
00501234 l     O .rodata	0000001a __FUNCTION__$7379
00907b7c l     F .text	000000a6 tgt_HTCRecvMessageHandler
00907c24 l     F .text	00000010 tgt_HTCRecv_mgmthandler
00907c34 l     F .text	00000098 ath_descdma_cleanup
00907ccc l     F .text	00000014 __adf_os_init_bh$isra$5
00907ce0 l     F .text	00000010 __adf_os_sched_bh$isra$6
00907cf0 l     F .text	000000b7 ath_tgt_rx_tasklet
00907da8 l     F .text	00000198 ath_rxdesc_init
00512c9c l     O .bss	00000001 reset_pll$7628
00907f40 l     F .text	00000036 ath_pll_reset_ones$isra$12
0050120d l     O .rodata	00000013 __FUNCTION__$7855
00907fec l     F .text	0000005c ath_reg_read_filter
00908048 l     F .text	0000003b tgt_HTCRecv_cabhandler
00908190 l     F .text	0000004c ath_desc_free
005011ec l     O .rodata	00000012 __FUNCTION__$7416
009081dc l     F .text	000000b4 ath_descdma_setup$isra$22$constprop$28
00510e08 l     O .data	00000004 ath_numrxbufs
0050129d l     O .rodata	0000001a __FUNCTION__$7249
00908940 l     F .text	00000012 ath_fatal_tasklet
00908954 l     F .text	00000012 ath_bmiss_tasklet
005012b7 l     O .rodata	0000000c __FUNCTION__$7192
009089c4 l     F .text	0000006a ath_hal_reg_rmw_tgt
00908a30 l     F .text	00000088 ath_rc_mask_tgt
00908ab8 l     F .text	00000023 ath_rx_stats_tgt
00908adc l     F .text	00000042 ath_tx_stats_tgt
00908b20 l     F .text	00000032 ath_int_stats_tgt
00908b54 l     F .text	0000006f ath_node_update_tgt
00908bc4 l     F .text	0000002a ath_detach_tgt
00501289 l     O .rodata	00000014 __FUNCTION__$7552
00908bf0 l     F .text	000000ab ath_enable_aggr_tgt
00908c9c l     F .text	0000002c ath_ic_update_tgt
00908cc8 l     F .text	0000005a handle_rc_rate_update_cmd
00908d24 l     F .text	00000052 handle_rc_state_change_cmd
00908d78 l     F .text	0000004a ath_hal_reg_write_tgt
00908dc4 l     F .text	00000042 ath_hal_reg_read_tgt
00501276 l     O .rodata	00000013 __FUNCTION__$7573
00908e08 l     F .text	0000007a ath_vap_create_tgt
00908e84 l     F .text	00000052 ath_vap_delete_tgt
00908ed8 l     F .text	00000030 ath_node_cleanup_tgt
00908f08 l     F .text	000000af ath_node_create_tgt
00501267 l     O .rodata	0000000f __FUNCTION__$7171
00908fb8 l     F .text	00000080 ath_setcurmode_tgt
00909038 l     F .text	00000050 ath_flushrecv_tgt
00909088 l     F .text	0000003a ath_stoprecv_tgt
009090c4 l     F .text	00000086 ath_startrecv_tgt
0090914c l     F .text	000000c6 ath_draintxq_tgt
00909214 l     F .text	0000002e ath_tx_draintxq_tgt
00909244 l     F .text	00000023 ath_aborttx_dma_tgt
00909268 l     F .text	00000026 ath_stop_tx_dma_tgt
00909290 l     F .text	00000040 ath_aborttxq_tgt
009092d0 l     F .text	0000004e ath_init_tgt
00909320 l     F .text	00000054 ath_enable_intr_tgt
00909374 l     F .text	00000026 ath_disable_intr_tgt
0090939c l     F .text	0000001e ath_get_tgt_version
009093bc l     F .text	00000013 handle_echo_command
00501220 l     O .rodata	00000014 __FUNCTION__$7307
009093e8 l     F .text	000001d4 tgt_HTCRecv_beaconhandler
00510d04 l     O .data	00000100 Magpie_Sys_DispatchEntries
00510e04 l     O .data	00000004 ath_numrxdescs
005011fe l     O .rodata	0000000f __FUNCTION__$7439
00000000 l    df *ABS*	00000000 htc.c
005012c3 l     O .rodata	00000018 __FUNCTION__$4106
00000000 l    df *ABS*	00000000 wmi_svc.c
0090a354 l     F .text	0000000b WMIServiceConnect
0090a360 l     F .text	00000007 _WMI_GetPendingEventsCount
0090a368 l     F .text	00000007 _WMI_GetControlEp
0090a370 l     F .text	00000014 _WMI_RegisterDispatchTable
0090a384 l     F .text	00000005 _WMI_Shutdown
005012db l     O .rodata	00000016 __FUNCTION__$3905
0090a38c l     F .text	0000009b WMIRecvMessageHandler
0090a428 l     F .text	00000024 _WMI_SendCompleteHandler
0090a44c l     F .text	00000030 _WMI_AllocEvent
0090a47c l     F .text	00000036 _WMI_SendEvent
0090a4b4 l     F .text	0000006f _WMI_Init
00000000 l    df *ABS*	00000000 ar5416_hw.c
005012f4 l     O .rodata	000000d4 ar5416hal_10
00000000 l    df *ABS*	00000000 ratectrl_11n_ln.c
0090c08c l     F .text	000000bc rcRateSetseries
0090c148 l     F .text	00000058 rcIsValidPhyRate
0090c1a0 l     F .text	00000401 rcSibUpdate_ht$constprop$6
0090c5a4 l     F .text	0000002a ath_rate_newassoc_11n
005013c8 l     O .rodata	00000028 nRetry2PerLookup$7259
0090c5d0 l     F .text	0000020e rcUpdate_ht$constprop$5
0090c7e0 l     F .text	00000062 rcRateGetIndex$constprop$9
00000000 l    df *ABS*	00000000 if_owl.c
0090cddc l     F .text	00000013 __adf_os_mem_copy
0090cdf0 l     F .text	0000004d ieee80211_anyhdrsize
0090ce40 l     F .text	0000004c owl_tgt_tid_init
00501455 l     O .rodata	00000016 __FUNCTION__$7248
0090ce8c l     F .text	0000008a ath_tgt_txq_add_ucast
0090cf18 l     F .text	0000005f ath_tx_update_baw
0090cf78 l     F .text	00000060 ath_update_stats$isra$1
0090cfd8 l     F .text	00000024 ath_tgt_tx_enqueue$isra$3
0090cffc l     F .text	00000076 ath_update_aggr_stats$isra$5
0090d074 l     F .text	00000014 ath_dma_unmap$isra$6
0090d088 l     F .text	00000026 ath_tgt_skb_free$isra$7
0090d0b0 l     F .text	0000009e ath_filltxdesc$isra$9
0090d150 l     F .text	0000004e ath_tx_tgt_setds
0090d1a0 l     F .text	00000013 __adf_os_mem_set$constprop$19
005014b4 l     O .rodata	00000040 bits_per_symbol
0090d1b4 l     F .text	00000212 ath_buf_set_rate
0090d3c8 l     F .text	00000016 ath_dma_map$isra$8
005014a5 l     O .rodata	0000000f __FUNCTION__$7057
0090d3e0 l     F .text	00000111 ath_buf_toggle
0090d4f4 l     F .text	0000003c ath_buf_comp
0090d530 l     F .text	00000083 ath_tx_freebuf
0090ef4c l     F .text	00000107 ath_bar_tx_comp
0090d5b4 l     F .text	0000016a ath_bar_tx
0090d920 l     F .text	00000010 ATH_SKB2_WH
0090d930 l     F .text	0000002f ath_tx_set_retry$isra$12
0090d960 l     F .text	000000e7 ath_tx_retry_subframe$isra$14
0090da48 l     F .text	000000b7 ath_tx_comp_aggr_error
0050146b l     O .rodata	00000011 __FUNCTION__$7213
0050147c l     O .rodata	00000013 __FUNCTION__$7222
00501444 l     O .rodata	00000011 __FUNCTION__$7329
0050142e l     O .rodata	00000016 __FUNCTION__$7350
0090ea30 l     F .text	0000005a ath_tgt_tx_comp_normal
0050141a l     O .rodata	00000014 __FUNCTION__$7373
00501405 l     O .rodata	00000015 __FUNCTION__$7439
0050148f l     O .rodata	00000016 __FUNCTION__$7402
0090e67c l     F .text	00000214 ath_tgt_txq_schedule
0090e99c l     F .text	00000046 ath_aggr_resume_tid
0090e9e4 l     F .text	0000004b owl_tgt_tid_cleanup
005013f0 l     O .rodata	00000015 __FUNCTION__$7476
00000000 l    df *ABS*	00000000 app_start.c
0090f120 l     F .text	00000029 io32_rmw
00000000 l    df *ABS*	00000000 init.c
00906270 l     F .text	00000029 io32_rmw
00512c70 l     O .bss	00000004 loop_high
00512c74 l     O .bss	00000004 loop_low
00000000 l    df *ABS*	00000000 ah_osdep.c
00000000 l    df *ABS*	00000000 wlan_pci.c
00000000 l    df *ABS*	00000000 usb_api_magpie_patch.c
0090a55c l     F .text	00000029 io32_rmw
0090a588 l     F .text	00000068 _fw_restore_dma_fifo
0090a5f0 l     F .text	00000377 _fw_reset_dma_fifo
00000000 l    df *ABS*	00000000 if_ath_pci.c
0090f054 l     F .text	00000005 ath_pci_suspend
0090f05c l     F .text	00000005 ath_pci_resume
0090f064 l     F .text	00000010 ath_pci_remove
00511bc0 l     O .data	00000020 ath_drv_info
0090f084 l     F .text	0000007e ath_pci_probe
00511be0 l     O .data	00000160 ath_pci_id_table
00000000 l    df *ABS*	00000000 buf_pool_static.c
00000000 l    df *ABS*	00000000 cmnos_clock_patch.c
00512cbc l     O .bss	00000004 last_tick$3816
00000000 l    df *ABS*	00000000 HIF_usb_patch.c
00000000 l    df *ABS*	00000000 adf_os_dma.c
00000000 l    df *ABS*	00000000 adf_os_irq_pvt.c
00000000 l    df *ABS*	00000000 ah.c
00000000 l    df *ABS*	00000000 ar5416_phy.c
00000000 l    df *ABS*	00000000 adf_net.c
00000000 l    df *ABS*	00000000 ar5416Phy.c
00000000 l    df *ABS*	00000000 ieee80211_output.c
00500abc g       *ABS*	00000000 u16TxRxCounter
00906728 g     F .text	00000035 init_mem
00511388 g     O .data	000002bc ar5416_11g_table
008e37e8 g       *ABS*	00000000 HIFusb_DescTraceDump
0090cd5c g     F .text	00000036 ath_rate_tx_complete
004e8000 g       *ABS*	00000000 _rom_literal_start
0090654c g     F .text	00000054 zfGenWrongEpidEvent
00906a90 g     F .text	0000002b __adf_nbuf_dmamap_info
00512cf4 g     O .bss	000000a0 cmd_str
00510e0c g     O .data	00000002 bEepromExist
009079dc g     F .text	00000079 bGet_descriptor_patch
0090db00 g     F .text	0000002d ath_tgt_tid_drain
00906bc8 g     F .text	00000011 __adf_nbuf_last
00500ad0 g       *ABS*	00000000 u8UsbInterfaceValue
00906984 g     F .text	00000020 __adf_nbuf_copy
00512cc0 g     O .bss	00000004 _assfail_ori
00906a70 g     F .text	00000009 __adf_nbuf_map
005022bc g       *ABS*	00000000 _bss_table_end
0090f200 g     F .text	0000000c __adf_net_register_drv
00512ca0 g     O .bss	00000004 g_wlan_intr
00906a54 g     F .text	0000001c __adf_nbuf_dmamap_create
0090ad28 g     F .text	0000004f ath_hal_get_curmode
00511d40 g     O .data	0000073c ar5416_11naRateTable
0090a068 g     F .text	00000098 HTCControlSvcProcessMsg
0051247c g     O .data	000007ec ar5416_11ngRateTable
00512d94 g     O .bss	00000002 gvLen
00909a40 g     F .text	0000000f wlan_pci_module_init
00500000 g       *ABS*	00000000 _indir_tbl
0090ac6c g     F .text	00000010 ath_hal_attach_tgt
00906d9c g     F .text	00000023 buf_pool_module_install
00501000 g       *ABS*	00000000 _lit4_end
00906c80 g     F .text	00000007 __adf_nbuf_is_cloned
0090780c g     F .text	000000ff usb_reg_out_patch
00906abc g     F .text	00000005 __adf_nbuf_set_rx_cksum
0090bdc4 g     F .text	000000bc ar5416AbortTxDma
00512d98 g     O .bss	00000004 cmd_buf_ptr
0090f211 g       *ABS*	00000000 _text_end
0090ea8c g     F .text	00000408 ath_tgt_tx_comp_aggr
0090ab8c g     F .text	00000013 _HIFusb_isr_handler_patch
0090ccfc g     F .text	0000002e ath_rate_attach
0090bce0 g     F .text	00000044 ar5416Set11nBurstDuration_20
00907950 g     F .text	00000022 vUsbFIFO_EPxCfg_FS_patch
00906acc g     F .text	0000009a __adf_nbuf_create_frm_frag
009076e8 g     F .text	00000022 cold_reboot
00501000 g       *ABS*	00000000 _lit4_start
00907694 g     F .text	0000000f cmnos_dbg_module_install
00502ae8 g       *ABS*	00000000 _dram0_literal_end
0090a100 g     F .text	0000003c AdjustCreditThreshold
00502ae8 g       *ABS*	00000000 _dram0_literal_start
0090ad78 g     F .text	00000029 ath_hal_wait
0090f211 g       .text	00000000 _etext
0090bd24 g     F .text	0000006f ar5416Set11nVirtualMoreFrag_20
008e4f60 g       *ABS*	00000000 vbuf_module_install
00512c68 g     O .bss	00000004 idle_cnt
0090d720 g     F .text	00000043 owl_tgt_node_init
0090770c g     F .text	000000ff usb_status_in_patch
00909a50 g     F .text	0000000a wlan_pci_register_drv
0090692c g     F .text	0000002a __adf_nbuf_push_head
009076a4 g     F .text	00000022 _fw_usbfifo_recv_command
0090f110 g     F .text	0000000f ar5416AttachRateTables
00909bf4 g     F .text	000000bf _HTC_Init
009068cc g     F .text	0000001e __adf_nbuf_realloc_headroom
0090bb10 g     F .text	00000089 ar5416Set11nAggrFirst_20
00906a88 g     F .text	00000005 __adf_nbuf_dmamap_destroy
0090de48 g     F .text	0000043b ath_tgt_send_mgt
0090c058 g     F .text	00000033 ar5416GetRateTable
00906ca0 g     F .text	0000000d __adf_nbuf_queue_init
008e6b64 g       *ABS*	00000000 memcpy
0090cd94 g     F .text	00000012 ath_rate_newassoc
005022bc g       *ABS*	00000000 _rodata_end
00906ac4 g     F .text	00000007 __adf_nbuf_get_vlan_info
0090cac4 g     F .text	00000196 rcUpdate_11n
0090acb4 g     F .text	00000073 ath_hal_computetxtime
00500ad8 g       *ABS*	00000000 u8UsbDeviceDescriptor
0090cc5c g     F .text	0000009e ath_tx_status_update_rate
00906cb8 g     F .text	00000007 __adf_nbuf_queue_first
00512cc4 g     O .bss	00000004 htc_handle
0090d920 g     F .text	00000010 ATH_SKB_2_WH
0090f14c g     F .text	000000b3 ieee80211_tgt_crypto_encap
008e6a4c g       *ABS*	00000000 __udivsi3
00909d44 g     F .text	00000057 _HTC_Ready
00907a58 g     F .text	00000010 ath_hal_getuptime
00906c04 g     F .text	0000003b __adf_nbuf_trim_tail
00512c68 g       *ABS*	00000000 _bss_start
00510d00 g       *ABS*	00000000 _dram0_data_end
00511900 g     O .data	000002bc ar5416_11a_table
00909e04 g     F .text	00000066 ReturnBuffers
0090ddc0 g     F .text	00000088 ath_tgt_tx_send_normal
00500ad2 g       *ABS*	00000000 u8UsbInterfaceAlternateSetting
00512c68 g       *ABS*	00000000 __XT_EXCEPTION_DESCS__
0090e340 g     F .text	000000c6 ath_tgt_handle_aggr
005010e8 g     O .rodata	000000cc command_table
00906270 g       *ABS*	00000000 _text_start
009076c8 g     F .text	00000020 _fw_usbfifo_init
0090e890 g     F .text	0000009a owltgt_tx_processq
009068ec g     F .text	0000001e __adf_nbuf_realloc_tailroom
0090e284 g     F .text	00000070 ath_tgt_handle_normal
0090b170 g     F .text	00000015 ar5416StartTxDma
0090bf88 g     F .text	00000055 ar5416SetRxFilter
00907ac4 g     F .text	00000005 ath_hal_free
0090a13c g     F .text	0000014e _HTC_SendMsg
0090bfe0 g     F .text	00000077 ar5416Attach
00906c78 g     F .text	00000005 __adf_nbuf_cat
0090b15c g     F .text	00000014 ar5416SetTxDP
0090cda8 g     F .text	00000012 ath_rate_node_update
008e1548 g       *ABS*	00000000 generic_hif_module_install
00906c4c g     F .text	00000019 __adf_nbuf_tailroom
00906c70 g     F .text	00000007 __adf_nbuf_clone
008e4934 g       *ABS*	00000000 mUsbFIFOConfig
0090ab08 g     F .text	0000000a cmnos_clock_init_patch
008e36e4 g       *ABS*	00000000 _HIFusb_isr_handler
00906cf8 g     F .text	00000057 _buf_pool_static_create_pool
00512d9c g     O .bss	00000028 raw_cmd
00906cb0 g     F .text	00000007 __adf_nbuf_queue_len
00501000 g       *ABS*	00000000 _dport0_literal_start
0090f104 g     F .text	0000000b exit_ath_pci
00512f10 g       *ABS*	00000000 _bss_end
00906cf0 g     F .text	00000005 _buf_pool_static_shutdown
0090b0f8 g     F .text	00000061 ar5416UpdateTxTrigLevel
00512cb4 g     O .bss	00000002 bJumptoFlash
00512cc8 g     O .bss	0000002c g_poolCtx
009069ec g     F .text	00000020 __adf_nbuf_get_priv
00512cb0 g     O .bss	00000004 gpio_func
00909fec g     F .text	0000007b HTCProcessConfigPipeMsg
00906d50 g     F .text	00000024 _buf_pool_static_alloc_buf
0090bd94 g     F .text	0000000a ar5416Detach
0090ae7c g     F .text	0000000f ar5416EnableReceive
00500aa4 g       *ABS*	00000000 usbFifoConf
00500ab8 g       *ABS*	00000000 pu8DescriptorEX
0090ab14 g     F .text	0000000a cmnos_refclk_speed_get_patch
0090b7a4 g     F .text	00000108 ar5416Set11nTxDesc_20
00510d00 g       *ABS*	00000000 _dram0_data_start
0090f074 g     F .text	0000000d init_ath_pci
00511644 g     O .data	000002bc ar5416_11b_table
008e3a9c g       *ABS*	00000000 bGet_descriptor
0090b188 g     F .text	0000002e ar5416NumTxPending
009095bc g     F .text	0000045c ath_tgt_attach
00909b98 g     F .text	00000013 _HTC_GetReservedHeadroom
00906834 g     F .text	0000003c Magpie_init
00512c68 g       *ABS*	00000000 __XT_EXCEPTION_DESCS_END__
00906470 g     F .text	0000005e zfGenExceptionEvent
00906b68 g     F .text	00000060 __adf_nbuf_split_to_frag
0090a524 g     F .text	00000037 WMI_service_module_install
00906d74 g     F .text	00000010 _buf_pool_static_alloc_buf_align
00501000 g       *ABS*	00000000 _dport0_rodata_start
00510d00 g       *ABS*	00000000 _dport0_data_start
008e6958 g       *ABS*	00000000 xthal_get_ccount
0090690c g     F .text	0000001e __adf_nbuf_expand
0090adbc g     F .text	00000085 ar5416SetInterrupts
009062e4 g     F .text	00000066 change_magpie_clk
0090ae6c g     F .text	0000000d ar5416SetRxDP
0090d764 g     F .text	00000010 ath_tx_status_clear
00512ca4 g     O .bss	00000004 g_wlan_drv_handle
00909bac g     F .text	0000002e HTCSendDoneHandler
0090a968 g     F .text	00000072 _fw_usb_suspend_reboot
008e497c g       *ABS*	00000000 mUsbEPMxPtSzLow
0090ae44 g     F .text	00000026 ar5416GetTsf64
00512cb8 g     O .bss	00000004 ref_clk
00909d9c g     F .text	00000066 HTCCheckAndSendCreditReport
00500a98 g       *ABS*	00000000 ControlCmd
00510d00 g       *ABS*	00000000 _data_start
00500ace g       *ABS*	00000000 u8UsbConfigValue
00907aa0 g     F .text	00000022 ath_hal_malloc
0090bda0 g     F .text	00000021 ar5416StopDmaReceive
00909cb4 g     F .text	00000005 _HTC_PauseRecv
0090f20c g     F .text	00000005 __adf_net_unregister_drv
0090ac24 g     F .text	0000002e __adf_os_dmamem_alloc
008e48f8 g       *ABS*	00000000 mUsbEPMap
00906958 g     F .text	0000002b __adf_nbuf_pull_head
0090ac54 g     F .text	0000000c __adf_os_setup_intr
00512c7c g     O .bss	00000004 m_origUsbfifoRecvCmd
0090ab3c g     F .text	0000002b cmnos_tick_patch
00906a0c g     F .text	0000001e __adf_nbuf_queue_add
00908968 g     F .text	0000005b wmi_cmd_rsp
009069a4 g     F .text	00000020 __adf_nbuf_unshare
00512ec0 g     O .bss	00000012 UsbDeviceDescriptorPatch
00906d84 g     F .text	00000018 _buf_pool_static_free_buf
00906cc8 g     F .text	00000010 __adf_nbuf_is_queue_empty
0090ada4 g     F .text	00000017 ar5416IsInterruptPending
00907acc g     F .text	00000015 ath_hal_memcpy
008e6348 g       *ABS*	00000000 _xtos_set_exception_handler
00906000 g     F .boot	00000270 app_start
0090b1b8 g     F .text	000001e6 ar5416SetupTxDesc_20
0050095c g       *ABS*	00000000 cticks
008e5010 g       *ABS*	00000000 vdesc_module_install
0090d774 g     F .text	000000c3 ath_tx_status_update
00512c68 g       *ABS*	00000000 _data_end
0090f211 g       *ABS*	00000000 _iram0_text_end
0090e408 g     F .text	00000273 ath_tgt_tx_form_aggr
005022ab g       *ABS*	00000000 __XT_EXCEPTION_TABLE__
0090e2f4 g     F .text	0000004a ath_tx_addto_baw
00906a2c g     F .text	00000026 __adf_nbuf_queue_remove
00909a18 g     F .text	00000028 ath_detach
00906760 g     F .text	0000005d wlan_task
005022bc g       *ABS*	00000000 _literals_start
00512dc4 g     O .bss	000000f0 cmd_buffer
00906cd8 g     F .text	00000018 _buf_pool_static_init
00512c6c g     O .bss	00000001 htc_complete_setup
00906c68 g     F .text	00000008 __adf_nbuf_len
0090be80 g     F .text	0000003d ar5416StopTxDma
00909b68 g     F .text	00000016 wlan_pci_isr
008e6e48 g       *ABS*	00000000 memset
00502ae8 g       *ABS*	00000000 _literals_end
00909b80 g     F .text	00000005 _HTC_Shutdown
0090ac7c g     F .text	00000037 ath_hal_getcapability
009069c4 g     F .text	00000027 __adf_nbuf_frag_info
00501000 g       *ABS*	00000000 _dport0_rodata_end
0090ab20 g     F .text	0000001c cmnos_delay_us_patch
00500ac4 g       *ABS*	00000000 eUsbCxFinishAction
00512c98 g     O .bss	00000004 init_htc_handle
00909d08 g     F .text	00000016 HTCFreeMsgBuffer
0090bb9c g     F .text	00000083 ar5416Set11nAggrMiddle_20
00906c88 g     F .text	00000015 __adf_nbuf_peek_header
009065d4 g     F .text	00000153 HTCMsgRecvHandler_patch
00906444 g     F .text	0000002a reset_EP4_FIFO
008e6998 g       *ABS*	00000000 __divsi3
008e6560 g       *ABS*	00000000 strcmp
0090af1c g     F .text	000001dc ar5416ProcRxDescFast_20
00501000 g       *ABS*	00000000 _dram0_rodata_start
0090a9dc g     F .text	000000da zfTurnOffPower_patch
00501000 g       *ABS*	00000000 _rom_literal_end
00908290 g     F .text	0000005b wmi_event
00512c78 g     O .bss	00000004 delay
00909a8c g     F .text	0000003c wlan_pci_config_read
009082ec g     F .text	00000654 ath_intr
00909e6c g     F .text	00000010 _HTC_ReturnBuffers
008e1574 g       *ABS*	00000000 athos_indirection_table_install
008e6980 g       *ABS*	00000000 xthal_get_intenable
0090e92c g     F .text	00000070 owl_tgt_tx_tasklet
008e4954 g       *ABS*	00000000 mUsbEPMxPtSzHigh
00907a90 g     F .text	00000010 ath_hal_delay
00500ac0 g       *ABS*	00000000 u8ConfigDescriptorEX
00906870 g     F .text	0000003e __adf_nbuf_alloc
0090aba0 g     F .text	00000083 _HIFusb_start_patch
00906cc0 g     F .text	00000007 __adf_nbuf_queue_next
009075ec g     F .text	0000003c db_ascii_to_int
0090a28c g     F .text	000000be HTCMsgRecvHandler
0090d838 g     F .text	000000a0 ath_tx_status_update_aggr
009068b0 g     F .text	0000001c __adf_nbuf_free
00512eb4 g     O .bss	00000004 cmd_not_found
008e4914 g       *ABS*	00000000 mUsbFIFOMap
009067c0 g     F .text	00000005 htc_setup_comp
005022ac g       *ABS*	00000000 _bss_table_start
005110cc g     O .data	000002bc ar5416_11ng_table
00906a7c g     F .text	00000009 __adf_nbuf_unmap
00906c40 g     F .text	0000000a __adf_nbuf_headroom
0090ee94 g     F .text	000000b6 ath_tgt_tx_cleanup
008e3e64 g       *ABS*	00000000 bStandardCommand
008e3b54 g       *ABS*	00000000 bSet_configuration
00909ac8 g     F .text	000000a0 wlan_pci_probe
009064d0 g     F .text	0000007c AR6002_fatal_exception_handler_patch
00909cc4 g     F .text	00000041 htc_module_install
00510d00 g       *ABS*	00000000 _dport0_data_end
0090ab68 g     F .text	0000000d cmnos_milliseconds_patch
00512cac g     O .bss	00000004 gpio
00501000 g       *ABS*	00000000 _rodata_start
009093d0 g     F .text	00000018 ath_get_minrateidx
00512f10 g       .bss	00000000 _end
008e34a0 g       *ABS*	00000000 _HIFusb_start
0090ab78 g     F .text	00000011 _HIFusb_get_max_msg_len_patch
0090aab8 g     F .text	0000004f zfResetUSBFIFO_patch
0090d8d8 g     F .text	00000046 ath_tx_status_send
00512eb8 g     O .bss	00000004 cmd_buf_full
0090f211 g       *ABS*	00000000 _iram0_text_start
0090bc20 g     F .text	0000007d ar5416Set11nAggrLast_20
00909ec8 g     F .text	00000043 HTCControlSvcProcessSendComplete
00909d20 g     F .text	00000021 HTCAllocMsgBuffer
00511bbc g     O .data	00000004 g_pci_init_func
00909b88 g     F .text	0000000d _HTC_RegisterService
00907a68 g     F .text	00000026 _ath_hal_attach_tgt
00909f0c g     F .text	000000e0 HTCProcessConnectMsg
0090bca0 g     F .text	0000003e ar5416Clr11nAggr_20
0090c844 g     F .text	0000027e rcRateFind_11n
00906bdc g     F .text	00000026 __adf_nbuf_put_tail
0090cd2c g     F .text	0000002f ath_rate_findrate
00512ca8 g     O .bss	00000004 g_wlan_drv
0090634c g     F .text	000000f6 exception_reset
0090b3a0 g     F .text	00000136 ar5416FillTxDesc_20
00909bdc g     F .text	00000017 HTC_AssembleBuffers
00510e10 g     O .data	000002bc ar5416_11na_table
00512f10 g       *ABS*	00000000 _fw_image_end
00909cbc g     F .text	00000005 _HTC_ResumeRecv
0090db30 g     F .text	0000028e ath_tgt_tx_prepare
00906270 g       .text	00000000 _stext
00907974 g     F .text	00000023 bSet_configuration_patch
0090ac60 g     F .text	0000000c __adf_os_free_intr
0090b4d8 g     F .text	00000021 ar5416FillKeyTxDesc_20
009067c8 g     F .text	0000006b _wmi_cmd_rsp
00512ebc g     O .bss	00000004 pressed_time
00909a5c g     F .text	00000030 wlan_pci_config_write
0090629c g     F .text	00000046 fatal_exception_func
00909e7c g     F .text	0000004a _HTC_ReturnBuffersList
0090aea4 g     F .text	00000077 ar5416SetupRxDesc_20
009065a0 g     F .text	00000032 HTCControlSvcProcessMsg_patch
008e49a0 g       *ABS*	00000000 mUsbEPinHighBandSet
0090cdbc g     F .text	0000001e ath_rate_newstate
00510d00 g       *ABS*	00000000 _dport0_bss_start
00501000 g       *ABS*	00000000 _dram0_rodata_end
0090b4fc g     F .text	000002a8 ar5416ProcTxDesc_20
0090a34c g     F .text	00000005 RedistributeCredit
0090790c g     F .text	00000042 vUSBFIFO_EP6Cfg_FS_patch
00510d00 g       *ABS*	00000000 _dport0_bss_end
00907998 g     F .text	00000044 bStandardCommand_patch
00512ed2 g     O .bss	0000003c ConfigDescriptorPatch
0090bec0 g     F .text	000000c7 ar5416GetPendingInterrupts
00501000 g       *ABS*	00000000 _dport0_literal_end
0090b8ac g     F .text	00000264 ar5416Set11nRateScenario_20
0090ae8c g     F .text	00000017 ar5416StopPcuReceive



Disassembly of section .boot:

00906000 <app_start>:

extern BOOLEAN bJumptoFlash;
extern BOOLEAN bEepromExist;

void __section(boot) __noreturn __visible app_start(void)
{
  906000:	6c1004        	entry	a1, 32
#if defined(PROJECT_MAGPIE)
	T_EEP_RET retEEP;
#endif

	/* Zero BSS segment & dynamic memory section. */
	init_mem();
  906003:	5801c9        	call8	906728 <init_mem>

#if defined(PROJECT_MAGPIE)
	fatal_exception_func();
  906006:	5800a5        	call8	90629c <fatal_exception_func>
#endif

	if( IS_FLASHBOOT() ) {
  906009:	1268b1        	l32r	a2, 8e02d0 <_bss_end+0x3cd3c0>
  90600c:	1568b2        	l32r	a5, 8e02d4 <_bss_end+0x3cd3c4>
  90600f:	0c0200        	memw
  906012:	232200        	l32i	a3, a2, 0
  906015:	1468b3        	l32r	a4, 8e02e4 <_bss_end+0x3cd3d4>
  906018:	03035f        	extui	a3, a3, 16, 16
  90601b:	1268b5        	l32r	a2, 8e02f0 <_bss_end+0x3cd3e0>
  90601e:	753937        	bne	a3, a5, 906059 <app_start+0x59>
		athos_indirection_table_install();
  906021:	5b6d54        	call8	8e1574 <athos_indirection_table_install>
		DBG_MODULE_INSTALL();
  906024:	da40      	mov.n	a10, a4
  906026:	58059b        	call8	907694 <cmnos_dbg_module_install>
		A_CLOCK_INIT(SYSTEM_CLK);
  906029:	1a68b4        	l32r	a10, 8e02fc <_bss_end+0x3cd3ec>
  90602c:	232238        	l32i	a3, a2, 224
  90602f:	0b3000        	callx8	a3
		A_UART_INIT();
  906032:	2a2213        	l32i	a10, a2, 76
  906035:	0ba000        	callx8	a10
		A_PRINTF_INIT();
  906038:	232211        	l32i	a3, a2, 68
  90603b:	0b3000        	callx8	a3
		A_DBG_INIT();
  90603e:	23226e        	l32i	a3, a2, 0x1b8
  906041:	0b3000        	callx8	a3
		A_EEP_INIT();
  906044:	23225f        	l32i	a3, a2, 0x17c
  906047:	0b3000        	callx8	a3
		A_TASKLET_INIT();
  90604a:	232269        	l32i	a3, a2, 0x1a4
  90604d:	0b3000        	callx8	a3
		_indir_tbl.cmnos.timer._timer_init();
  906050:	232241        	l32i	a3, a2, 0x104
  906053:	600005        	j	90605c <app_start+0x5c>
  906056:	000000        	ill
		u8UsbInterfaceAlternateSetting = u8UsbConfigValue = u8UsbInterfaceValue = 0;
#endif
	}
#ifdef ROM_VER_1_1
	else
		A_EEP_INIT(); /*Required for 1_1*/
  906059:	23225f        	l32i	a3, a2, 0x17c
  90605c:	0b3000        	callx8	a3
#endif

#if defined(PROJECT_MAGPIE)
	retEEP = A_EEP_IS_EXIST();
  90605f:	2a2262        	l32i	a10, a2, 0x188
	bJumptoFlash = FALSE;
  906062:	250a00        	movi	a5, 0
	retEEP = A_EEP_IS_EXIST();
  906065:	0ba000        	callx8	a10
	bJumptoFlash = FALSE;
  906068:	1368b6        	l32r	a3, 8e0340 <_bss_end+0x3cd430>
  90606b:	253500        	s16i	a5, a3, 0
  90606e:	1368b7        	l32r	a3, 8e034c <_bss_end+0x3cd43c>
	if ( RET_SUCCESS == retEEP ) {
  906071:	cca0      	bnez.n	a10, 906075 <app_start+0x75>
		bEepromExist = TRUE;
  906073:	c051      	movi.n	a5, 1
	} else {
		bEepromExist = FALSE;
	}
#endif

	hostif = A_IS_HOST_PRESENT();
  906075:	8a2e      	l32i.n	a10, a2, 56
		bEepromExist = FALSE;
  906077:	253500        	s16i	a5, a3, 0
	hostif = A_IS_HOST_PRESENT();
  90607a:	0ba000        	callx8	a10
	return *(const volatile uint16_t *) addr;
}

static inline uint32_t ioread32(const volatile uint32_t addr)
{
	return *(const volatile uint32_t *) addr;
  90607d:	1368b8        	l32r	a3, 8e0360 <_bss_end+0x3cd450>
  906080:	d5a0      	mov.n	a5, a10
  906082:	0c0200        	memw
  906085:	263200        	l32i	a6, a3, 0
#elif defined(PROJECT_K2)
	rst_status = ioread32(MAGPIE_REG_RST_STATUS_ADDR);
#endif /* #if defined(PROJECT_MAGPIE) */


	A_PRINTF(" A_WDT_INIT()\n\r");
  906088:	1a68b9        	l32r	a10, 8e036c <_bss_end+0x3cd45c>
  90608b:	232212        	l32i	a3, a2, 72
  90608e:	0b3000        	callx8	a3
		_indir_tbl.cmnos.usb._usb_fw_task = _fw_usb_fw_task;
		_indir_tbl.cmnos.usb._usb_reset_fifo = _fw_usb_reset_fifo;
#endif
	}

	if( rst_status == WDT_MAGIC_PATTERN ) {
  906091:	1768ba        	l32r	a7, 8e037c <_bss_end+0x3cd46c>
  906094:	232212        	l32i	a3, a2, 72
  906097:	77691a        	bne	a6, a7, 9060b5 <app_start+0xb5>
		A_PRINTF(" ==>WDT reset<==\n");
  90609a:	1a68bb        	l32r	a10, 8e0388 <_bss_end+0x3cd478>
  90609d:	0b3000        	callx8	a3
#if defined(PROJECT_MAGPIE)
		reset_EP4_FIFO();
  9060a0:	5800e8        	call8	906444 <reset_EP4_FIFO>
#endif
		*((volatile uint32_t*)WATCH_DOG_RESET_COUNTER_ADDR)+=1;
  9060a3:	1668bc        	l32r	a6, 8e0394 <_bss_end+0x3cd484>
  9060a6:	0c0200        	memw
  9060a9:	8360      	l32i.n	a3, a6, 0
  9060ab:	b133      	addi.n	a3, a3, 1
  9060ad:	0c0200        	memw
  9060b0:	9360      	s32i.n	a3, a6, 0
  9060b2:	60000e        	j	9060c4 <app_start+0xc4>
	} else if (rst_status == SUS_MAGIC_PATTERN) {
  9060b5:	1768bd        	l32r	a7, 8e03ac <_bss_end+0x3cd49c>
		A_PRINTF(" ==>warm start<==\n");
  9060b8:	1a68be        	l32r	a10, 8e03b0 <_bss_end+0x3cd4a0>
	} else if (rst_status == SUS_MAGIC_PATTERN) {
  9060bb:	776102        	beq	a6, a7, 9060c1 <app_start+0xc1>
	} else
		A_PRINTF(" ==>cold start<==\n");
  9060be:	1a68bf        	l32r	a10, 8e03bc <_bss_end+0x3cd4ac>
  9060c1:	0b3000        	callx8	a3

#if defined(PROJECT_MAGPIE)
	*((volatile uint32_t*)WATCH_DOG_MAGIC_PATTERN_ADDR)=WDT_MAGIC_PATTERN;
  9060c4:	1668ba        	l32r	a6, 8e03ac <_bss_end+0x3cd49c>
  9060c7:	1368b8        	l32r	a3, 8e03a8 <_bss_end+0x3cd498>
#endif /* #if defined(PROJECT_MAGPIE) */

	/* intr enable would left for firmware */
	/* athos_interrupt_init(); */

	DBG_MODULE_INSTALL();
  9060ca:	da40      	mov.n	a10, a4
	*((volatile uint32_t*)WATCH_DOG_MAGIC_PATTERN_ADDR)=WDT_MAGIC_PATTERN;
  9060cc:	0c0200        	memw
  9060cf:	9630      	s32i.n	a6, a3, 0
	DBG_MODULE_INSTALL();
  9060d1:	580570        	call8	907694 <cmnos_dbg_module_install>
	SFLASH_MODULE_INSTALL();
	A_SFLASH_INIT();
#endif
#endif

	HIF_MODULE_INSTALL();
  9060d4:	1a68c0        	l32r	a10, 8e03d4 <_bss_end+0x3cd4c4>
  9060d7:	5b6d1c        	call8	8e1548 <generic_hif_module_install>
	HTC_MODULE_INSTALL();
  9060da:	1a68c1        	l32r	a10, 8e03e0 <_bss_end+0x3cd4d0>
  9060dd:	580ef9        	call8	909cc4 <htc_module_install>
	WMI_SERVICE_MODULE_INSTALL();
  9060e0:	1a68c2        	l32r	a10, 8e03e8 <_bss_end+0x3cd4d8>
  9060e3:	581110        	call8	90a524 <WMI_service_module_install>
	BUF_POOL_MODULE_INSTALL();
  9060e6:	1a68c3        	l32r	a10, 8e03f4 <_bss_end+0x3cd4e4>
  9060e9:	58032c        	call8	906d9c <buf_pool_module_install>
	VBUF_MODULE_INSTALL();
  9060ec:	1a68c4        	l32r	a10, 8e03fc <_bss_end+0x3cd4ec>
  9060ef:	5b7b9c        	call8	8e4f60 <vbuf_module_install>
	VDESC_MODULE_INSTALL();
  9060f2:	1a68c5        	l32r	a10, 8e0408 <_bss_end+0x3cd4f8>
  9060f5:	5b7bc6        	call8	8e5010 <vdesc_module_install>

	//init each module, should be put together..
	A_PRINTF("ALLOCRAM start 0x%x size %d\n", ALLOCRAM_START, ALLOCRAM_SIZE);
  9060f8:	1468c6        	l32r	a4, 8e0410 <_bss_end+0x3cd500>
  9060fb:	1668c7        	l32r	a6, 8e0418 <_bss_end+0x3cd508>
  9060fe:	282212        	l32i	a8, a2, 72
  906101:	b443      	addi.n	a3, a4, 4
  906103:	04670c        	sub	a7, a6, a4
  906106:	1a68c8        	l32r	a10, 8e0428 <_bss_end+0x3cd518>
  906109:	dc70      	mov.n	a12, a7
  90610b:	db30      	mov.n	a11, a3
  90610d:	0b8000        	callx8	a8
	A_ALLOCRAM_INIT(ALLOCRAM_START, ALLOCRAM_SIZE);
  906110:	c78c      	movi.n	a8, -4
  906112:	78410b        	beq	a4, a8, 906121 <app_start+0x121>
  906115:	da30      	mov.n	a10, a3
  906117:	1b68b0        	l32r	a11, 8e03d8 <_bss_end+0x3cd4c8>
  90611a:	764906        	bne	a4, a6, 906124 <app_start+0x124>
  90611d:	600005        	j	906126 <app_start+0x126>
  906120:	001a68        	excw
  906123:	afdb      	add.n	a11, a13, a15
  906125:	702322        	bltu	a2, a0, 90614b <app_start+0x14b>
  906128:	510b30        	call0	948dec <_iram0_text_end+0x39bdb>
  90612b:	006550        	extui	a5, a0, 22, 1

	if( hostif == HIF_USB ) {
  90612e:	c513      	movi.n	a1, 83
		_indir_tbl.hif._get_max_msg_len = _HIFusb_get_max_msg_len_patch;
  906130:	68c923        	beqi	a12, 10, 906157 <app_start+0x157>
  906133:	267913        	l16si	a6, a7, 38
		_indir_tbl.cmnos.usb._usb_reg_out = usb_reg_out_patch;
  906136:	68ca23        	beqi	a12, 12, 90615d <app_start+0x15d>
  906139:	263313        	excw
		_indir_tbl.hif._isr_handler = _HIFusb_isr_handler_patch;
  90613c:	68cb23        	beqi	a12, 16, 906163 <app_start+0x163>
  90613f:	267b13        	l32ai	a6, a7, 76
		_indir_tbl.cmnos.usb._usb_set_configuration = bSet_configuration_patch;
  906142:	68cc23        	beqi	a12, 32, 906169 <app_start+0x169>
  906145:	262613        	s32i	a6, a2, 76
		_indir_tbl.cmnos.usb._usb_status_in = usb_status_in_patch;
  906148:	68cd23        	beqi	a12, 64, 90616f <app_start+0x16f>
  90614b:	263413        	s8i	a6, a3, 19
		_indir_tbl.cmnos.usb._usb_get_descriptor = bGet_descriptor_patch;
  90614e:	68ce23        	beqi	a12, 128, 906175 <app_start+0x175>
  906151:	263013        	l8ui	a6, a3, 19
		_indir_tbl.cmnos.usb._usb_standard_cmd = bStandardCommand_patch;
  906154:	68cf23        	beqi	a12, 0x100, 90617b <app_start+0x17b>
  906157:	262713        	excw
		_indir_tbl.usbfifo_api._init = _fw_usbfifo_init;
  90615a:	68d023        	beqi	a13, -1, 906181 <app_start+0x181>
  90615d:	269613        	s32i	a6, a9, 76

#if defined(PROJECT_MAGPIE)
		_indir_tbl.cmnos.usb._usb_power_off = zfTurnOffPower_patch;
  906160:	68d123        	beqi	a13, 1, 906187 <app_start+0x187>
  906163:	262913        	l16si	a6, a2, 38
		_indir_tbl.cmnos.usb._usb_reset_fifo = zfResetUSBFIFO_patch;
  906166:	68d223        	beqi	a13, 2, 90618d <app_start+0x18d>
  906169:	262a13        	movi	a6, 0x213
		_indir_tbl.hif._start = _HIFusb_start_patch;
  90616c:	68d323        	beqi	a13, 3, 906193 <app_start+0x193>
  90616f:	267413        	s8i	a6, a7, 19
		_indir_tbl.htc._HTC_MsgRecvHandler = HTCMsgRecvHandler_patch;
  906172:	68d423        	beqi	a13, 4, 906199 <app_start+0x199>
  906175:	268613        	s32i	a6, a8, 76
		_indir_tbl.htc._HTC_ControlSvcProcessMsg = HTCControlSvcProcessMsg_patch;
  906178:	68d523        	beqi	a13, 5, 90619f <app_start+0x19f>
  90617b:	268813        	excw
	return *(const volatile uint8_t *) addr;
  90617e:	68d623        	beqi	a13, 6, 9061a5 <app_start+0x1a5>
  906181:	300079        	excw
#endif

		if (!(ioread8_usb(ZM_MAIN_CTRL_OFFSET) & BIT6))
  906184:	3f0258        	excw
			vUSBFIFO_EP6Cfg_FS_patch();
  906187:	05e113        	srai	a1, a5, 30
	return *(const volatile uint32_t *) addr;
  90618a:	68d724        	beqi	a13, 7, 9061b2 <app_start+0x1b2>

#ifdef FUSION_USB_ENABLE_TX_STREAM
		// For K2, enable tx stream mode
		A_PRINTF("Enable Tx Stream mode: 0x%x\r\n",
  90618d:	22120c        	l32i	a2, a1, 48
  906190:	02008b        	excw
  906193:	301a68        	excw
  906196:	d80b      	excw
  906198:	4000da        	excw
			ioread32_usb(ZM_SOC_USB_MODE_CTRL_OFFSET));

		/* Patch for K2 USB STREAM mode */
		/* disable down stream DMA mode */
		io32_rmw_usb(ZM_SOC_USB_MODE_CTRL_OFFSET, BIT6, BIT0);
  90619b:	302c0a        	excw
  90619e:	01c4b0        	excw
  9061a1:	5823df        	call8	90f120 <io32_rmw>
#if SYSTEM_MODULE_HP_EP5
		io32_set_usb(ZM_SOC_USB_MODE_CTRL_OFFSET, BIT8);
  9061a4:	da30      	mov.n	a10, a3
  9061a6:	c0c0      	movi.n	a12, 0
  9061a8:	2b1a00        	movi	a11, 0x100
  9061ab:	5823dd        	call8	90f120 <io32_rmw>
#endif

#if SYSTEM_MODULE_HP_EP6
		io32_set_usb(ZM_SOC_USB_MODE_CTRL_OFFSET, BIT9);
  9061ae:	da30      	mov.n	a10, a3
  9061b0:	2c0a00        	movi	a12, 0
  9061b3:	2b2a00        	movi	a11, 0x200
  9061b6:	5823da        	call8	90f120 <io32_rmw>
#endif
		/* enable down stream DMA mode */
		io32_set_usb(ZM_SOC_USB_MODE_CTRL_OFFSET, BIT0);
  9061b9:	da30      	mov.n	a10, a3
  9061bb:	c0c0      	movi.n	a12, 0
  9061bd:	c0b1      	movi.n	a11, 1
  9061bf:	5823d8        	call8	90f120 <io32_rmw>
#endif

#ifdef FUSION_USB_ENABLE_RX_STREAM
		/* Patch for K2 USB STREAM mode */
		/* disable upstream DMA mode and enable upstream stream mode */
		io32_clr_usb(ZM_SOC_USB_MODE_CTRL_OFFSET, BIT1 | BIT3);
  9061c2:	da30      	mov.n	a10, a3
  9061c4:	c0ca      	movi.n	a12, 10
  9061c6:	2b0a00        	movi	a11, 0
  9061c9:	5823d5        	call8	90f120 <io32_rmw>

		/* K2, Set maximum IN transfer to 8K */
		io32_rmw_usb(ZM_SOC_USB_MODE_CTRL_OFFSET, 0x20, 0x30);
  9061cc:	da30      	mov.n	a10, a3
  9061ce:	c3c0      	movi.n	a12, 48
  9061d0:	2b0a20        	movi	a11, 32
  9061d3:	5823d3        	call8	90f120 <io32_rmw>

		/* enable upstream DMA mode */
		io32_set_usb(ZM_SOC_USB_MODE_CTRL_OFFSET, BIT1);
  9061d6:	da30      	mov.n	a10, a3
  9061d8:	2c0a00        	movi	a12, 0
  9061db:	c0b2      	movi.n	a11, 2
  9061dd:	5823d0        	call8	90f120 <io32_rmw>
	*(volatile uint16_t *) addr = b;
}

static inline void iowrite32(volatile uint32_t addr, const uint32_t b)
{
	*(volatile uint32_t *) addr = b;
  9061e0:	1368d9        	l32r	a3, 8e0544 <_bss_end+0x3cd634>
  9061e3:	240aa0        	movi	a4, 160
  9061e6:	0c0200        	memw
  9061e9:	9430      	s32i.n	a4, a3, 0
  9061eb:	1368da        	l32r	a3, 8e0554 <_bss_end+0x3cd644>
  9061ee:	c049      	movi.n	a4, 9
  9061f0:	0c0200        	memw
  9061f3:	9430      	s32i.n	a4, a3, 0
	return *(const volatile uint32_t *) addr;
  9061f5:	1368db        	l32r	a3, 8e0564 <_bss_end+0x3cd654>
	}
#if defined(PROJECT_MAGPIE) && !defined(ROM_VER_1_1)
	else if (hostif == HIF_PCI )
		hif_pci_patch_install(&_indir_tbl.hif);
#endif
	A_PRINTF("USB mode: 0x%x\r\n", ioread32_usb(0x100));
  9061f8:	1a68dc        	l32r	a10, 8e0568 <_bss_end+0x3cd658>
  9061fb:	0c0200        	memw
  9061fe:	8b30      	l32i.n	a11, a3, 0
  906200:	232212        	l32i	a3, a2, 72
  906203:	0b3000        	callx8	a3

	// patch the clock function
	if(1) {
		_indir_tbl.cmnos.clock._clock_init = cmnos_clock_init_patch;
  906206:	1368dd        	l32r	a3, 8e057c <_bss_end+0x3cd66c>
		_indir_tbl.cmnos.clock._delay_us = cmnos_delay_us_patch;
		_indir_tbl.cmnos.clock._clock_tick = cmnos_tick_patch;
		_indir_tbl.cmnos.clock._milliseconds = cmnos_milliseconds_patch;

		//default clock, setup initial variable, SYSTEM_FREQ=40
		A_CLOCK_INIT(SYSTEM_FREQ);
  906209:	c2a8      	movi.n	a10, 40
		_indir_tbl.cmnos.clock._clock_init = cmnos_clock_init_patch;
  90620b:	232638        	s32i	a3, a2, 224
		_indir_tbl.cmnos.clock._refclk_speed_get = cmnos_refclk_speed_get_patch;
  90620e:	1368de        	l32r	a3, 8e0588 <_bss_end+0x3cd678>
  906211:	23263d        	s32i	a3, a2, 244
		_indir_tbl.cmnos.clock._delay_us = cmnos_delay_us_patch;
  906214:	1368df        	l32r	a3, 8e0590 <_bss_end+0x3cd680>
  906217:	23263b        	s32i	a3, a2, 236
		_indir_tbl.cmnos.clock._clock_tick = cmnos_tick_patch;
  90621a:	1368e0        	l32r	a3, 8e059c <_bss_end+0x3cd68c>
  90621d:	232640        	s32i	a3, a2, 0x100
		_indir_tbl.cmnos.clock._milliseconds = cmnos_milliseconds_patch;
  906220:	1368e1        	l32r	a3, 8e05a4 <_bss_end+0x3cd694>
  906223:	23263e        	s32i	a3, a2, 248
		A_CLOCK_INIT(SYSTEM_FREQ);
  906226:	581238        	call8	90ab08 <cmnos_clock_init_patch>
	}

	Magpie_init();
  906229:	580182        	call8	906834 <Magpie_init>

#if MAGPIE_ENABLE_WLAN == 1
	io32_clr(MAGPIE_REG_RST_RESET_ADDR, BIT10 | BIT8 | BIT7 | BIT6);
  90622c:	1a68e2        	l32r	a10, 8e05b4 <_bss_end+0x3cd6a4>
  90622f:	2c5ac0        	movi	a12, 0x5c0
  906232:	2b0a00        	movi	a11, 0
  906235:	5823ba        	call8	90f120 <io32_rmw>
#if defined(PROJECT_MAGPIE)
	io32_set(MAGPIE_REG_AHB_ARB_ADDR, BIT1);
  906238:	1a68e3        	l32r	a10, 8e05c4 <_bss_end+0x3cd6b4>
  90623b:	2c0a00        	movi	a12, 0
  90623e:	2b0a02        	movi	a11, 2
  906241:	5823b7        	call8	90f120 <io32_rmw>
#endif

	wlan_pci_module_init();
  906244:	580dfe        	call8	909a40 <wlan_pci_module_init>
	wlan_pci_probe();
  906247:	580e20        	call8	909ac8 <wlan_pci_probe>
#endif


	A_PRINTF("Tgt running\n\r");
  90624a:	1a68e4        	l32r	a10, 8e05dc <_bss_end+0x3cd6cc>
  90624d:	232212        	l32i	a3, a2, 72
  906250:	0b3000        	callx8	a3

#if defined(PROJECT_MAGPIE)
	if(1) {
		A_PRINTF("======= Apply MISC Assert patch\n\r");
  906253:	1a68e5        	l32r	a10, 8e05e8 <_bss_end+0x3cd6d8>
  906256:	232212        	l32i	a3, a2, 72
  906259:	0b3000        	callx8	a3
		_assfail_ori =  _indir_tbl.cmnos.misc._assfail;
  90625c:	842a      	l32i.n	a4, a2, 40
  90625e:	1368e6        	l32r	a3, 8e05f8 <_bss_end+0x3cd6e8>
  906261:	243600        	s32i	a4, a3, 0
		_indir_tbl.cmnos.misc._assfail = exception_reset;
  906264:	1368e7        	l32r	a3, 8e0600 <_bss_end+0x3cd6f0>
  906267:	23260a        	s32i	a3, a2, 40
	}

	change_magpie_clk();
  90626a:	58001e        	call8	9062e4 <change_magpie_clk>
#endif
	wlan_task(); //never return
  90626d:	58013c        	call8	906760 <wlan_task>

Disassembly of section .text:

00906270 <io32_rmw>:
	iowrite8(addr, val);
}

static inline void io32_rmw(volatile uint32_t addr,
			    const uint32_t set, const uint32_t clr)
{
  906270:	6c1006        	entry	a1, 48
  906273:	0c0200        	memw
  906276:	9210      	s32i.n	a2, a1, 0
	uint32_t val;

	val = ioread32(addr);
  906278:	0c0200        	memw
  90627b:	8810      	l32i.n	a8, a1, 0
	return *(const volatile uint32_t *) addr;
  90627d:	0c0200        	memw
  906280:	8980      	l32i.n	a9, a8, 0
	val &= ~clr;
  906282:	c78f      	movi.n	a8, -1
  906284:	048403        	xor	a4, a8, a4
  906287:	094401        	and	a4, a4, a9
	val |= set;
	iowrite32(addr, val);
  90628a:	0c0200        	memw
  90628d:	8810      	l32i.n	a8, a1, 0
	val |= set;
  90628f:	034402        	or	a4, a4, a3
	*(volatile uint32_t *) addr = b;
  906292:	0c0200        	memw
  906295:	9480      	s32i.n	a4, a8, 0
  906297:	d10f      	retw.n
  906299:	000000        	ill

0090629c <fatal_exception_func>:

static void idle_task();

#if defined(PROJECT_MAGPIE)
void fatal_exception_func()
{
  90629c:	6c1004        	entry	a1, 32
	// patch for execption
	(void)_xtos_set_exception_handler(EXCCAUSE_UNALIGNED, AR6002_fatal_exception_handler_patch);
  90629f:	1268e8        	l32r	a2, 8e0640 <_bss_end+0x3cd730>
  9062a2:	c0a9      	movi.n	a10, 9
  9062a4:	022b02        	or	a11, a2, a2
  9062a7:	5b8028        	call8	8e6348 <_xtos_set_exception_handler>
	(void)_xtos_set_exception_handler(EXCCAUSE_LOAD_STORE_ERROR, AR6002_fatal_exception_handler_patch);
  9062aa:	db20      	mov.n	a11, a2
  9062ac:	2a0a03        	movi	a10, 3
  9062af:	5b8026        	call8	8e6348 <_xtos_set_exception_handler>
	(void)_xtos_set_exception_handler(EXCCAUSE_ILLEGAL, AR6002_fatal_exception_handler_patch);
  9062b2:	db20      	mov.n	a11, a2
  9062b4:	2a0a00        	movi	a10, 0
  9062b7:	5b8024        	call8	8e6348 <_xtos_set_exception_handler>
	(void)_xtos_set_exception_handler(EXCCAUSE_INSTR_ERROR, AR6002_fatal_exception_handler_patch);
  9062ba:	db20      	mov.n	a11, a2
  9062bc:	2a0a02        	movi	a10, 2
  9062bf:	5b8022        	call8	8e6348 <_xtos_set_exception_handler>
	(void)_xtos_set_exception_handler(EXCCAUSE_PRIVILEGED, AR6002_fatal_exception_handler_patch);
  9062c2:	db20      	mov.n	a11, a2
  9062c4:	2a0a08        	movi	a10, 8
  9062c7:	5b8020        	call8	8e6348 <_xtos_set_exception_handler>
	(void)_xtos_set_exception_handler(EXCCAUSE_INSTR_DATA_ERROR, AR6002_fatal_exception_handler_patch);
  9062ca:	db20      	mov.n	a11, a2
  9062cc:	2a0a0c        	movi	a10, 12
  9062cf:	5b801e        	call8	8e6348 <_xtos_set_exception_handler>
	(void)_xtos_set_exception_handler(EXCCAUSE_LOAD_STORE_DATA_ERROR, AR6002_fatal_exception_handler_patch);
  9062d2:	db20      	mov.n	a11, a2
  9062d4:	c0ad      	movi.n	a10, 13
  9062d6:	5b801c        	call8	8e6348 <_xtos_set_exception_handler>
	(void)_xtos_set_exception_handler(EXCCAUSE_DIVIDE_BY_ZERO, AR6002_fatal_exception_handler_patch);
  9062d9:	db20      	mov.n	a11, a2
  9062db:	c0a6      	movi.n	a10, 6
  9062dd:	5b801a        	call8	8e6348 <_xtos_set_exception_handler>
  9062e0:	d10f      	retw.n
	...

009062e4 <change_magpie_clk>:
#endif

#if defined(PROJECT_MAGPIE)
void
change_magpie_clk(void)
{
  9062e4:	6c1004        	entry	a1, 32
  9062e7:	1368e9        	l32r	a3, 8e068c <_bss_end+0x3cd77c>
  9062ea:	c121      	movi.n	a2, 17
  9062ec:	0c0200        	memw
  9062ef:	9230      	s32i.n	a2, a3, 0
	return *(const volatile uint32_t *) addr;
  9062f1:	0c0200        	memw
  9062f4:	8230      	l32i.n	a2, a3, 0
	iowrite32(0x00056004, BIT4 | BIT0);

	/* Wait for the update bit (BIT0) to get cleared */
	while (ioread32(0x00056004) & BIT0)
  9062f6:	020240        	extui	a2, a2, 0, 1
  9062f9:	652ff4        	bnez	a2, 9062f1 <change_magpie_clk+0xd>
		;

	/* Put the PLL into reset */
	io32_set(0x00050010, BIT1);
  9062fc:	1468e2        	l32r	a4, 8e0684 <_bss_end+0x3cd774>
  9062ff:	dc20      	mov.n	a12, a2
  906301:	da40      	mov.n	a10, a4
  906303:	c0b2      	movi.n	a11, 2
  906305:	5bffda        	call8	906270 <io32_rmw>
	*(volatile uint32_t *) addr = b;
  906308:	1868ea        	l32r	a8, 8e06b0 <_bss_end+0x3cd7a0>
  90630b:	293a25        	movi	a9, 0x325
	 */
	/* Setting PLL to 400MHz */
	iowrite32(0x00056000, 0x325);

	/* Pull CPU PLL out of Reset */
	io32_clr(0x00050010, BIT1);
  90630e:	db20      	mov.n	a11, a2
  906310:	da40      	mov.n	a10, a4
  906312:	0c0200        	memw
  906315:	9980      	s32i.n	a9, a8, 0
  906317:	2c0a02        	movi	a12, 2
  90631a:	5bffd5        	call8	906270 <io32_rmw>

	A_DELAY_USECS(60); // wait for stable
  90631d:	1268b5        	l32r	a2, 8e05f4 <_bss_end+0x3cd6e4>
  906320:	2a0a3c        	movi	a10, 60
  906323:	24223b        	l32i	a4, a2, 236
  906326:	0b4000        	callx8	a4
  906329:	1468eb        	l32r	a4, 8e06d8 <_bss_end+0x3cd7c8>
  90632c:	0c0200        	memw
  90632f:	9430      	s32i.n	a4, a3, 0
	return *(const volatile uint32_t *) addr;
  906331:	1468e9        	l32r	a4, 8e06d8 <_bss_end+0x3cd7c8>
  906334:	0c0200        	memw
  906337:	8340      	l32i.n	a3, a4, 0
	/*
	 * AHB clk = ( CPU clk / 2 )
	 */
	iowrite32(0x00056004, 0x00001 | BIT16 | BIT8); /* set plldiv to 2 */

	while (ioread32(0x00056004) & BIT0)
  906339:	7f3ff7        	bbsi	a3, 31, 906334 <change_magpie_clk+0x50>
		;

	/* UART Setting */
	A_UART_HWINIT((100*1000*1000), 115200);
  90633c:	22221a        	l32i	a2, a2, 104
  90633f:	1b68ec        	l32r	a11, 8e06f0 <_bss_end+0x3cd7e0>
  906342:	1a68ed        	l32r	a10, 8e06f8 <_bss_end+0x3cd7e8>
  906345:	0b2000        	callx8	a2
  906348:	d10f      	retw.n
	...

0090634c <exception_reset>:

}

void exception_reset(struct register_dump_s *dump)
{
  90634c:	6c1004        	entry	a1, 32
	A_PRINTF("exception_reset \n");
  90634f:	1368b5        	l32r	a3, 8e0624 <_bss_end+0x3cd714>
  906352:	1a68ee        	l32r	a10, 8e070c <_bss_end+0x3cd7fc>
  906355:	243212        	l32i	a4, a3, 72
  906358:	0b4000        	callx8	a4

	/* phase I dump info */
	A_PRINTF("exception reset-phase 1\n");
  90635b:	1a68ef        	l32r	a10, 8e0718 <_bss_end+0x3cd808>
  90635e:	243212        	l32i	a4, a3, 72
  906361:	0b4000        	callx8	a4
	if(_assfail_ori)
  906364:	1468e6        	l32r	a4, 8e06fc <_bss_end+0x3cd7ec>
  906367:	8440      	l32i.n	a4, a4, 0
  906369:	c844      	beqz.n	a4, 906371 <exception_reset+0x25>
		_assfail_ori(dump);
  90636b:	022a02        	or	a10, a2, a2
  90636e:	0b4000        	callx8	a4

	/* phase II reset */
	A_PRINTF("exception reset-phase 2\n");
  906371:	223212        	l32i	a2, a3, 72
  906374:	1a68f0        	l32r	a10, 8e0734 <_bss_end+0x3cd824>
	*(volatile uint32_t *) addr = b;
  906377:	c040      	movi.n	a4, 0
  906379:	0b2000        	callx8	a2
  90637c:	1568b8        	l32r	a5, 8e065c <_bss_end+0x3cd74c>
  90637f:	1268ba        	l32r	a2, 8e0668 <_bss_end+0x3cd758>
	iowrite32(WATCH_DOG_MAGIC_PATTERN_ADDR, WDT_MAGIC_PATTERN);

	io32_set(MAGPIE_REG_RST_RESET_ADDR, BIT10 | BIT8 | BIT7 | BIT6);
  906382:	c0c0      	movi.n	a12, 0
  906384:	0c0200        	memw
  906387:	9250      	s32i.n	a2, a5, 0
  906389:	1268e2        	l32r	a2, 8e0714 <_bss_end+0x3cd804>
  90638c:	2b5ac0        	movi	a11, 0x5c0
  90638f:	da20      	mov.n	a10, a2
  906391:	5bffb7        	call8	906270 <io32_rmw>

	io32_set(MAGPIE_REG_AHB_ARB_ADDR, BIT1);
  906394:	1a68e3        	l32r	a10, 8e0720 <_bss_end+0x3cd810>
  906397:	2c0a00        	movi	a12, 0
  90639a:	2b0a02        	movi	a11, 2
  90639d:	5bffb4        	call8	906270 <io32_rmw>
  9063a0:	1668f1        	l32r	a6, 8e0764 <_bss_end+0x3cd854>

	iowrite32_usb(ZM_SOC_USB_DMA_RESET_OFFSET, 0x0);
	io32_set(0x50010, BIT4);
  9063a3:	dc40      	mov.n	a12, a4
  9063a5:	0c0200        	memw
  9063a8:	9460      	s32i.n	a4, a6, 0
  9063aa:	c1b0      	movi.n	a11, 16
  9063ac:	da20      	mov.n	a10, a2
  9063ae:	5bffb0        	call8	906270 <io32_rmw>
	A_DELAY_USECS(5);
  9063b1:	28323b        	l32i	a8, a3, 236
  9063b4:	c0a5      	movi.n	a10, 5
  9063b6:	0b8000        	callx8	a8
	io32_clr(0x50010, BIT4);
  9063b9:	c1c0      	movi.n	a12, 16
  9063bb:	044b02        	or	a11, a4, a4
  9063be:	022a02        	or	a10, a2, a2
  9063c1:	5bffab        	call8	906270 <io32_rmw>
	A_DELAY_USECS(5);
  9063c4:	22323b        	l32i	a2, a3, 236
  9063c7:	c0a5      	movi.n	a10, 5
  9063c9:	0b2000        	callx8	a2
  9063cc:	c021      	movi.n	a2, 1
  9063ce:	0c0200        	memw
  9063d1:	226600        	s32i	a2, a6, 0
  9063d4:	1668e9        	l32r	a6, 8e0778 <_bss_end+0x3cd868>
  9063d7:	280a11        	movi	a8, 17
  9063da:	0c0200        	memw
  9063dd:	286600        	s32i	a8, a6, 0
	iowrite32_usb(ZM_SOC_USB_DMA_RESET_OFFSET, BIT0);

	// set clock to bypass mode - 40Mhz from XTAL
	iowrite32(MAGPIE_REG_CPU_PLL_BYPASS_ADDR, BIT0 | BIT4);
	A_DELAY_USECS(100); // wait for stable
  9063e0:	26323b        	l32i	a6, a3, 236
  9063e3:	2a0a64        	movi	a10, 100
  9063e6:	0b6000        	callx8	a6
  9063e9:	1868f2        	l32r	a8, 8e07b4 <_bss_end+0x3cd8a4>
  9063ec:	1668ea        	l32r	a6, 8e0794 <_bss_end+0x3cd884>
	iowrite32(MAGPIE_REG_CPU_PLL_ADDR, BIT16);

	A_UART_HWINIT((40*1000*1000), 115200);
  9063ef:	1b68ec        	l32r	a11, 8e07a0 <_bss_end+0x3cd890>
  9063f2:	0c0200        	memw
  9063f5:	9860      	s32i.n	a8, a6, 0
  9063f7:	1a68b4        	l32r	a10, 8e06c8 <_bss_end+0x3cd7b8>
  9063fa:	26321a        	l32i	a6, a3, 104
  9063fd:	0b6000        	callx8	a6

	A_PRINTF("do TX/RX swap\n");
  906400:	1a68f3        	l32r	a10, 8e07cc <_bss_end+0x3cd8bc>
  906403:	263212        	l32i	a6, a3, 72
  906406:	0b6000        	callx8	a6

	MAGPIE_REG_USB_RX0_SWAP_DATA = 0x1;
  906409:	1668f4        	l32r	a6, 8e07dc <_bss_end+0x3cd8cc>
	MAGPIE_REG_USB_TX0_SWAP_DATA = 0x1;
	MAGPIE_REG_USB_RX1_SWAP_DATA = 0x1;
	MAGPIE_REG_USB_RX2_SWAP_DATA = 0x1;

        A_PRINTF("Cold reboot initiated.");
  90640c:	1a68f8        	l32r	a10, 8e07ec <_bss_end+0x3cd8dc>
	MAGPIE_REG_USB_RX0_SWAP_DATA = 0x1;
  90640f:	0c0200        	memw
  906412:	9260      	s32i.n	a2, a6, 0
	MAGPIE_REG_USB_TX0_SWAP_DATA = 0x1;
  906414:	1668f5        	l32r	a6, 8e07e8 <_bss_end+0x3cd8d8>
  906417:	0c0200        	memw
  90641a:	226600        	s32i	a2, a6, 0
	MAGPIE_REG_USB_RX1_SWAP_DATA = 0x1;
  90641d:	1668f6        	l32r	a6, 8e07f8 <_bss_end+0x3cd8e8>
  906420:	0c0200        	memw
  906423:	226600        	s32i	a2, a6, 0
	MAGPIE_REG_USB_RX2_SWAP_DATA = 0x1;
  906426:	1668f7        	l32r	a6, 8e0804 <_bss_end+0x3cd8f4>
  906429:	0c0200        	memw
  90642c:	226600        	s32i	a2, a6, 0
        A_PRINTF("Cold reboot initiated.");
  90642f:	223212        	l32i	a2, a3, 72
  906432:	0b2000        	callx8	a2
#if defined(PROJECT_MAGPIE)
	iowrite32(WATCH_DOG_MAGIC_PATTERN_ADDR, 0);
#elif defined(PROJECT_K2)
	iowrite32(MAGPIE_REG_RST_STATUS_ADDR, 0);
#endif /* #if defined(PROJECT_MAGPIE) */
	A_USB_JUMP_BOOT();
  906435:	22322c        	l32i	a2, a3, 176
  906438:	0c0200        	memw
  90643b:	9450      	s32i.n	a4, a5, 0
  90643d:	0b2000        	callx8	a2
  906440:	d10f      	retw.n
	...

00906444 <reset_EP4_FIFO>:
}

void reset_EP4_FIFO(void)
{
  906444:	6c1004        	entry	a1, 32
  906447:	1968f9        	l32r	a9, 8e082c <_bss_end+0x3cd91c>
	val |= set;
  90644a:	c1a0      	movi.n	a10, 16
	return *(const volatile uint8_t *) addr;
  90644c:	289000        	l8ui	a8, a9, 0
  90644f:	080847        	extui	a8, a8, 0, 8
	val |= set;
  906452:	0a8802        	or	a8, a8, a10
	*(volatile uint8_t *) addr = b;
  906455:	0c0200        	memw
  906458:	289400        	s8i	a8, a9, 0
	return *(const volatile uint8_t *) addr;
  90645b:	289000        	l8ui	a8, a9, 0
	val &= ~clr;
  90645e:	c6af      	movi.n	a10, -17
	return *(const volatile uint8_t *) addr;
  906460:	080847        	extui	a8, a8, 0, 8
	val &= ~clr;
  906463:	0a8801        	and	a8, a8, a10
	*(volatile uint8_t *) addr = b;
  906466:	0c0200        	memw
  906469:	289400        	s8i	a8, a9, 0
  90646c:	d10f      	retw.n
	...

00906470 <zfGenExceptionEvent>:
	for(i = 0; i < 100; i++) {}
	io8_clr_usb(ZM_EP4_BYTE_COUNT_HIGH_OFFSET, BIT4);
}

LOCAL void zfGenExceptionEvent(uint32_t exccause, uint32_t pc, uint32_t badvaddr)
{
  906470:	6c1004        	entry	a1, 32
	uint32_t pattern = 0x33221199;

	A_PRINTF("<Exception>Tgt Drv send an event 44332211 to Host Drv\n");
  906473:	1868b5        	l32r	a8, 8e0748 <_bss_end+0x3cd838>
  906476:	1a68fa        	l32r	a10, 8e0860 <_bss_end+0x3cd950>
  906479:	288212        	l32i	a8, a8, 72
  90647c:	0b8000        	callx8	a8
	return *(const volatile uint8_t *) addr;
  90647f:	1968fb        	l32r	a9, 8e086c <_bss_end+0x3cd95c>
	mUSB_STATUS_IN_INT_DISABLE();
  906482:	2a0ac0        	movi	a10, 192
  906485:	289000        	l8ui	a8, a9, 0
  906488:	080847        	extui	a8, a8, 0, 8
  90648b:	0a8802        	or	a8, a8, a10
	*(volatile uint8_t *) addr = b;
  90648e:	0c0200        	memw
  906491:	289400        	s8i	a8, a9, 0
	*(volatile uint32_t *) addr = b;
  906494:	1868db        	l32r	a8, 8e0800 <_bss_end+0x3cd8f0>
  906497:	c09f      	movi.n	a9, 15
  906499:	0c0200        	memw
  90649c:	9980      	s32i.n	a9, a8, 0
  90649e:	1868fc        	l32r	a8, 8e0890 <_bss_end+0x3cd980>
  9064a1:	1968fd        	l32r	a9, 8e0898 <_bss_end+0x3cd988>
	iowrite32_usb(ZM_EP3_DATA_OFFSET, pattern);
	iowrite32_usb(ZM_EP3_DATA_OFFSET, exccause);
	iowrite32_usb(ZM_EP3_DATA_OFFSET, pc);
	iowrite32_usb(ZM_EP3_DATA_OFFSET, badvaddr);

	mUSB_EP3_XFER_DONE();
  9064a4:	c0a8      	movi.n	a10, 8
  9064a6:	0c0200        	memw
  9064a9:	9980      	s32i.n	a9, a8, 0
  9064ab:	0c0200        	memw
  9064ae:	9280      	s32i.n	a2, a8, 0
  9064b0:	0c0200        	memw
  9064b3:	9380      	s32i.n	a3, a8, 0
	return *(const volatile uint8_t *) addr;
  9064b5:	1968fe        	l32r	a9, 8e08b0 <_bss_end+0x3cd9a0>
	*(volatile uint32_t *) addr = b;
  9064b8:	0c0200        	memw
  9064bb:	9480      	s32i.n	a4, a8, 0
	return *(const volatile uint8_t *) addr;
  9064bd:	289000        	l8ui	a8, a9, 0
  9064c0:	080847        	extui	a8, a8, 0, 8
  9064c3:	0a8802        	or	a8, a8, a10
	*(volatile uint8_t *) addr = b;
  9064c6:	0c0200        	memw
  9064c9:	289400        	s8i	a8, a9, 0
  9064cc:	d10f      	retw.n
	...

009064d0 <AR6002_fatal_exception_handler_patch>:
	mUSB_EP3_XFER_DONE();
}

void
AR6002_fatal_exception_handler_patch(CPU_exception_frame_t *exc_frame)
{
  9064d0:	6c1016        	entry	a1, 176
	struct register_dump_s dump;
	uint32_t  exc_cause, exc_vaddr;
	asm volatile("rsr %0,%1" : "=r" (exc_cause) : "n" (EXCCAUSE));
  9064d3:	03e830        	rsr.exccause	a3
	asm volatile("rsr %0,%1" : "=r" (exc_vaddr) : "n" (EXCVADDR));
  9064d6:	04ee30        	rsr.excvaddr	a4

	dump.exc_frame              = *exc_frame; /* structure copy */
  9064d9:	2c0a80        	movi	a12, 128
  9064dc:	022b02        	or	a11, a2, a2
  9064df:	2a1c10        	addi	a10, a1, 16
  9064e2:	5b81a0        	call8	8e6b64 <memcpy>
	dump.badvaddr               = exc_vaddr;
	dump.exc_frame.xt_exccause  = exc_cause;
	dump.pc                     = exc_frame->xt_pc;
  9064e5:	8b20      	l32i.n	a11, a2, 0
	dump.badvaddr               = exc_vaddr;
  9064e7:	dc40      	mov.n	a12, a4
	dump.exc_frame.xt_exccause  = exc_cause;
  9064e9:	da30      	mov.n	a10, a3
	dump.assline                = 0;
  9064eb:	c020      	movi.n	a2, 0
	dump.exc_frame.xt_exccause  = exc_cause;
  9064ed:	931c      	s32i.n	a3, a1, 48
	dump.pc                     = exc_frame->xt_pc;
  9064ef:	9b12      	s32i.n	a11, a1, 8
	dump.assline                = 0;
  9064f1:	9211      	s32i.n	a2, a1, 4
	dump.badvaddr               = exc_vaddr;
  9064f3:	9413      	s32i.n	a4, a1, 12

	zfGenExceptionEvent(dump.exc_frame.xt_exccause, dump.pc, dump.badvaddr);
  9064f5:	5bffde        	call8	906470 <zfGenExceptionEvent>

#if SYSTEM_MODULE_PRINT
	A_PRINTF("\nFatal exception (%d): \tpc=0x%x \n\r\tbadvaddr=0x%x \n\r\tdump area=0x%x\n",
  9064f8:	1268b5        	l32r	a2, 8e07cc <_bss_end+0x3cd8bc>
  9064fb:	8d13      	l32i.n	a13, a1, 12
  9064fd:	232212        	l32i	a3, a2, 72
  906500:	8c12      	l32i.n	a12, a1, 8
  906502:	8b1c      	l32i.n	a11, a1, 48
  906504:	1a68ff        	l32r	a10, 8e0900 <_bss_end+0x3cd9f0>
  906507:	de10      	mov.n	a14, a1
  906509:	0b3000        	callx8	a3
		 dump.exc_frame.xt_exccause, dump.pc, dump.badvaddr, &dump);
	PRINT_FAILURE_STATE();
  90650c:	0bb130        	rsr.epc1	a11
  90650f:	0cb230        	rsr.epc2	a12
  906512:	0db330        	rsr.epc3	a13
  906515:	0eb430        	rsr.epc4	a14
  906518:	1a6900        	l32r	a10, 8e0918 <_bss_end+0x3cda08>
  90651b:	232212        	l32i	a3, a2, 72
  90651e:	0b3000        	callx8	a3
  906521:	1368b1        	l32r	a3, 8e07e8 <_bss_end+0x3cd8d8>
  906524:	1a6901        	l32r	a10, 8e0928 <_bss_end+0x3cda18>
  906527:	0c0200        	memw
  90652a:	8b30      	l32i.n	a11, a3, 0
  90652c:	1368bc        	l32r	a3, 8e081c <_bss_end+0x3cd90c>
  90652f:	0c0200        	memw
  906532:	8c30      	l32i.n	a12, a3, 0
  906534:	1368b8        	l32r	a3, 8e0814 <_bss_end+0x3cd904>
  906537:	0c0200        	memw
  90653a:	8d30      	l32i.n	a13, a3, 0
  90653c:	232212        	l32i	a3, a2, 72
  90653f:	0b3000        	callx8	a3
#else
	A_PUTS("Fatal exception\n\r");
#endif
	A_ASSFAIL(&dump);
  906542:	822a      	l32i.n	a2, a2, 40
  906544:	da10      	mov.n	a10, a1
  906546:	0b2000        	callx8	a2
  906549:	63fffc        	j	906549 <AR6002_fatal_exception_handler_patch+0x79>

0090654c <zfGenWrongEpidEvent>:
{
  90654c:	6c1004        	entry	a1, 32
	A_PRINTF("<WrongEPID>Tgt Drv send an event 44332212 to Host Drv\n");
  90654f:	1868b5        	l32r	a8, 8e0824 <_bss_end+0x3cd914>
  906552:	1a6902        	l32r	a10, 8e095c <_bss_end+0x3cda4c>
  906555:	288212        	l32i	a8, a8, 72
  906558:	0b8000        	callx8	a8
	return *(const volatile uint8_t *) addr;
  90655b:	1968fb        	l32r	a9, 8e0948 <_bss_end+0x3cda38>
	mUSB_STATUS_IN_INT_DISABLE();
  90655e:	2a0ac0        	movi	a10, 192
  906561:	289000        	l8ui	a8, a9, 0
  906564:	080847        	extui	a8, a8, 0, 8
  906567:	0a8802        	or	a8, a8, a10
	*(volatile uint8_t *) addr = b;
  90656a:	0c0200        	memw
  90656d:	289400        	s8i	a8, a9, 0
	*(volatile uint32_t *) addr = b;
  906570:	1868db        	l32r	a8, 8e08dc <_bss_end+0x3cd9cc>
  906573:	c09f      	movi.n	a9, 15
  906575:	0c0200        	memw
  906578:	9980      	s32i.n	a9, a8, 0
  90657a:	1868fc        	l32r	a8, 8e096c <_bss_end+0x3cda5c>
  90657d:	196903        	l32r	a9, 8e098c <_bss_end+0x3cda7c>
	mUSB_EP3_XFER_DONE();
  906580:	c0a8      	movi.n	a10, 8
  906582:	0c0200        	memw
  906585:	9980      	s32i.n	a9, a8, 0
	return *(const volatile uint8_t *) addr;
  906587:	1968fe        	l32r	a9, 8e0980 <_bss_end+0x3cda70>
	*(volatile uint32_t *) addr = b;
  90658a:	0c0200        	memw
  90658d:	9280      	s32i.n	a2, a8, 0
	return *(const volatile uint8_t *) addr;
  90658f:	289000        	l8ui	a8, a9, 0
  906592:	080847        	extui	a8, a8, 0, 8
  906595:	0a8802        	or	a8, a8, a10
	*(volatile uint8_t *) addr = b;
  906598:	0c0200        	memw
  90659b:	289400        	s8i	a8, a9, 0
  90659e:	d10f      	retw.n

009065a0 <HTCControlSvcProcessMsg_patch>:
}

void
HTCControlSvcProcessMsg_patch(HTC_ENDPOINT_ID EndpointID, adf_nbuf_t hdr_buf,
			      adf_nbuf_t pBuffers, void *arg)
{
  9065a0:	6c1006        	entry	a1, 48
 *
 */
static inline void
adf_nbuf_peek_header(adf_nbuf_t buf, a_uint8_t **addr, a_uint32_t *len)
{
    __adf_nbuf_peek_header(buf, addr, len);
  9065a3:	da40      	mov.n	a10, a4
  9065a5:	dc10      	mov.n	a12, a1
  9065a7:	b41b      	addi.n	a11, a1, 4
  9065a9:	5801b7        	call8	906c88 <__adf_nbuf_peek_header>
	/* we assume buffers are aligned such that we can access the message
	 * parameters directly*/
	adf_nbuf_peek_header(pBuffers, &anbdata, &anblen);
	pMsg = (HTC_UNKNOWN_MSG *)anbdata;

	if (pMsg->MessageID == HTC_MSG_SETUP_COMPLETE_ID) {
  9065ac:	8a11      	l32i.n	a10, a1, 4
  9065ae:	28a000        	l8ui	a8, a10, 0
  9065b1:	088911        	slli	a9, a8, 8
  9065b4:	28a001        	l8ui	a8, a10, 1
  9065b7:	098802        	or	a8, a8, a9
  9065ba:	698407        	bnei	a8, 4, 9065c5 <HTCControlSvcProcessMsg_patch+0x25>
		htc_complete_setup = 1;
  9065bd:	186904        	l32r	a8, 8e09d0 <_bss_end+0x3cdac0>
  9065c0:	c091      	movi.n	a9, 1
  9065c2:	298400        	s8i	a9, a8, 0
	}

	HTCControlSvcProcessMsg(EndpointID, hdr_buf, pBuffers, arg);
  9065c5:	dd50      	mov.n	a13, a5
  9065c7:	dc40      	mov.n	a12, a4
  9065c9:	db30      	mov.n	a11, a3
  9065cb:	da20      	mov.n	a10, a2
  9065cd:	580ea6        	call8	90a068 <HTCControlSvcProcessMsg>
  9065d0:	d10f      	retw.n
	...

009065d4 <HTCMsgRecvHandler_patch>:
}

/* Patch callback for check the endpoint ID is correct or not */
void
HTCMsgRecvHandler_patch(adf_nbuf_t hdr_buf, adf_nbuf_t buffer, void *context)
{
  9065d4:	6c100a        	entry	a1, 80
	a_uint8_t *anbdata;
	a_uint32_t anblen;
	adf_nbuf_t tmp_nbuf;
	HTC_FRAME_HDR *pHTCHdr;

	if (hdr_buf == ADF_NBUF_NULL) {
  9065d7:	022502        	or	a5, a2, a2
  9065da:	023538        	moveqz	a5, a3, a2
  9065dd:	2b1c24        	addi	a11, a1, 36
  9065e0:	2c1c20        	addi	a12, a1, 32
  9065e3:	055a02        	or	a10, a5, a5
  9065e6:	5801a8        	call8	906c88 <__adf_nbuf_peek_header>
	} else {
		tmp_nbuf = hdr_buf;
	}

	adf_nbuf_peek_header(tmp_nbuf, &anbdata, &anblen);
	pHTCHdr = (HTC_FRAME_HDR *)anbdata;
  9065e9:	8619      	l32i.n	a6, a1, 36

	eid = pHTCHdr->EndpointID;
  9065eb:	2b6000        	l8ui	a11, a6, 0

	if ((eid != 0) && (htc_complete_setup == 0)) {
  9065ee:	64b12a        	beqz	a11, 90671c <HTCMsgRecvHandler_patch+0x148>
  9065f1:	186904        	l32r	a8, 8e0a04 <_bss_end+0x3cdaf4>
  9065f4:	288000        	l8ui	a8, a8, 0
  9065f7:	658095        	bnez	a8, 906690 <HTCMsgRecvHandler_patch+0xbc>
		A_PRINTF("\nHTC Hdr EndpointID = %d, anblen = %d\n", pHTCHdr->EndpointID, anblen);
  9065fa:	1268b5        	l32r	a2, 8e08d0 <_bss_end+0x3cd9c0>
  9065fd:	8c18      	l32i.n	a12, a1, 32
  9065ff:	232212        	l32i	a3, a2, 72
  906602:	1a6905        	l32r	a10, 8e0a18 <_bss_end+0x3cdb08>
  906605:	0b3000        	callx8	a3
		A_PRINTF("HTC Hder : %2x-%2x-%2x-%2x-%2x-%2x-%2x-%2x-%2x-%2x-%2x-%2x\n",
                         *anbdata, *(anbdata+1), *(anbdata+2), *(anbdata+3),
  906608:	8819      	l32i.n	a8, a1, 36
		A_PRINTF("HTC Hder : %2x-%2x-%2x-%2x-%2x-%2x-%2x-%2x-%2x-%2x-%2x-%2x\n",
  90660a:	1a6906        	l32r	a10, 8e0a24 <_bss_end+0x3cdb14>
  90660d:	23800b        	l8ui	a3, a8, 11
  906610:	2b8000        	l8ui	a11, a8, 0
  906613:	2f8004        	l8ui	a15, a8, 4
  906616:	2e8003        	l8ui	a14, a8, 3
  906619:	2d8002        	l8ui	a13, a8, 2
  90661c:	2c8001        	l8ui	a12, a8, 1
  90661f:	9316      	s32i.n	a3, a1, 24
  906621:	23800a        	l8ui	a3, a8, 10
  906624:	9315      	s32i.n	a3, a1, 20
  906626:	238009        	l8ui	a3, a8, 9
  906629:	9314      	s32i.n	a3, a1, 16
  90662b:	238008        	l8ui	a3, a8, 8
  90662e:	9313      	s32i.n	a3, a1, 12
  906630:	238007        	l8ui	a3, a8, 7
  906633:	9312      	s32i.n	a3, a1, 8
  906635:	238006        	l8ui	a3, a8, 6
  906638:	9311      	s32i.n	a3, a1, 4
  90663a:	238005        	l8ui	a3, a8, 5
  90663d:	9310      	s32i.n	a3, a1, 0
  90663f:	232212        	l32i	a3, a2, 72
  906642:	0b3000        	callx8	a3
                         *(anbdata+4), *(anbdata+5), *(anbdata+6), *(anbdata+7),
                         *(anbdata+8), *(anbdata+9), *(anbdata+10), *(anbdata+11));
		A_PRINTF("init_htc_handle = 0x%8x\n", init_htc_handle);
  906645:	146907        	l32r	a4, 8e0a64 <_bss_end+0x3cdb54>
  906648:	232212        	l32i	a3, a2, 72
  90664b:	2b4200        	l32i	a11, a4, 0
  90664e:	1a6908        	l32r	a10, 8e0a70 <_bss_end+0x3cdb60>
  906651:	0b3000        	callx8	a3

		if (pHTCHdr->EndpointID == 1) {
  906654:	236000        	l8ui	a3, a6, 0
  906657:	693112        	bnei	a3, 1, 90666d <HTCMsgRecvHandler_patch+0x99>
			A_PRINTF("Return WMI Command buffer\n");
  90665a:	262212        	l32i	a6, a2, 72
  90665d:	1a6909        	l32r	a10, 8e0a84 <_bss_end+0x3cdb74>
  906660:	0b6000        	callx8	a6
			HTC_ReturnBuffers(init_htc_handle, 1, tmp_nbuf);
  906663:	dc50      	mov.n	a12, a5
  906665:	222282        	l32i	a2, a2, 0x208
  906668:	db30      	mov.n	a11, a3
  90666a:	60001b        	j	906689 <HTCMsgRecvHandler_patch+0xb5>
		} else if ((pHTCHdr->EndpointID == 5) || (pHTCHdr->EndpointID == 6)) {
  90666d:	233cfb        	addi	a3, a3, -5
  906670:	030347        	extui	a3, a3, 0, 8
  906673:	6e3202        	bltui	a3, 2, 906679 <HTCMsgRecvHandler_patch+0xa5>
  906676:	6000ab        	j	906725 <HTCMsgRecvHandler_patch+0x151>
			A_PRINTF("Return Data buffer\n");
  906679:	232212        	l32i	a3, a2, 72
  90667c:	1a690a        	l32r	a10, 8e0aa4 <_bss_end+0x3cdb94>
  90667f:	0b3000        	callx8	a3
			HTC_ReturnBuffers(init_htc_handle, 6, tmp_nbuf);
  906682:	222282        	l32i	a2, a2, 0x208
  906685:	dc50      	mov.n	a12, a5
  906687:	c0b6      	movi.n	a11, 6
  906689:	8a40      	l32i.n	a10, a4, 0
  90668b:	0b2000        	callx8	a2
  90668e:	d10f      	retw.n
		} else {
		}
	} else {
		if ((pHTCHdr->EndpointID < 0) || (pHTCHdr->EndpointID >= ENDPOINT_MAX)) {
  906690:	c185      	movi.n	a8, 21
  906692:	7b8302        	bltu	a8, a11, 906698 <HTCMsgRecvHandler_patch+0xc4>
  906695:	600083        	j	90671c <HTCMsgRecvHandler_patch+0x148>
			A_PRINTF("HTC Hdr EndpointID = %d, anblen = %d\n", pHTCHdr->EndpointID, anblen);
  906698:	1268b5        	l32r	a2, 8e096c <_bss_end+0x3cda5c>
  90669b:	8c18      	l32i.n	a12, a1, 32
  90669d:	232212        	l32i	a3, a2, 72
  9066a0:	1a690b        	l32r	a10, 8e0acc <_bss_end+0x3cdbbc>
  9066a3:	0b3000        	callx8	a3
			A_PRINTF("HTC Hder : %2x-%2x-%2x-%2x-%2x-%2x-%2x-%2x\n",
                                 *anbdata, *(anbdata+1), *(anbdata+2), *(anbdata+3),
  9066a6:	8819      	l32i.n	a8, a1, 36
			A_PRINTF("HTC Hder : %2x-%2x-%2x-%2x-%2x-%2x-%2x-%2x\n",
  9066a8:	1a690c        	l32r	a10, 8e0ad8 <_bss_end+0x3cdbc8>
  9066ab:	238007        	l8ui	a3, a8, 7
  9066ae:	2f8004        	l8ui	a15, a8, 4
  9066b1:	2e8003        	l8ui	a14, a8, 3
  9066b4:	2d8002        	l8ui	a13, a8, 2
  9066b7:	2c8001        	l8ui	a12, a8, 1
  9066ba:	2b8000        	l8ui	a11, a8, 0
  9066bd:	9312      	s32i.n	a3, a1, 8
  9066bf:	238006        	l8ui	a3, a8, 6
  9066c2:	231601        	s32i	a3, a1, 4
  9066c5:	238005        	l8ui	a3, a8, 5
  9066c8:	231600        	s32i	a3, a1, 0
  9066cb:	232212        	l32i	a3, a2, 72
  9066ce:	0b3000        	callx8	a3
                                 *(anbdata+4), *(anbdata+5), *(anbdata+6), *(anbdata+7));

			if (anblen > 64) {
  9066d1:	8818      	l32i.n	a8, a1, 32
  9066d3:	c490      	movi.n	a9, 64
  9066d5:	136907        	l32r	a3, 8e0af4 <_bss_end+0x3cdbe4>
  9066d8:	242212        	l32i	a4, a2, 72
  9066db:	789b1a        	bgeu	a9, a8, 9066f9 <HTCMsgRecvHandler_patch+0x125>
				A_PRINTF("EP1-Tx-Data with Wrong Htc Header Endpoint ID, WAR free this buffer\n");
  9066de:	1a690d        	l32r	a10, 8e0b14 <_bss_end+0x3cdc04>
  9066e1:	0b4000        	callx8	a4
				HTC_ReturnBuffers(init_htc_handle, 6, tmp_nbuf);
  9066e4:	8a30      	l32i.n	a10, a3, 0
  9066e6:	242282        	l32i	a4, a2, 0x208
  9066e9:	dc50      	mov.n	a12, a5
  9066eb:	c0b6      	movi.n	a11, 6
  9066ed:	0b4000        	callx8	a4
				A_PRINTF("EP1-Tx-Data > Free this buffer successfully\n");
  9066f0:	1a690e        	l32r	a10, 8e0b28 <_bss_end+0x3cdc18>
  9066f3:	222212        	l32i	a2, a2, 72
  9066f6:	60001d        	j	906717 <HTCMsgRecvHandler_patch+0x143>
			} else {
				A_PRINTF("EP4-WMI-Cmd with Wrong Htc Header Endpoint ID, WAR free this buffer\n");
  9066f9:	1a690f        	l32r	a10, 8e0b38 <_bss_end+0x3cdc28>
  9066fc:	0b4000        	callx8	a4
				zfGenWrongEpidEvent((a_uint32_t)pHTCHdr->EndpointID);
  9066ff:	2a6000        	l8ui	a10, a6, 0
  906702:	5bff92        	call8	90654c <zfGenWrongEpidEvent>
				HTC_ReturnBuffers(init_htc_handle, 1, tmp_nbuf);
  906705:	8a30      	l32i.n	a10, a3, 0
  906707:	242282        	l32i	a4, a2, 0x208
  90670a:	dc50      	mov.n	a12, a5
  90670c:	c0b1      	movi.n	a11, 1
  90670e:	0b4000        	callx8	a4
				A_PRINTF("EP4-WMI-Cmd > Free this buffer successfully\n");
  906711:	1a6910        	l32r	a10, 8e0b54 <_bss_end+0x3cdc44>
  906714:	222212        	l32i	a2, a2, 72
  906717:	0b2000        	callx8	a2
  90671a:	d10f      	retw.n
			}
		} else
			HTCMsgRecvHandler( hdr_buf, buffer, context);
  90671c:	dc40      	mov.n	a12, a4
  90671e:	db30      	mov.n	a11, a3
  906720:	da20      	mov.n	a10, a2
  906722:	580eda        	call8	90a28c <HTCMsgRecvHandler>
  906725:	d10f      	retw.n
	...

00906728 <init_mem>:
	}
}
#endif

void init_mem()
{
  906728:	6c1004        	entry	a1, 32
	int i = 0;
	uint32_t *temp = (uint32_t *)ALLOCRAM_START;

	/* clear bss segment */
	for(temp = (uint32_t *)&START_BSS; temp < (uint32_t *)&END_BSS; temp++)
  90672b:	186911        	l32r	a8, 8e0b70 <_bss_end+0x3cdc60>
  90672e:	196912        	l32r	a9, 8e0b78 <_bss_end+0x3cdc68>
		*temp = 0;
  906731:	c0a0      	movi.n	a10, 0
	for(temp = (uint32_t *)&START_BSS; temp < (uint32_t *)&END_BSS; temp++)
  906733:	600003        	j	90673a <init_mem+0x12>
		*temp = 0;
  906736:	9a80      	s32i.n	a10, a8, 0
	for(temp = (uint32_t *)&START_BSS; temp < (uint32_t *)&END_BSS; temp++)
  906738:	b488      	addi.n	a8, a8, 4
  90673a:	7983f8        	bltu	a8, a9, 906736 <init_mem+0xe>

	/* clear heap segment */
	for(i = 0; i < ((ALLOCRAM_SIZE - 4)/4); i++)
  90673d:	1a68c6        	l32r	a10, 8e0a58 <_bss_end+0x3cdb48>
  906740:	196913        	l32r	a9, 8e0b8c <_bss_end+0x3cdc7c>
  906743:	0a990c        	sub	a9, a9, a10
  906746:	092914        	srli	a9, a9, 2
  906749:	0e9911        	slli	a9, a9, 2
  90674c:	a989      	add.n	a9, a8, a9
		temp[i] = 0;
  90674e:	c0a0      	movi.n	a10, 0
  906750:	600004        	j	906758 <init_mem+0x30>
  906753:	009a80        	excw
  906756:	b488      	addi.n	a8, a8, 4
	for(i = 0; i < ((ALLOCRAM_SIZE - 4)/4); i++)
  906758:	7989f8        	bne	a8, a9, 906754 <init_mem+0x2c>
}
  90675b:	d10f      	retw.n
  90675d:	000000        	ill

00906760 <wlan_task>:
	}
	return;
}

void __noreturn wlan_task(void)
{
  906760:	6c1004        	entry	a1, 32
	loop_low=loop_high=0;
  906763:	146914        	l32r	a4, 8e0bb4 <_bss_end+0x3cdca4>
  906766:	136915        	l32r	a3, 8e0bbc <_bss_end+0x3cdcac>
  906769:	c020      	movi.n	a2, 0
  90676b:	9240      	s32i.n	a2, a4, 0
  90676d:	9230      	s32i.n	a2, a3, 0

	while(1) {
		/* update wdt timer */
		A_WDT_TASK();
  90676f:	1268b5        	l32r	a2, 8e0a44 <_bss_end+0x3cdb34>
  906772:	28225c        	l32i	a8, a2, 0x170
  906775:	0b8000        	callx8	a8

		/* UPDATE cticks - to be moved to idle_tsk, put here will be easier to read  */
		A_CLOCK_TICK();
  906778:	282240        	l32i	a8, a2, 0x100
  90677b:	0b8000        	callx8	a8

		HIF_isr_handler(NULL);
  90677e:	28227b        	l32i	a8, a2, 0x1ec
  906781:	c0a0      	movi.n	a10, 0
  906783:	0b8000        	callx8	a8

#if MAGPIE_ENABLE_WLAN == 1
		wlan_pci_isr();
  906786:	580cf8        	call8	909b68 <wlan_pci_isr>
#endif

		A_TASKLET_RUN();
  906789:	28226d        	l32i	a8, a2, 0x1b4
  90678c:	0b8000        	callx8	a8
		A_TIMER_RUN();
  90678f:	282245        	l32i	a8, a2, 0x114
  906792:	0b8000        	callx8	a8

		/* Very low priority tasks */
		if ((loop_low & 0x1fff) == 0x7)
  906795:	283200        	l32i	a8, a3, 0
  906798:	08084c        	extui	a8, a8, 0, 13
  90679b:	698705        	bnei	a8, 7, 9067a4 <wlan_task+0x44>
			A_DBG_TASK();
  90679e:	28226f        	l32i	a8, a2, 0x1bc
  9067a1:	0b8000        	callx8	a8
	if (loop_low == 0xffffffff) {
  9067a4:	8830      	l32i.n	a8, a3, 0
  9067a6:	69800c        	bnei	a8, -1, 9067b6 <wlan_task+0x56>
		loop_low = 0;
  9067a9:	c080      	movi.n	a8, 0
  9067ab:	9830      	s32i.n	a8, a3, 0
		loop_high++;
  9067ad:	8840      	l32i.n	a8, a4, 0
  9067af:	b188      	addi.n	a8, a8, 1
  9067b1:	9840      	s32i.n	a8, a4, 0
  9067b3:	63ffbb        	j	906772 <wlan_task+0x12>
		loop_low++;
  9067b6:	b188      	addi.n	a8, a8, 1
  9067b8:	9830      	s32i.n	a8, a3, 0
  9067ba:	63ffb4        	j	906772 <wlan_task+0x12>
  9067bd:	000000        	ill

009067c0 <htc_setup_comp>:
#define MAGPIE 1

#if MAGPIE==1

void htc_setup_comp(void)
{
  9067c0:	6c1004        	entry	a1, 32
  9067c3:	d10f      	retw.n
  9067c5:	000000        	ill

009067c8 <_wmi_cmd_rsp>:
	}
}

void _wmi_cmd_rsp(void *pContext, WMI_COMMAND_ID cmd_id, A_UINT16 SeqNo,
		  A_UINT8 *buffer, int Length)
{
  9067c8:	6c1006        	entry	a1, 48
	adf_nbuf_t netbuf = ADF_NBUF_NULL;
	A_UINT8 *pData;

	netbuf = WMI_AllocEvent(pContext, WMI_EVT_CLASS_CMD_REPLY, sizeof(WMI_CMD_HDR) + Length);
  9067cb:	1768b5        	l32r	a7, 8e0aa0 <_bss_end+0x3cdb90>
  9067ce:	b46c      	addi.n	a12, a6, 4
  9067d0:	28728d        	l32i	a8, a7, 0x234
  9067d3:	2b0a01        	movi	a11, 1
  9067d6:	022a02        	or	a10, a2, a2
  9067d9:	0b8000        	callx8	a8
{
  9067dc:	04044f        	extui	a4, a4, 0, 16
	netbuf = WMI_AllocEvent(pContext, WMI_EVT_CLASS_CMD_REPLY, sizeof(WMI_CMD_HDR) + Length);
  9067df:	d8a0      	mov.n	a8, a10

	if (netbuf == ADF_NBUF_NULL) {
  9067e1:	cea5      	bnez.n	a10, 90680a <_wmi_cmd_rsp+0x42>
		adf_os_print("%s: buffer allocation for event_id %x failed!\n", __FUNCTION__, cmd_id);
  9067e3:	126916        	l32r	a2, 8e0c3c <_bss_end+0x3cdd2c>
  9067e6:	247212        	l32i	a4, a7, 72
  9067e9:	1a6917        	l32r	a10, 8e0c48 <_bss_end+0x3cdd38>
  9067ec:	033c02        	or	a12, a3, a3
  9067ef:	022b02        	or	a11, a2, a2
  9067f2:	0b4000        	callx8	a4
		adf_os_assert(0);
  9067f5:	1a6918        	l32r	a10, 8e0c58 <_bss_end+0x3cdd48>
  9067f8:	237212        	l32i	a3, a7, 72
  9067fb:	db20      	mov.n	a11, a2
  9067fd:	0b3000        	callx8	a3
  906800:	126919        	l32r	a2, 8e0c64 <_bss_end+0x3cdd54>
  906803:	0c0200        	memw
  906806:	8220      	l32i.n	a2, a2, 0
  906808:	d10f      	retw.n
		return;
	}

	if (Length != 0 && buffer != NULL) {
  90680a:	c962      	beqz.n	a6, 906820 <_wmi_cmd_rsp+0x58>
  90680c:	c950      	beqz.n	a5, 906820 <_wmi_cmd_rsp+0x58>
    return __adf_nbuf_put_tail(buf, size);
  90680e:	db60      	mov.n	a11, a6
  906810:	9a10      	s32i.n	a10, a1, 0
  906812:	5800f2        	call8	906bdc <__adf_nbuf_put_tail>
}

/* move a memory buffer */
static inline void 		__adf_os_mem_copy(void *dst, const void *src, adf_os_size_t size)
{
    A_MEMCPY(dst,src,size);
  906815:	8975      	l32i.n	a9, a7, 20
  906817:	dc60      	mov.n	a12, a6
  906819:	db50      	mov.n	a11, a5
  90681b:	0b9000        	callx8	a9
  90681e:	8810      	l32i.n	a8, a1, 0
		pData = (A_UINT8 *)adf_nbuf_put_tail(netbuf, Length);
		adf_os_mem_copy(pData, buffer, Length);
	}

	WMI_SendEvent(pContext, netbuf, cmd_id, SeqNo, Length);
  906820:	25728e        	l32i	a5, a7, 0x238
  906823:	de60      	mov.n	a14, a6
  906825:	dd40      	mov.n	a13, a4
  906827:	030c4f        	extui	a12, a3, 0, 16
  90682a:	db80      	mov.n	a11, a8
  90682c:	da20      	mov.n	a10, a2
  90682e:	0b5000        	callx8	a5
  906831:	d10f      	retw.n
	...

00906834 <Magpie_init>:
}


void Magpie_init(void)
{
  906834:	6c1004        	entry	a1, 32
	A_PRINTF("[+++Magpie_init]\n\r");
  906837:	1268b5        	l32r	a2, 8e0b0c <_bss_end+0x3cdbfc>
  90683a:	1a691a        	l32r	a10, 8e0ca4 <_bss_end+0x3cdd94>
  90683d:	232212        	l32i	a3, a2, 72
  906840:	0b3000        	callx8	a3

	A_PRINTF("[+++VBUF_init(%d)]\n\r", MAX_BUF_NUM);
  906843:	13691b        	l32r	a3, 8e0cb0 <_bss_end+0x3cdda0>
  906846:	282212        	l32i	a8, a2, 72
  906849:	2b0a64        	movi	a11, 100
  90684c:	da30      	mov.n	a10, a3
  90684e:	0b8000        	callx8	a8
	VBUF_init(MAX_BUF_NUM);
  906851:	2822a0        	l32i	a8, a2, 0x280
  906854:	2a0a64        	movi	a10, 100
  906857:	0b8000        	callx8	a8

	A_PRINTF("[+++VBUF_init(%d)]\n\r", MAX_DESC_NUM);
  90685a:	282212        	l32i	a8, a2, 72
  90685d:	2b0a64        	movi	a11, 100
  906860:	da30      	mov.n	a10, a3
  906862:	0b8000        	callx8	a8
	VDESC_init(MAX_DESC_NUM);
  906865:	2222a5        	l32i	a2, a2, 0x294
  906868:	2a0a64        	movi	a10, 100
  90686b:	0b2000        	callx8	a2
  90686e:	d10f      	retw.n

00906870 <__adf_nbuf_alloc>:
 * @return newly allocated nbuf
 */
__adf_nbuf_t
__adf_nbuf_alloc(adf_os_size_t size, a_uint32_t reserve,
                 a_uint32_t align)
{
  906870:	6c1004        	entry	a1, 32
    VBUF *buf = NULL;
    VDESC *desc;

    buf = VBUF_alloc_vbuf();
  906873:	1568b5        	l32r	a5, 8e0b48 <_bss_end+0x3cdc38>
{
  906876:	d620      	mov.n	a6, a2
    buf = VBUF_alloc_vbuf();
  906878:	2a52a1        	l32i	a10, a5, 0x284
  90687b:	0ba000        	callx8	a10
  90687e:	d2a0      	mov.n	a2, a10
    if ( buf != NULL ) {
  906880:	64a028        	beqz	a10, 9068ac <__adf_nbuf_alloc+0x3c>
        desc = VDESC_alloc_vdesc();
  906883:	2a52a6        	l32i	a10, a5, 0x298
  906886:	0ba000        	callx8	a10
        desc->buf_addr = (A_UINT8 *)A_ALLOCRAM(size);
  906889:	255252        	l32i	a5, a5, 0x148
        desc = VDESC_alloc_vdesc();
  90688c:	d4a0      	mov.n	a4, a10
        desc->buf_addr = (A_UINT8 *)A_ALLOCRAM(size);
  90688e:	db60      	mov.n	a11, a6
  906890:	c0a0      	movi.n	a10, 0
  906892:	0b5000        	callx8	a5
        desc->buf_size = size;
        desc->next_desc = NULL;
  906895:	c080      	movi.n	a8, 0
        desc->buf_addr = (A_UINT8 *)A_ALLOCRAM(size);
  906897:	9a41      	s32i.n	a10, a4, 4
        desc->buf_size = size;
  906899:	264504        	s16i	a6, a4, 8
        desc->next_desc = NULL;
  90689c:	9840      	s32i.n	a8, a4, 0
        desc->data_offset = reserve;
  90689e:	234505        	s16i	a3, a4, 10
        desc->data_size = 0;
  9068a1:	284506        	s16i	a8, a4, 12
        desc->control = 0;
  9068a4:	284507        	s16i	a8, a4, 14

        buf->desc_list = desc;
  9068a7:	9420      	s32i.n	a4, a2, 0
        buf->buf_length = 0;
  9068a9:	282504        	s16i	a8, a2, 8
    }

    return buf;
}
  9068ac:	d10f      	retw.n
	...

009068b0 <__adf_nbuf_free>:
 * @param hdl
 * @param adf_nbuf
 *
 */
void __adf_nbuf_free(__adf_nbuf_t  buf)
{
  9068b0:	6c1004        	entry	a1, 32
    adf_os_assert(0);
  9068b3:	1868b5        	l32r	a8, 8e0b88 <_bss_end+0x3cdc78>
  9068b6:	1b691c        	l32r	a11, 8e0d28 <_bss_end+0x3cde18>
  9068b9:	288212        	l32i	a8, a8, 72
  9068bc:	1a691d        	l32r	a10, 8e0d30 <_bss_end+0x3cde20>
  9068bf:	0b8000        	callx8	a8
  9068c2:	186919        	l32r	a8, 8e0d28 <_bss_end+0x3cde18>
  9068c5:	0c0200        	memw
  9068c8:	8880      	l32i.n	a8, a8, 0
  9068ca:	d10f      	retw.n

009068cc <__adf_nbuf_realloc_headroom>:
 *
 * @return new nbuf
 */
__adf_nbuf_t
__adf_nbuf_realloc_headroom(__adf_nbuf_t buf, a_uint32_t headroom)
{
  9068cc:	6c1004        	entry	a1, 32
    adf_os_assert(0);
  9068cf:	1868b5        	l32r	a8, 8e0ba4 <_bss_end+0x3cdc94>
  9068d2:	1b691e        	l32r	a11, 8e0d4c <_bss_end+0x3cde3c>
  9068d5:	288212        	l32i	a8, a8, 72
  9068d8:	1a691d        	l32r	a10, 8e0d4c <_bss_end+0x3cde3c>
    return NULL;
}
  9068db:	c020      	movi.n	a2, 0
    adf_os_assert(0);
  9068dd:	0b8000        	callx8	a8
  9068e0:	186919        	l32r	a8, 8e0d44 <_bss_end+0x3cde34>
  9068e3:	0c0200        	memw
  9068e6:	8880      	l32i.n	a8, a8, 0
}
  9068e8:	d10f      	retw.n
	...

009068ec <__adf_nbuf_realloc_tailroom>:
 *
 * @return struct mbuf * (buffer with the new tailroom)
 */
__adf_nbuf_t
__adf_nbuf_realloc_tailroom(__adf_nbuf_t  buf, a_uint32_t tailroom)
{
  9068ec:	6c1004        	entry	a1, 32
    adf_os_assert(0);
  9068ef:	1868b5        	l32r	a8, 8e0bc4 <_bss_end+0x3cdcb4>
  9068f2:	1b691f        	l32r	a11, 8e0d70 <_bss_end+0x3cde60>
  9068f5:	288212        	l32i	a8, a8, 72
  9068f8:	1a691d        	l32r	a10, 8e0d6c <_bss_end+0x3cde5c>
    return NULL;
}
  9068fb:	c020      	movi.n	a2, 0
    adf_os_assert(0);
  9068fd:	0b8000        	callx8	a8
  906900:	186919        	l32r	a8, 8e0d64 <_bss_end+0x3cde54>
  906903:	0c0200        	memw
  906906:	8880      	l32i.n	a8, a8, 0
}
  906908:	d10f      	retw.n
	...

0090690c <__adf_nbuf_expand>:
 *
 * @return struct mbuf* (NULL if something goofed up)
 */
__adf_nbuf_t
__adf_nbuf_expand(__adf_nbuf_t buf, a_uint32_t headroom, a_uint32_t tailroom)
{
  90690c:	6c1004        	entry	a1, 32
    adf_os_assert(0);
  90690f:	1868b5        	l32r	a8, 8e0be4 <_bss_end+0x3cdcd4>
  906912:	1b6920        	l32r	a11, 8e0d94 <_bss_end+0x3cde84>
  906915:	288212        	l32i	a8, a8, 72
  906918:	1a691d        	l32r	a10, 8e0d8c <_bss_end+0x3cde7c>
    return NULL;
}
  90691b:	c020      	movi.n	a2, 0
    adf_os_assert(0);
  90691d:	0b8000        	callx8	a8
  906920:	186919        	l32r	a8, 8e0d84 <_bss_end+0x3cde74>
  906923:	0c0200        	memw
  906926:	8880      	l32i.n	a8, a8, 0
}
  906928:	d10f      	retw.n
	...

0090692c <__adf_nbuf_push_head>:
 * @return new data pointer ,NULL if the len is more than the
 *         space available in the head frag.
 */
a_uint8_t *
__adf_nbuf_push_head(__adf_nbuf_t buf, adf_os_size_t len)
{
  90692c:	6c1004        	entry	a1, 32
    a_uint8_t *ptr = NULL;
    VDESC *desc = buf->desc_list;
  90692f:	8920      	l32i.n	a9, a2, 0

    desc->data_offset -= len;
  906931:	03034f        	extui	a3, a3, 0, 16
    desc->data_size += len;
  906934:	2a9106        	l16ui	a10, a9, 12
    desc->data_offset -= len;
  906937:	289105        	l16ui	a8, a9, 10
    desc->data_size += len;
  90693a:	aa3a      	add.n	a10, a3, a10
  90693c:	2a9506        	s16i	a10, a9, 12
    desc->data_offset -= len;
  90693f:	03880c        	sub	a8, a8, a3
    buf->buf_length += len;
  906942:	2a2104        	l16ui	a10, a2, 8
    desc->data_offset -= len;
  906945:	08084f        	extui	a8, a8, 0, 16
  906948:	289505        	s16i	a8, a9, 10
    buf->buf_length += len;
  90694b:	aa33      	add.n	a3, a3, a10
  90694d:	232504        	s16i	a3, a2, 8
    ptr = desc->buf_addr + desc->data_offset;
  906950:	8291      	l32i.n	a2, a9, 4
    return(ptr);
}
  906952:	a822      	add.n	a2, a2, a8
  906954:	d10f      	retw.n
	...

00906958 <__adf_nbuf_pull_head>:
 *
 * @return new data pointer
 */
a_uint8_t *
__adf_nbuf_pull_head(__adf_nbuf_t buf, adf_os_size_t len)
{
  906958:	6c1004        	entry	a1, 32
    a_uint8_t *ptr = NULL;
    VDESC *desc = buf->desc_list;
  90695b:	8920      	l32i.n	a9, a2, 0

    desc->data_offset += len;
  90695d:	030a4f        	extui	a10, a3, 0, 16
    desc->data_size -= len;
  906960:	239106        	l16ui	a3, a9, 12
    desc->data_offset += len;
  906963:	289105        	l16ui	a8, a9, 10
    desc->data_size -= len;
  906966:	0a330c        	sub	a3, a3, a10
  906969:	239506        	s16i	a3, a9, 12
    desc->data_offset += len;
  90696c:	a8a8      	add.n	a8, a10, a8
    buf->buf_length -= len;
  90696e:	232104        	l16ui	a3, a2, 8
    desc->data_offset += len;
  906971:	08084f        	extui	a8, a8, 0, 16
  906974:	289505        	s16i	a8, a9, 10
    buf->buf_length -= len;
  906977:	0a330c        	sub	a3, a3, a10
  90697a:	232504        	s16i	a3, a2, 8
    ptr = desc->buf_addr + desc->data_offset;
  90697d:	8291      	l32i.n	a2, a9, 4

    return ptr;
}
  90697f:	a822      	add.n	a2, a2, a8
  906981:	d10f      	retw.n
	...

00906984 <__adf_nbuf_copy>:
 *
 * @return struct mbuf * (newly allocated buffer)
 */
__adf_nbuf_t
__adf_nbuf_copy(__adf_nbuf_t src)
{
  906984:	6c1004        	entry	a1, 32
    __adf_nbuf_t buf = NULL;

    adf_os_assert(src != NULL);
  906987:	cd25      	bnez.n	a2, 9069a0 <__adf_nbuf_copy+0x1c>
  906989:	1868b5        	l32r	a8, 8e0c60 <_bss_end+0x3cdd50>
  90698c:	1b6921        	l32r	a11, 8e0e10 <_bss_end+0x3cdf00>
  90698f:	288212        	l32i	a8, a8, 72
  906992:	1a691d        	l32r	a10, 8e0e08 <_bss_end+0x3cdef8>
  906995:	0b8000        	callx8	a8
  906998:	186919        	l32r	a8, 8e0dfc <_bss_end+0x3cdeec>
  90699b:	0c0200        	memw
  90699e:	8880      	l32i.n	a8, a8, 0

    return buf;
}
  9069a0:	c020      	movi.n	a2, 0
  9069a2:	d10f      	retw.n

009069a4 <__adf_nbuf_unshare>:
 *
 * @return new nbuf
 */
__adf_nbuf_t
__adf_nbuf_unshare(__adf_nbuf_t  src)
{
  9069a4:	6c1004        	entry	a1, 32
    __adf_nbuf_t buf = NULL;

    adf_os_assert(src != NULL);
  9069a7:	cd25      	bnez.n	a2, 9069c0 <__adf_nbuf_unshare+0x1c>
  9069a9:	1868b5        	l32r	a8, 8e0c80 <_bss_end+0x3cdd70>
  9069ac:	1b6922        	l32r	a11, 8e0e34 <_bss_end+0x3cdf24>
  9069af:	288212        	l32i	a8, a8, 72
  9069b2:	1a691d        	l32r	a10, 8e0e28 <_bss_end+0x3cdf18>
  9069b5:	0b8000        	callx8	a8
  9069b8:	186919        	l32r	a8, 8e0e1c <_bss_end+0x3cdf0c>
  9069bb:	0c0200        	memw
  9069be:	8880      	l32i.n	a8, a8, 0

    return buf;
}
  9069c0:	c020      	movi.n	a2, 0
  9069c2:	d10f      	retw.n

009069c4 <__adf_nbuf_frag_info>:
 * @param[out] sg (scatter/gather list of all the frags)
 *
 */
void
__adf_nbuf_frag_info(__adf_nbuf_t buf, adf_os_sglist_t	*sg)
{
  9069c4:	6c1004        	entry	a1, 32
    VDESC *desc = buf->desc_list;
  9069c7:	8820      	l32i.n	a8, a2, 0
  9069c9:	b439      	addi.n	a9, a3, 4
    int count = 0;
  9069cb:	c0a0      	movi.n	a10, 0

    while( desc != NULL ) {
  9069cd:	600013        	j	9069e4 <__adf_nbuf_frag_info+0x20>
        sg->sg_segs[count].vaddr = desc->buf_addr + desc->data_offset;
  9069d0:	2c8105        	l16ui	a12, a8, 10
  9069d3:	8b81      	l32i.n	a11, a8, 4
        sg->sg_segs[count].len   = desc->data_size;

        count++;
  9069d5:	b1aa      	addi.n	a10, a10, 1
        sg->sg_segs[count].vaddr = desc->buf_addr + desc->data_offset;
  9069d7:	acbb      	add.n	a11, a11, a12
  9069d9:	9b90      	s32i.n	a11, a9, 0
        sg->sg_segs[count].len   = desc->data_size;
  9069db:	2b8106        	l16ui	a11, a8, 12
        desc = desc->next_desc;
  9069de:	8880      	l32i.n	a8, a8, 0
        sg->sg_segs[count].len   = desc->data_size;
  9069e0:	9b91      	s32i.n	a11, a9, 4
  9069e2:	b899      	addi.n	a9, a9, 8
    while( desc != NULL ) {
  9069e4:	658fe8        	bnez	a8, 9069d0 <__adf_nbuf_frag_info+0xc>
    }

    sg->nsegs = count;
  9069e7:	9a30      	s32i.n	a10, a3, 0
  9069e9:	d10f      	retw.n
	...

009069ec <__adf_nbuf_get_priv>:
 *
 * @return uint8_t* ( pointer to the data )
 */
a_uint8_t *
__adf_nbuf_get_priv(__adf_nbuf_t buf)
{
  9069ec:	6c1004        	entry	a1, 32
    adf_os_assert(buf != NULL);
  9069ef:	cd25      	bnez.n	a2, 906a08 <__adf_nbuf_get_priv+0x1c>
  9069f1:	1868b5        	l32r	a8, 8e0cc8 <_bss_end+0x3cddb8>
  9069f4:	1b6923        	l32r	a11, 8e0e80 <_bss_end+0x3cdf70>
  9069f7:	288212        	l32i	a8, a8, 72
  9069fa:	1a691d        	l32r	a10, 8e0e70 <_bss_end+0x3cdf60>
  9069fd:	0b8000        	callx8	a8
  906a00:	186919        	l32r	a8, 8e0e64 <_bss_end+0x3cdf54>
  906a03:	0c0200        	memw
  906a06:	8880      	l32i.n	a8, a8, 0

    return buf->ctx;
}
  906a08:	bc22      	addi.n	a2, a2, 12
  906a0a:	d10f      	retw.n

00906a0c <__adf_nbuf_queue_add>:
 *
 */
void
__adf_nbuf_queue_add(__adf_nbuf_qhead_t  *qhead,
                     __adf_nbuf_t  buf)
{
  906a0c:	6c1004        	entry	a1, 32
    qhead->qlen++;
  906a0f:	8822      	l32i.n	a8, a2, 8
  906a11:	b188      	addi.n	a8, a8, 1
  906a13:	9822      	s32i.n	a8, a2, 8

    buf->next_buf = NULL;
  906a15:	c080      	movi.n	a8, 0
  906a17:	9831      	s32i.n	a8, a3, 4

    if (qhead->head == NULL) {
  906a19:	8820      	l32i.n	a8, a2, 0
  906a1b:	cc83      	bnez.n	a8, 906a22 <__adf_nbuf_queue_add+0x16>
        qhead->head = buf;
  906a1d:	9320      	s32i.n	a3, a2, 0
  906a1f:	600003        	j	906a26 <__adf_nbuf_queue_add+0x1a>
    }
    else {
        qhead->tail->next_buf = buf;
  906a22:	8821      	l32i.n	a8, a2, 4
  906a24:	9381      	s32i.n	a3, a8, 4
    }
    qhead->tail = buf;
  906a26:	9321      	s32i.n	a3, a2, 4
  906a28:	d10f      	retw.n
	...

00906a2c <__adf_nbuf_queue_remove>:
 *
 * @return the nbuf
 */
__adf_nbuf_t
__adf_nbuf_queue_remove(__adf_nbuf_qhead_t *qhead)
{
  906a2c:	6c1004        	entry	a1, 32
  906a2f:	d820      	mov.n	a8, a2
    __adf_nbuf_t  b0 = NULL;

    if (qhead->head) {
  906a31:	8220      	l32i.n	a2, a2, 0
  906a33:	c929      	beqz.n	a2, 906a50 <__adf_nbuf_queue_remove+0x24>
        qhead->qlen--;
  906a35:	8982      	l32i.n	a9, a8, 8
        b0 = qhead->head;
        if ( qhead->head == qhead->tail ) {
  906a37:	8a81      	l32i.n	a10, a8, 4
        qhead->qlen--;
  906a39:	b099      	addi.n	a9, a9, -1
  906a3b:	9982      	s32i.n	a9, a8, 8
  906a3d:	c090      	movi.n	a9, 0
        if ( qhead->head == qhead->tail ) {
  906a3f:	7a2907        	bne	a2, a10, 906a4a <__adf_nbuf_queue_remove+0x1e>
            qhead->head = NULL;
  906a42:	9980      	s32i.n	a9, a8, 0
            qhead->tail = NULL;
  906a44:	9981      	s32i.n	a9, a8, 4
  906a46:	600004        	j	906a4e <__adf_nbuf_queue_remove+0x22>
  906a49:	008a21        	excw
        } else {
            qhead->head = qhead->head->next_buf;
  906a4c:	9a80      	s32i.n	a10, a8, 0
        }

        b0->next_buf = NULL;
  906a4e:	9921      	s32i.n	a9, a2, 4
    }
	return b0;
}
  906a50:	d10f      	retw.n
	...

00906a54 <__adf_nbuf_dmamap_create>:
 *
 * @return a_status_t
 */
a_status_t
__adf_nbuf_dmamap_create(__adf_os_device_t osdev, __adf_os_dma_map_t *dmap)
{
  906a54:	6c1004        	entry	a1, 32
    a_status_t retval = A_STATUS_OK;

    (*dmap) = A_ALLOCRAM(sizeof(struct __adf_dma_map));
  906a57:	1268b5        	l32r	a2, 8e0d2c <_bss_end+0x3cde1c>
  906a5a:	c0bc      	movi.n	a11, 12
  906a5c:	222252        	l32i	a2, a2, 0x148
  906a5f:	c0a0      	movi.n	a10, 0
  906a61:	0b2000        	callx8	a2
  906a64:	9a30      	s32i.n	a10, a3, 0
    if(*dmap == NULL)
        return A_STATUS_ENOMEM;
  906a66:	c023      	movi.n	a2, 3
    if(*dmap == NULL)
  906a68:	c8a2      	beqz.n	a10, 906a6e <__adf_nbuf_dmamap_create+0x1a>

    (*dmap)->buf = NULL;
  906a6a:	c020      	movi.n	a2, 0
  906a6c:	92a0      	s32i.n	a2, a10, 0
    return retval;
}
  906a6e:	d10f      	retw.n

00906a70 <__adf_nbuf_map>:


a_status_t
__adf_nbuf_map(__adf_os_device_t osdev, __adf_os_dma_map_t bmap,
                          __adf_nbuf_t buf, adf_os_dma_dir_t dir)
{
  906a70:	6c1004        	entry	a1, 32
    bmap->buf = buf;
  906a73:	9430      	s32i.n	a4, a3, 0

    return A_STATUS_OK;
}
  906a75:	c020      	movi.n	a2, 0
  906a77:	d10f      	retw.n
  906a79:	000000        	ill

00906a7c <__adf_nbuf_unmap>:

void
__adf_nbuf_unmap(__adf_os_device_t osdev, __adf_os_dma_map_t bmap,
                            adf_os_dma_dir_t dir)
{
  906a7c:	6c1004        	entry	a1, 32
    bmap->buf = NULL;
  906a7f:	c080      	movi.n	a8, 0
  906a81:	9830      	s32i.n	a8, a3, 0
  906a83:	d10f      	retw.n
  906a85:	000000        	ill

00906a88 <__adf_nbuf_dmamap_destroy>:
  906a88:	6c1004        	entry	a1, 32
  906a8b:	d10f      	retw.n
  906a8d:	000000        	ill

00906a90 <__adf_nbuf_dmamap_info>:
 * @param[in]  bmap
 * @param[out] sg (map_info ptr)
 */
void
__adf_nbuf_dmamap_info(__adf_os_dma_map_t bmap, adf_os_dmamap_info_t *sg)
{
  906a90:	6c1004        	entry	a1, 32
    VDESC *desc = bmap->buf->desc_list;
  906a93:	8820      	l32i.n	a8, a2, 0
  906a95:	b439      	addi.n	a9, a3, 4
  906a97:	8880      	l32i.n	a8, a8, 0
    int count = 0;
  906a99:	c0a0      	movi.n	a10, 0

    while( desc != NULL ) {
  906a9b:	600015        	j	906ab4 <__adf_nbuf_dmamap_info+0x24>
  906a9e:	00002c        	excw
        sg->dma_segs[count].paddr = (adf_os_dma_addr_t)(desc->buf_addr + desc->data_offset);
  906aa1:	8105      	l32i.n	a1, a0, 20
  906aa3:	8b81      	l32i.n	a11, a8, 4
        sg->dma_segs[count].len   = desc->data_size;

        count++;
  906aa5:	b1aa      	addi.n	a10, a10, 1
        sg->dma_segs[count].paddr = (adf_os_dma_addr_t)(desc->buf_addr + desc->data_offset);
  906aa7:	acbb      	add.n	a11, a11, a12
  906aa9:	9b90      	s32i.n	a11, a9, 0
        sg->dma_segs[count].len   = desc->data_size;
  906aab:	2b8106        	l16ui	a11, a8, 12
        desc = desc->next_desc;
  906aae:	8880      	l32i.n	a8, a8, 0
        sg->dma_segs[count].len   = desc->data_size;
  906ab0:	9b91      	s32i.n	a11, a9, 4
  906ab2:	b899      	addi.n	a9, a9, 8
    while( desc != NULL ) {
  906ab4:	658fe8        	bnez	a8, 906aa0 <__adf_nbuf_dmamap_info+0x10>
    }

    sg->nsegs = count;
  906ab7:	9a30      	s32i.n	a10, a3, 0
  906ab9:	d10f      	retw.n
	...

00906abc <__adf_nbuf_set_rx_cksum>:
  906abc:	6c1004        	entry	a1, 32
  906abf:	d10f      	retw.n
  906ac1:	000000        	ill

00906ac4 <__adf_nbuf_get_vlan_info>:
}

a_status_t
__adf_nbuf_get_vlan_info(adf_net_handle_t hdl, __adf_nbuf_t buf,
                         adf_net_vlanhdr_t *vlan)
{
  906ac4:	6c1004        	entry	a1, 32
    return A_STATUS_OK;
}
  906ac7:	c020      	movi.n	a2, 0
  906ac9:	d10f      	retw.n
	...

00906acc <__adf_nbuf_create_frm_frag>:

__adf_nbuf_t
__adf_nbuf_create_frm_frag(__adf_nbuf_queue_t *qhead)
{
  906acc:	6c1006        	entry	a1, 48
    VBUF *buf_tmp, *buf_head = NULL;
    VDESC *vdesc_prev = NULL, *vdesc_tmp = NULL;
    a_uint32_t cnt = 0, len = __adf_nbuf_queue_len(qhead);
    a_uint16_t total_len = 0;

    buf_head = VBUF_alloc_vbuf();
  906acf:	1468b5        	l32r	a4, 8e0da4 <_bss_end+0x3cde94>
{
  906ad2:	d520      	mov.n	a5, a2
    buf_head = VBUF_alloc_vbuf();
  906ad4:	2a42a1        	l32i	a10, a4, 0x284
 *
 */
a_uint32_t
__adf_nbuf_queue_len(__adf_nbuf_qhead_t *qhead)
{
    return qhead->qlen;
  906ad7:	8222      	l32i.n	a2, a2, 8
  906ad9:	9210      	s32i.n	a2, a1, 0
    buf_head = VBUF_alloc_vbuf();
  906adb:	0ba000        	callx8	a10
  906ade:	d2a0      	mov.n	a2, a10
 * @return (NULL if the Q is empty)
 */
__adf_nbuf_t
__adf_nbuf_queue_first(__adf_nbuf_queue_t *qhead)
{
    return qhead->head;
  906ae0:	8350      	l32i.n	a3, a5, 0
    __adf_os_assert(buf_head);
  906ae2:	cda2      	bnez.n	a10, 906af8 <__adf_nbuf_create_frm_frag+0x2c>
  906ae4:	274212        	l32i	a7, a4, 72
  906ae7:	1b6924        	l32r	a11, 8e0f78 <_bss_end+0x3ce068>
  906aea:	1a691d        	l32r	a10, 8e0f60 <_bss_end+0x3ce050>
  906aed:	0b7000        	callx8	a7
  906af0:	176919        	l32r	a7, 8e0f54 <_bss_end+0x3ce044>
  906af3:	0c0200        	memw
  906af6:	8770      	l32i.n	a7, a7, 0
    __adf_os_assert(buf_tmp);
  906af8:	cd32      	bnez.n	a3, 906b0e <__adf_nbuf_create_frm_frag+0x42>
  906afa:	274212        	l32i	a7, a4, 72
  906afd:	1b6924        	l32r	a11, 8e0f90 <_bss_end+0x3ce080>
  906b00:	1a691d        	l32r	a10, 8e0f74 <_bss_end+0x3ce064>
  906b03:	0b7000        	callx8	a7
  906b06:	176919        	l32r	a7, 8e0f6c <_bss_end+0x3ce05c>
  906b09:	0c0200        	memw
  906b0c:	8770      	l32i.n	a7, a7, 0
    buf_head->desc_list = buf_tmp->desc_list;
  906b0e:	8330      	l32i.n	a3, a3, 0
  906b10:	9320      	s32i.n	a3, a2, 0
    a_uint16_t total_len = 0;
  906b12:	c030      	movi.n	a3, 0
    a_uint32_t cnt = 0, len = __adf_nbuf_queue_len(qhead);
  906b14:	d630      	mov.n	a6, a3
    VDESC *vdesc_prev = NULL, *vdesc_tmp = NULL;
  906b16:	d730      	mov.n	a7, a3
    while ((buf_tmp = __adf_nbuf_queue_remove(qhead)) != NULL) {
  906b18:	600024        	j	906b40 <__adf_nbuf_create_frm_frag+0x74>
  906b1b:	000028        	mull	a0, a0, a0
        total_len += buf_tmp->buf_length;
  906b1e:	a104      	add.n	a4, a0, a1
        cnt++;
  906b20:	b166      	addi.n	a6, a6, 1
        total_len += buf_tmp->buf_length;
  906b22:	a833      	add.n	a3, a3, a8
  906b24:	03034f        	extui	a3, a3, 0, 16
  906b27:	88a0      	l32i.n	a8, a10, 0
        if (vdesc_prev) {
  906b29:	c871      	beqz.n	a7, 906b2e <__adf_nbuf_create_frm_frag+0x62>
            vdesc_prev->next_desc = buf_tmp->desc_list;
  906b2b:	287600        	s32i	a8, a7, 0
  906b2e:	d780      	mov.n	a7, a8
        while (vdesc_tmp->next_desc) {
  906b30:	8880      	l32i.n	a8, a8, 0
  906b32:	658ff8        	bnez	a8, 906b2e <__adf_nbuf_create_frm_frag+0x62>
        buf_tmp->desc_list = NULL;
  906b35:	98a0      	s32i.n	a8, a10, 0
        buf_tmp->buf_length = 0;
  906b37:	28a504        	s16i	a8, a10, 8
        VBUF_free_vbuf(buf_tmp);
  906b3a:	2842a3        	l32i	a8, a4, 0x28c
  906b3d:	0b8000        	callx8	a8
    while ((buf_tmp = __adf_nbuf_queue_remove(qhead)) != NULL) {
  906b40:	da50      	mov.n	a10, a5
  906b42:	5bffba        	call8	906a2c <__adf_nbuf_queue_remove>
  906b45:	65afd4        	bnez	a10, 906b1d <__adf_nbuf_create_frm_frag+0x51>
    if (cnt != len) {
  906b48:	8510      	l32i.n	a5, a1, 0
  906b4a:	756113        	beq	a6, a5, 906b61 <__adf_nbuf_create_frm_frag+0x95>
        adf_os_assert(0);
  906b4d:	244212        	l32i	a4, a4, 72
  906b50:	1b6924        	l32r	a11, 8e0fe0 <_bss_end+0x3ce0d0>
  906b53:	1a691d        	l32r	a10, 8e0fc8 <_bss_end+0x3ce0b8>
  906b56:	0b4000        	callx8	a4
  906b59:	146919        	l32r	a4, 8e0fc0 <_bss_end+0x3ce0b0>
  906b5c:	0c0200        	memw
  906b5f:	8440      	l32i.n	a4, a4, 0
    buf_head->buf_length = total_len;
  906b61:	232504        	s16i	a3, a2, 8
}
  906b64:	d10f      	retw.n
	...

00906b68 <__adf_nbuf_split_to_frag>:
{
  906b68:	6c1004        	entry	a1, 32
    qhead->qlen = 0;
  906b6b:	c040      	movi.n	a4, 0
  906b6d:	9432      	s32i.n	a4, a3, 8
    qhead->head = NULL;
  906b6f:	9430      	s32i.n	a4, a3, 0
    qhead->tail = NULL;
  906b71:	9431      	s32i.n	a4, a3, 4
  906b73:	1668b5        	l32r	a6, 8e0e48 <_bss_end+0x3cdf38>
    desc_tmp = buf->desc_list;
  906b76:	8420      	l32i.n	a4, a2, 0
    while (desc_tmp /*&& desc_tmp->buf_addr*/) {
  906b78:	60003a        	j	906bb6 <__adf_nbuf_split_to_frag+0x4e>
  906b7b:	00002a        	muluh	a0, a0, a0
        buf_tmp = VBUF_alloc_vbuf();
  906b7e:	62a10b        	j	8f0c8d <memset+0x9e45>
  906b81:	a000      	add.n	a0, a0, a0
  906b83:	d5a0      	mov.n	a5, a10
        __adf_os_assert(buf_tmp);
  906b85:	65a014        	bnez	a10, 906b9d <__adf_nbuf_split_to_frag+0x35>
  906b88:	276212        	l32i	a7, a6, 72
  906b8b:	1b6925        	l32r	a11, 8e1020 <_bss_end+0x3ce110>
  906b8e:	1a691d        	l32r	a10, 8e1004 <_bss_end+0x3ce0f4>
  906b91:	0b7000        	callx8	a7
  906b94:	176919        	l32r	a7, 8e0ff8 <_bss_end+0x3ce0e8>
  906b97:	0c0200        	memw
  906b9a:	277200        	l32i	a7, a7, 0
        buf_tmp->buf_length = desc_tmp->data_size;
  906b9d:	274106        	l16ui	a7, a4, 12
        buf_tmp->desc_list = desc_tmp;
  906ba0:	9450      	s32i.n	a4, a5, 0
        buf_tmp->buf_length = desc_tmp->data_size;
  906ba2:	275504        	s16i	a7, a5, 8
        buf_tmp->next_buf = NULL;
  906ba5:	c070      	movi.n	a7, 0
  906ba7:	9751      	s32i.n	a7, a5, 4
        __adf_nbuf_queue_add(qhead, buf_tmp);
  906ba9:	db50      	mov.n	a11, a5
  906bab:	da30      	mov.n	a10, a3
  906bad:	5bff97        	call8	906a0c <__adf_nbuf_queue_add>
        buf_tmp->desc_list->next_desc = NULL;
  906bb0:	8550      	l32i.n	a5, a5, 0
        desc_tmp = desc_tmp->next_desc;
  906bb2:	8440      	l32i.n	a4, a4, 0
        buf_tmp->desc_list->next_desc = NULL;
  906bb4:	9750      	s32i.n	a7, a5, 0
    while (desc_tmp /*&& desc_tmp->buf_addr*/) {
  906bb6:	654fc3        	bnez	a4, 906b7d <__adf_nbuf_split_to_frag+0x15>
    VBUF_free_vbuf(buf);
  906bb9:	2362a3        	l32i	a3, a6, 0x28c
    buf->desc_list = NULL;
  906bbc:	9420      	s32i.n	a4, a2, 0
    buf->buf_length = 0;
  906bbe:	242504        	s16i	a4, a2, 8
    VBUF_free_vbuf(buf);
  906bc1:	da20      	mov.n	a10, a2
  906bc3:	0b3000        	callx8	a3
  906bc6:	d10f      	retw.n

00906bc8 <__adf_nbuf_last>:
{
  906bc8:	6c1004        	entry	a1, 32
    VDESC *desc = buf->desc_list;
  906bcb:	8220      	l32i.n	a2, a2, 0
    while(desc->next_desc != NULL)
  906bcd:	600001        	j	906bd2 <__adf_nbuf_last+0xa>
  906bd0:	d280      	mov.n	a2, a8
  906bd2:	8820      	l32i.n	a8, a2, 0
  906bd4:	658ff8        	bnez	a8, 906bd0 <__adf_nbuf_last+0x8>
}
  906bd7:	d10f      	retw.n
  906bd9:	000000        	ill

00906bdc <__adf_nbuf_put_tail>:
{
  906bdc:	6c1004        	entry	a1, 32
    VDESC *last_desc = __adf_nbuf_last(buf);
  906bdf:	da20      	mov.n	a10, a2
  906be1:	5bfff9        	call8	906bc8 <__adf_nbuf_last>
    tail = last_desc->buf_addr + last_desc->data_offset + last_desc->data_size;
  906be4:	28a106        	l16ui	a8, a10, 12
  906be7:	29a105        	l16ui	a9, a10, 10
    last_desc->data_size += len;
  906bea:	03034f        	extui	a3, a3, 0, 16
    tail = last_desc->buf_addr + last_desc->data_offset + last_desc->data_size;
  906bed:	a899      	add.n	a9, a9, a8
    last_desc->data_size += len;
  906bef:	a388      	add.n	a8, a8, a3
  906bf1:	28a506        	s16i	a8, a10, 12
    buf->buf_length += len;
  906bf4:	282104        	l16ui	a8, a2, 8
    tail = last_desc->buf_addr + last_desc->data_offset + last_desc->data_size;
  906bf7:	8ba1      	l32i.n	a11, a10, 4
    buf->buf_length += len;
  906bf9:	a833      	add.n	a3, a3, a8
  906bfb:	232504        	s16i	a3, a2, 8
}
  906bfe:	a9b2      	add.n	a2, a11, a9
  906c00:	d10f      	retw.n
	...

00906c04 <__adf_nbuf_trim_tail>:
{
  906c04:	6c1004        	entry	a1, 32
    VDESC *last_desc = __adf_nbuf_last(buf);
  906c07:	022a02        	or	a10, a2, a2
  906c0a:	5bffef        	call8	906bc8 <__adf_nbuf_last>
  906c0d:	d4a0      	mov.n	a4, a10
    adf_os_assert(buf != NULL);
  906c0f:	cd25      	bnez.n	a2, 906c28 <__adf_nbuf_trim_tail+0x24>
  906c11:	1868b5        	l32r	a8, 8e0ee8 <_bss_end+0x3cdfd8>
  906c14:	1b6926        	l32r	a11, 8e10ac <_bss_end+0x3ce19c>
  906c17:	288212        	l32i	a8, a8, 72
  906c1a:	1a691d        	l32r	a10, 8e1090 <_bss_end+0x3ce180>
  906c1d:	0b8000        	callx8	a8
  906c20:	186919        	l32r	a8, 8e1084 <_bss_end+0x3ce174>
  906c23:	0c0200        	memw
  906c26:	8880      	l32i.n	a8, a8, 0
    last_desc->data_size -= len;
  906c28:	284106        	l16ui	a8, a4, 12
  906c2b:	03034f        	extui	a3, a3, 0, 16
  906c2e:	03880c        	sub	a8, a8, a3
  906c31:	284506        	s16i	a8, a4, 12
    buf->buf_length -= len;
  906c34:	282104        	l16ui	a8, a2, 8
  906c37:	03830c        	sub	a3, a8, a3
  906c3a:	232504        	s16i	a3, a2, 8
  906c3d:	d10f      	retw.n
	...

00906c40 <__adf_nbuf_headroom>:
{
  906c40:	6c1004        	entry	a1, 32
    return buf->desc_list->data_offset;
  906c43:	8820      	l32i.n	a8, a2, 0
}
  906c45:	228105        	l16ui	a2, a8, 10
  906c48:	d10f      	retw.n
	...

00906c4c <__adf_nbuf_tailroom>:
{
  906c4c:	6c1004        	entry	a1, 32
    VDESC *last_desc = __adf_nbuf_last(buf);
  906c4f:	da20      	mov.n	a10, a2
  906c51:	5bffdd        	call8	906bc8 <__adf_nbuf_last>
    return last_desc->buf_size - last_desc->data_offset - last_desc->data_size;
  906c54:	22a105        	l16ui	a2, a10, 10
  906c57:	28a104        	l16ui	a8, a10, 8
  906c5a:	02880c        	sub	a8, a8, a2
  906c5d:	22a106        	l16ui	a2, a10, 12
}
  906c60:	02820c        	sub	a2, a8, a2
  906c63:	d10f      	retw.n
  906c65:	000000        	ill

00906c68 <__adf_nbuf_len>:
{
  906c68:	6c1004        	entry	a1, 32
}
  906c6b:	222104        	l16ui	a2, a2, 8
  906c6e:	d10f      	retw.n

00906c70 <__adf_nbuf_clone>:
{
  906c70:	6c1004        	entry	a1, 32
}
  906c73:	c020      	movi.n	a2, 0
  906c75:	d10f      	retw.n
	...

00906c78 <__adf_nbuf_cat>:
{
  906c78:	6c1004        	entry	a1, 32
  906c7b:	d10f      	retw.n
  906c7d:	000000        	ill

00906c80 <__adf_nbuf_is_cloned>:
{
  906c80:	6c1004        	entry	a1, 32
}
  906c83:	c020      	movi.n	a2, 0
  906c85:	d10f      	retw.n
	...

00906c88 <__adf_nbuf_peek_header>:
{
  906c88:	6c1004        	entry	a1, 32
    VDESC *desc = buf->desc_list;
  906c8b:	8820      	l32i.n	a8, a2, 0
    *addr = desc->buf_addr + desc->data_offset;
  906c8d:	2a8105        	l16ui	a10, a8, 10
  906c90:	8981      	l32i.n	a9, a8, 4
    *len = desc->data_size;
  906c92:	288106        	l16ui	a8, a8, 12
    *addr = desc->buf_addr + desc->data_offset;
  906c95:	aa99      	add.n	a9, a9, a10
  906c97:	9930      	s32i.n	a9, a3, 0
    *len = desc->data_size;
  906c99:	9840      	s32i.n	a8, a4, 0
  906c9b:	d10f      	retw.n
  906c9d:	000000        	ill

00906ca0 <__adf_nbuf_queue_init>:
{
  906ca0:	6c1004        	entry	a1, 32
    qhead->qlen = 0;
  906ca3:	c080      	movi.n	a8, 0
  906ca5:	9822      	s32i.n	a8, a2, 8
    qhead->head = NULL;
  906ca7:	9820      	s32i.n	a8, a2, 0
    qhead->tail = NULL;
  906ca9:	9821      	s32i.n	a8, a2, 4
  906cab:	d10f      	retw.n
  906cad:	000000        	ill

00906cb0 <__adf_nbuf_queue_len>:
{
  906cb0:	6c1004        	entry	a1, 32
}
  906cb3:	8222      	l32i.n	a2, a2, 8
  906cb5:	d10f      	retw.n
	...

00906cb8 <__adf_nbuf_queue_first>:
{
  906cb8:	6c1004        	entry	a1, 32
}
  906cbb:	8220      	l32i.n	a2, a2, 0
  906cbd:	d10f      	retw.n
	...

00906cc0 <__adf_nbuf_queue_next>:
 *
 * @return (NULL if no packets are there)
 */
__adf_nbuf_t
__adf_nbuf_queue_next(__adf_nbuf_t  buf)
{
  906cc0:	6c1004        	entry	a1, 32
    return buf->next_buf;
}
  906cc3:	8221      	l32i.n	a2, a2, 4
  906cc5:	d10f      	retw.n
	...

00906cc8 <__adf_nbuf_is_queue_empty>:
 *
 * @return a_bool_t
 */
a_bool_t
__adf_nbuf_is_queue_empty(__adf_nbuf_qhead_t *qhead)
{
  906cc8:	6c1004        	entry	a1, 32
    return ((qhead->qlen == 0));
  906ccb:	8222      	l32i.n	a2, a2, 8
  906ccd:	c091      	movi.n	a9, 1
  906ccf:	c080      	movi.n	a8, 0
  906cd1:	029838        	moveqz	a8, a9, a2
  906cd4:	d280      	mov.n	a2, a8
}
  906cd6:	d10f      	retw.n

00906cd8 <_buf_pool_static_init>:
    pAPIs->_free_buf = _buf_pool_static_free_buf;
    pAPIs->_shutdown = _buf_pool_static_shutdown;
}

LOCAL pool_handle_t _buf_pool_static_init(adf_os_handle_t handle)
{
  906cd8:	6c1004        	entry	a1, 32
  906cdb:	c080      	movi.n	a8, 0
#if 1
    int i;

    for(i=0; i < POOL_ID_MAX; i++) {
        g_poolCtx.bufQ[i] = NULL;
  906cdd:	126927        	l32r	a2, 8e117c <_bss_end+0x3ce26c>
  906ce0:	db80      	mov.n	a11, a8
    for(i=0; i < POOL_ID_MAX; i++) {
  906ce2:	290a0a        	movi	a9, 10
  906ce5:	6d9805        	loop	a9, 906cee <_buf_pool_static_init+0x16>
        g_poolCtx.bufQ[i] = NULL;
  906ce8:	a28a      	add.n	a10, a8, a2
  906cea:	9ba0      	s32i.n	a11, a10, 0
  906cec:	b488      	addi.n	a8, a8, 4
    ctx = (BUF_POOL_STATIC_CONTEXT *)adf_os_mem_alloc(sizeof(BUF_POOL_STATIC_CONTEXT));
    ctx->NetHandle = handle;

    return ctx;
#endif
}
  906cee:	d10f      	retw.n

00906cf0 <_buf_pool_static_shutdown>:

LOCAL void _buf_pool_static_shutdown(pool_handle_t handle)
{
  906cf0:	6c1004        	entry	a1, 32
  906cf3:	d10f      	retw.n
  906cf5:	000000        	ill

00906cf8 <_buf_pool_static_create_pool>:
    // SHALL NOT BE USED in FW
}

LOCAL void _buf_pool_static_create_pool(pool_handle_t handle, BUF_POOL_ID poolId, int nItems, int nSize)
{
  906cf8:	6c1006        	entry	a1, 48
        desc->data_size = 0;

        buf->buf_length = 0;
        buf->desc_list = desc;

        if ( g_poolCtx.bufQ[poolId] == NULL ) {
  906cfb:	126927        	l32r	a2, 8e1198 <_bss_end+0x3ce288>
  906cfe:	0e3311        	slli	a3, a3, 2
{
  906d01:	d940      	mov.n	a9, a4
        buf = VBUF_alloc_vbuf();
  906d03:	1668b5        	l32r	a6, 8e0fd8 <_bss_end+0x3ce0c8>
    for ( i = 0; i < nItems; i++) {
  906d06:	c040      	movi.n	a4, 0
        if ( g_poolCtx.bufQ[poolId] == NULL ) {
  906d08:	a323      	add.n	a3, a2, a3
    for ( i = 0; i < nItems; i++) {
  906d0a:	60003c        	j	906d4a <_buf_pool_static_create_pool+0x52>
        buf = VBUF_alloc_vbuf();
  906d0d:	2a62a1        	l32i	a10, a6, 0x284
  906d10:	9910      	s32i.n	a9, a1, 0
  906d12:	0ba000        	callx8	a10
  906d15:	d2a0      	mov.n	a2, a10
        desc = VDESC_alloc_vdesc();
  906d17:	2a62a6        	l32i	a10, a6, 0x298
  906d1a:	0ba000        	callx8	a10
    return A_ALLOCRAM(size);
  906d1d:	286252        	l32i	a8, a6, 0x148
  906d20:	d7a0      	mov.n	a7, a10
  906d22:	db50      	mov.n	a11, a5
  906d24:	c0a0      	movi.n	a10, 0
  906d26:	0b8000        	callx8	a8
        desc->data_offset = 0;
  906d29:	c080      	movi.n	a8, 0
        desc->buf_addr = (A_UINT8 *)adf_os_mem_alloc(nSize);
  906d2b:	9a71      	s32i.n	a10, a7, 4
        desc->buf_size = nSize;
  906d2d:	257504        	s16i	a5, a7, 8
        desc->data_offset = 0;
  906d30:	287505        	s16i	a8, a7, 10
        desc->data_size = 0;
  906d33:	287506        	s16i	a8, a7, 12
        buf->desc_list = desc;
  906d36:	9720      	s32i.n	a7, a2, 0
        if ( g_poolCtx.bufQ[poolId] == NULL ) {
  906d38:	8730      	l32i.n	a7, a3, 0
        buf->buf_length = 0;
  906d3a:	282504        	s16i	a8, a2, 8
        if ( g_poolCtx.bufQ[poolId] == NULL ) {
  906d3d:	8910      	l32i.n	a9, a1, 0
  906d3f:	cc71      	bnez.n	a7, 906d44 <_buf_pool_static_create_pool+0x4c>
  906d41:	600001        	j	906d46 <_buf_pool_static_create_pool+0x4e>
            g_poolCtx.bufQ[poolId] = buf;
        } else {
            buf->next_buf = g_poolCtx.bufQ[poolId];
  906d44:	9721      	s32i.n	a7, a2, 4
            g_poolCtx.bufQ[poolId] = buf;
  906d46:	9230      	s32i.n	a2, a3, 0
    for ( i = 0; i < nItems; i++) {
  906d48:	b144      	addi.n	a4, a4, 1
  906d4a:	7942bf        	blt	a4, a9, 906d0d <_buf_pool_static_create_pool+0x15>
        }
    }
}
  906d4d:	d10f      	retw.n
	...

00906d50 <_buf_pool_static_alloc_buf>:

LOCAL adf_nbuf_t  _buf_pool_static_alloc_buf(pool_handle_t handle, BUF_POOL_ID poolId, int reserve)
{
  906d50:	6c1004        	entry	a1, 32
    VBUF *buf;

    buf = g_poolCtx.bufQ[poolId];
  906d53:	126927        	l32r	a2, 8e11f0 <_bss_end+0x3ce2e0>
  906d56:	0e3311        	slli	a3, a3, 2
  906d59:	a323      	add.n	a3, a2, a3
  906d5b:	8230      	l32i.n	a2, a3, 0
    if ( buf != NULL ) {
  906d5d:	c921      	beqz.n	a2, 906d72 <_buf_pool_static_alloc_buf+0x22>
        g_poolCtx.bufQ[poolId] = buf->next_buf;
  906d5f:	8821      	l32i.n	a8, a2, 4
  906d61:	9830      	s32i.n	a8, a3, 0

        buf->next_buf = NULL;
  906d63:	c030      	movi.n	a3, 0
        buf->desc_list->data_offset = reserve;
  906d65:	8820      	l32i.n	a8, a2, 0
        buf->next_buf = NULL;
  906d67:	9321      	s32i.n	a3, a2, 4
        buf->desc_list->data_offset = reserve;
  906d69:	248505        	s16i	a4, a8, 10
        buf->desc_list->data_size = 0;
  906d6c:	238506        	s16i	a3, a8, 12
        buf->buf_length = 0;
  906d6f:	232504        	s16i	a3, a2, 8
    }

    return buf;
}
  906d72:	d10f      	retw.n

00906d74 <_buf_pool_static_alloc_buf_align>:

LOCAL adf_nbuf_t  _buf_pool_static_alloc_buf_align(pool_handle_t handle, BUF_POOL_ID poolId, int reserve, int align)
{
  906d74:	6c1004        	entry	a1, 32
    return _buf_pool_static_alloc_buf(handle, poolId, reserve);
  906d77:	dc40      	mov.n	a12, a4
  906d79:	db30      	mov.n	a11, a3
  906d7b:	da20      	mov.n	a10, a2
  906d7d:	5bfff4        	call8	906d50 <_buf_pool_static_alloc_buf>
}
  906d80:	d2a0      	mov.n	a2, a10
  906d82:	d10f      	retw.n

00906d84 <_buf_pool_static_free_buf>:

LOCAL void _buf_pool_static_free_buf(pool_handle_t handle, BUF_POOL_ID poolId, adf_nbuf_t buf)
{
  906d84:	6c1004        	entry	a1, 32
    if ( g_poolCtx.bufQ[poolId] == NULL ) {
  906d87:	186927        	l32r	a8, 8e1224 <_bss_end+0x3ce314>
  906d8a:	0e3311        	slli	a3, a3, 2
  906d8d:	a383      	add.n	a3, a8, a3
  906d8f:	8830      	l32i.n	a8, a3, 0
  906d91:	cc81      	bnez.n	a8, 906d96 <_buf_pool_static_free_buf+0x12>
  906d93:	600001        	j	906d98 <_buf_pool_static_free_buf+0x14>
        g_poolCtx.bufQ[poolId] = buf;
    } else {
        buf->next_buf = g_poolCtx.bufQ[poolId];
  906d96:	9841      	s32i.n	a8, a4, 4
        g_poolCtx.bufQ[poolId] = buf;
  906d98:	9430      	s32i.n	a4, a3, 0
  906d9a:	d10f      	retw.n

00906d9c <buf_pool_module_install>:
{
  906d9c:	6c1004        	entry	a1, 32
    pAPIs->_init = _buf_pool_static_init;
  906d9f:	186928        	l32r	a8, 8e1240 <_bss_end+0x3ce330>
  906da2:	9820      	s32i.n	a8, a2, 0
    pAPIs->_create_pool = _buf_pool_static_create_pool;
  906da4:	186929        	l32r	a8, 8e1248 <_bss_end+0x3ce338>
  906da7:	9822      	s32i.n	a8, a2, 8
    pAPIs->_alloc_buf = _buf_pool_static_alloc_buf;
  906da9:	18692a        	l32r	a8, 8e1254 <_bss_end+0x3ce344>
  906dac:	9823      	s32i.n	a8, a2, 12
    pAPIs->_alloc_buf_align = _buf_pool_static_alloc_buf_align;
  906dae:	18692b        	l32r	a8, 8e125c <_bss_end+0x3ce34c>
  906db1:	9824      	s32i.n	a8, a2, 16
    pAPIs->_free_buf = _buf_pool_static_free_buf;
  906db3:	18692c        	l32r	a8, 8e1264 <_bss_end+0x3ce354>
  906db6:	9825      	s32i.n	a8, a2, 20
    pAPIs->_shutdown = _buf_pool_static_shutdown;
  906db8:	18692d        	l32r	a8, 8e126c <_bss_end+0x3ce35c>
  906dbb:	9821      	s32i.n	a8, a2, 4
  906dbd:	d10f      	retw.n
	...

00906dc0 <db_incorect_format>:
int cmd_not_found;
uint16_t gvLen;
int pressed_time;

static void db_incorect_format(void)
{
  906dc0:	6c1004        	entry	a1, 32
	A_PRINTF("Error! Incorrect format.\n\r");
  906dc3:	1868b5        	l32r	a8, 8e1098 <_bss_end+0x3ce188>
  906dc6:	1a692e        	l32r	a10, 8e1280 <_bss_end+0x3ce370>
  906dc9:	288212        	l32i	a8, a8, 72
  906dcc:	0b8000        	callx8	a8
  906dcf:	d10f      	retw.n
  906dd1:	000000        	ill

00906dd4 <zf_debug_init>:
	} while (mem1 < mem2);
	A_PRINTF("\n\r");
}

static void zf_debug_init(void)
{
  906dd4:	6c1006        	entry	a1, 48
	uint8_t ch;

	/* Purge Rx FIFO */
	while ((zm_get_char(&ch)) != 0)
  906dd7:	1268b5        	l32r	a2, 8e10ac <_bss_end+0x3ce19c>
  906dda:	282215        	l32i	a8, a2, 84
  906ddd:	da10      	mov.n	a10, a1
  906ddf:	0b8000        	callx8	a8
  906de2:	65aff4        	bnez	a10, 906dda <zf_debug_init+0x6>
	{
	}

	cmd_buf_ptr = 0;
  906de5:	18692f        	l32r	a8, 8e12a4 <_bss_end+0x3ce394>
  906de8:	9a80      	s32i.n	a10, a8, 0
	cmd_buf_full = FALSE;
  906dea:	186930        	l32r	a8, 8e12ac <_bss_end+0x3ce39c>
  906ded:	9a80      	s32i.n	a10, a8, 0
	gvLen = 0;
  906def:	186931        	l32r	a8, 8e12b4 <_bss_end+0x3ce3a4>
  906df2:	2a8500        	s16i	a10, a8, 0
	pressed_time = 0;
  906df5:	186932        	l32r	a8, 8e12c0 <_bss_end+0x3ce3b0>
  906df8:	9a80      	s32i.n	a10, a8, 0
  906dfa:	d10f      	retw.n

00906dfc <db_ascii_to_hex>:
	}
	return (int)A_STRLEN(cmd_str);
}

static int db_ascii_to_hex(char *num_str, unsigned long *hex_num)
{
  906dfc:	6c1004        	entry	a1, 32
	int i = 0;

	*hex_num = 0;
  906dff:	c080      	movi.n	a8, 0
  906e01:	9830      	s32i.n	a8, a3, 0
	while (num_str[i])
	{
		if ((num_str[i] >= '0') && (num_str[i] <= '9'))
  906e03:	c099      	movi.n	a9, 9
	while (num_str[i])
  906e05:	60004f        	j	906e58 <db_ascii_to_hex+0x5c>
		if ((num_str[i] >= '0') && (num_str[i] <= '9'))
  906e08:	2a8cd0        	addi	a10, a8, -48
  906e0b:	0a0a47        	extui	a10, a10, 0, 8
  906e0e:	7a930f        	bltu	a9, a10, 906e21 <db_ascii_to_hex+0x25>
		{
			*hex_num <<= 4;
  906e11:	8830      	l32i.n	a8, a3, 0
  906e13:	0c8811        	slli	a8, a8, 4
  906e16:	9830      	s32i.n	a8, a3, 0
			*hex_num += (num_str[i] - '0');
  906e18:	2a2000        	l8ui	a10, a2, 0
  906e1b:	288cd0        	addi	a8, a8, -48
  906e1e:	600030        	j	906e52 <db_ascii_to_hex+0x56>
		}
		else if ((num_str[i] >= 'A') && (num_str[i] <= 'F'))
  906e21:	2a8cbf        	addi	a10, a8, -65
  906e24:	0a0a47        	extui	a10, a10, 0, 8
  906e27:	6fa611        	bgeui	a10, 6, 906e3c <db_ascii_to_hex+0x40>
		{
			*hex_num <<= 4;
  906e2a:	8830      	l32i.n	a8, a3, 0
  906e2c:	0c8811        	slli	a8, a8, 4
  906e2f:	9830      	s32i.n	a8, a3, 0
			*hex_num += (num_str[i] - 'A' + 10);
  906e31:	2a2000        	l8ui	a10, a2, 0
  906e34:	288cc9        	addi	a8, a8, -55
  906e37:	600017        	j	906e52 <db_ascii_to_hex+0x56>
  906e3a:	000028        	mull	a0, a0, a0
		}
		else if ((num_str[i] >= 'a') && (num_str[i] <= 'f'))
  906e3d:	8c9f      	l32i.n	a12, a9, 60
  906e3f:	080847        	extui	a8, a8, 0, 8
  906e42:	6f861c        	bgeui	a8, 6, 906e62 <db_ascii_to_hex+0x66>
		{
			*hex_num <<= 4;
  906e45:	8830      	l32i.n	a8, a3, 0
  906e47:	0c8811        	slli	a8, a8, 4
  906e4a:	9830      	s32i.n	a8, a3, 0
			*hex_num += (num_str[i] - 'a' + 10);
  906e4c:	2a2000        	l8ui	a10, a2, 0
  906e4f:	288ca9        	addi	a8, a8, -87
  906e52:	a8a8      	add.n	a8, a10, a8
  906e54:	9830      	s32i.n	a8, a3, 0
  906e56:	b122      	addi.n	a2, a2, 1
	while (num_str[i])
  906e58:	282000        	l8ui	a8, a2, 0
  906e5b:	658fa9        	bnez	a8, 906e08 <db_ascii_to_hex+0xc>
		{
			return -1;
		}
		i++;
	}
	return 0;
  906e5e:	d280      	mov.n	a2, a8
  906e60:	d10f      	retw.n
			return -1;
  906e62:	c72f      	movi.n	a2, -1
}
  906e64:	d10f      	retw.n
	...

00906e68 <db_hex_to_ascii>:
	}
	return 0;
}

static int db_hex_to_ascii(unsigned long hex_num, char *num_str)
{
  906e68:	6c1004        	entry	a1, 32
  906e6b:	d930      	mov.n	a9, a3
  906e6d:	c1bc      	movi.n	a11, 28
	unsigned long four_bits;

	for (i=7; i>=0; i--)
	{
		four_bits = (hex_num >> i*4) & 0xf;
		if (four_bits < 10)
  906e6f:	2c0a09        	movi	a12, 9
	for (i=7; i>=0; i--)
  906e72:	2a0a08        	movi	a10, 8
  906e75:	6da81e        	loop	a10, 906e97 <db_hex_to_ascii+0x2f>
		four_bits = (hex_num >> i*4) & 0xf;
  906e78:	00b004        	ssr	a11
  906e7b:	020819        	srl	a8, a2
  906e7e:	080843        	extui	a8, a8, 0, 4
		if (four_bits < 10)
  906e81:	78c307        	bltu	a12, a8, 906e8c <db_hex_to_ascii+0x24>
		{
			num_str[7-i] = four_bits + '0';
  906e84:	288c30        	addi	a8, a8, 48
  906e87:	600004        	j	906e8f <db_hex_to_ascii+0x27>
  906e8a:	000028        	mull	a0, a0, a0
		}
		else
		{
			num_str[7-i] = four_bits - 10 + 'A';
  906e8d:	8c37      	l32i.n	a12, a3, 28
  906e8f:	289400        	s8i	a8, a9, 0
  906e92:	2bbcfc        	addi	a11, a11, -4
  906e95:	b199      	addi.n	a9, a9, 1
		}
	}
	num_str[8] = 0;
  906e97:	c080      	movi.n	a8, 0
  906e99:	283408        	s8i	a8, a3, 8
	return 0;
}
  906e9c:	c020      	movi.n	a2, 0
  906e9e:	d10f      	retw.n

00906ea0 <db_help_cmd>:

int db_help_cmd(char *cmd, char *param1, char *param2, char *param3)
{
  906ea0:	6c1004        	entry	a1, 32
	int i;

	i = 0;

	A_PRINTF("%s %s\n", ATH_DEBUGGER_VERSION_STR, ATH_COMMAND_LIST_STR);
  906ea3:	1468b5        	l32r	a4, 8e1178 <_bss_end+0x3ce268>
  906ea6:	1c6933        	l32r	a12, 8e1374 <_bss_end+0x3ce464>
  906ea9:	224212        	l32i	a2, a4, 72
  906eac:	1b6934        	l32r	a11, 8e137c <_bss_end+0x3ce46c>
  906eaf:	1a6935        	l32r	a10, 8e1384 <_bss_end+0x3ce474>
  906eb2:	0b2000        	callx8	a2
  906eb5:	136936        	l32r	a3, 8e1390 <_bss_end+0x3ce480>
	i = 0;
  906eb8:	c020      	movi.n	a2, 0

	while (command_table[i].cmd_func)
  906eba:	600010        	j	906ece <db_help_cmd+0x2e>
	{
		A_PRINTF("%s\t%s\n\r", command_table[i].cmd_str,
  906ebd:	8c31      	l32i.n	a12, a3, 4
  906ebf:	8b30      	l32i.n	a11, a3, 0
  906ec1:	284212        	l32i	a8, a4, 72
  906ec4:	1a6937        	l32r	a10, 8e13a0 <_bss_end+0x3ce490>
				       command_table[i].help_str);
		i++;
  906ec7:	b122      	addi.n	a2, a2, 1
		A_PRINTF("%s\t%s\n\r", command_table[i].cmd_str,
  906ec9:	0b8000        	callx8	a8
  906ecc:	bc33      	addi.n	a3, a3, 12
	while (command_table[i].cmd_func)
  906ece:	8832      	l32i.n	a8, a3, 8
  906ed0:	658fe9        	bnez	a8, 906ebd <db_help_cmd+0x1d>
	}
	return i;
}
  906ed3:	d10f      	retw.n
  906ed5:	000000        	ill

00906ed8 <db_cmd_starthtc>:
#endif
	return 1;
}

static int db_cmd_starthtc(char *cmd, char *param1, char *param2, char *param3)
{
  906ed8:	6c1004        	entry	a1, 32
    extern htc_handle_t htc_handle;
    HTC_Ready(htc_handle);
  906edb:	186938        	l32r	a8, 8e13bc <_bss_end+0x3ce4ac>
  906ede:	1268b5        	l32r	a2, 8e11b4 <_bss_end+0x3ce2a4>
  906ee1:	8a80      	l32i.n	a10, a8, 0
  906ee3:	222281        	l32i	a2, a2, 0x204
  906ee6:	0b2000        	callx8	a2
}
  906ee9:	d10f      	retw.n
	...

00906eec <db_cmd_memcmp>:
#endif
#endif /* #if defined(PROJECT_K2) */

/* Memory Comparison */
static int db_cmd_memcmp(char *cmd, char *param1, char *param2, char *param3)
{
  906eec:	6c1006        	entry	a1, 48
	unsigned long       addr1, addr2, len;
	A_UINT8             *buf1, *buf2;

	if (db_ascii_to_hex(param1, &addr1) != -1 &&
  906eef:	2b1c08        	addi	a11, a1, 8
  906ef2:	033a02        	or	a10, a3, a3
  906ef5:	5bffc1        	call8	906dfc <db_ascii_to_hex>
  906ef8:	68a045        	beqi	a10, -1, 906f41 <db_cmd_memcmp+0x55>
	    db_ascii_to_hex(param2, &addr2) != -1 &&
  906efb:	2b1c04        	addi	a11, a1, 4
  906efe:	044a02        	or	a10, a4, a4
  906f01:	5bffbe        	call8	906dfc <db_ascii_to_hex>
	if (db_ascii_to_hex(param1, &addr1) != -1 &&
  906f04:	68a039        	beqi	a10, -1, 906f41 <db_cmd_memcmp+0x55>
	    db_ascii_to_hex(param3, &len) != -1 &&
  906f07:	011b02        	or	a11, a1, a1
  906f0a:	055a02        	or	a10, a5, a5
  906f0d:	5bffbb        	call8	906dfc <db_ascii_to_hex>
	    db_ascii_to_hex(param2, &addr2) != -1 &&
  906f10:	68a02d        	beqi	a10, -1, 906f41 <db_cmd_memcmp+0x55>
	    addr1 != addr2 && addr1%4 == 0 && addr2%4 == 0 && len%4 == 0)
  906f13:	8a12      	l32i.n	a10, a1, 8
  906f15:	8b11      	l32i.n	a11, a1, 4
	    db_ascii_to_hex(param3, &len) != -1 &&
  906f17:	7ba126        	beq	a10, a11, 906f41 <db_cmd_memcmp+0x55>
	    addr1 != addr2 && addr1%4 == 0 && addr2%4 == 0 && len%4 == 0)
  906f1a:	0ba202        	or	a2, a10, a11
  906f1d:	020241        	extui	a2, a2, 0, 2
  906f20:	cd2d      	bnez.n	a2, 906f41 <db_cmd_memcmp+0x55>
  906f22:	8c10      	l32i.n	a12, a1, 0
  906f24:	0c0241        	extui	a2, a12, 0, 2
  906f27:	cd26      	bnez.n	a2, 906f41 <db_cmd_memcmp+0x55>
	{
		buf1 = (A_UINT8 *)addr1;
		buf2 = (A_UINT8 *)addr2;        ;

		A_PRINTF("memcmp(buf1, buf2, len) = %d\n\r", A_MEMCMP(buf1, buf2, len));
  906f29:	1868b5        	l32r	a8, 8e1200 <_bss_end+0x3ce2f0>
  906f2c:	238212        	l32i	a3, a8, 72
  906f2f:	8887      	l32i.n	a8, a8, 28
  906f31:	0b8000        	callx8	a8
  906f34:	dba0      	mov.n	a11, a10
  906f36:	1a6939        	l32r	a10, 8e141c <_bss_end+0x3ce50c>
  906f39:	0b3000        	callx8	a3
		return 0;
  906f3c:	d10f      	retw.n
  906f3e:	000000        	ill
	}

	db_incorect_format();
  906f41:	5bff9f        	call8	906dc0 <db_incorect_format>
	return -1;
  906f44:	c72f      	movi.n	a2, -1
}
  906f46:	d10f      	retw.n

00906f48 <db_cmd_memdump>:

/* Memory Dump */
static int db_cmd_memdump(char *cmd, char *param1, char *param2, char *param3)
{
  906f48:	6c1006        	entry	a1, 48
	unsigned long       addr1, addr2;

	if (db_ascii_to_hex(param1, &addr1) != -1 && db_ascii_to_hex(param2, &addr2) != -1 && addr1 < addr2 && addr1%4 == 0)
  906f4b:	2b1c04        	addi	a11, a1, 4
  906f4e:	033a02        	or	a10, a3, a3
  906f51:	5bffaa        	call8	906dfc <db_ascii_to_hex>
  906f54:	69a002        	bnei	a10, -1, 906f5a <db_cmd_memdump+0x12>
  906f57:	600082        	j	906fdd <db_cmd_memdump+0x95>
  906f5a:	db10      	mov.n	a11, a1
  906f5c:	da40      	mov.n	a10, a4
  906f5e:	5bffa7        	call8	906dfc <db_ascii_to_hex>
  906f61:	68a078        	beqi	a10, -1, 906fdd <db_cmd_memdump+0x95>
  906f64:	8211      	l32i.n	a2, a1, 4
  906f66:	261200        	l32i	a6, a1, 0
  906f69:	762b70        	bgeu	a2, a6, 906fdd <db_cmd_memdump+0x95>
  906f6c:	020341        	extui	a3, a2, 0, 2
  906f6f:	65306a        	bnez	a3, 906fdd <db_cmd_memdump+0x95>
  906f72:	1468b5        	l32r	a4, 8e1248 <_bss_end+0x3ce338>
		if (i == 0) {
  906f75:	cc3b      	bnez.n	a3, 906f84 <db_cmd_memdump+0x3c>
			A_PRINTF("\n\r%06x: ", mem1);
  906f77:	254212        	l32i	a5, a4, 72
  906f7a:	1a693a        	l32r	a10, 8e1464 <_bss_end+0x3ce554>
  906f7d:	db20      	mov.n	a11, a2
  906f7f:	0b5000        	callx8	a5
  906f82:	d520      	mov.n	a5, a2
		A_PRINTF("%04x ", *(uint16_t *)mem1);
  906f84:	2b2100        	l16ui	a11, a2, 0
  906f87:	274212        	l32i	a7, a4, 72
  906f8a:	1a693b        	l32r	a10, 8e1478 <_bss_end+0x3ce568>
		i++;
  906f8d:	b133      	addi.n	a3, a3, 1
		A_PRINTF("%04x ", *(uint16_t *)mem1);
  906f8f:	0b7000        	callx8	a7
		mem1 += 2;
  906f92:	222c02        	addi	a2, a2, 2
		if (i == 8) {
  906f95:	693833        	bnei	a3, 8, 906fcc <db_cmd_memdump+0x84>
			A_PRINTF(" ");
  906f98:	234212        	l32i	a3, a4, 72
  906f9b:	1a693c        	l32r	a10, 8e148c <_bss_end+0x3ce57c>
				if (*tmp > 0x20 && *tmp < 0x7e)
  906f9e:	270a5c        	movi	a7, 92
			A_PRINTF(" ");
  906fa1:	0b3000        	callx8	a3
				if (*tmp > 0x20 && *tmp < 0x7e)
  906fa4:	2b5000        	l8ui	a11, a5, 0
  906fa7:	23bcdf        	addi	a3, a11, -33
  906faa:	030347        	extui	a3, a3, 0, 8
  906fad:	73730b        	bltu	a7, a3, 906fbc <db_cmd_memdump+0x74>
					A_PRINTF("%c", *tmp);
  906fb0:	234212        	l32i	a3, a4, 72
  906fb3:	1a693d        	l32r	a10, 8e14a8 <_bss_end+0x3ce598>
  906fb6:	0b3000        	callx8	a3
  906fb9:	600008        	j	906fc5 <db_cmd_memdump+0x7d>
					A_PRINTF(".");
  906fbc:	234212        	l32i	a3, a4, 72
  906fbf:	1a693e        	l32r	a10, 8e14b8 <_bss_end+0x3ce5a8>
  906fc2:	0b3000        	callx8	a3
				tmp++;
  906fc5:	b155      	addi.n	a5, a5, 1
			} while (tmp < mem1);
  906fc7:	7253d9        	bltu	a5, a2, 906fa4 <db_cmd_memdump+0x5c>
			i = 0;
  906fca:	c030      	movi.n	a3, 0
	} while (mem1 < mem2);
  906fcc:	7623a5        	bltu	a2, a6, 906f75 <db_cmd_memdump+0x2d>
	A_PRINTF("\n\r");
  906fcf:	224212        	l32i	a2, a4, 72
  906fd2:	1a693f        	l32r	a10, 8e14d0 <_bss_end+0x3ce5c0>
  906fd5:	0b2000        	callx8	a2
	{
		db_print_dump((const char *)addr1, (const char *)addr2);
		return 0;
  906fd8:	c020      	movi.n	a2, 0
  906fda:	d10f      	retw.n
  906fdc:	005bff        	excw
	}

	db_incorect_format();
  906fdf:	78c72f        	bbci	a12, 24, 907012 <db_str_cmd+0x2e>
	return -1;
}
  906fe2:	d10f      	retw.n

00906fe4 <db_str_cmd>:
{
  906fe4:	6c100a        	entry	a1, 80
	if ((A_STRLEN(param2) > 0) &&
  906fe7:	1568b5        	l32r	a5, 8e12bc <_bss_end+0x3ce3ac>
  906fea:	da40      	mov.n	a10, a4
  906fec:	285266        	l32i	a8, a5, 0x198
  906fef:	0b8000        	callx8	a8
  906ff2:	6ba102        	bgei	a10, 1, 906ff8 <db_str_cmd+0x14>
  906ff5:	6000a0        	j	907099 <db_str_cmd+0xb5>
	    (db_ascii_to_hex(param1, &addr) != -1) &&
  906ff8:	2b1c28        	addi	a11, a1, 40
  906ffb:	da30      	mov.n	a10, a3
  906ffd:	5bff7f        	call8	906dfc <db_ascii_to_hex>
	if ((A_STRLEN(param2) > 0) &&
  907000:	69a002        	bnei	a10, -1, 907006 <db_str_cmd+0x22>
  907003:	600092        	j	907099 <db_str_cmd+0xb5>
	    (db_ascii_to_hex(param2, &val) != -1))
  907006:	2b1c2c        	addi	a11, a1, 44
  907009:	da40      	mov.n	a10, a4
  90700b:	5bff7c        	call8	906dfc <db_ascii_to_hex>
	    (db_ascii_to_hex(param1, &addr) != -1) &&
  90700e:	69a002        	bnei	a10, -1, 907014 <db_str_cmd+0x30>
  907011:	600084        	j	907099 <db_str_cmd+0xb5>
		if (strcmp(cmd, "STR") == 0)
  907014:	1b6940        	l32r	a11, 8e1514 <_bss_end+0x3ce604>
  907017:	da20      	mov.n	a10, a2
  907019:	5b7d51        	call8	8e6560 <strcmp>
  90701c:	cda1      	bnez.n	a10, 907031 <db_str_cmd+0x4d>
			addr &= 0xfffffffc;
  90701e:	821a      	l32i.n	a2, a1, 40
  907020:	c78c      	movi.n	a8, -4
  907022:	028801        	and	a8, a8, a2
			iowrite32(addr, val);
  907025:	821b      	l32i.n	a2, a1, 44
			addr &= 0xfffffffc;
  907027:	981a      	s32i.n	a8, a1, 40
	*(volatile uint32_t *) addr = b;
  907029:	0c0200        	memw
  90702c:	9280      	s32i.n	a2, a8, 0
  90702e:	600044        	j	907076 <db_str_cmd+0x92>
		else if (strcmp(cmd, "STRH") == 0)
  907031:	1b6941        	l32r	a11, 8e1538 <_bss_end+0x3ce628>
  907034:	da20      	mov.n	a10, a2
  907036:	5b7d4a        	call8	8e6560 <strcmp>
  907039:	cda3      	bnez.n	a10, 907050 <db_str_cmd+0x6c>
			addr &= 0xfffffffe;
  90703b:	821a      	l32i.n	a2, a1, 40
  90703d:	c78e      	movi.n	a8, -2
  90703f:	028801        	and	a8, a8, a2
			iowrite16(addr, val);
  907042:	221117        	l16ui	a2, a1, 46
			addr &= 0xfffffffe;
  907045:	981a      	s32i.n	a8, a1, 40
	*(volatile uint16_t *) addr = b;
  907047:	0c0200        	memw
  90704a:	228500        	s16i	a2, a8, 0
  90704d:	600025        	j	907076 <db_str_cmd+0x92>
		else if (strcmp(cmd, "STRB") == 0)
  907050:	1b6942        	l32r	a11, 8e1558 <generic_hif_module_install+0x10>
  907053:	da20      	mov.n	a10, a2
  907055:	5b7d42        	call8	8e6560 <strcmp>
  907058:	cdaa      	bnez.n	a10, 907076 <db_str_cmd+0x92>
			if( addr & 0x00f00000 )
  90705a:	891a      	l32i.n	a9, a1, 40
  90705c:	126943        	l32r	a2, 8e1568 <generic_hif_module_install+0x20>
  90705f:	881b      	l32i.n	a8, a1, 44
  907061:	729003        	bnone	a9, a2, 907068 <db_str_cmd+0x84>
  907064:	600005        	j	90706d <db_str_cmd+0x89>
  907067:	00c023        	excw
				iowrite8(addr^3, val);
  90706a:	029903        	xor	a9, a9, a2
  90706d:	080847        	extui	a8, a8, 0, 8
	*(volatile uint8_t *) addr = b;
  907070:	0c0200        	memw
  907073:	289400        	s8i	a8, a9, 0
		db_hex_to_ascii(val, val_str);
  907076:	8a1b      	l32i.n	a10, a1, 44
  907078:	2b1c14        	addi	a11, a1, 20
  90707b:	5bff7b        	call8	906e68 <db_hex_to_ascii>
		db_hex_to_ascii(addr, addr_str);
  90707e:	8a1a      	l32i.n	a10, a1, 40
  907080:	db10      	mov.n	a11, a1
  907082:	5bff79        	call8	906e68 <db_hex_to_ascii>
		A_PRINTF("%s : %s\n\r", addr_str, val_str);
  907085:	1a6944        	l32r	a10, 8e1598 <athos_indirection_table_install+0x24>
  907088:	225212        	l32i	a2, a5, 72
  90708b:	2c1c14        	addi	a12, a1, 20
  90708e:	011b02        	or	a11, a1, a1
  907091:	0b2000        	callx8	a2
		return 0;
  907094:	c020      	movi.n	a2, 0
  907096:	d10f      	retw.n
  907098:	005bff        	excw
	db_incorect_format();
  90709b:	49c72f        	excw
}
  90709e:	d10f      	retw.n

009070a0 <db_ldr_cmd>:
{
  9070a0:	6c100a        	entry	a1, 80
	if (db_ascii_to_hex(param1, &addr) != -1)
  9070a3:	033a02        	or	a10, a3, a3
  9070a6:	2b1c28        	addi	a11, a1, 40
  9070a9:	5bff54        	call8	906dfc <db_ascii_to_hex>
  9070ac:	d3a0      	mov.n	a3, a10
  9070ae:	68a06f        	beqi	a10, -1, 907121 <db_ldr_cmd+0x81>
		if( addr == 0 )
  9070b1:	831a      	l32i.n	a3, a1, 40
  9070b3:	1568b5        	l32r	a5, 8e1388 <_bss_end+0x3ce478>
  9070b6:	cc3f      	bnez.n	a3, 9070c9 <db_ldr_cmd+0x29>
			A_PRINTF("Error! bad address 0x%08x.\n\r",
  9070b8:	225212        	l32i	a2, a5, 72
  9070bb:	1a6945        	l32r	a10, 8e15d0 <athos_indirection_table_install+0x5c>
  9070be:	033b02        	or	a11, a3, a3
  9070c1:	0b2000        	callx8	a2
			return -1;
  9070c4:	c73f      	movi.n	a3, -1
  9070c6:	60005a        	j	907124 <db_ldr_cmd+0x84>
		if (strcmp(cmd, "LDR") == 0)
  9070c9:	1b6946        	l32r	a11, 8e15e4 <athos_indirection_table_install+0x70>
  9070cc:	da20      	mov.n	a10, a2
  9070ce:	5b7d24        	call8	8e6560 <strcmp>
  9070d1:	cda0      	bnez.n	a10, 9070e5 <db_ldr_cmd+0x45>
			addr &= 0xfffffffc;
  9070d3:	c72c      	movi.n	a2, -4
  9070d5:	023301        	and	a3, a3, a2
  9070d8:	931a      	s32i.n	a3, a1, 40
	return *(const volatile uint32_t *) addr;
  9070da:	0c0200        	memw
  9070dd:	8430      	l32i.n	a4, a3, 0
  9070df:	60001a        	j	9070fd <db_ldr_cmd+0x5d>
  9070e2:	000000        	ill
		else if (strcmp(cmd, "LDRH") == 0)
  9070e5:	1b6947        	l32r	a11, 8e1604 <athos_indirection_table_install+0x90>
  9070e8:	022a02        	or	a10, a2, a2
  9070eb:	5b7d1d        	call8	8e6560 <strcmp>
  9070ee:	ccab      	bnez.n	a10, 9070fd <db_ldr_cmd+0x5d>
			addr &= 0xfffffffe;
  9070f0:	c72e      	movi.n	a2, -2
  9070f2:	023301        	and	a3, a3, a2
	return *(const volatile uint16_t *) addr;
  9070f5:	243100        	l16ui	a4, a3, 0
  9070f8:	931a      	s32i.n	a3, a1, 40
  9070fa:	04044f        	extui	a4, a4, 0, 16
		db_hex_to_ascii(val, val_str);
  9070fd:	2b1c14        	addi	a11, a1, 20
  907100:	da40      	mov.n	a10, a4
  907102:	5bff59        	call8	906e68 <db_hex_to_ascii>
		db_hex_to_ascii(addr, addr_str);
  907105:	8a1a      	l32i.n	a10, a1, 40
  907107:	db10      	mov.n	a11, a1
  907109:	5bff57        	call8	906e68 <db_hex_to_ascii>
		A_PRINTF("%s : %s\n\r", addr_str, val_str);
  90710c:	1a6944        	l32r	a10, 8e161c <athos_indirection_table_install+0xa8>
  90710f:	225212        	l32i	a2, a5, 72
  907112:	2c1c14        	addi	a12, a1, 20
  907115:	db10      	mov.n	a11, a1
  907117:	0b2000        	callx8	a2
		return 0;
  90711a:	c030      	movi.n	a3, 0
  90711c:	600004        	j	907124 <db_ldr_cmd+0x84>
  90711f:	00005b        	extui	a0, a0, 16, 12
	db_incorect_format();
  907122:	ff          	.byte 0xff
  907123:	27d230        	l32i	a7, a13, 192
}
  907126:	d10f      	retw.n

00907128 <db_intr_cmd>:
{
  907128:	6c1006        	entry	a1, 48
	if(strcmp(param1, "read") == 0 )
  90712b:	1b6948        	l32r	a11, 8e164c <athos_indirection_table_install+0xd8>
  90712e:	033a02        	or	a10, a3, a3
  907131:	5b7d0b        	call8	8e6560 <strcmp>
  907134:	65a028        	bnez	a10, 907160 <db_intr_cmd+0x38>
			pending_intrs = A_INTR_GET_INTRPENDING();
  907137:	1268b5        	l32r	a2, 8e140c <_bss_end+0x3ce4fc>
  90713a:	2a224f        	l32i	a10, a2, 0x13c
  90713d:	0ba000        	callx8	a10
  907140:	0aa302        	or	a3, a10, a10
			A_PRINTF("intr mask [0x%08x]\n\r", xthal_get_intenable());
  907143:	242212        	l32i	a4, a2, 72
  907146:	5b7e0e        	call8	8e6980 <xthal_get_intenable>
  907149:	dba0      	mov.n	a11, a10
  90714b:	1a6949        	l32r	a10, 8e1670 <athos_indirection_table_install+0xfc>
  90714e:	0b4000        	callx8	a4
			A_PRINTF("intr on [0x%08x]\n\r", pending_intrs);
  907151:	1a694a        	l32r	a10, 8e167c <athos_indirection_table_install+0x108>
  907154:	222212        	l32i	a2, a2, 72
  907157:	db30      	mov.n	a11, a3
  907159:	0b2000        	callx8	a2
  90715c:	60009d        	j	9071fd <db_intr_cmd+0xd5>
  90715f:	001b69        	excw
	else if (strcmp(param1, "timer") == 0 )
  907162:	4bda30        	excw
  907165:	5b7cfe        	call8	8e6560 <strcmp>
  907168:	65a07c        	bnez	a10, 9071e8 <db_intr_cmd+0xc0>
		if (strcmp(param2, "on") == 0 )
  90716b:	1b694c        	l32r	a11, 8e169c <athos_indirection_table_install+0x128>
		uint32_t data = 0;
  90716e:	9a10      	s32i.n	a10, a1, 0
		if (strcmp(param2, "on") == 0 )
  907170:	da40      	mov.n	a10, a4
  907172:	5b7cfb        	call8	8e6560 <strcmp>
  907175:	65a013        	bnez	a10, 90718c <db_intr_cmd+0x64>
			pending_intrs = A_INTR_GET_INTRENABLE()|CMNOS_IMASK_XTTIMER;
  907178:	1468b5        	l32r	a4, 8e144c <_bss_end+0x3ce53c>
  90717b:	220a02        	movi	a2, 2
  90717e:	2a424d        	l32i	a10, a4, 0x134
  907181:	0ba000        	callx8	a10
  907184:	02a202        	or	a2, a10, a2
  907187:	600019        	j	9071a4 <db_intr_cmd+0x7c>
  90718a:	00001b        	sra	a0, a0
		else if ( strcmp(param2, "off") == 0 )
  90718d:	694eda        	bnei	a4, 128, 90716b <db_intr_cmd+0x43>
  907190:	405b7c        	excw
  907193:	f3          	.byte 0xf3
  907194:	cea1      	bnez.n	a10, 9071b9 <db_intr_cmd+0x91>
			pending_intrs = A_INTR_GET_INTRENABLE()&(~CMNOS_IMASK_XTTIMER);
  907196:	1468b5        	l32r	a4, 8e146c <_bss_end+0x3ce55c>
  907199:	c72d      	movi.n	a2, -3
  90719b:	2a424d        	l32i	a10, a4, 0x134
  90719e:	0ba000        	callx8	a10
  9071a1:	02a201        	and	a2, a10, a2
			A_INTR_SET_INTRENABLE(pending_intrs);
  9071a4:	23424e        	l32i	a3, a4, 0x138
  9071a7:	da20      	mov.n	a10, a2
  9071a9:	0b3000        	callx8	a3
			A_PRINTF("- intr [0x%08x]\n\r", pending_intrs);
  9071ac:	db20      	mov.n	a11, a2
  9071ae:	234212        	l32i	a3, a4, 72
  9071b1:	1a694d        	l32r	a10, 8e16e8 <athos_indirection_table_install+0x174>
  9071b4:	600029        	j	9071e1 <db_intr_cmd+0xb9>
  9071b7:	0000db        	excw
		else if( db_ascii_to_hex(param2, &data)==0 )
  9071ba:	10da40        	l32r	a0, 8fdabc <memset+0x16c74>
  9071bd:	5bff0f        	call8	906dfc <db_ascii_to_hex>
  9071c0:	cfa9      	bnez.n	a10, 9071fd <db_intr_cmd+0xd5>
			if( data>=0 && data <=10 )
  9071c2:	8410      	l32i.n	a4, a1, 0
  9071c4:	c03a      	movi.n	a3, 10
  9071c6:	12694f        	l32r	a2, 8e1704 <athos_indirection_table_install+0x190>
  9071c9:	743305        	bltu	a3, a4, 9071d2 <db_intr_cmd+0xaa>
				delay = data;
  9071cc:	9420      	s32i.n	a4, a2, 0
  9071ce:	600004        	j	9071d6 <db_intr_cmd+0xae>
  9071d1:	00c033        	excw
				delay = 3;
  9071d4:	9320      	s32i.n	a3, a2, 0
			A_PRINTF("==>set cb to %d seconds \n\r", delay);
  9071d6:	1368b5        	l32r	a3, 8e14ac <_bss_end+0x3ce59c>
  9071d9:	8b20      	l32i.n	a11, a2, 0
  9071db:	233212        	l32i	a3, a3, 72
  9071de:	1a6950        	l32r	a10, 8e1720 <athos_indirection_table_install+0x1ac>
  9071e1:	0b3000        	callx8	a3
  9071e4:	600015        	j	9071fd <db_intr_cmd+0xd5>
  9071e7:	001268        	excw
		A_PRINTF("\tintr read - read the interrenable status\n\r");
  9071ea:	b51a      	addi.n	a10, a1, 5
  9071ec:	695123        	bnei	a5, 1, 907213 <db_wdt_cmd+0xf>
  9071ef:	22120b        	l32i	a2, a1, 44
  9071f2:	30001a        	excw
		A_PRINTF("\tintr timer on/off/tick - timer attach on/off/ticks\n\r");
  9071f5:	695222        	bnei	a5, 2, 90721b <db_wdt_cmd+0x17>
  9071f8:	22120b        	l32i	a2, a1, 44
  9071fb:	2000c0        	l8ui	a0, a0, 192
}
  9071fe:	20d10f        	l16ui	a0, a13, 30
  907201:	000000        	ill

00907204 <db_wdt_cmd>:
{
  907204:	6c1006        	entry	a1, 48
        if ( strcmp(param1, "rst") == 0 )
  907207:	1b6953        	l32r	a11, 8e1754 <athos_indirection_table_install+0x1e0>
  90720a:	033a02        	or	a10, a3, a3
  90720d:	5b7cd4        	call8	8e6560 <strcmp>
  907210:	cda0      	bnez.n	a10, 907224 <db_wdt_cmd+0x20>
		A_PRINTF(" reseting...\n\n\r");
  907212:	1368b5        	l32r	a3, 8e14e8 <_bss_end+0x3ce5d8>
  907215:	1a6954        	l32r	a10, 8e1768 <athos_indirection_table_install+0x1f4>
  907218:	223212        	l32i	a2, a3, 72
  90721b:	0b2000        	callx8	a2
		A_WDT_RESET();
  90721e:	22325d        	l32i	a2, a3, 0x174
  907221:	600024        	j	907249 <db_wdt_cmd+0x45>
        else if( strcmp(param1, "on") == 0 )
  907224:	1b694c        	l32r	a11, 8e1754 <athos_indirection_table_install+0x1e0>
  907227:	da30      	mov.n	a10, a3
  907229:	5b7ccd        	call8	8e6560 <strcmp>
  90722c:	cca9      	bnez.n	a10, 907239 <db_wdt_cmd+0x35>
		A_WDT_ENABLE();
  90722e:	1268b5        	l32r	a2, 8e1504 <_bss_end+0x3ce5f4>
  907231:	222259        	l32i	a2, a2, 0x164
  907234:	600011        	j	907249 <db_wdt_cmd+0x45>
  907237:	00001b        	sra	a0, a0
        else if (strcmp(param1, "off") == 0 )
  90723a:	694eda        	bnei	a4, 128, 907218 <db_wdt_cmd+0x14>
  90723d:	305b7c        	excw
  907240:	c8cc      	beqz.n	a12, 907250 <db_wdt_cmd+0x4c>
  907242:	ab12      	add.n	a2, a1, a11
		A_WDT_DISABLE();
  907244:	68b522        	beqi	a11, 5, 90726a <db_wdt_cmd+0x66>
  907247:	225a0b        	movi	a2, 0x50b
  90724a:	2000d1        	l8ui	a0, a0, 209
  90724d:	0f0000        	callx12	a0
        else if ( strcmp(param1, "boot") == 0 )
  907250:	1b6955        	l32r	a11, 8e17a4 <athos_indirection_table_install+0x230>
  907253:	da30      	mov.n	a10, a3
  907255:	5b7cc2        	call8	8e6560 <strcmp>
  907258:	cea4      	bnez.n	a10, 907280 <db_wdt_cmd+0x7c>
		A_PRINTF("Last BOOT is ");
  90725a:	1368b5        	l32r	a3, 8e1530 <_bss_end+0x3ce620>
  90725d:	1a6956        	l32r	a10, 8e17b8 <athos_indirection_table_install+0x244>
  907260:	223212        	l32i	a2, a3, 72
  907263:	0b2000        	callx8	a2
		if (ENUM_WDT_BOOT == A_WDT_LASTBOOT() )
  907266:	2a325e        	l32i	a10, a3, 0x178
  907269:	0ba000        	callx8	a10
  90726c:	233212        	l32i	a3, a3, 72
  90726f:	69a105        	bnei	a10, 1, 907278 <db_wdt_cmd+0x74>
			A_PRINTF("wdt");
  907272:	1a6957        	l32r	a10, 8e17d0 <athos_indirection_table_install+0x25c>
  907275:	600002        	j	90727b <db_wdt_cmd+0x77>
			A_PRINTF("normal boot");
  907278:	1a6958        	l32r	a10, 8e17d8 <athos_indirection_table_install+0x264>
  90727b:	0b3000        	callx8	a3
  90727e:	d10f      	retw.n
        else if (strcmp(param1, "loop") == 0 )
  907280:	1b6959        	l32r	a11, 8e17e4 <athos_indirection_table_install+0x270>
  907283:	da30      	mov.n	a10, a3
  907285:	5b7cb6        	call8	8e6560 <strcmp>
  907288:	ceac      	bnez.n	a10, 9072b8 <db_wdt_cmd+0xb4>
		A_PRINTF(" doing the wdt reseting...");
  90728a:	1368b5        	l32r	a3, 8e1560 <generic_hif_module_install+0x18>
  90728d:	1a695a        	l32r	a10, 8e17f8 <athos_indirection_table_install+0x284>
  907290:	223212        	l32i	a2, a3, 72
  907293:	0b2000        	callx8	a2
		if( db_ascii_to_hex(param2, &time_offset)!=0 )
  907296:	b81b      	addi.n	a11, a1, 8
  907298:	da40      	mov.n	a10, a4
  90729a:	5bfed8        	call8	906dfc <db_ascii_to_hex>
		A_PRINTF(" (wdt tick: 0x%08x...\n\n\r", time_offset);
  90729d:	8b12      	l32i.n	a11, a1, 8
  90729f:	223212        	l32i	a2, a3, 72
  9072a2:	1a695b        	l32r	a10, 8e1810 <athos_indirection_table_install+0x29c>
  9072a5:	0b2000        	callx8	a2
		A_WDT_SET(wdt_cmd);
  9072a8:	2b1202        	l32i	a11, a1, 8
  9072ab:	22325b        	l32i	a2, a3, 0x16c
  9072ae:	2a0a01        	movi	a10, 1
  9072b1:	0b2000        	callx8	a2
  9072b4:	63fffc        	j	9072b4 <db_wdt_cmd+0xb0>
  9072b7:	001b69        	excw
        else if (strcmp(param1, "noloop") == 0 )
  9072ba:	5cda30        	call12	93db7c <_etext+0x2e96b>
  9072bd:	5b7ca8        	call8	8e6560 <strcmp>
  9072c0:	cea9      	bnez.n	a10, 9072ed <db_wdt_cmd+0xe9>
		A_PRINTF(" doing the wdt reseting...");
  9072c2:	1368b5        	l32r	a3, 8e1598 <athos_indirection_table_install+0x24>
  9072c5:	1a695a        	l32r	a10, 8e1830 <athos_indirection_table_install+0x2bc>
  9072c8:	223212        	l32i	a2, a3, 72
  9072cb:	0b2000        	callx8	a2
		if( db_ascii_to_hex(param3, &time_offset)!=0 )
  9072ce:	b81b      	addi.n	a11, a1, 8
  9072d0:	da50      	mov.n	a10, a5
  9072d2:	5bfeca        	call8	906dfc <db_ascii_to_hex>
		A_PRINTF(" (wdt tick: 0x%08x...\n\n\r", time_offset);
  9072d5:	8b12      	l32i.n	a11, a1, 8
  9072d7:	223212        	l32i	a2, a3, 72
  9072da:	1a695b        	l32r	a10, 8e1848 <athos_indirection_table_install+0x2d4>
  9072dd:	0b2000        	callx8	a2
		A_WDT_SET(wdt_cmd);
  9072e0:	8b12      	l32i.n	a11, a1, 8
  9072e2:	22325b        	l32i	a2, a3, 0x16c
  9072e5:	c0a1      	movi.n	a10, 1
  9072e7:	0b2000        	callx8	a2
  9072ea:	d10f      	retw.n
  9072ec:	001b69        	excw
        else if( strcmp(param1, "event") == 0 )
  9072ef:	5dda30        	call12	97dbb0 <_etext+0x6e99f>
  9072f2:	5b7c9b        	call8	8e6560 <strcmp>
  9072f5:	65a04f        	bnez	a10, 907348 <db_wdt_cmd+0x144>
	return *(const volatile uint8_t *) addr;
  9072f8:	1868fb        	l32r	a8, 8e16e4 <athos_indirection_table_install+0x170>
		iowrite8_usb(0x17, ioread8_usb(0x17)|0xc0);
  9072fb:	220ac0        	movi	a2, 192
  9072fe:	238000        	l8ui	a3, a8, 0
  907301:	1968fe        	l32r	a9, 8e16fc <athos_indirection_table_install+0x188>
  907304:	030347        	extui	a3, a3, 0, 8
  907307:	023302        	or	a3, a3, a2
	*(volatile uint32_t *) addr = b;
  90730a:	1268db        	l32r	a2, 8e1678 <athos_indirection_table_install+0x104>
	*(volatile uint8_t *) addr = b;
  90730d:	0c0200        	memw
  907310:	238400        	s8i	a3, a8, 0
	*(volatile uint32_t *) addr = b;
  907313:	c03f      	movi.n	a3, 15
  907315:	0c0200        	memw
  907318:	9320      	s32i.n	a3, a2, 0
  90731a:	13695e        	l32r	a3, 8e1894 <athos_indirection_table_install+0x320>
  90731d:	1268fc        	l32r	a2, 8e1710 <athos_indirection_table_install+0x19c>
  907320:	0c0200        	memw
  907323:	9320      	s32i.n	a3, a2, 0
	return *(const volatile uint8_t *) addr;
  907325:	239000        	l8ui	a3, a9, 0
		iowrite8_usb(0xAE, ioread8_usb(0xAE) | 0x08);
  907328:	c028      	movi.n	a2, 8
  90732a:	030347        	extui	a3, a3, 0, 8
  90732d:	023302        	or	a3, a3, a2
	*(volatile uint8_t *) addr = b;
  907330:	0c0200        	memw
  907333:	239400        	s8i	a3, a9, 0
	return *(const volatile uint8_t *) addr;
  907336:	238000        	l8ui	a3, a8, 0
  907339:	22fabf        	movi	a2, -65
  90733c:	030347        	extui	a3, a3, 0, 8
  90733f:	023301        	and	a3, a3, a2
	*(volatile uint8_t *) addr = b;
  907342:	0c0200        	memw
  907345:	238400        	s8i	a3, a8, 0
}
  907348:	d10f      	retw.n
	...

0090734c <db_usb_cmd>:
{
  90734c:	6c1004        	entry	a1, 32
	A_PRINTF("THIS IS USB COMMAND\n\r");
  90734f:	1268b5        	l32r	a2, 8e1624 <athos_indirection_table_install+0xb0>
  907352:	1a695f        	l32r	a10, 8e18d0 <athos_indirection_table_install+0x35c>
  907355:	282212        	l32i	a8, a2, 72
  907358:	0b8000        	callx8	a8
	if( strcmp(param1, "que") == 0 )
  90735b:	1b6960        	l32r	a11, 8e18dc <athos_indirection_table_install+0x368>
  90735e:	033a02        	or	a10, a3, a3
  907361:	5b7c7f        	call8	8e6560 <strcmp>
  907364:	cca4      	bnez.n	a10, 90736c <db_usb_cmd+0x20>
		HIFusb_DescTraceDump();
  907366:	5b7120        	call8	8e37e8 <HIFusb_DescTraceDump>
  907369:	600011        	j	90737e <db_usb_cmd+0x32>
		A_PRINTF("\tusb que - dump descriptor queue\n\r");
  90736c:	282212        	l32i	a8, a2, 72
  90736f:	1a6961        	l32r	a10, 8e18f4 <athos_indirection_table_install+0x380>
  907372:	0b8000        	callx8	a8
		A_PRINTF("\tusb fw on/off - enable/disable write fw download to ram\n\r");
  907375:	1a6962        	l32r	a10, 8e1900 <athos_indirection_table_install+0x38c>
  907378:	222212        	l32i	a2, a2, 72
  90737b:	0b2000        	callx8	a2
}
  90737e:	c020      	movi.n	a2, 0
  907380:	d10f      	retw.n
	...

00907384 <db_info_cmd>:
{
  907384:	6c1004        	entry	a1, 32
	if(strcmp(param1, "ram") == 0 )
  907387:	1b6963        	l32r	a11, 8e1914 <athos_indirection_table_install+0x3a0>
  90738a:	033a02        	or	a10, a3, a3
  90738d:	5b7c74        	call8	8e6560 <strcmp>
  907390:	65a00d        	bnez	a10, 9073a1 <db_info_cmd+0x1d>
		A_ALLOCRAM_DEBUG();
  907393:	1868b5        	l32r	a8, 8e1668 <athos_indirection_table_install+0xf4>
  907396:	288253        	l32i	a8, a8, 0x14c
  907399:	0b8000        	callx8	a8
  90739c:	600004        	j	9073a4 <db_info_cmd+0x20>
  90739f:	00005b        	extui	a0, a0, 16, 12
		HIFusb_DescTraceDump();
  9073a2:	7111c0        	beq	a1, a1, 907366 <db_usb_cmd+0x1a>
}
  9073a5:	21d10f        	l16ui	a1, a13, 30

009073a8 <zf_debug_task>:
{
  9073a8:	6c1008        	entry	a1, 64
	if ((zm_get_char(&ch)) == 0)
  9073ab:	1268b5        	l32r	a2, 8e1680 <athos_indirection_table_install+0x10c>
  9073ae:	da10      	mov.n	a10, a1
  9073b0:	232215        	l32i	a3, a2, 84
  9073b3:	0b3000        	callx8	a3
  9073b6:	64a22f        	beqz	a10, 9075e9 <zf_debug_task+0x241>
	if (db_get_cmd_line(ch, raw_cmd, &gvLen) == 0)
  9073b9:	2b1000        	l8ui	a11, a1, 0
	switch (ch)
  9073bc:	69b802        	bnei	a11, 8, 9073c2 <zf_debug_task+0x1a>
  9073bf:	6000fe        	j	9074c1 <zf_debug_task+0x119>
  9073c2:	c038      	movi.n	a3, 8
  9073c4:	7b3305        	bltu	a3, a11, 9073cd <zf_debug_task+0x25>
  9073c7:	64b21e        	beqz	a11, 9075e9 <zf_debug_task+0x241>
  9073ca:	600112        	j	9074e0 <zf_debug_task+0x138>
  9073cd:	c03d      	movi.n	a3, 13
  9073cf:	73b17d        	beq	a11, a3, 907450 <zf_debug_task+0xa8>
  9073d2:	c53c      	movi.n	a3, 92
  9073d4:	73b102        	beq	a11, a3, 9073da <zf_debug_task+0x32>
  9073d7:	600105        	j	9074e0 <zf_debug_task+0x138>
		pressed_time++;
  9073da:	146932        	l32r	a4, 8e18a4 <athos_indirection_table_install+0x330>
  9073dd:	234200        	l32i	a3, a4, 0
  9073e0:	233c01        	addi	a3, a3, 1
		if (pressed_time >= COMMAND_BUFFER_SIZE)
  9073e3:	6b3601        	bgei	a3, 6, 9073e8 <zf_debug_task+0x40>
		pressed_time++;
  9073e6:	9340      	s32i.n	a3, a4, 0
		cmd_buf_loc = cmd_buf_ptr - pressed_time;
  9073e8:	13692f        	l32r	a3, 8e18a4 <athos_indirection_table_install+0x330>
  9073eb:	8440      	l32i.n	a4, a4, 0
  9073ed:	8330      	l32i.n	a3, a3, 0
  9073ef:	04340c        	sub	a4, a3, a4
		if (cmd_buf_loc < 0)
  9073f2:	67400f        	bgez	a4, 907405 <zf_debug_task+0x5d>
			if (cmd_buf_full == TRUE)
  9073f5:	136930        	l32r	a3, 8e18b8 <athos_indirection_table_install+0x344>
  9073f8:	8530      	l32i.n	a5, a3, 0
				cmd_buf_loc += COMMAND_BUFFER_SIZE;
  9073fa:	b643      	addi.n	a3, a4, 6
  9073fc:	b054      	addi.n	a4, a5, -1
  9073fe:	c050      	movi.n	a5, 0
  907400:	043538        	moveqz	a5, a3, a4
  907403:	d450      	mov.n	a4, a5
		if (A_STRLEN(cmd_buffer[cmd_buf_loc]) != 0)
  907405:	0e4311        	slli	a3, a4, 2
  907408:	043308        	add	a3, a3, a4
  90740b:	146964        	l32r	a4, 8e199c <athos_indirection_table_install+0x428>
  90740e:	0d3311        	slli	a3, a3, 3
  907411:	043308        	add	a3, a3, a4
  907414:	242266        	l32i	a4, a2, 0x198
  907417:	033a02        	or	a10, a3, a3
  90741a:	0b4000        	callx8	a4
  90741d:	64a1c8        	beqz	a10, 9075e9 <zf_debug_task+0x241>
			A_STRCPY(cmd_line, cmd_buffer[cmd_buf_loc]);
  907420:	146965        	l32r	a4, 8e19b4 <athos_indirection_table_install+0x440>
  907423:	252264        	l32i	a5, a2, 0x190
  907426:	db30      	mov.n	a11, a3
  907428:	da40      	mov.n	a10, a4
  90742a:	0b5000        	callx8	a5
			*i = A_STRLEN(cmd_buffer[cmd_buf_loc]);
  90742d:	252266        	l32i	a5, a2, 0x198
  907430:	da30      	mov.n	a10, a3
  907432:	0b5000        	callx8	a5
  907435:	136931        	l32r	a3, 8e18fc <athos_indirection_table_install+0x388>
  907438:	2a3500        	s16i	a10, a3, 0
			A_PRINTF("\r>");
  90743b:	232212        	l32i	a3, a2, 72
  90743e:	1a6966        	l32r	a10, 8e19d8 <athos_indirection_table_install+0x464>
  907441:	0b3000        	callx8	a3
			A_PRINTF("%s", cmd_line);
  907444:	db40      	mov.n	a11, a4
  907446:	222212        	l32i	a2, a2, 72
  907449:	1a6967        	l32r	a10, 8e19e8 <athos_indirection_table_install+0x474>
  90744c:	6000cd        	j	90751d <zf_debug_task+0x175>
  90744f:	001369        	excw
		pressed_time = 0;
  907452:	32c050        	excw
  907455:	253600        	s32i	a5, a3, 0
		cmd_line[*i] = 0;
  907458:	136931        	l32r	a3, 8e191c <athos_indirection_table_install+0x3a8>
		A_PRINTF("\n\r");
  90745b:	1a693f        	l32r	a10, 8e1958 <athos_indirection_table_install+0x3e4>
		cmd_line[*i] = 0;
  90745e:	243100        	l16ui	a4, a3, 0
  907461:	136965        	l32r	a3, 8e19f8 <athos_indirection_table_install+0x484>
  907464:	043408        	add	a4, a3, a4
  907467:	254400        	s8i	a5, a4, 0
		A_PRINTF("\n\r");
  90746a:	242212        	l32i	a4, a2, 72
  90746d:	0b4000        	callx8	a4
		if (*i != 0)
  907470:	156931        	l32r	a5, 8e1934 <athos_indirection_table_install+0x3c0>
  907473:	16692f        	l32r	a6, 8e1930 <athos_indirection_table_install+0x3bc>
  907476:	245100        	l16ui	a4, a5, 0
  907479:	cb41      	beqz.n	a4, 9074ae <zf_debug_task+0x106>
			if (strcmp(cmd_buffer[(cmd_buf_ptr==0)?(COMMAND_BUFFER_SIZE-1):(cmd_buf_ptr-1)], cmd_line) != 0)
  90747b:	8560      	l32i.n	a5, a6, 0
  90747d:	c045      	movi.n	a4, 5
  90747f:	b05a      	addi.n	a10, a5, -1
  907481:	05a439        	movnez	a4, a10, a5
  907484:	0e4a11        	slli	a10, a4, 2
  907487:	a4aa      	add.n	a10, a10, a4
  907489:	146964        	l32r	a4, 8e1a1c <athos_indirection_table_install+0x4a8>
  90748c:	0daa11        	slli	a10, a10, 3
  90748f:	db30      	mov.n	a11, a3
  907491:	aa4a      	add.n	a10, a4, a10
  907493:	5b7c33        	call8	8e6560 <strcmp>
  907496:	c9a4      	beqz.n	a10, 9074ae <zf_debug_task+0x106>
				A_STRCPY(cmd_buffer[cmd_buf_ptr++], cmd_line);
  907498:	0e5a11        	slli	a10, a5, 2
  90749b:	a5aa      	add.n	a10, a10, a5
  90749d:	b158      	addi.n	a8, a5, 1
  90749f:	0daa11        	slli	a10, a10, 3
  9074a2:	272264        	l32i	a7, a2, 0x190
  9074a5:	9860      	s32i.n	a8, a6, 0
  9074a7:	db30      	mov.n	a11, a3
  9074a9:	aa4a      	add.n	a10, a4, a10
  9074ab:	0b7000        	callx8	a7
		if (cmd_buf_ptr >= COMMAND_BUFFER_SIZE)
  9074ae:	8460      	l32i.n	a4, a6, 0
  9074b0:	6a466e        	blti	a4, 6, 907522 <zf_debug_task+0x17a>
			cmd_buf_ptr = 0;
  9074b3:	c040      	movi.n	a4, 0
  9074b5:	9460      	s32i.n	a4, a6, 0
			cmd_buf_full = TRUE;
  9074b7:	146930        	l32r	a4, 8e1978 <athos_indirection_table_install+0x404>
  9074ba:	c051      	movi.n	a5, 1
  9074bc:	9540      	s32i.n	a5, a4, 0
  9074be:	600060        	j	907522 <zf_debug_task+0x17a>
		pressed_time = 0;
  9074c1:	136932        	l32r	a3, 8e198c <athos_indirection_table_install+0x418>
  9074c4:	c040      	movi.n	a4, 0
  9074c6:	9430      	s32i.n	a4, a3, 0
		if (*i > 0)
  9074c8:	146931        	l32r	a4, 8e198c <athos_indirection_table_install+0x418>
  9074cb:	234100        	l16ui	a3, a4, 0
  9074ce:	643117        	beqz	a3, 9075e9 <zf_debug_task+0x241>
			*i = *i-1;
  9074d1:	b033      	addi.n	a3, a3, -1
  9074d3:	234500        	s16i	a3, a4, 0
			A_PRINTF("\b \b");
  9074d6:	222212        	l32i	a2, a2, 72
  9074d9:	1a6968        	l32r	a10, 8e1a7c <athos_indirection_table_install+0x508>
  9074dc:	600106        	j	9075e6 <zf_debug_task+0x23e>
  9074df:	0023bc        	excw
		if ((ch >= ' ') && (ch <= '~'))
  9074e2:	e0          	.byte 0xe0
  9074e3:	030347        	extui	a3, a3, 0, 8
  9074e6:	c54e      	movi.n	a4, 94
  9074e8:	734329        	bltu	a4, a3, 907515 <zf_debug_task+0x16d>
			pressed_time = 0;
  9074eb:	136932        	l32r	a3, 8e19b4 <athos_indirection_table_install+0x440>
			if (*i < DB_MAX_COMMAND_LENGTH-2)
  9074ee:	156931        	l32r	a5, 8e19b4 <athos_indirection_table_install+0x440>
			pressed_time = 0;
  9074f1:	c040      	movi.n	a4, 0
  9074f3:	9430      	s32i.n	a4, a3, 0
			if (*i < DB_MAX_COMMAND_LENGTH-2)
  9074f5:	235100        	l16ui	a3, a5, 0
  9074f8:	c245      	movi.n	a4, 37
  9074fa:	734b02        	bgeu	a4, a3, 907500 <zf_debug_task+0x158>
  9074fd:	6000e8        	j	9075e9 <zf_debug_task+0x241>
					cmd_line[*i] = ch;
  907500:	146965        	l32r	a4, 8e1a94 <athos_indirection_table_install+0x520>
					A_PRINTF("%c", ch);
  907503:	222212        	l32i	a2, a2, 72
					cmd_line[*i] = ch;
  907506:	a344      	add.n	a4, a4, a3
					*i = *i + 1;
  907508:	b133      	addi.n	a3, a3, 1
					cmd_line[*i] = ch;
  90750a:	2b4400        	s8i	a11, a4, 0
					*i = *i + 1;
  90750d:	235500        	s16i	a3, a5, 0
  907510:	600006        	j	90751a <zf_debug_task+0x172>
  907513:	000022        	excw
			A_PRINTF("%c", ch);
  907516:	2212c0        	l32i	a2, a1, 0x300
  907519:	b71a      	addi.n	a10, a1, 7
  90751b:	693d0b        	bnei	a3, 64, 90752a <zf_debug_task+0x182>
  90751e:	2000d1        	l8ui	a0, a0, 209
  907521:	0fc090        	l32e	a15, a12, -64
			if (strcmp(cmd_buffer[(cmd_buf_ptr==0)?(COMMAND_BUFFER_SIZE-1):(cmd_buf_ptr-1)], cmd_line) != 0)
  907524:	d890      	mov.n	a8, a9
  907526:	df90      	mov.n	a15, a9
				if ((raw_str[i] <= 'z') && (raw_str[i] >= 'a'))
  907528:	c179      	movi.n	a7, 25
  90752a:	63ffff        	j	90752d <zf_debug_task+0x185>
		while (raw_str[i++] == ' '){}
  90752d:	a83d      	add.n	a13, a3, a8
  90752f:	24d000        	l8ui	a4, a13, 0
  907532:	b18b      	addi.n	a11, a8, 1
  907534:	d8b0      	mov.n	a8, a11
  907536:	684cf3        	beqi	a4, 32, 90752d <zf_debug_task+0x185>
  907539:	1e6969        	l32r	a14, 8e1ae0 <athos_indirection_table_install+0x56c>
  90753c:	c061      	movi.n	a6, 1
  90753e:	d4e0      	mov.n	a4, a14
  907540:	600027        	j	90756b <zf_debug_task+0x1c3>
  907543:	00cdf6        	excw
				if ((raw_str[i] <= 'z') && (raw_str[i] >= 'a'))
  907546:	25ac9f        	addi	a5, a10, -97
  907549:	050547        	extui	a5, a5, 0, 8
  90754c:	757305        	bltu	a7, a5, 907555 <zf_debug_task+0x1ad>
					raw_str[i] -= 'a' - 'A';
  90754f:	2aace0        	addi	a10, a10, -32
  907552:	2ad400        	s8i	a10, a13, 0
				cmd_str[k*DB_MAX_COMMAND_LENGTH + j++] = raw_str[i++];
  907555:	25d000        	l8ui	a5, a13, 0
  907558:	25e400        	s8i	a5, a14, 0
  90755b:	600004        	j	907563 <zf_debug_task+0x1bb>
				cmd_str[k*DB_MAX_COMMAND_LENGTH + j++] = raw_str[i++];
  90755e:	a9e5      	add.n	a5, a14, a9
  907560:	2a5400        	s8i	a10, a5, 0
  907563:	b1dd      	addi.n	a13, a13, 1
  907565:	b1bb      	addi.n	a11, a11, 1
  907567:	b166      	addi.n	a6, a6, 1
  907569:	b1ee      	addi.n	a14, a14, 1
  90756b:	b06c      	addi.n	a12, a6, -1
		while(raw_str[i] && (raw_str[i] != ' '))
  90756d:	2ad000        	l8ui	a10, a13, 0
  907570:	9c14      	s32i.n	a12, a1, 16
  907572:	2cfadf        	movi	a12, -33
  907575:	0ca501        	and	a5, a10, a12
  907578:	b0b8      	addi.n	a8, a11, -1
  90757a:	655fc6        	bnez	a5, 907544 <zf_debug_task+0x19c>
		cmd_str[k*DB_MAX_COMMAND_LENGTH + j] = 0;
  90757d:	8614      	l32i.n	a6, a1, 16
	for (k=0; k<4; k++)
  90757f:	b1ff      	addi.n	a15, a15, 1
		cmd_str[k*DB_MAX_COMMAND_LENGTH + j] = 0;
  907581:	a64c      	add.n	a12, a4, a6
  907583:	09cc08        	add	a12, a12, a9
  907586:	25c400        	s8i	a5, a12, 0
  907589:	299c28        	addi	a9, a9, 40
	for (k=0; k<4; k++)
  90758c:	69f49d        	bnei	a15, 4, 90752d <zf_debug_task+0x185>
	return (int)A_STRLEN(cmd_str);
  90758f:	232266        	l32i	a3, a2, 0x198
  907592:	044a02        	or	a10, a4, a4
  907595:	0b3000        	callx8	a3
	if (db_formalize_command(raw_cmd, cmd_str))
  907598:	64a044        	beqz	a10, 9075e0 <zf_debug_task+0x238>
		gvLen = 0;
  90759b:	1c6931        	l32r	a12, 8e1a60 <athos_indirection_table_install+0x4ec>
		cmd_not_found = TRUE;
  90759e:	c031      	movi.n	a3, 1
		gvLen = 0;
  9075a0:	25c500        	s16i	a5, a12, 0
		cmd_not_found = TRUE;
  9075a3:	15696a        	l32r	a5, 8e1b4c <athos_indirection_table_install+0x5d8>
  9075a6:	9350      	s32i.n	a3, a5, 0
  9075a8:	136936        	l32r	a3, 8e1a80 <athos_indirection_table_install+0x50c>
  9075ab:	60001d        	j	9075cc <zf_debug_task+0x224>
			if (!strcmp(command_table[i].cmd_str, cmd_str))
  9075ae:	8a30      	l32i.n	a10, a3, 0
  9075b0:	db40      	mov.n	a11, a4
  9075b2:	5b7beb        	call8	8e6560 <strcmp>
  9075b5:	bc33      	addi.n	a3, a3, 12
  9075b7:	cda1      	bnez.n	a10, 9075cc <zf_debug_task+0x224>
				command_table[i].cmd_func(cmd_str,
  9075b9:	1d696b        	l32r	a13, 8e1b68 <athos_indirection_table_install+0x5f4>
  9075bc:	1c696c        	l32r	a12, 8e1b6c <athos_indirection_table_install+0x5f8>
  9075bf:	1b696d        	l32r	a11, 8e1b74 <athos_indirection_table_install+0x600>
				cmd_not_found = FALSE;
  9075c2:	9a50      	s32i.n	a10, a5, 0
				command_table[i].cmd_func(cmd_str,
  9075c4:	da40      	mov.n	a10, a4
  9075c6:	0b6000        	callx8	a6
  9075c9:	600004        	j	9075d1 <zf_debug_task+0x229>
		while(command_table[i].cmd_func)
  9075cc:	8632      	l32i.n	a6, a3, 8
  9075ce:	656fdc        	bnez	a6, 9075ae <zf_debug_task+0x206>
		if (cmd_not_found)
  9075d1:	235200        	l32i	a3, a5, 0
  9075d4:	643008        	beqz	a3, 9075e0 <zf_debug_task+0x238>
			A_PRINTF("Error, HELP for command list.\n\r");
  9075d7:	232212        	l32i	a3, a2, 72
  9075da:	1a696e        	l32r	a10, 8e1b94 <athos_indirection_table_install+0x620>
  9075dd:	0b3000        	callx8	a3
	A_PRINTF(">");
  9075e0:	222212        	l32i	a2, a2, 72
  9075e3:	1a696f        	l32r	a10, 8e1ba0 <athos_indirection_table_install+0x62c>
  9075e6:	0b2000        	callx8	a2
  9075e9:	d10f      	retw.n
	...

009075ec <db_ascii_to_int>:
{
  9075ec:	6c1004        	entry	a1, 32
	*int_num = 0;
  9075ef:	c080      	movi.n	a8, 0
  9075f1:	9830      	s32i.n	a8, a3, 0
		if ((num_str[i] >= '0') && (num_str[i] <= '9'))
  9075f3:	c0a9      	movi.n	a10, 9
	while (num_str[i])
  9075f5:	600020        	j	907619 <db_ascii_to_int+0x2d>
		if ((num_str[i] >= '0') && (num_str[i] <= '9'))
  9075f8:	288cd0        	addi	a8, a8, -48
  9075fb:	080847        	extui	a8, a8, 0, 8
  9075fe:	78a322        	bltu	a10, a8, 907624 <db_ascii_to_int+0x38>
			*int_num *= 10;
  907601:	8930      	l32i.n	a9, a3, 0
  907603:	0e9811        	slli	a8, a9, 2
  907606:	a988      	add.n	a8, a8, a9
  907608:	0f8811        	slli	a8, a8, 1
  90760b:	9830      	s32i.n	a8, a3, 0
			*int_num += (num_str[i] - '0');
  90760d:	292000        	l8ui	a9, a2, 0
  907610:	288cd0        	addi	a8, a8, -48
  907613:	a898      	add.n	a8, a9, a8
  907615:	9830      	s32i.n	a8, a3, 0
  907617:	b122      	addi.n	a2, a2, 1
	while (num_str[i])
  907619:	282000        	l8ui	a8, a2, 0
  90761c:	658fd8        	bnez	a8, 9075f8 <db_ascii_to_int+0xc>
	return 0;
  90761f:	d280      	mov.n	a2, a8
  907621:	d10f      	retw.n
  907623:	00c72f        	excw
}
  907626:	d10f      	retw.n

00907628 <db_clock_cmd>:
{
  907628:	6c1006        	entry	a1, 48
	uint32_t clk = 0;
  90762b:	c040      	movi.n	a4, 0
	if( db_ascii_to_int(param1, &clk) != -1 )
  90762d:	011b02        	or	a11, a1, a1
  907630:	da30      	mov.n	a10, a3
	uint32_t clk = 0;
  907632:	241600        	s32i	a4, a1, 0
	if( db_ascii_to_int(param1, &clk) != -1 )
  907635:	5bffed        	call8	9075ec <db_ascii_to_int>
  907638:	68a056        	beqi	a10, -1, 907692 <db_clock_cmd+0x6a>
		A_PRINTF("changing clock to %d\n", clk);
  90763b:	1268b5        	l32r	a2, 8e1910 <athos_indirection_table_install+0x39c>
  90763e:	8b10      	l32i.n	a11, a1, 0
  907640:	282212        	l32i	a8, a2, 72
  907643:	1a6970        	l32r	a10, 8e1c04 <athos_indirection_table_install+0x690>
  907646:	0b8000        	callx8	a8
		clk_change(clk, ratio, baud);
  907649:	8910      	l32i.n	a9, a1, 0
	switch(clk){
  90764b:	c2ac      	movi.n	a10, 44
		clk_sel = 2;
  90764d:	c082      	movi.n	a8, 2
	switch(clk){
  90764f:	7a9122        	beq	a9, a10, 907675 <db_clock_cmd+0x4d>
  907652:	79a30e        	bltu	a10, a9, 907664 <db_clock_cmd+0x3c>
  907655:	c1a6      	movi.n	a10, 22
		clk_sel = 0;
  907657:	d840      	mov.n	a8, a4
	switch(clk){
  907659:	7a9118        	beq	a9, a10, 907675 <db_clock_cmd+0x4d>
  90765c:	c248      	movi.n	a4, 40
		clk_sel = 6;
  90765e:	c086      	movi.n	a8, 6
  907660:	60000c        	j	907670 <db_clock_cmd+0x48>
  907663:	00c548        	extui	a5, a0, 12, 9
		clk_sel = 1;
  907666:	c081      	movi.n	a8, 1
	switch(clk){
  907668:	749109        	beq	a9, a4, 907675 <db_clock_cmd+0x4d>
  90766b:	240a75        	movi	a4, 117
		clk_sel = 4;
  90766e:	c084      	movi.n	a8, 4
	switch(clk){
  907670:	749101        	beq	a9, a4, 907675 <db_clock_cmd+0x4d>
		clk_sel = 6;
  907673:	c086      	movi.n	a8, 6
	iowrite32(0x50040, (0x300|clk_sel|(ratio>>1)<<12));
  907675:	243a00        	movi	a4, 0x300
	A_UART_HWINIT((clk*1000*1000)/ratio, baud);
  907678:	1a6973        	l32r	a10, 8e1c44 <athos_indirection_table_install+0x6d0>
	iowrite32(0x50040, (0x300|clk_sel|(ratio>>1)<<12));
  90767b:	048802        	or	a8, a8, a4
  90767e:	146971        	l32r	a4, 8e1c44 <athos_indirection_table_install+0x6d0>
	A_UART_HWINIT((clk*1000*1000)/ratio, baud);
  907681:	22221a        	l32i	a2, a2, 104
  907684:	1b6972        	l32r	a11, 8e1c4c <athos_indirection_table_install+0x6d8>
  907687:	0a9a28        	mull	a10, a9, a10
	*(volatile uint32_t *) addr = b;
  90768a:	0c0200        	memw
  90768d:	9840      	s32i.n	a8, a4, 0
  90768f:	0b2000        	callx8	a2
}
  907692:	d10f      	retw.n

00907694 <cmnos_dbg_module_install>:
void cmnos_dbg_module_install(struct dbg_api *apis)
{
  907694:	6c1004        	entry	a1, 32
	apis->_dbg_init = zf_debug_init;
  907697:	186974        	l32r	a8, 8e1c68 <athos_indirection_table_install+0x6f4>
  90769a:	9820      	s32i.n	a8, a2, 0
	apis->_dbg_task = zf_debug_task;
  90769c:	186975        	l32r	a8, 8e1c70 <athos_indirection_table_install+0x6fc>
  90769f:	9821      	s32i.n	a8, a2, 4
  9076a1:	d10f      	retw.n
	...

009076a4 <_fw_usbfifo_recv_command>:

typedef void (* USBFIFO_recv_command)(VBUF *cmd);
USBFIFO_recv_command m_origUsbfifoRecvCmd = NULL;

void _fw_usbfifo_recv_command(VBUF *buf)
{
  9076a4:	6c1004        	entry	a1, 32
	uint8_t *cmd_data;
	uint32_t tmp;

	cmd_data = (uint8_t *)(buf->desc_list->buf_addr +
  9076a7:	8920      	l32i.n	a9, a2, 0
{
  9076a9:	da20      	mov.n	a10, a2
				buf->desc_list->data_offset);
  9076ab:	2b9105        	l16ui	a11, a9, 10
	tmp = *((uint32_t *)cmd_data);
  9076ae:	8891      	l32i.n	a8, a9, 4
  9076b0:	ab88      	add.n	a8, a8, a11
	if (tmp == 0xFFFFFFFF)
  9076b2:	8880      	l32i.n	a8, a8, 0
  9076b4:	698004        	bnei	a8, -1, 9076bc <_fw_usbfifo_recv_command+0x18>
		_fw_usb_suspend_reboot();
  9076b7:	580cac        	call8	90a968 <_fw_usb_suspend_reboot>
  9076ba:	d10f      	retw.n
	else
		m_origUsbfifoRecvCmd(buf);
  9076bc:	186976        	l32r	a8, 8e1c94 <athos_indirection_table_install+0x720>
  9076bf:	8880      	l32i.n	a8, a8, 0
  9076c1:	0b8000        	callx8	a8
  9076c4:	d10f      	retw.n
	...

009076c8 <_fw_usbfifo_init>:
}

void _fw_usbfifo_init(USB_FIFO_CONFIG *pConfig)
{
  9076c8:	6c1004        	entry	a1, 32
	m_origUsbfifoRecvCmd = pConfig->recv_command;
  9076cb:	8921      	l32i.n	a9, a2, 4
  9076cd:	186976        	l32r	a8, 8e1ca8 <athos_indirection_table_install+0x734>
  9076d0:	9980      	s32i.n	a9, a8, 0

	usbFifoConf.get_command_buf = pConfig->get_command_buf;
  9076d2:	8920      	l32i.n	a9, a2, 0
  9076d4:	186977        	l32r	a8, 8e1cb0 <athos_indirection_table_install+0x73c>
  9076d7:	9980      	s32i.n	a9, a8, 0
	usbFifoConf.recv_command    = _fw_usbfifo_recv_command;
  9076d9:	196978        	l32r	a9, 8e1cbc <athos_indirection_table_install+0x748>
  9076dc:	9981      	s32i.n	a9, a8, 4
	usbFifoConf.get_event_buf   = pConfig->get_event_buf;
  9076de:	8922      	l32i.n	a9, a2, 8
	usbFifoConf.send_event_done = pConfig->send_event_done;
  9076e0:	8223      	l32i.n	a2, a2, 12
	usbFifoConf.get_event_buf   = pConfig->get_event_buf;
  9076e2:	9982      	s32i.n	a9, a8, 8
	usbFifoConf.send_event_done = pConfig->send_event_done;
  9076e4:	9283      	s32i.n	a2, a8, 12
  9076e6:	d10f      	retw.n

009076e8 <cold_reboot>:
}

void cold_reboot(void)
{
  9076e8:	6c1004        	entry	a1, 32
	A_PRINTF("Cold reboot initiated.");
  9076eb:	1268b5        	l32r	a2, 8e19c0 <athos_indirection_table_install+0x44c>
  9076ee:	1a6979        	l32r	a10, 8e1cd4 <athos_indirection_table_install+0x760>
  9076f1:	282212        	l32i	a8, a2, 72
  9076f4:	0b8000        	callx8	a8
  9076f7:	1868b8        	l32r	a8, 8e19d8 <athos_indirection_table_install+0x464>
  9076fa:	c090      	movi.n	a9, 0
#if defined(PROJECT_MAGPIE)
	iowrite32(WATCH_DOG_MAGIC_PATTERN_ADDR, 0);
#elif defined(PROJECT_K2)
	iowrite32(MAGPIE_REG_RST_STATUS_ADDR, 0);
#endif /* #if defined(PROJECT_MAGPIE) */
	A_USB_JUMP_BOOT();
  9076fc:	22222c        	l32i	a2, a2, 176
  9076ff:	0c0200        	memw
  907702:	298600        	s32i	a9, a8, 0
  907705:	0b2000        	callx8	a2
  907708:	d10f      	retw.n
	...

0090770c <usb_status_in_patch>:

/*
 * support more than 64 bytes command on ep3
 */
void usb_status_in_patch(void)
{
  90770c:	6c1004        	entry	a1, 32
	static VBUF *evntbuf = NULL;
	static volatile uint32_t *regaddr;
	static BOOLEAN cmd_is_new = TRUE;
	BOOLEAN cmd_end = FALSE;

	if (cmd_is_new) {
  90770f:	12697a        	l32r	a2, 8e1cf8 <athos_indirection_table_install+0x784>
  907712:	282100        	l16ui	a8, a2, 0
  907715:	648048        	beqz	a8, 907761 <usb_status_in_patch+0x55>
		evntbuf = usbFifoConf.get_event_buf();
  907718:	186977        	l32r	a8, 8e1cf4 <athos_indirection_table_install+0x780>
  90771b:	8a82      	l32i.n	a10, a8, 8
  90771d:	0ba000        	callx8	a10
  907720:	18697b        	l32r	a8, 8e1d0c <athos_indirection_table_install+0x798>
  907723:	9a80      	s32i.n	a10, a8, 0
		if (evntbuf != NULL) {
  907725:	c9af      	beqz.n	a10, 907748 <usb_status_in_patch+0x3c>
			regaddr = (uint32_t *)VBUF_GET_DATA_ADDR(evntbuf);
  907727:	89a0      	l32i.n	a9, a10, 0
  907729:	2b9105        	l16ui	a11, a9, 10
  90772c:	8891      	l32i.n	a8, a9, 4
  90772e:	19697c        	l32r	a9, 8e1d20 <athos_indirection_table_install+0x7ac>
  907731:	ab88      	add.n	a8, a8, a11
  907733:	9890      	s32i.n	a8, a9, 0
			buf_len = evntbuf->buf_length;
  907735:	18697d        	l32r	a8, 8e1d2c <athos_indirection_table_install+0x7b8>
  907738:	29a104        	l16ui	a9, a10, 8
  90773b:	298500        	s16i	a9, a8, 0
		} else {
			mUSB_STATUS_IN_INT_DISABLE();
			return;
		}

		cmd_is_new = FALSE;
  90773e:	c080      	movi.n	a8, 0
  907740:	282500        	s16i	a8, a2, 0
  907743:	60001a        	j	907761 <usb_status_in_patch+0x55>
  907746:	000018        	src	a0, a0, a0
	return *(const volatile uint8_t *) addr;
  907749:	68fb29        	beqi	a15, 16, 907776 <usb_status_in_patch+0x6a>
			mUSB_STATUS_IN_INT_DISABLE();
  90774c:	0ac022        	excw
  90774f:	8000      	l32i.n	a0, a0, 0
  907751:	020247        	extui	a2, a2, 0, 8
  907754:	092202        	or	a2, a2, a9
	*(volatile uint8_t *) addr = b;
  907757:	0c0200        	memw
  90775a:	228400        	s8i	a2, a8, 0
  90775d:	d10f      	retw.n
  90775f:	00001a        	sll	a0, a0
	}

	if (buf_len > USB_EP3_MAX_PKT_SIZE) {
  907762:	697dc4        	bnei	a7, 64, 90772a <usb_status_in_patch+0x1e>
  907765:	9028      	s32i.n	a0, a2, 32
  907767:	a100      	add.n	a0, a0, a1
	}
	/* TODO: 64 bytes...
	 * controller supposed will take care of zero-length? */
	else {
		reg_buf_len = buf_len;
		cmd_end = TRUE;
  907769:	c0c1      	movi.n	a12, 1
	if (buf_len > USB_EP3_MAX_PKT_SIZE) {
  90776b:	789b09        	bgeu	a9, a8, 907778 <usb_status_in_patch+0x6c>
		buf_len -= USB_EP3_MAX_PKT_SIZE;
  90776e:	288cc0        	addi	a8, a8, -64
  907771:	28a500        	s16i	a8, a10, 0
	BOOLEAN cmd_end = FALSE;
  907774:	c0c0      	movi.n	a12, 0
		reg_buf_len = USB_EP3_MAX_PKT_SIZE;
  907776:	d890      	mov.n	a8, a9
  907778:	1b697c        	l32r	a11, 8e1d68 <athos_indirection_table_install+0x7f4>
  90777b:	082914        	srli	a9, a8, 2
  90777e:	8ab0      	l32i.n	a10, a11, 0
  907780:	0e9911        	slli	a9, a9, 2
  907783:	a9a9      	add.n	a9, a10, a9
	}

	/* INT use EP3 */
	for (count = 0; count < (reg_buf_len / 4); count++)
  907785:	c0d0      	movi.n	a13, 0
  907787:	1e68fc        	l32r	a14, 8e1b78 <athos_indirection_table_install+0x604>
  90778a:	c0f1      	movi.n	a15, 1
  90778c:	60000e        	j	90779e <usb_status_in_patch+0x92>
  90778f:	000c02        	or	a12, a0, a0
	{
		iowrite32_usb(ZM_EP3_DATA_OFFSET, *regaddr);
  907792:	008da0        	excw
		regaddr++;
  907795:	b4aa      	addi.n	a10, a10, 4
	*(volatile uint32_t *) addr = b;
  907797:	0c0200        	memw
  90779a:	9de0      	s32i.n	a13, a14, 0
  90779c:	ddf0      	mov.n	a13, a15
	for (count = 0; count < (reg_buf_len / 4); count++)
  90779e:	7a99ee        	bne	a9, a10, 907790 <usb_status_in_patch+0x84>
  9077a1:	c8d0      	beqz.n	a13, 9077a5 <usb_status_in_patch+0x99>
  9077a3:	99b0      	s32i.n	a9, a11, 0
	}

	remainder = reg_buf_len % 4;
  9077a5:	080841        	extui	a8, a8, 0, 2

	if (remainder) {
  9077a8:	cb81      	beqz.n	a8, 9077dd <usb_status_in_patch+0xd1>
  9077aa:	1968db        	l32r	a9, 8e1b18 <athos_indirection_table_install+0x5a4>
		switch(remainder) {
  9077ad:	688207        	beqi	a8, 2, 9077b8 <usb_status_in_patch+0xac>
  9077b0:	698309        	bnei	a8, 3, 9077bd <usb_status_in_patch+0xb1>
  9077b3:	c087      	movi.n	a8, 7
  9077b5:	600006        	j	9077bf <usb_status_in_patch+0xb3>
  9077b8:	c083      	movi.n	a8, 3
  9077ba:	600001        	j	9077bf <usb_status_in_patch+0xb3>
  9077bd:	c081      	movi.n	a8, 1
  9077bf:	0c0200        	memw
  9077c2:	9890      	s32i.n	a8, a9, 0
		case 1:
			iowrite32_usb(ZM_CBUS_FIFO_SIZE_OFFSET, 0x1);
			break;
		}

		iowrite32_usb(ZM_EP3_DATA_OFFSET, *regaddr);
  9077c4:	88b0      	l32i.n	a8, a11, 0
  9077c6:	0c0200        	memw
  9077c9:	8980      	l32i.n	a9, a8, 0
  9077cb:	1868fc        	l32r	a8, 8e1bbc <athos_indirection_table_install+0x648>
  9077ce:	0c0200        	memw
  9077d1:	9980      	s32i.n	a9, a8, 0
  9077d3:	1868db        	l32r	a8, 8e1b40 <athos_indirection_table_install+0x5cc>
  9077d6:	c09f      	movi.n	a9, 15
  9077d8:	0c0200        	memw
  9077db:	9980      	s32i.n	a9, a8, 0
	return *(const volatile uint8_t *) addr;
  9077dd:	1968fe        	l32r	a9, 8e1bd8 <athos_indirection_table_install+0x664>

		/* Restore CBus FIFO size to word size */
		iowrite32_usb(ZM_CBUS_FIFO_SIZE_OFFSET, 0xF);
	}

	mUSB_EP3_XFER_DONE();
  9077e0:	c0a8      	movi.n	a10, 8
  9077e2:	289000        	l8ui	a8, a9, 0
  9077e5:	080847        	extui	a8, a8, 0, 8
  9077e8:	0a8802        	or	a8, a8, a10
	*(volatile uint8_t *) addr = b;
  9077eb:	0c0200        	memw
  9077ee:	289400        	s8i	a8, a9, 0

	if (evntbuf != NULL && cmd_end) {
  9077f1:	18697b        	l32r	a8, 8e1de0 <athos_indirection_table_install+0x86c>
  9077f4:	8a80      	l32i.n	a10, a8, 0
  9077f6:	c8af      	beqz.n	a10, 907809 <usb_status_in_patch+0xfd>
  9077f8:	64c00d        	beqz	a12, 907809 <usb_status_in_patch+0xfd>
		usbFifoConf.send_event_done(evntbuf);
  9077fb:	186977        	l32r	a8, 8e1dd8 <athos_indirection_table_install+0x864>
  9077fe:	288203        	l32i	a8, a8, 12
  907801:	0b8000        	callx8	a8
		cmd_is_new = TRUE;
  907804:	c081      	movi.n	a8, 1
  907806:	282500        	s16i	a8, a2, 0
  907809:	d10f      	retw.n
	...

0090780c <usb_reg_out_patch>:

/*
 * support more than 64 bytes command on ep4
 */
void usb_reg_out_patch(void)
{
  90780c:	6c1004        	entry	a1, 32
	return *(const volatile uint8_t *) addr;
  90780f:	12697e        	l32r	a2, 8e1e08 <athos_indirection_table_install+0x894>
	static BOOLEAN cmd_is_new = TRUE;

	/* get the size of this transcation */
	usbfifolen = ioread8_usb(ZM_EP4_BYTE_COUNT_LOW_OFFSET);

	if (usbfifolen > USB_EP4_MAX_PKT_SIZE) {
  907812:	240a40        	movi	a4, 64
  907815:	222000        	l8ui	a2, a2, 0
  907818:	020247        	extui	a2, a2, 0, 8
	usbfifolen = ioread8_usb(ZM_EP4_BYTE_COUNT_LOW_OFFSET);
  90781b:	02034f        	extui	a3, a2, 0, 16
	if (usbfifolen > USB_EP4_MAX_PKT_SIZE) {
  90781e:	734b11        	bgeu	a4, a3, 907833 <usb_reg_out_patch+0x27>
		A_PRINTF("EP4 FIFO Bug? Buffer is too big: %x\n", usbfifolen);
  907821:	1468b5        	l32r	a4, 8e1af8 <athos_indirection_table_install+0x584>
  907824:	1a697f        	l32r	a10, 8e1e20 <athos_indirection_table_install+0x8ac>
  907827:	244212        	l32i	a4, a4, 72
  90782a:	022b02        	or	a11, a2, a2
  90782d:	0b4000        	callx8	a4
		cold_reboot();
  907830:	5bffad        	call8	9076e8 <cold_reboot>
	}

	/* check is command is new */
	if(cmd_is_new) {
  907833:	146980        	l32r	a4, 8e1e34 <athos_indirection_table_install+0x8c0>
  907836:	156981        	l32r	a5, 8e1e3c <athos_indirection_table_install+0x8c8>
  907839:	284100        	l16ui	a8, a4, 0
  90783c:	ca8d      	beqz.n	a8, 90786d <usb_reg_out_patch+0x61>

		buf = usbFifoConf.get_command_buf();
  90783e:	186977        	l32r	a8, 8e1e1c <athos_indirection_table_install+0x8a8>
  907841:	8a80      	l32i.n	a10, a8, 0
  907843:	0ba000        	callx8	a10
		cmd_len = 0;
  907846:	196982        	l32r	a9, 8e1e50 <athos_indirection_table_install+0x8dc>
  907849:	c080      	movi.n	a8, 0
		buf = usbFifoConf.get_command_buf();
  90784b:	9a50      	s32i.n	a10, a5, 0
		cmd_len = 0;
  90784d:	289500        	s16i	a8, a9, 0

		if(!buf) {
  907850:	ccad      	bnez.n	a10, 907861 <usb_reg_out_patch+0x55>
			A_PRINTF("%s: Filed to get new buffer.\n", __func__);
  907852:	1268b5        	l32r	a2, 8e1b28 <athos_indirection_table_install+0x5b4>
  907855:	1b6983        	l32r	a11, 8e1e64 <athos_indirection_table_install+0x8f0>
  907858:	222212        	l32i	a2, a2, 72
  90785b:	1a6984        	l32r	a10, 8e1e6c <athos_indirection_table_install+0x8f8>
  90785e:	600031        	j	907893 <usb_reg_out_patch+0x87>
			goto err;
		}

		/* copy free, assignment buffer of the address */
		regaddr = (uint32_t *)buf->desc_list->buf_addr;
  907861:	89a0      	l32i.n	a9, a10, 0

		cmd_is_new = FALSE;
  907863:	284500        	s16i	a8, a4, 0
		regaddr = (uint32_t *)buf->desc_list->buf_addr;
  907866:	8a91      	l32i.n	a10, a9, 4
  907868:	196985        	l32r	a9, 8e1e7c <athos_indirection_table_install+0x908>
  90786b:	9a90      	s32i.n	a10, a9, 0
	}

	/* just in case, suppose should not happen */
	if(!buf)
  90786d:	8a50      	l32i.n	a10, a5, 0
  90786f:	caa3      	beqz.n	a10, 907896 <usb_reg_out_patch+0x8a>
	 */
	if(usbfifolen < USB_EP4_MAX_PKT_SIZE)
		cmd_is_last = TRUE;

	/* accumulate the size */
	cmd_len += usbfifolen;
  907871:	196982        	l32r	a9, 8e1e7c <athos_indirection_table_install+0x908>
  907874:	289100        	l16ui	a8, a9, 0
  907877:	a838      	add.n	a8, a3, a8
  907879:	08084f        	extui	a8, a8, 0, 16
  90787c:	289500        	s16i	a8, a9, 0

	if (cmd_len > buf->desc_list->buf_size) {
  90787f:	89a0      	l32i.n	a9, a10, 0
  907881:	259104        	l16ui	a5, a9, 8
  907884:	785b18        	bgeu	a5, a8, 9078a0 <usb_reg_out_patch+0x94>
		A_PRINTF("%s: Data length on EP4 FIFO is bigger as "
  907887:	1268b5        	l32r	a2, 8e1b5c <athos_indirection_table_install+0x5e8>
  90788a:	1b6983        	l32r	a11, 8e1e98 <athos_indirection_table_install+0x924>
  90788d:	222212        	l32i	a2, a2, 72
  907890:	1a6986        	l32r	a10, 8e1ea8 <athos_indirection_table_install+0x934>
  907893:	0b2000        	callx8	a2
		usbfifolen = (usbfifolen >> 2) + 1;
	else
		usbfifolen = usbfifolen >> 2;

	/* retrieve the data from fifo */
	for(ii = 0; ii < usbfifolen; ii++) {
  907896:	c020      	movi.n	a2, 0
	return *(const volatile uint32_t *) addr;
  907898:	146987        	l32r	a4, 8e1eb4 <athos_indirection_table_install+0x940>
  90789b:	600067        	j	907906 <usb_reg_out_patch+0xfa>
  90789e:	000003        	xor	a0, a0, a0
		usbfifolen = (usbfifolen >> 2) + 1;
  9078a1:	2b141c        	s8i	a11, a1, 28
  9078a4:	698502        	bnei	a8, 5, 9078aa <usb_reg_out_patch+0x9e>
	if(usbfifolen % 4)
  9078a7:	0241b1        	excw
		usbfifolen = (usbfifolen >> 2) + 1;
  9078aa:	b502      	addi.n	a2, a0, 5
  9078ac:	b538      	addi.n	a8, a3, 5
  9078ae:	8bc0      	l32i.n	a11, a12, 0
  9078b0:	0e5211        	slli	a2, a5, 2
  9078b3:	a2b2      	add.n	a2, a11, a2
	for(ii = 0; ii < usbfifolen; ii++) {
  9078b5:	c0d0      	movi.n	a13, 0
  9078b7:	156987        	l32r	a5, 8e1ed4 <athos_indirection_table_install+0x960>
  9078ba:	c0e1      	movi.n	a14, 1
  9078bc:	60000e        	j	9078ce <usb_reg_out_patch+0xc2>
  9078bf:	000c02        	or	a12, a0, a0
  9078c2:	008d50        	extui	a13, a0, 24, 1
		/* read fifo data out */
		ep4_data = ioread32_usb(ZM_EP4_DATA_OFFSET);
		*regaddr = ep4_data;
  9078c5:	0c0200        	memw
  9078c8:	9db0      	s32i.n	a13, a11, 0
		regaddr++;
  9078ca:	b4bb      	addi.n	a11, a11, 4
  9078cc:	dde0      	mov.n	a13, a14
	for(ii = 0; ii < usbfifolen; ii++) {
  9078ce:	7b29ee        	bne	a2, a11, 9078c0 <usb_reg_out_patch+0xb4>
  9078d1:	c8d0      	beqz.n	a13, 9078d5 <usb_reg_out_patch+0xc9>
  9078d3:	92c0      	s32i.n	a2, a12, 0
	}

	/* if this is the last command, callback to HTC */
	if (cmd_is_last) {
  9078d5:	c32f      	movi.n	a2, 63
  9078d7:	73232e        	bltu	a2, a3, 907909 <usb_reg_out_patch+0xfd>
		buf->desc_list->next_desc = NULL;
  9078da:	c020      	movi.n	a2, 0
  9078dc:	9290      	s32i.n	a2, a9, 0
		buf->desc_list->data_offset = 0;
  9078de:	229505        	s16i	a2, a9, 10
		buf->desc_list->data_size = cmd_len;
		buf->desc_list->control = 0;
  9078e1:	229507        	s16i	a2, a9, 14
		buf->desc_list->data_size = cmd_len;
  9078e4:	289506        	s16i	a8, a9, 12
		buf->next_buf = NULL;
  9078e7:	92a1      	s32i.n	a2, a10, 4
		buf->buf_length = cmd_len;

		usbFifoConf.recv_command(buf);
  9078e9:	126977        	l32r	a2, 8e1ec8 <athos_indirection_table_install+0x954>
		buf->buf_length = cmd_len;
  9078ec:	28a504        	s16i	a8, a10, 8
		usbFifoConf.recv_command(buf);
  9078ef:	8221      	l32i.n	a2, a2, 4
  9078f1:	0b2000        	callx8	a2

		cmd_is_new = TRUE;
  9078f4:	c021      	movi.n	a2, 1
  9078f6:	224500        	s16i	a2, a4, 0
  9078f9:	d10f      	retw.n
  9078fb:	00b122        	excw
  9078fe:	0c0200        	memw
  907901:	8540      	l32i.n	a5, a4, 0
	goto done;
err:
	/* we might get no command buffer here?
	 * but if we return here, the ep4 fifo will be lock out,
	 * so that we still read them out but just drop it? */
	for(ii = 0; ii < usbfifolen; ii++)
  907903:	02024f        	extui	a2, a2, 0, 16
  907906:	7323f2        	bltu	a2, a3, 9078fc <usb_reg_out_patch+0xf0>
  907909:	d10f      	retw.n
	...

0090790c <vUSBFIFO_EP6Cfg_FS_patch>:
#define FS_C1_I0_A0_EP6_MAP		\
	 (FS_C1_I0_A0_EP6_FIFO_START | (FS_C1_I0_A0_EP6_FIFO_START << 4) | \
	  (MASK_F0 >> (4*FS_C1_I0_A0_EP6_DIRECTION)))

void vUSBFIFO_EP6Cfg_FS_patch(void)
{
  90790c:	6c1004        	entry	a1, 32
#if (FS_C1_I0_A0_EP_NUMBER >= 6)
	int i;

	/* EP0X06 */
	mUsbEPMap(EP6, FS_C1_I0_A0_EP6_MAP);
  90790f:	2b0a6f        	movi	a11, 111
  907912:	2a0a06        	movi	a10, 6
  907915:	5b73f8        	call8	8e48f8 <mUsbEPMap>
	mUsbFIFOMap(FS_C1_I0_A0_EP6_FIFO_START, FS_C1_I0_A0_EP6_FIFO_MAP);
  907918:	2b0a06        	movi	a11, 6
  90791b:	0bba02        	or	a10, a11, a11
  90791e:	5b73fd        	call8	8e4914 <mUsbFIFOMap>
	mUsbFIFOConfig(FS_C1_I0_A0_EP6_FIFO_START, FS_C1_I0_A0_EP6_FIFO_CONFIG);
  907921:	2b0a86        	movi	a11, 134
  907924:	c0a6      	movi.n	a10, 6
  907926:	5b7403        	call8	8e4934 <mUsbFIFOConfig>

	for(i = FS_C1_I0_A0_EP6_FIFO_START + 1 ;
            i < FS_C1_I0_A0_EP6_FIFO_START + FS_C1_I0_A0_EP6_FIFO_NO ; i ++)
	{
		mUsbFIFOConfig(i, (FS_C1_I0_A0_EP6_FIFO_CONFIG & (~BIT7)) );
  907929:	c0b6      	movi.n	a11, 6
  90792b:	c0a7      	movi.n	a10, 7
  90792d:	5b7401        	call8	8e4934 <mUsbFIFOConfig>
	}

	mUsbEPMxPtSzHigh(EP6, FS_C1_I0_A0_EP6_DIRECTION,
  907930:	c4c0      	movi.n	a12, 64
  907932:	c0b1      	movi.n	a11, 1
  907934:	c0a6      	movi.n	a10, 6
  907936:	5b7407        	call8	8e4954 <mUsbEPMxPtSzHigh>
			 (FS_C1_I0_A0_EP6_MAX_PACKET & 0x7ff));
	mUsbEPMxPtSzLow(EP6, FS_C1_I0_A0_EP6_DIRECTION,
  907939:	c4c0      	movi.n	a12, 64
  90793b:	c0b1      	movi.n	a11, 1
  90793d:	c0a6      	movi.n	a10, 6
  90793f:	5b740f        	call8	8e497c <mUsbEPMxPtSzLow>
			(FS_C1_I0_A0_EP6_MAX_PACKET & 0x7ff));
	mUsbEPinHighBandSet(EP6, FS_C1_I0_A0_EP6_DIRECTION,
  907942:	c4c0      	movi.n	a12, 64
  907944:	c0b1      	movi.n	a11, 1
  907946:	2a0a06        	movi	a10, 6
  907949:	5b7415        	call8	8e49a0 <mUsbEPinHighBandSet>
  90794c:	d10f      	retw.n
	...

00907950 <vUsbFIFO_EPxCfg_FS_patch>:
			    FS_C1_I0_A0_EP6_MAX_PACKET);
#endif
}

void vUsbFIFO_EPxCfg_FS_patch(void)
{
  907950:	6c1004        	entry	a1, 32
	switch (u8UsbConfigValue)
  907953:	186988        	l32r	a8, 8e1f74 <athos_indirection_table_install+0xa00>
  907956:	288100        	l16ui	a8, a8, 0
  907959:	698113        	bnei	a8, 1, 907970 <vUsbFIFO_EPxCfg_FS_patch+0x20>
	{
#if (FS_CONFIGURATION_NUMBER >= 1)
		/* Configuration 0X01 */
        case 0X01:
		switch (u8UsbInterfaceValue)
  90795c:	186989        	l32r	a8, 8e1f80 <athos_indirection_table_install+0xa0c>
  90795f:	288100        	l16ui	a8, a8, 0
  907962:	cc8a      	bnez.n	a8, 907970 <vUsbFIFO_EPxCfg_FS_patch+0x20>
		{
#if (FS_C1_INTERFACE_NUMBER >= 1)
			/* Interface 0 */
                case 0:
			switch (u8UsbInterfaceAlternateSetting)
  907964:	18698a        	l32r	a8, 8e1f8c <athos_indirection_table_install+0xa18>
  907967:	288100        	l16ui	a8, a8, 0
  90796a:	658002        	bnez	a8, 907970 <vUsbFIFO_EPxCfg_FS_patch+0x20>
                        case 0:

				/* snapped.... */

				/* patch up this ep6_fs config */
				vUSBFIFO_EP6Cfg_FS_patch();
  90796d:	5bffe7        	call8	90790c <vUSBFIFO_EP6Cfg_FS_patch>
  907970:	d10f      	retw.n
	...

00907974 <bSet_configuration_patch>:
	}
	/* mCHECK_STACK(); */
}

BOOLEAN bSet_configuration_patch(void)
{
  907974:	6c1004        	entry	a1, 32
	/* do some defaul configuration */
	bSet_configuration();
  907977:	5b7077        	call8	8e3b54 <bSet_configuration>

	/* overwrite defaul FIFO configuration for FullSpeed USB */
	if ((mLOW_BYTE(mDEV_REQ_VALUE()) != 0) && !mUsbHighSpeedST())
  90797a:	12698b        	l32r	a2, 8e1fa8 <athos_indirection_table_install+0xa34>
  90797d:	222007        	l8ui	a2, a2, 7
  907980:	c82a      	beqz.n	a2, 90798e <bSet_configuration_patch+0x1a>
	return *(const volatile uint8_t *) addr;
  907982:	1268d6        	l32r	a2, 8e1cdc <athos_indirection_table_install+0x768>
  907985:	222000        	l8ui	a2, a2, 0
  907988:	792f02        	bbsi	a2, 25, 90798e <bSet_configuration_patch+0x1a>
			vUsbFIFO_EPxCfg_FS_patch();
  90798b:	5bfff1        	call8	907950 <vUsbFIFO_EPxCfg_FS_patch>

	eUsbCxFinishAction = ACT_DONE;
  90798e:	18698c        	l32r	a8, 8e1fc0 <athos_indirection_table_install+0xa4c>
  907991:	c021      	movi.n	a2, 1
  907993:	9280      	s32i.n	a2, a8, 0
	return TRUE;
}
  907995:	d10f      	retw.n
	...

00907998 <bStandardCommand_patch>:

extern BOOLEAN bStandardCommand(void);

BOOLEAN bStandardCommand_patch(void)
{
  907998:	6c1004        	entry	a1, 32
	if (mDEV_REQ_REQ() == USB_SET_CONFIGURATION) {
  90799b:	18698b        	l32r	a8, 8e1fc8 <athos_indirection_table_install+0xa54>
  90799e:	298102        	l16ui	a9, a8, 4
  9079a1:	280a09        	movi	a8, 9
  9079a4:	78992d        	bne	a9, a8, 9079d5 <bStandardCommand_patch+0x3d>
		A_USB_SET_CONFIG();
  9079a7:	1868b5        	l32r	a8, 8e1c7c <athos_indirection_table_install+0x708>
  9079aa:	2a8226        	l32i	a10, a8, 152
  9079ad:	0ba000        	callx8	a10

#if ENABLE_SWAP_DATA_MODE
		/* SWAP FUNCTION should be enabled while DMA engine
		 * is not working, the best place to enable it
		 * is before we trigger the DMA */
		MAGPIE_REG_USB_RX0_SWAP_DATA = 0x1;
  9079b0:	1868f4        	l32r	a8, 8e1d80 <athos_indirection_table_install+0x80c>
  9079b3:	c0a1      	movi.n	a10, 1
  9079b5:	0c0200        	memw
  9079b8:	9a80      	s32i.n	a10, a8, 0
		MAGPIE_REG_USB_TX0_SWAP_DATA = 0x1;
  9079ba:	1868f5        	l32r	a8, 8e1d90 <athos_indirection_table_install+0x81c>
  9079bd:	0c0200        	memw
  9079c0:	9a80      	s32i.n	a10, a8, 0

#if SYSTEM_MODULE_HP_EP5
		MAGPIE_REG_USB_RX1_SWAP_DATA = 0x1;
  9079c2:	1868f6        	l32r	a8, 8e1d9c <athos_indirection_table_install+0x828>
  9079c5:	0c0200        	memw
  9079c8:	9a80      	s32i.n	a10, a8, 0
#endif

#if SYSTEM_MODULE_HP_EP6
		MAGPIE_REG_USB_RX2_SWAP_DATA = 0x1;
  9079ca:	1868f7        	l32r	a8, 8e1da8 <athos_indirection_table_install+0x834>
  9079cd:	0c0200        	memw
  9079d0:	9a80      	s32i.n	a10, a8, 0
#endif

#endif /* ENABLE_SWAP_DATA_MODE */
		return TRUE;
  9079d2:	600002        	j	9079d8 <bStandardCommand_patch+0x40>
	} else
		return bStandardCommand();
  9079d5:	5b7123        	call8	8e3e64 <bStandardCommand>
}
  9079d8:	d2a0      	mov.n	a2, a10
  9079da:	d10f      	retw.n

009079dc <bGet_descriptor_patch>:
#define EP3_INT_INTERVAL		19
#define EP4_TRANSFER_TYPE_OFFSET	21
#define EP4_INT_INTERVAL		22

BOOLEAN bGet_descriptor_patch(void)
{
  9079dc:	6c1004        	entry	a1, 32
	if (mDEV_REQ_VALUE_HIGH() == 1)
  9079df:	12698b        	l32r	a2, 8e200c <athos_indirection_table_install+0xa98>
  9079e2:	282103        	l16ui	a8, a2, 6
  9079e5:	088814        	srli	a8, a8, 8
  9079e8:	698120        	bnei	a8, 1, 907a0c <bGet_descriptor_patch+0x30>
	{
		uint8_t *p = (uint8_t *)u8UsbDeviceDescriptor;
  9079eb:	14698d        	l32r	a4, 8e2020 <athos_indirection_table_install+0xaac>

		/* Copy Usb Device Descriptor */
		ath_hal_memcpy(UsbDeviceDescriptorPatch, p,
  9079ee:	13698e        	l32r	a3, 8e2028 <athos_indirection_table_install+0xab4>
  9079f1:	8b40      	l32i.n	a11, a4, 0
  9079f3:	da30      	mov.n	a10, a3
  9079f5:	c1c2      	movi.n	a12, 18
  9079f7:	580035        	call8	907acc <ath_hal_memcpy>
				sizeof(UsbDeviceDescriptorPatch));

		/* Change bcdDevice. we need it to detect if FW
		 * was uploaded. */
		UsbDeviceDescriptorPatch[BCD_DEVICE_OFFSET] =
  9079fa:	c78f      	movi.n	a8, -1
  9079fc:	283506        	s16i	a8, a3, 12
			BCD_DEVICE_FW_SIGNATURE;

		pu8DescriptorEX = UsbDeviceDescriptorPatch;
  9079ff:	18698f        	l32r	a8, 8e203c <athos_indirection_table_install+0xac8>
  907a02:	9380      	s32i.n	a3, a8, 0
		u16TxRxCounter = mTABLE_LEN(u8UsbDeviceDescriptor[0]);
  907a04:	8340      	l32i.n	a3, a4, 0
  907a06:	283001        	l8ui	a8, a3, 1
  907a09:	600024        	j	907a31 <bGet_descriptor_patch+0x55>
			u16TxRxCounter = mDEV_REQ_LENGTH();

		A_USB_EP0_TX_DATA();

		return TRUE;
	} else if (mDEV_REQ_VALUE_HIGH() == 2) {
  907a0c:	69823e        	bnei	a8, 2, 907a4e <bGet_descriptor_patch+0x72>
		uint8_t *p = (uint8_t *)u8ConfigDescriptorEX;

		/* Copy ConfigDescriptor */
		ath_hal_memcpy(ConfigDescriptorPatch, p,
  907a0f:	146991        	l32r	a4, 8e2054 <athos_indirection_table_install+0xae0>
  907a12:	136992        	l32r	a3, 8e205c <athos_indirection_table_install+0xae8>
  907a15:	2b4200        	l32i	a11, a4, 0
  907a18:	2c0a3c        	movi	a12, 60
  907a1b:	033a02        	or	a10, a3, a3
  907a1e:	58002b        	call8	907acc <ath_hal_memcpy>
				sizeof(ConfigDescriptorPatch));

		 /* place holder for EPx patches */

		if (mDEV_REQ_VALUE_LOW() == 0) {
  907a21:	242007        	l8ui	a4, a2, 7
			/* configuration no: 0 */
			pu8DescriptorEX = ConfigDescriptorPatch;
			u16TxRxCounter = ConfigDescriptorPatch[1];
		} else
			return FALSE;
  907a24:	c0a0      	movi.n	a10, 0
		if (mDEV_REQ_VALUE_LOW() == 0) {
  907a26:	7a4927        	bne	a4, a10, 907a51 <bGet_descriptor_patch+0x75>
			pu8DescriptorEX = ConfigDescriptorPatch;
  907a29:	14698f        	l32r	a4, 8e2068 <athos_indirection_table_install+0xaf4>
			u16TxRxCounter = ConfigDescriptorPatch[1];
  907a2c:	283101        	l16ui	a8, a3, 2
			pu8DescriptorEX = ConfigDescriptorPatch;
  907a2f:	9340      	s32i.n	a3, a4, 0
			u16TxRxCounter = ConfigDescriptorPatch[1];
  907a31:	136990        	l32r	a3, 8e2074 <athos_indirection_table_install+0xb00>

		if (u16TxRxCounter > mDEV_REQ_LENGTH())
  907a34:	222105        	l16ui	a2, a2, 10
			u16TxRxCounter = ConfigDescriptorPatch[1];
  907a37:	283500        	s16i	a8, a3, 0
		if (u16TxRxCounter > mDEV_REQ_LENGTH())
  907a3a:	782b02        	bgeu	a2, a8, 907a40 <bGet_descriptor_patch+0x64>
			u16TxRxCounter = mDEV_REQ_LENGTH();
  907a3d:	223500        	s16i	a2, a3, 0

		A_USB_EP0_TX_DATA();
  907a40:	1268b5        	l32r	a2, 8e1d14 <athos_indirection_table_install+0x7a0>
  907a43:	222235        	l32i	a2, a2, 212
  907a46:	0b2000        	callx8	a2
		return TRUE;
  907a49:	c0a1      	movi.n	a10, 1
  907a4b:	600002        	j	907a51 <bGet_descriptor_patch+0x75>
	} else
		return bGet_descriptor();
  907a4e:	5b7013        	call8	8e3a9c <bGet_descriptor>
}
  907a51:	d2a0      	mov.n	a2, a10
  907a53:	d10f      	retw.n
  907a55:	000000        	ill

00907a58 <ath_hal_getuptime>:
#include<ah_internal.h>
#include "ah_osdep.h"

a_uint32_t __ahdecl
ath_hal_getuptime(struct ath_hal *ah)
{
  907a58:	6c1004        	entry	a1, 32
	return MSEC_TO_TICK(msecs);
}
static inline unsigned long
__adf_os_getuptime(void)
{
    return MSEC_TO_TICK(A_MILLISECONDS());;
  907a5b:	1868b5        	l32r	a8, 8e1d30 <athos_indirection_table_install+0x7bc>
  907a5e:	2a823e        	l32i	a10, a8, 248
  907a61:	0ba000        	callx8	a10
	return adf_os_getuptime();
}
  907a64:	d2a0      	mov.n	a2, a10
  907a66:	d10f      	retw.n

00907a68 <_ath_hal_attach_tgt>:

struct ath_hal *
_ath_hal_attach_tgt(a_uint32_t devid, HAL_SOFTC sc,
		    adf_os_device_t dev, a_uint32_t flags, void* s)
{
  907a68:	6c1006        	entry	a1, 48
	HAL_STATUS status;
	struct ath_hal *ah = ath_hal_attach_tgt(devid, sc, dev, flags, &status);
  907a6b:	de10      	mov.n	a14, a1
  907a6d:	dd50      	mov.n	a13, a5
  907a6f:	dc40      	mov.n	a12, a4
  907a71:	db30      	mov.n	a11, a3
  907a73:	da20      	mov.n	a10, a2
  907a75:	580c7d        	call8	90ac6c <ath_hal_attach_tgt>
	adf_os_print(" ath_hal = %p \n",ah);
  907a78:	1868b5        	l32r	a8, 8e1d4c <athos_indirection_table_install+0x7d8>
  907a7b:	dba0      	mov.n	a11, a10
	struct ath_hal *ah = ath_hal_attach_tgt(devid, sc, dev, flags, &status);
  907a7d:	d2a0      	mov.n	a2, a10
	adf_os_print(" ath_hal = %p \n",ah);
  907a7f:	288212        	l32i	a8, a8, 72
  907a82:	1a6993        	l32r	a10, 8e20d0 <athos_indirection_table_install+0xb5c>
  907a85:	0b8000        	callx8	a8
	*(HAL_STATUS *)s = status;
  907a88:	8810      	l32i.n	a8, a1, 0
  907a8a:	9860      	s32i.n	a8, a6, 0
	return ah;
}
  907a8c:	d10f      	retw.n
	...

00907a90 <ath_hal_delay>:
/*
 * Delay n microseconds.
 */
void __ahdecl
ath_hal_delay(a_int32_t n)
{
  907a90:	6c1004        	entry	a1, 32
}

static inline void
__adf_os_udelay(int usecs)
{
    A_DELAY_USECS(usecs);
  907a93:	1868b5        	l32r	a8, 8e1d68 <athos_indirection_table_install+0x7f4>
  907a96:	da20      	mov.n	a10, a2
  907a98:	28823b        	l32i	a8, a8, 236
  907a9b:	0b8000        	callx8	a8
  907a9e:	d10f      	retw.n

00907aa0 <ath_hal_malloc>:
/*
 * Allocate/free memory.
 */
void * __ahdecl
ath_hal_malloc(adf_os_size_t size)
{
  907aa0:	6c1004        	entry	a1, 32
  907aa3:	1468b5        	l32r	a4, 8e1d78 <athos_indirection_table_install+0x804>
  907aa6:	d320      	mov.n	a3, a2
  907aa8:	224252        	l32i	a2, a4, 0x148
  907aab:	db30      	mov.n	a11, a3
  907aad:	c0a0      	movi.n	a10, 0
  907aaf:	0b2000        	callx8	a2
  907ab2:	d2a0      	mov.n	a2, a10
	void *p;

	p = adf_os_mem_alloc(size);
	if (p)
  907ab4:	c8a8      	beqz.n	a10, 907ac0 <ath_hal_malloc+0x20>
}
/* zero a memory buffer */
static inline void
__adf_os_mem_zero(void *buf, adf_os_size_t size)
{
    A_MEMZERO(buf,size);
  907ab6:	8444      	l32i.n	a4, a4, 16
  907ab8:	dc30      	mov.n	a12, a3
  907aba:	2b0a00        	movi	a11, 0
  907abd:	0b4000        	callx8	a4
		adf_os_mem_zero(p, size);

	return p;
}
  907ac0:	d10f      	retw.n
	...

00907ac4 <ath_hal_free>:

void __ahdecl
ath_hal_free(void* p)
{
  907ac4:	6c1004        	entry	a1, 32
  907ac7:	d10f      	retw.n
  907ac9:	000000        	ill

00907acc <ath_hal_memcpy>:
	adf_os_mem_free(p);
}

void * __ahdecl
ath_hal_memcpy(void *dst, const void *src, adf_os_size_t n)
{
  907acc:	6c1004        	entry	a1, 32
    A_MEMCPY(dst,src,size);
  907acf:	1868b5        	l32r	a8, 8e1da4 <athos_indirection_table_install+0x830>
  907ad2:	dc40      	mov.n	a12, a4
  907ad4:	8885      	l32i.n	a8, a8, 20
  907ad6:	db30      	mov.n	a11, a3
  907ad8:	da20      	mov.n	a10, a2
  907ada:	0b8000        	callx8	a8
	adf_os_mem_copy(dst, src, n);
	return 0;
}
  907add:	c020      	movi.n	a2, 0
  907adf:	d10f      	retw.n
  907ae1:	000000        	ill

00907ae4 <__adf_os_mem_alloc>:
{
  907ae4:	6c1004        	entry	a1, 32
    return A_ALLOCRAM(size);
  907ae7:	1868b5        	l32r	a8, 8e1dbc <athos_indirection_table_install+0x848>
  907aea:	db20      	mov.n	a11, a2
  907aec:	288252        	l32i	a8, a8, 0x148
  907aef:	c0a0      	movi.n	a10, 0
  907af1:	0b8000        	callx8	a8
}
  907af4:	d2a0      	mov.n	a2, a10
  907af6:	d10f      	retw.n

00907af8 <__adf_os_mem_copy>:
{
  907af8:	6c1004        	entry	a1, 32
    A_MEMCPY(dst,src,size);
  907afb:	1868b5        	l32r	a8, 8e1dd0 <athos_indirection_table_install+0x85c>
  907afe:	dc40      	mov.n	a12, a4
  907b00:	8885      	l32i.n	a8, a8, 20
  907b02:	db30      	mov.n	a11, a3
  907b04:	da20      	mov.n	a10, a2
  907b06:	0b8000        	callx8	a8
  907b09:	d10f      	retw.n
	...

00907b0c <__adf_os_mem_set>:
{
  907b0c:	6c1004        	entry	a1, 32
	A_MEMSET(buf, b, size);
  907b0f:	1868b5        	l32r	a8, 8e1de4 <athos_indirection_table_install+0x870>
  907b12:	dc40      	mov.n	a12, a4
  907b14:	8884      	l32i.n	a8, a8, 16
  907b16:	db30      	mov.n	a11, a3
  907b18:	da20      	mov.n	a10, a2
  907b1a:	0b8000        	callx8	a8
  907b1d:	d10f      	retw.n
	...

00907b20 <tgt_HTCRecv_uapsdhandler>:
	ath_tgt_send_beacon(sc, hdr_buf, buf, EndPt);
}

static void tgt_HTCRecv_uapsdhandler(HTC_ENDPOINT_ID EndPt, adf_nbuf_t hdr_buf,
				     adf_nbuf_t buf, void *ServiceCtx)
{
  907b20:	6c1004        	entry	a1, 32
  907b23:	d10f      	retw.n
  907b25:	000000        	ill

00907b28 <dispatch_magpie_sys_cmds>:
	wmi_cmd_rsp(sc->tgt_wmi_handle, Command, SeqNo, NULL, 0);
}

static void dispatch_magpie_sys_cmds(void *pContext, A_UINT16 Command,
				     A_UINT16 SeqNo, A_UINT8 *buffer, a_int32_t Length)
{
  907b28:	6c1004        	entry	a1, 32
	adf_os_assert(0);
  907b2b:	1868b5        	l32r	a8, 8e1e00 <athos_indirection_table_install+0x88c>
  907b2e:	1b6994        	l32r	a11, 8e2180 <athos_indirection_table_install+0xc0c>
  907b31:	288212        	l32i	a8, a8, 72
  907b34:	1a6995        	l32r	a10, 8e2188 <athos_indirection_table_install+0xc14>
  907b37:	0b8000        	callx8	a8
  907b3a:	186919        	l32r	a8, 8e1fa0 <athos_indirection_table_install+0xa2c>
  907b3d:	0c0200        	memw
  907b40:	8880      	l32i.n	a8, a8, 0
  907b42:	d10f      	retw.n

00907b44 <htc_setup_comp>:
/*****************/
/* Init / Deinit */
/*****************/

static void htc_setup_comp(void)
{
  907b44:	6c1004        	entry	a1, 32
  907b47:	d10f      	retw.n
  907b49:	000000        	ill

00907b4c <tgt_reg_service>:
	return HTC_SERVICE_SUCCESS;
}

static void tgt_reg_service(struct ath_softc_tgt *sc, HTC_SERVICE *svc,
			    int svcId, HTC_SERVICE_ProcessRecvMsg recvMsg)
{
  907b4c:	6c1004        	entry	a1, 32
	svc->ProcessRecvMsg = recvMsg;
	svc->ProcessSendBufferComplete = tgt_HTCSendCompleteHandler;
  907b4f:	186996        	l32r	a8, 8e21a8 <athos_indirection_table_install+0xc34>
	svc->ProcessConnect = tgt_ServiceConnect;
	svc->MaxSvcMsgSize = 1600;
	svc->TrailerSpcCheckLimit = 0;
	svc->ServiceID = svcId;
	svc->ServiceCtx = sc;
	HTC_RegisterService(sc->tgt_htc_handle, svc);
  907b52:	8a22      	l32i.n	a10, a2, 8
	svc->ProcessSendBufferComplete = tgt_HTCSendCompleteHandler;
  907b54:	9832      	s32i.n	a8, a3, 8
	svc->ProcessConnect = tgt_ServiceConnect;
  907b56:	186997        	l32r	a8, 8e21b4 <athos_indirection_table_install+0xc40>
{
  907b59:	db30      	mov.n	a11, a3
	svc->ProcessConnect = tgt_ServiceConnect;
  907b5b:	9833      	s32i.n	a8, a3, 12
	svc->MaxSvcMsgSize = 1600;
  907b5d:	286a40        	movi	a8, 0x640
  907b60:	28350a        	s16i	a8, a3, 20
	svc->TrailerSpcCheckLimit = 0;
  907b63:	c080      	movi.n	a8, 0
  907b65:	28350b        	s16i	a8, a3, 22
	HTC_RegisterService(sc->tgt_htc_handle, svc);
  907b68:	1868b5        	l32r	a8, 8e1e3c <athos_indirection_table_install+0x8c8>
	svc->ProcessRecvMsg = recvMsg;
  907b6b:	9531      	s32i.n	a5, a3, 4
	HTC_RegisterService(sc->tgt_htc_handle, svc);
  907b6d:	288280        	l32i	a8, a8, 0x200
	svc->ServiceID = svcId;
  907b70:	243508        	s16i	a4, a3, 16
	svc->ServiceCtx = sc;
  907b73:	9236      	s32i.n	a2, a3, 24
	HTC_RegisterService(sc->tgt_htc_handle, svc);
  907b75:	0b8000        	callx8	a8
  907b78:	d10f      	retw.n
	...

00907b7c <tgt_HTCRecvMessageHandler>:
{
  907b7c:	6c1006        	entry	a1, 48
    __adf_nbuf_peek_header(buf, addr, len);
  907b7f:	dc10      	mov.n	a12, a1
  907b81:	b41b      	addi.n	a11, a1, 4
	if (!hdr_buf) {
  907b83:	cc3e      	bnez.n	a3, 907b95 <tgt_HTCRecvMessageHandler+0x19>
  907b85:	da40      	mov.n	a10, a4
  907b87:	5bfc40        	call8	906c88 <__adf_nbuf_peek_header>
    return __adf_nbuf_pull_head(buf, size);
  907b8a:	c0bc      	movi.n	a11, 12
  907b8c:	da40      	mov.n	a10, a4
  907b8e:	5bfb72        	call8	906958 <__adf_nbuf_pull_head>
  907b91:	600005        	j	907b9a <tgt_HTCRecvMessageHandler+0x1e>
  907b94:	00da30        	excw
    __adf_nbuf_peek_header(buf, addr, len);
  907b97:	5bfc3c        	call8	906c88 <__adf_nbuf_peek_header>
	adf_os_assert(len >= sizeof(ath_data_hdr_t));
  907b9a:	8310      	l32i.n	a3, a1, 0
  907b9c:	c06b      	movi.n	a6, 11
  907b9e:	736316        	bltu	a6, a3, 907bb8 <tgt_HTCRecvMessageHandler+0x3c>
  907ba1:	1368b5        	l32r	a3, 8e1e78 <athos_indirection_table_install+0x904>
  907ba4:	1b6998        	l32r	a11, 8e2204 <athos_indirection_table_install+0xc90>
  907ba7:	233212        	l32i	a3, a3, 72
  907baa:	1a6995        	l32r	a10, 8e2200 <athos_indirection_table_install+0xc8c>
  907bad:	0b3000        	callx8	a3
  907bb0:	136919        	l32r	a3, 8e2014 <athos_indirection_table_install+0xaa0>
  907bb3:	0c0200        	memw
  907bb6:	8330      	l32i.n	a3, a3, 0
	sc->sc_tx_stats.tx_tgt++;
  907bb8:	29525b        	l32i	a9, a5, 0x16c
	dh = (ath_data_hdr_t *)data;
  907bbb:	8311      	l32i.n	a3, a1, 4
	sc->sc_tx_stats.tx_tgt++;
  907bbd:	b199      	addi.n	a9, a9, 1
	an = &sc->sc_sta[dh->ni_index];
  907bbf:	263001        	l8ui	a6, a3, 1
	tid = ATH_AN_2_TID(an, dh->tidno);
  907bc2:	273003        	l8ui	a7, a3, 3
	bf = ath_tgt_tx_prepare(sc, buf, dh);
  907bc5:	db40      	mov.n	a11, a4
	sc->sc_tx_stats.tx_tgt++;
  907bc7:	29565b        	s32i	a9, a5, 0x16c
	bf = ath_tgt_tx_prepare(sc, buf, dh);
  907bca:	dc30      	mov.n	a12, a3
  907bcc:	da50      	mov.n	a10, a5
  907bce:	5817d8        	call8	90db30 <ath_tgt_tx_prepare>
  907bd1:	dba0      	mov.n	a11, a10
	if (!bf) {
  907bd3:	cda1      	bnez.n	a10, 907be8 <tgt_HTCRecvMessageHandler+0x6c>
		ath_free_tx_skb(sc->tgt_htc_handle,EndPt,buf);
  907bd5:	1368b5        	l32r	a3, 8e1eac <athos_indirection_table_install+0x938>
  907bd8:	8a52      	l32i.n	a10, a5, 8
  907bda:	233282        	l32i	a3, a3, 0x208
  907bdd:	dc40      	mov.n	a12, a4
  907bdf:	db20      	mov.n	a11, a2
  907be1:	0b3000        	callx8	a3
  907be4:	d10f      	retw.n
  907be6:	000022        	excw
	bf->bf_endpt = EndPt;
  907be9:	a623      	add.n	a3, a2, a6
	bf->bf_cookie = dh->cookie;
  907beb:	22300a        	l8ui	a2, a3, 10
	if (tid->flag & TID_AGGR_ENABLED)
  907bee:	0c7811        	slli	a8, a7, 4
	bf->bf_cookie = dh->cookie;
  907bf1:	22a492        	s8i	a2, a10, 146
	if (tid->flag & TID_AGGR_ENABLED)
  907bf4:	07820c        	sub	a2, a8, a7
  907bf7:	0a6811        	slli	a8, a6, 6
  907bfa:	a688      	add.n	a8, a8, a6
  907bfc:	0f8811        	slli	a8, a8, 1
  907bff:	a688      	add.n	a8, a8, a6
  907c01:	a288      	add.n	a8, a8, a2
  907c03:	0e8811        	slli	a8, a8, 2
  907c06:	225a92        	movi	a2, 0x592
  907c09:	a858      	add.n	a8, a5, a8
  907c0b:	a288      	add.n	a8, a8, a2
  907c0d:	228000        	l8ui	a2, a8, 0
		ath_tgt_handle_aggr(sc, bf);
  907c10:	da50      	mov.n	a10, a5
	if (tid->flag & TID_AGGR_ENABLED)
  907c12:	7e2707        	bbci	a2, 30, 907c1d <tgt_HTCRecvMessageHandler+0xa1>
		ath_tgt_handle_aggr(sc, bf);
  907c15:	5819ca        	call8	90e340 <ath_tgt_handle_aggr>
  907c18:	d10f      	retw.n
  907c1a:	000000        	ill
		ath_tgt_handle_normal(sc, bf);
  907c1d:	581999        	call8	90e284 <ath_tgt_handle_normal>
  907c20:	d10f      	retw.n
	...

00907c24 <tgt_HTCRecv_mgmthandler>:
{
  907c24:	6c1004        	entry	a1, 32
	ath_tgt_send_mgt(sc,hdr_buf,buf,EndPt);
  907c27:	dd20      	mov.n	a13, a2
  907c29:	dc40      	mov.n	a12, a4
  907c2b:	db30      	mov.n	a11, a3
  907c2d:	da50      	mov.n	a10, a5
  907c2f:	581886        	call8	90de48 <ath_tgt_send_mgt>
  907c32:	d10f      	retw.n

00907c34 <ath_descdma_cleanup>:
{
  907c34:	6c1006        	entry	a1, 48
	asf_tailq_foreach(bf, head, bf_list) {
  907c37:	8740      	l32i.n	a7, a4, 0
  907c39:	60007d        	j	907cba <ath_descdma_cleanup+0x86>
		if (adf_nbuf_queue_len(&bf->bf_skbhead) != 0) {
  907c3c:	267c14        	addi	a6, a7, 20
 * @return length of the queue
 */
static inline a_uint32_t
adf_nbuf_queue_len(adf_nbuf_queue_t *head)
{
    return __adf_nbuf_queue_len(head);
  907c3f:	da60      	mov.n	a10, a6
  907c41:	5bfc1b        	call8	906cb0 <__adf_nbuf_queue_len>
  907c44:	d9a0      	mov.n	a9, a10
  907c46:	cbac      	beqz.n	a10, 907c86 <ath_descdma_cleanup+0x52>
    __adf_nbuf_unmap(osdev, bmap, dir);
  907c48:	2b7200        	l32i	a11, a7, 0
  907c4b:	2a2246        	l32i	a10, a2, 0x118
  907c4e:	055c02        	or	a12, a5, a5
  907c51:	5bfb8a        	call8	906a7c <__adf_nbuf_unmap>
  907c54:	600021        	j	907c79 <ath_descdma_cleanup+0x45>
  907c57:	000018        	src	a0, a0, a0
				ath_free_rx_skb(sc,
  907c5a:	68b58d        	beqi	a11, 5, 907beb <tgt_HTCRecvMessageHandler+0x6f>
  907c5d:	202982        	l16si	a0, a2, 0x104
  907c60:	9eda      	s32i.n	a14, a13, 40
    return __adf_nbuf_queue_remove(head);
  907c62:	609911        	j	911577 <_etext+0x2366>
  907c65:	9d10      	s32i.n	a13, a1, 0
  907c67:	5bfb71        	call8	906a2c <__adf_nbuf_queue_remove>
  907c6a:	8d10      	l32i.n	a13, a1, 0
  907c6c:	8911      	l32i.n	a9, a1, 4
  907c6e:	0aac02        	or	a12, a10, a10
  907c71:	2b0a03        	movi	a11, 3
  907c74:	dad0      	mov.n	a10, a13
  907c76:	0b9000        	callx8	a9
    return __adf_nbuf_queue_len(head);
  907c79:	da60      	mov.n	a10, a6
  907c7b:	5bfc0d        	call8	906cb0 <__adf_nbuf_queue_len>
			while(adf_nbuf_queue_len(&bf->bf_skbhead) != 0) {
  907c7e:	65afd7        	bnez	a10, 907c59 <ath_descdma_cleanup+0x25>
			bf->bf_skb = NULL;
  907c81:	9a78      	s32i.n	a10, a7, 32
  907c83:	600025        	j	907cac <ath_descdma_cleanup+0x78>
		} else if (bf->bf_skb != NULL) {
  907c86:	8678      	l32i.n	a6, a7, 32
  907c88:	ca60      	beqz.n	a6, 907cac <ath_descdma_cleanup+0x78>
    __adf_nbuf_unmap(osdev, bmap, dir);
  907c8a:	2b7200        	l32i	a11, a7, 0
  907c8d:	2a2246        	l32i	a10, a2, 0x118
  907c90:	055c02        	or	a12, a5, a5
  907c93:	291601        	s32i	a9, a1, 4
  907c96:	5bfb79        	call8	906a7c <__adf_nbuf_unmap>
			ath_free_rx_skb(sc, bf->bf_skb);
  907c99:	1868b5        	l32r	a8, 8e1f70 <athos_indirection_table_install+0x9fc>
  907c9c:	8c78      	l32i.n	a12, a7, 32
  907c9e:	8a20      	l32i.n	a10, a2, 0
  907ca0:	26829e        	l32i	a6, a8, 0x278
  907ca3:	c0b3      	movi.n	a11, 3
  907ca5:	0b6000        	callx8	a6
			bf->bf_skb = NULL;
  907ca8:	8911      	l32i.n	a9, a1, 4
  907caa:	9978      	s32i.n	a9, a7, 32
    __adf_nbuf_dmamap_destroy(osdev, dmap);
  907cac:	8b70      	l32i.n	a11, a7, 0
  907cae:	2a2246        	l32i	a10, a2, 0x118
		bf->bf_node = NULL;
  907cb1:	c060      	movi.n	a6, 0
  907cb3:	5bfb75        	call8	906a88 <__adf_nbuf_dmamap_destroy>
  907cb6:	9674      	s32i.n	a6, a7, 16
	asf_tailq_foreach(bf, head, bf_list) {
  907cb8:	8779      	l32i.n	a7, a7, 36
  907cba:	657f7e        	bnez	a7, 907c3c <ath_descdma_cleanup+0x8>
	asf_tailq_init(head);
  907cbd:	9740      	s32i.n	a7, a4, 0
  907cbf:	9441      	s32i.n	a4, a4, 4
 * @param[in] size  buffer size
 */
static inline void
adf_os_mem_set(void *buf, a_uint8_t b, adf_os_size_t size)
{
    __adf_os_mem_set(buf, b, size);
  907cc1:	c1c8      	movi.n	a12, 24
  907cc3:	db70      	mov.n	a11, a7
  907cc5:	da30      	mov.n	a10, a3
  907cc7:	5bff91        	call8	907b0c <__adf_os_mem_set>
  907cca:	d10f      	retw.n

00907ccc <__adf_os_init_bh$isra$5>:
									  void 				*arg)
{
	__adf_os_init_defer(work, func, arg);
}

static inline void	__adf_os_init_bh(adf_os_handle_t  hdl,
  907ccc:	6c1004        	entry	a1, 32
									 __adf_os_bh_t		*bh,
									 adf_os_defer_fn_t	func,
									 void				*arg)
{
	//__adf_os_init_defer(bh, func, arg);
	A_TASKLET_INIT_TASK(func, arg, bh);
  907ccf:	1868b5        	l32r	a8, 8e1fa4 <athos_indirection_table_install+0xa30>
  907cd2:	dc20      	mov.n	a12, a2
  907cd4:	28826a        	l32i	a8, a8, 0x1a8
  907cd7:	db40      	mov.n	a11, a4
  907cd9:	da30      	mov.n	a10, a3
  907cdb:	0b8000        	callx8	a8
  907cde:	d10f      	retw.n

00907ce0 <__adf_os_sched_bh$isra$6>:
                                         __adf_os_work_t  * work)
{
    //taskqueue_drain(taskqueue_thread, &work->tsk);
}

static inline void __adf_os_sched_bh(adf_os_handle_t  hdl,
  907ce0:	6c1004        	entry	a1, 32
                                       __adf_os_bh_t  * bh)
{
    A_TASKLET_SCHEDULE(bh);
  907ce3:	1868b5        	l32r	a8, 8e1fb8 <athos_indirection_table_install+0xa44>
  907ce6:	da20      	mov.n	a10, a2
  907ce8:	28826c        	l32i	a8, a8, 0x1b0
  907ceb:	0b8000        	callx8	a8
  907cee:	d10f      	retw.n

00907cf0 <ath_tgt_rx_tasklet>:
{
  907cf0:	6c1006        	entry	a1, 48
	struct ath_hal *ah = sc->sc_ah;
  907cf3:	252d05        	addmi	a5, a2, 0x500
  907cf6:	835b      	l32i.n	a3, a5, 44
		bf->bf_skb = NULL;
  907cf8:	c040      	movi.n	a4, 0
	struct ath_hal *ah = sc->sc_ah;
  907cfa:	231600        	s32i	a3, a1, 0
		bf = asf_tailq_first(&sc->sc_rxbuf);
  907cfd:	2322d5        	l32i	a3, a2, 0x354
		if (bf == NULL) {
  907d00:	64308c        	beqz	a3, 907d90 <ath_tgt_rx_tasklet+0xa0>
		if (!(bf->bf_status & ATH_BUFSTATUS_DONE)) {
  907d03:	863f      	l32i.n	a6, a3, 60
  907d05:	7f6f02        	bbsi	a6, 31, 907d0b <ath_tgt_rx_tasklet+0x1b>
  907d08:	600084        	j	907d90 <ath_tgt_rx_tasklet+0xa0>
		skb = bf->bf_skb;
  907d0b:	8d38      	l32i.n	a13, a3, 32
		if (skb == NULL) {
  907d0d:	64dfef        	beqz	a13, 907d00 <ath_tgt_rx_tasklet+0x10>
		asf_tailq_remove(&sc->sc_rxbuf, bf, bf_list);
  907d10:	8639      	l32i.n	a6, a3, 36
  907d12:	873a      	l32i.n	a7, a3, 40
  907d14:	c864      	beqz.n	a6, 907d1c <ath_tgt_rx_tasklet+0x2c>
  907d16:	976a      	s32i.n	a7, a6, 40
  907d18:	600003        	j	907d1f <ath_tgt_rx_tasklet+0x2f>
  907d1b:	002726        	excw
  907d1e:	d687      	excw
  907d20:	3adad0        	excw
  907d23:	9670      	s32i.n	a6, a7, 0
		bf->bf_skb = NULL;
  907d25:	9438      	s32i.n	a4, a3, 32
    return __adf_nbuf_push_head(buf, size);
  907d27:	2b0a28        	movi	a11, 40
  907d2a:	2d1601        	s32i	a13, a1, 4
  907d2d:	5bfaff        	call8	90692c <__adf_nbuf_push_head>
    __adf_os_mem_copy(dst, src, size);
  907d30:	c2c8      	movi.n	a12, 40
  907d32:	2b3c40        	addi	a11, a3, 64
  907d35:	d7a0      	mov.n	a7, a10
  907d37:	5bff70        	call8	907af8 <__adf_os_mem_copy>
  907d3a:	8a5b      	l32i.n	a10, a5, 44
		rxstats->rs_tstamp = ath_extend_tsf(sc, (u_int32_t)rxstats->rs_tstamp);
  907d3c:	8671      	l32i.n	a6, a7, 4
	tsf = ah->ah_getTsf64(ah);
  907d3e:	28a21e        	l32i	a8, a10, 120
  907d41:	0b8000        	callx8	a8
	tsf_delta = (a_int32_t)((rstamp - tsf_low) & 0xffffffffUL);
  907d44:	0b680c        	sub	a8, a6, a11
	return (tsf + (u_int64_t)tsf_delta);
  907d47:	ab8b      	add.n	a11, a8, a11
  907d49:	08fc13        	srai	a12, a8, 31
  907d4c:	c061      	movi.n	a6, 1
  907d4e:	8d11      	l32i.n	a13, a1, 4
  907d50:	78b301        	bltu	a11, a8, 907d55 <ath_tgt_rx_tasklet+0x65>
  907d53:	d640      	mov.n	a6, a4
  907d55:	aaca      	add.n	a10, a12, a10
  907d57:	aa66      	add.n	a6, a6, a10
		rxstats->rs_tstamp = ath_extend_tsf(sc, (u_int32_t)rxstats->rs_tstamp);
  907d59:	9670      	s32i.n	a6, a7, 0
		HTC_SendMsg(sc->tgt_htc_handle, RX_ENDPOINT_ID, skb);
  907d5b:	1668b5        	l32r	a6, 8e2030 <athos_indirection_table_install+0xabc>
  907d5e:	8a22      	l32i.n	a10, a2, 8
  907d60:	266284        	l32i	a6, a6, 0x210
		rxstats->rs_tstamp = ath_extend_tsf(sc, (u_int32_t)rxstats->rs_tstamp);
  907d63:	9b71      	s32i.n	a11, a7, 4
		HTC_SendMsg(sc->tgt_htc_handle, RX_ENDPOINT_ID, skb);
  907d65:	dcd0      	mov.n	a12, a13
  907d67:	c0b3      	movi.n	a11, 3
  907d69:	0b6000        	callx8	a6
		sc->sc_rx_stats.ast_rx_send++;
  907d6c:	26227d        	l32i	a6, a2, 0x1f4
		bf->bf_status &= ~ATH_BUFSTATUS_DONE;
  907d6f:	c77e      	movi.n	a7, -2
		sc->sc_rx_stats.ast_rx_send++;
  907d71:	b166      	addi.n	a6, a6, 1
  907d73:	26267d        	s32i	a6, a2, 0x1f4
		bf->bf_status &= ~ATH_BUFSTATUS_DONE;
  907d76:	863f      	l32i.n	a6, a3, 60
		asf_tailq_insert_tail(&sc->sc_rxbuf, bf, bf_list);
  907d78:	9439      	s32i.n	a4, a3, 36
		bf->bf_status &= ~ATH_BUFSTATUS_DONE;
  907d7a:	076601        	and	a6, a6, a7
  907d7d:	963f      	s32i.n	a6, a3, 60
		asf_tailq_insert_tail(&sc->sc_rxbuf, bf, bf_list);
  907d7f:	2622d6        	l32i	a6, a2, 0x358
  907d82:	963a      	s32i.n	a6, a3, 40
  907d84:	9360      	s32i.n	a3, a6, 0
  907d86:	233c24        	addi	a3, a3, 36
  907d89:	2326d6        	s32i	a3, a2, 0x358
  907d8c:	63ff6d        	j	907cfd <ath_tgt_rx_tasklet+0xd>
  907d8f:	002322        	excw
	sc->sc_imask |= HAL_INT_RX;
  907d92:	c4c0      	movi.n	a12, 64
  907d94:	b103      	addi.n	a3, a0, 1
  907d96:	bb02      	addi.n	a2, a0, 11
	ah->ah_setInterrupts(ah, sc->sc_imask);
  907d98:	8310      	l32i.n	a3, a1, 0
	sc->sc_imask |= HAL_INT_RX;
  907d9a:	2b26c4        	s32i	a11, a2, 0x310
	ah->ah_setInterrupts(ah, sc->sc_imask);
  907d9d:	223228        	l32i	a2, a3, 160
  907da0:	da30      	mov.n	a10, a3
  907da2:	0b2000        	callx8	a2
  907da5:	d10f      	retw.n
	...

00907da8 <ath_rxdesc_init>:
{
  907da8:	6c1006        	entry	a1, 48
	struct ath_hal *ah = sc->sc_ah;
  907dab:	242d05        	addmi	a4, a2, 0x500
  907dae:	854b      	l32i.n	a5, a4, 44
	if (!sc->sc_rxdesc_held) {
  907db0:	2422db        	l32i	a4, a2, 0x36c
		sc->sc_rxdesc_held = ds;
  907db3:	2326db        	s32i	a3, a2, 0x36c
	if (!sc->sc_rxdesc_held) {
  907db6:	cc41      	bnez.n	a4, 907dbb <ath_rxdesc_init+0x13>
  907db8:	600180        	j	907f3c <ath_rxdesc_init+0x194>
	if (ds->ds_nbuf == ADF_NBUF_NULL) {
  907dbb:	284034        	l8ui	a8, a4, 52
  907dbe:	234035        	l8ui	a3, a4, 53
  907dc1:	088810        	slli	a8, a8, 24
  907dc4:	003311        	slli	a3, a3, 16
  907dc7:	083802        	or	a8, a3, a8
  907dca:	234036        	l8ui	a3, a4, 54
  907dcd:	264037        	l8ui	a6, a4, 55
  907dd0:	083311        	slli	a3, a3, 8
  907dd3:	083302        	or	a3, a3, a8
  907dd6:	036302        	or	a3, a6, a3
  907dd9:	6530bb        	bnez	a3, 907e98 <ath_rxdesc_init+0xf0>
	skb = BUF_Pool_alloc_buf_align(sc->pool_handle, POOL_ID_WLAN_RX_BUF,
  907ddc:	1368b5        	l32r	a3, 8e20b0 <athos_indirection_table_install+0xb3c>
  907ddf:	2d2196        	l16ui	a13, a2, 0x12c
  907de2:	23329d        	l32i	a3, a3, 0x274
  907de5:	8a20      	l32i.n	a10, a2, 0
  907de7:	2c0a30        	movi	a12, 48
  907dea:	2b0a03        	movi	a11, 3
  907ded:	0b3000        	callx8	a3
		ds->ds_nbuf = ath_alloc_skb_align(sc, sc->sc_rxbufsize, sc->sc_cachelsz);
  907df0:	0a8357        	extui	a3, a10, 24, 8
  907df3:	234434        	s8i	a3, a4, 52
  907df6:	0a0357        	extui	a3, a10, 16, 8
  907df9:	234435        	s8i	a3, a4, 53
  907dfc:	0a8347        	extui	a3, a10, 8, 8
  907dff:	234436        	s8i	a3, a4, 54
  907e02:	2a4437        	s8i	a10, a4, 55
		if (ds->ds_nbuf == ADF_NBUF_NULL) {
  907e05:	cda0      	bnez.n	a10, 907e19 <ath_rxdesc_init+0x71>
			sc->sc_rx_stats.ast_rx_nobuf++;
  907e07:	23227c        	l32i	a3, a2, 0x1f0
			sc->sc_rxdesc_held = ds;
  907e0a:	2426db        	s32i	a4, a2, 0x36c
			sc->sc_rx_stats.ast_rx_nobuf++;
  907e0d:	b133      	addi.n	a3, a3, 1
  907e0f:	23267c        	s32i	a3, a2, 0x1f0
			return ENOMEM;
  907e12:	c72f      	movi.n	a2, -1
  907e14:	d10f      	retw.n
  907e16:	000000        	ill
		adf_nbuf_map(sc->sc_dev, ds->ds_dmap, ds->ds_nbuf, ADF_OS_DMA_FROM_DEVICE);
  907e19:	234038        	l8ui	a3, a4, 56
  907e1c:	2b4039        	l8ui	a11, a4, 57
  907e1f:	083310        	slli	a3, a3, 24
  907e22:	00bb11        	slli	a11, a11, 16
  907e25:	03bb02        	or	a11, a11, a3
  907e28:	23403a        	l8ui	a3, a4, 58
    return __adf_nbuf_map(osdev, bmap, buf, dir);
  907e2b:	dca0      	mov.n	a12, a10
  907e2d:	083311        	slli	a3, a3, 8
  907e30:	0b3302        	or	a3, a3, a11
  907e33:	2b403b        	l8ui	a11, a4, 59
  907e36:	2a2246        	l32i	a10, a2, 0x118
  907e39:	03bb02        	or	a11, a11, a3
  907e3c:	c0d1      	movi.n	a13, 1
  907e3e:	5bfb0c        	call8	906a70 <__adf_nbuf_map>
		adf_nbuf_dmamap_info(ds->ds_dmap, &ds->ds_dmap_info);
  907e41:	2a4039        	l8ui	a10, a4, 57
  907e44:	234038        	l8ui	a3, a4, 56
  907e47:	00aa11        	slli	a10, a10, 16
  907e4a:	083310        	slli	a3, a3, 24
  907e4d:	03aa02        	or	a10, a10, a3
  907e50:	23403a        	l8ui	a3, a4, 58
    __adf_nbuf_dmamap_info(bmap, sg);
  907e53:	2b4c3c        	addi	a11, a4, 60
  907e56:	083311        	slli	a3, a3, 8
  907e59:	0a3302        	or	a3, a3, a10
  907e5c:	2a403b        	l8ui	a10, a4, 59
  907e5f:	03aa02        	or	a10, a10, a3
  907e62:	5bfb0b        	call8	906a90 <__adf_nbuf_dmamap_info>
		ds->ds_data = ds->ds_dmap_info.dma_segs[0].paddr;
  907e65:	234040        	l8ui	a3, a4, 64
  907e68:	083810        	slli	a8, a3, 24
  907e6b:	234041        	l8ui	a3, a4, 65
  907e6e:	003311        	slli	a3, a3, 16
  907e71:	083302        	or	a3, a3, a8
  907e74:	284042        	l8ui	a8, a4, 66
  907e77:	088811        	slli	a8, a8, 8
  907e7a:	038302        	or	a3, a8, a3
  907e7d:	284043        	l8ui	a8, a4, 67
  907e80:	038802        	or	a8, a8, a3
  907e83:	088357        	extui	a3, a8, 24, 8
  907e86:	234404        	s8i	a3, a4, 4
  907e89:	080357        	extui	a3, a8, 16, 8
  907e8c:	234405        	s8i	a3, a4, 5
  907e8f:	088347        	extui	a3, a8, 8, 8
  907e92:	234406        	s8i	a3, a4, 6
  907e95:	284407        	s8i	a8, a4, 7
	adf_nbuf_peek_header(ds->ds_nbuf, &anbdata, &anblen);
  907e98:	284034        	l8ui	a8, a4, 52
  907e9b:	2a4035        	l8ui	a10, a4, 53
  907e9e:	088810        	slli	a8, a8, 24
  907ea1:	00aa11        	slli	a10, a10, 16
  907ea4:	08aa02        	or	a10, a10, a8
  907ea7:	284036        	l8ui	a8, a4, 54
	ds->ds_link = 0;
  907eaa:	c030      	movi.n	a3, 0
	adf_nbuf_peek_header(ds->ds_nbuf, &anbdata, &anblen);
  907eac:	088811        	slli	a8, a8, 8
  907eaf:	0a8802        	or	a8, a8, a10
  907eb2:	2a4037        	l8ui	a10, a4, 55
    __adf_nbuf_peek_header(buf, addr, len);
  907eb5:	dc10      	mov.n	a12, a1
  907eb7:	2b1c04        	addi	a11, a1, 4
  907eba:	08aa02        	or	a10, a10, a8
	ds->ds_link = 0;
  907ebd:	234400        	s8i	a3, a4, 0
  907ec0:	234401        	s8i	a3, a4, 1
  907ec3:	234402        	s8i	a3, a4, 2
  907ec6:	234403        	s8i	a3, a4, 3
  907ec9:	5bfb6f        	call8	906c88 <__adf_nbuf_peek_header>
	ah->ah_setupRxDesc(ds, adf_nbuf_tailroom(ds->ds_nbuf), 0);
  907ecc:	284034        	l8ui	a8, a4, 52
  907ecf:	2a4035        	l8ui	a10, a4, 53
  907ed2:	088810        	slli	a8, a8, 24
  907ed5:	00aa11        	slli	a10, a10, 16
  907ed8:	08aa02        	or	a10, a10, a8
  907edb:	284036        	l8ui	a8, a4, 54
  907ede:	265220        	l32i	a6, a5, 128
  907ee1:	088811        	slli	a8, a8, 8
  907ee4:	0a8802        	or	a8, a8, a10
  907ee7:	2a4037        	l8ui	a10, a4, 55
    return (__adf_nbuf_tailroom(buf));
  907eea:	08aa02        	or	a10, a10, a8
  907eed:	5bfb57        	call8	906c4c <__adf_nbuf_tailroom>
  907ef0:	dba0      	mov.n	a11, a10
  907ef2:	dc30      	mov.n	a12, a3
  907ef4:	da40      	mov.n	a10, a4
  907ef6:	0b6000        	callx8	a6
  907ef9:	2b4048        	l8ui	a11, a4, 72
  907efc:	294049        	l8ui	a9, a4, 73
  907eff:	28404a        	l8ui	a8, a4, 74
	if (sc->sc_rxlink == NULL) {
  907f02:	2322ef        	l32i	a3, a2, 0x3bc
		ah->ah_setRxDP(ah, ds->ds_daddr);
  907f05:	08bb10        	slli	a11, a11, 24
  907f08:	009911        	slli	a9, a9, 16
  907f0b:	2a404b        	l8ui	a10, a4, 75
  907f0e:	0b9902        	or	a9, a9, a11
  907f11:	088811        	slli	a8, a8, 8
	if (sc->sc_rxlink == NULL) {
  907f14:	cd31      	bnez.n	a3, 907f29 <ath_rxdesc_init+0x181>
		ah->ah_setRxDP(ah, ds->ds_daddr);
  907f16:	098b02        	or	a11, a8, a9
  907f19:	23521f        	l32i	a3, a5, 124
  907f1c:	0bab02        	or	a11, a10, a11
  907f1f:	da50      	mov.n	a10, a5
  907f21:	0b3000        	callx8	a3
  907f24:	600009        	j	907f31 <ath_rxdesc_init+0x189>
  907f27:	000009        	addx2	a0, a0, a0
		*sc->sc_rxlink = ds->ds_daddr;
  907f2a:	8802      	l32i.n	a8, a0, 8
  907f2c:	08a802        	or	a8, a10, a8
  907f2f:	9830      	s32i.n	a8, a3, 0
	sc->sc_rxlink = &ds->ds_link;
  907f31:	2426ef        	s32i	a4, a2, 0x3bc
	ah->ah_enableReceive(ah);
  907f34:	225225        	l32i	a2, a5, 148
  907f37:	da50      	mov.n	a10, a5
  907f39:	0b2000        	callx8	a2
	return 0;
  907f3c:	c020      	movi.n	a2, 0
}
  907f3e:	d10f      	retw.n

00907f40 <ath_pll_reset_ones$isra$12>:
static void ath_pll_reset_ones(struct ath_hal *ah)
  907f40:	6c1004        	entry	a1, 32
	if(reset_pll == 0) {
  907f43:	1a6999        	l32r	a10, 8e25a8 <athos_indirection_table_install+0x1034>
  907f46:	28a000        	l8ui	a8, a10, 0
  907f49:	ce87      	bnez.n	a8, 907f74 <ath_pll_reset_ones$isra$12+0x34>
	return *(const volatile uint32_t *) addr;
  907f4b:	18699a        	l32r	a8, 8e25b4 <athos_indirection_table_install+0x1040>
		iowrite32_mac(0x7890,
  907f4e:	1b699b        	l32r	a11, 8e25bc <athos_indirection_table_install+0x1048>
  907f51:	0c0200        	memw
  907f54:	8980      	l32i.n	a9, a8, 0
  907f56:	0b9902        	or	a9, a9, a11
	*(volatile uint32_t *) addr = b;
  907f59:	0c0200        	memw
  907f5c:	9980      	s32i.n	a9, a8, 0
	return *(const volatile uint32_t *) addr;
  907f5e:	0c0200        	memw
  907f61:	8980      	l32i.n	a9, a8, 0
		iowrite32_mac(0x7890,
  907f63:	1b699c        	l32r	a11, 8e25d4 <athos_indirection_table_install+0x1060>
  907f66:	0b9901        	and	a9, a9, a11
	*(volatile uint32_t *) addr = b;
  907f69:	0c0200        	memw
  907f6c:	9980      	s32i.n	a9, a8, 0
		reset_pll = 1;
  907f6e:	280a01        	movi	a8, 1
  907f71:	28a400        	s8i	a8, a10, 0
  907f74:	d10f      	retw.n
	...

00907f78 <tgt_ServiceConnect>:
{
  907f78:	6c1004        	entry	a1, 32
	switch(pService->ServiceID) {
  907f7b:	292108        	l16ui	a9, a2, 16
	struct ath_softc_tgt *sc = (struct ath_softc_tgt *)pService->ServiceCtx;
  907f7e:	8826      	l32i.n	a8, a2, 24
	switch(pService->ServiceID) {
  907f80:	299dff        	addmi	a9, a9, 0xffffff00
  907f83:	09094f        	extui	a9, a9, 0, 16
  907f86:	c028      	movi.n	a2, 8
  907f88:	792345        	bltu	a2, a9, 907fd1 <tgt_ServiceConnect+0x59>
  907f8b:	1a699d        	l32r	a10, 8e2600 <athos_indirection_table_install+0x108c>
  907f8e:	0e9911        	slli	a9, a9, 2
  907f91:	a9a9      	add.n	a9, a10, a9
  907f93:	8290      	l32i.n	a2, a9, 0
  907f95:	0a2000        	jx	a2
		sc->wmi_command_ep= eid;
  907f98:	23863c        	s32i	a3, a8, 240
		break;
  907f9b:	600049        	j	907fe8 <tgt_ServiceConnect+0x70>
		sc->beacon_ep= eid;
  907f9e:	23863d        	s32i	a3, a8, 244
		break;
  907fa1:	600043        	j	907fe8 <tgt_ServiceConnect+0x70>
		sc->cab_ep= eid;
  907fa4:	23863e        	s32i	a3, a8, 248
		break;
  907fa7:	60003d        	j	907fe8 <tgt_ServiceConnect+0x70>
		sc->uapsd_ep= eid;
  907faa:	23863f        	s32i	a3, a8, 252
		break;
  907fad:	600037        	j	907fe8 <tgt_ServiceConnect+0x70>
		sc->mgmt_ep= eid;
  907fb0:	238640        	s32i	a3, a8, 0x100
		break;
  907fb3:	600031        	j	907fe8 <tgt_ServiceConnect+0x70>
		sc->data_VO_ep = eid;
  907fb6:	238641        	s32i	a3, a8, 0x104
		break;
  907fb9:	60002b        	j	907fe8 <tgt_ServiceConnect+0x70>
		sc->data_VI_ep = eid;
  907fbc:	238642        	s32i	a3, a8, 0x108
		break;
  907fbf:	600025        	j	907fe8 <tgt_ServiceConnect+0x70>
  907fc2:	000000        	ill
		sc->data_BE_ep = eid;
  907fc5:	238643        	s32i	a3, a8, 0x10c
		break;
  907fc8:	60001c        	j	907fe8 <tgt_ServiceConnect+0x70>
		sc->data_BK_ep = eid;
  907fcb:	238644        	s32i	a3, a8, 0x110
		break;
  907fce:	600016        	j	907fe8 <tgt_ServiceConnect+0x70>
		adf_os_assert(0);
  907fd1:	1268b5        	l32r	a2, 8e22a8 <athos_indirection_table_install+0xd34>
  907fd4:	1b699e        	l32r	a11, 8e264c <athos_indirection_table_install+0x10d8>
  907fd7:	222212        	l32i	a2, a2, 72
  907fda:	1a6995        	l32r	a10, 8e2630 <athos_indirection_table_install+0x10bc>
  907fdd:	0b2000        	callx8	a2
  907fe0:	126919        	l32r	a2, 8e2444 <athos_indirection_table_install+0xed0>
  907fe3:	0c0200        	memw
  907fe6:	8220      	l32i.n	a2, a2, 0
}
  907fe8:	c020      	movi.n	a2, 0
  907fea:	d10f      	retw.n

00907fec <ath_reg_read_filter>:
{
  907fec:	6c1004        	entry	a1, 32
	if ((addr & 0xffffe000) == 0x2000) {
  907fef:	18699f        	l32r	a8, 8e266c <athos_indirection_table_install+0x10f8>
  907ff2:	1969a0        	l32r	a9, 8e2674 <athos_indirection_table_install+0x1100>
  907ff5:	083801        	and	a8, a3, a8
  907ff8:	798935        	bne	a8, a9, 908031 <ath_reg_read_filter+0x45>
		ioread32_mac(addr);
  907ffb:	1869a1        	l32r	a8, 8e2680 <athos_indirection_table_install+0x110c>
		if (!ath_hal_wait(ah, 0x407c, 0x00030000, 0))
  907ffe:	1c69a2        	l32r	a12, 8e2688 <athos_indirection_table_install+0x1114>
		ioread32_mac(addr);
  908001:	a838      	add.n	a8, a3, a8
		if (!ath_hal_wait(ah, 0x407c, 0x00030000, 0))
  908003:	1b69a3        	l32r	a11, 8e2690 <athos_indirection_table_install+0x111c>
	return *(const volatile uint32_t *) addr;
  908006:	0c0200        	memw
  908009:	8880      	l32i.n	a8, a8, 0
  90800b:	2d0a00        	movi	a13, 0
  90800e:	022a02        	or	a10, a2, a2
  908011:	580b59        	call8	90ad78 <ath_hal_wait>
  908014:	ccac      	bnez.n	a10, 908024 <ath_reg_read_filter+0x38>
			adf_os_print("SEEPROM Read fail: 0x%08x\n", addr);
  908016:	1268b5        	l32r	a2, 8e22ec <athos_indirection_table_install+0xd78>
  908019:	1a69a4        	l32r	a10, 8e26ac <athos_indirection_table_install+0x1138>
  90801c:	222212        	l32i	a2, a2, 72
  90801f:	db30      	mov.n	a11, a3
  908021:	0b2000        	callx8	a2
  908024:	1269a5        	l32r	a2, 8e26b8 <athos_indirection_table_install+0x1144>
  908027:	0c0200        	memw
  90802a:	8220      	l32i.n	a2, a2, 0
		return ioread32_mac(0x407c) & 0x0000ffff;
  90802c:	02024f        	extui	a2, a2, 0, 16
  90802f:	d10f      	retw.n
	} else if (addr > 0xffff)
  908031:	1269a6        	l32r	a2, 8e26cc <athos_indirection_table_install+0x1158>
  908034:	732a04        	bge	a2, a3, 90803c <ath_reg_read_filter+0x50>
  908037:	600006        	j	908041 <ath_reg_read_filter+0x55>
  90803a:	000012        	srai	a0, a0, 0
		return ioread32_mac(addr);
  90803d:	69a1a2        	bnei	a10, 1, 907fe3 <tgt_ServiceConnect+0x6b>
  908040:	330c02        	excw
  908043:	008230        	excw
}
  908046:	d10f      	retw.n

00908048 <tgt_HTCRecv_cabhandler>:
{
  908048:	6c1004        	entry	a1, 32
	struct ath_hal *ah = sc->sc_ah;
  90804b:	285d05        	addmi	a8, a5, 0x500
  90804e:	8a8b      	l32i.n	a10, a8, 44
	tsf = ah->ah_getTsf64(ah);
  908050:	28a21e        	l32i	a8, a10, 120
  908053:	0b8000        	callx8	a8
	tmp = tsf - sc->sc_swba_tsf;
  908056:	285d16        	addmi	a8, a5, 0x1600
  908059:	888d      	l32i.n	a8, a8, 52
  90805b:	08bb0c        	sub	a11, a11, a8
	if ( tmp > ATH_CABQ_HANDLING_THRESHOLD ) {
  90805e:	1869a7        	l32r	a8, 8e26fc <athos_indirection_table_install+0x1188>
  908061:	7b8b11        	bgeu	a8, a11, 908076 <tgt_HTCRecv_cabhandler+0x2e>
		HTC_ReturnBuffers(sc->tgt_htc_handle, EndPt, buf);
  908064:	1368b5        	l32r	a3, 8e2338 <athos_indirection_table_install+0xdc4>
  908067:	8a52      	l32i.n	a10, a5, 8
  908069:	233282        	l32i	a3, a3, 0x208
  90806c:	dc40      	mov.n	a12, a4
  90806e:	022b02        	or	a11, a2, a2
  908071:	0b3000        	callx8	a3
  908074:	d10f      	retw.n
	tgt_HTCRecvMessageHandler(EndPt, hdr_buf, buf, ServiceCtx);
  908076:	dd50      	mov.n	a13, a5
  908078:	dc40      	mov.n	a12, a4
  90807a:	db30      	mov.n	a11, a3
  90807c:	da20      	mov.n	a10, a2
  90807e:	5bfebf        	call8	907b7c <tgt_HTCRecvMessageHandler>
  908081:	d10f      	retw.n
	...

00908084 <tgt_HTCSendCompleteHandler>:
{
  908084:	6c1006        	entry	a1, 48
	if (Endpt == RX_ENDPOINT_ID) {
  908087:	682302        	beqi	a2, 3, 90808d <tgt_HTCSendCompleteHandler+0x9>
  90808a:	6000fe        	j	90818c <tgt_HTCSendCompleteHandler+0x108>
		sc->sc_rx_stats.ast_rx_done++;
  90808d:	22427e        	l32i	a2, a4, 0x1f8
}

static inline void
adf_nbuf_split_to_frag(adf_nbuf_t buf, adf_nbuf_queue_t *qhead)
{
    return __adf_nbuf_split_to_frag(buf, qhead);
  908090:	da30      	mov.n	a10, a3
  908092:	b122      	addi.n	a2, a2, 1
  908094:	22467e        	s32i	a2, a4, 0x1f8
  908097:	db10      	mov.n	a11, a1
  908099:	5bfab3        	call8	906b68 <__adf_nbuf_split_to_frag>
	ds = asf_tailq_first(&sc->sc_rxdesc_idle);
  90809c:	2242d7        	l32i	a2, a4, 0x35c
		BUF_Pool_free_buf(sc->pool_handle, POOL_ID_WLAN_RX_BUF, buf_tmp);
  90809f:	1368b5        	l32r	a3, 8e2374 <athos_indirection_table_install+0xe00>
  9080a2:	6000e3        	j	908189 <tgt_HTCSendCompleteHandler+0x105>
    return __adf_nbuf_queue_remove(head);
  9080a5:	da10      	mov.n	a10, a1
  9080a7:	5bfa61        	call8	906a2c <__adf_nbuf_queue_remove>
		if (buf_tmp == NULL) {
  9080aa:	64a0de        	beqz	a10, 90818c <tgt_HTCSendCompleteHandler+0x108>
		BUF_Pool_free_buf(sc->pool_handle, POOL_ID_WLAN_RX_BUF, buf_tmp);
  9080ad:	dca0      	mov.n	a12, a10
  9080af:	25329e        	l32i	a5, a3, 0x278
  9080b2:	8a40      	l32i.n	a10, a4, 0
  9080b4:	c0b3      	movi.n	a11, 3
  9080b6:	0b5000        	callx8	a5
		ds = asf_tailq_next(ds, ds_list);
  9080b9:	28204c        	l8ui	a8, a2, 76
  9080bc:	25204d        	l8ui	a5, a2, 77
  9080bf:	088810        	slli	a8, a8, 24
  9080c2:	005511        	slli	a5, a5, 16
  9080c5:	085802        	or	a8, a5, a8
  9080c8:	25204e        	l8ui	a5, a2, 78
		ath_rxdesc_init(sc, ds_tmp);
  9080cb:	022b02        	or	a11, a2, a2
		ds = asf_tailq_next(ds, ds_list);
  9080ce:	085511        	slli	a5, a5, 8
  9080d1:	085502        	or	a5, a5, a8
  9080d4:	28204f        	l8ui	a8, a2, 79
		ath_rxdesc_init(sc, ds_tmp);
  9080d7:	044a02        	or	a10, a4, a4
		ds = asf_tailq_next(ds, ds_list);
  9080da:	058502        	or	a5, a8, a5
		ath_rxdesc_init(sc, ds_tmp);
  9080dd:	5bff32        	call8	907da8 <ath_rxdesc_init>
		asf_tailq_remove(&sc->sc_rxdesc_idle, ds_tmp, ds_list);
  9080e0:	28204c        	l8ui	a8, a2, 76
  9080e3:	2c2050        	l8ui	a12, a2, 80
  9080e6:	088a10        	slli	a10, a8, 24
  9080e9:	28204d        	l8ui	a8, a2, 77
  9080ec:	292052        	l8ui	a9, a2, 82
  9080ef:	008811        	slli	a8, a8, 16
  9080f2:	0a8802        	or	a8, a8, a10
  9080f5:	2a204e        	l8ui	a10, a2, 78
  9080f8:	08cc10        	slli	a12, a12, 24
  9080fb:	08aa11        	slli	a10, a10, 8
  9080fe:	08a802        	or	a8, a10, a8
  908101:	2a204f        	l8ui	a10, a2, 79
  908104:	2b2053        	l8ui	a11, a2, 83
  908107:	08aa02        	or	a10, a10, a8
  90810a:	282051        	l8ui	a8, a2, 81
  90810d:	089911        	slli	a9, a9, 8
  908110:	008811        	slli	a8, a8, 16
  908113:	0c8802        	or	a8, a8, a12
  908116:	089802        	or	a8, a9, a8
  908119:	08b802        	or	a8, a11, a8
  90811c:	c9a6      	beqz.n	a10, 908136 <tgt_HTCSendCompleteHandler+0xb2>
  90811e:	088957        	extui	a9, a8, 24, 8
  908121:	29a450        	s8i	a9, a10, 80
  908124:	080957        	extui	a9, a8, 16, 8
  908127:	29a451        	s8i	a9, a10, 81
  90812a:	088947        	extui	a9, a8, 8, 8
  90812d:	29a452        	s8i	a9, a10, 82
  908130:	28a453        	s8i	a8, a10, 83
  908133:	600002        	j	908139 <tgt_HTCSendCompleteHandler+0xb5>
  908136:	2846d8        	s32i	a8, a4, 0x360
  908139:	292050        	l8ui	a9, a2, 80
  90813c:	282051        	l8ui	a8, a2, 81
  90813f:	089910        	slli	a9, a9, 24
  908142:	008811        	slli	a8, a8, 16
  908145:	098902        	or	a9, a8, a9
  908148:	282052        	l8ui	a8, a2, 82
  90814b:	088811        	slli	a8, a8, 8
  90814e:	098802        	or	a8, a8, a9
  908151:	292053        	l8ui	a9, a2, 83
  908154:	089802        	or	a8, a9, a8
  908157:	9a80      	s32i.n	a10, a8, 0
		asf_tailq_insert_tail(&sc->sc_rxdesc, ds_tmp, ds_list);
  908159:	c080      	movi.n	a8, 0
  90815b:	28244c        	s8i	a8, a2, 76
  90815e:	28244d        	s8i	a8, a2, 77
  908161:	28244e        	s8i	a8, a2, 78
  908164:	28244f        	s8i	a8, a2, 79
  908167:	2842da        	l32i	a8, a4, 0x368
  90816a:	088957        	extui	a9, a8, 24, 8
  90816d:	292450        	s8i	a9, a2, 80
  908170:	080957        	extui	a9, a8, 16, 8
  908173:	292451        	s8i	a9, a2, 81
  908176:	088947        	extui	a9, a8, 8, 8
  908179:	292452        	s8i	a9, a2, 82
  90817c:	282453        	s8i	a8, a2, 83
  90817f:	9280      	s32i.n	a2, a8, 0
  908181:	222c4c        	addi	a2, a2, 76
  908184:	2246da        	s32i	a2, a4, 0x368
		ds = asf_tailq_next(ds, ds_list);
  908187:	d250      	mov.n	a2, a5
	while (ds) {
  908189:	652f18        	bnez	a2, 9080a5 <tgt_HTCSendCompleteHandler+0x21>
  90818c:	d10f      	retw.n
	...

00908190 <ath_desc_free>:
{
  908190:	6c1004        	entry	a1, 32
	asf_tailq_insert_tail(&sc->sc_txbuf, sc->sc_txbuf_held, bf_list);
  908193:	2822dc        	l32i	a8, a2, 0x370
  908196:	2922f1        	l32i	a9, a2, 0x3c4
  908199:	c0d0      	movi.n	a13, 0
  90819b:	9d89      	s32i.n	a13, a8, 36
  90819d:	998a      	s32i.n	a9, a8, 40
  90819f:	9890      	s32i.n	a8, a9, 0
  9081a1:	2822dc        	l32i	a8, a2, 0x370
	sc->sc_txbuf_held = NULL;
  9081a4:	2d26dc        	s32i	a13, a2, 0x370
	asf_tailq_insert_tail(&sc->sc_txbuf, sc->sc_txbuf_held, bf_list);
  9081a7:	288c24        	addi	a8, a8, 36
  9081aa:	2826f1        	s32i	a8, a2, 0x3c4
	if (sc->sc_txdma.dd_desc_len != 0)
  9081ad:	2822e7        	l32i	a8, a2, 0x39c
  9081b0:	7d8110        	beq	a8, a13, 9081c4 <ath_desc_free+0x34>
		ath_descdma_cleanup(sc, &sc->sc_txdma, (ath_bufhead *)&sc->sc_txbuf,
  9081b3:	2c3ac0        	movi	a12, 0x3c0
  9081b6:	2b3a8c        	movi	a11, 0x38c
  9081b9:	ac2c      	add.n	a12, a2, a12
  9081bb:	0b2b08        	add	a11, a2, a11
  9081be:	022a02        	or	a10, a2, a2
  9081c1:	5bfe9c        	call8	907c34 <ath_descdma_cleanup>
	if (sc->sc_rxdma.dd_desc_len != 0)
  9081c4:	2822e1        	l32i	a8, a2, 0x384
  9081c7:	c88f      	beqz.n	a8, 9081da <ath_desc_free+0x4a>
		ath_descdma_cleanup(sc, &sc->sc_rxdma, (ath_bufhead *)&sc->sc_rxbuf,
  9081c9:	2c3a54        	movi	a12, 0x354
  9081cc:	2b3a74        	movi	a11, 0x374
  9081cf:	c0d1      	movi.n	a13, 1
  9081d1:	ac2c      	add.n	a12, a2, a12
  9081d3:	ab2b      	add.n	a11, a2, a11
  9081d5:	da20      	mov.n	a10, a2
  9081d7:	5bfe97        	call8	907c34 <ath_descdma_cleanup>
  9081da:	d10f      	retw.n

009081dc <ath_descdma_setup$isra$22$constprop$28>:
static a_int32_t ath_descdma_setup(struct ath_softc_tgt *sc,
  9081dc:	6c1006        	entry	a1, 48
	dd->dd_name = name;
  9081df:	9530      	s32i.n	a5, a3, 0
	dd->dd_desc_len = descSize * nbuf * ndesc;
  9081e1:	851c      	l32i.n	a5, a1, 48
adf_os_dmamem_alloc(adf_os_device_t     osdev,
                    adf_os_size_t       size,
                    a_bool_t            coherent,
                    adf_os_dma_map_t   *dmap)
{
    return __adf_os_dmamem_alloc(osdev, size, coherent, dmap);
  9081e3:	8a20      	l32i.n	a10, a2, 0
  9081e5:	056b28        	mull	a11, a6, a5
  9081e8:	b83d      	addi.n	a13, a3, 8
  9081ea:	9b34      	s32i.n	a11, a3, 16
  9081ec:	c0c1      	movi.n	a12, 1
  9081ee:	580a8d        	call8	90ac24 <__adf_os_dmamem_alloc>
 * @return the (bus) address
 */
static inline adf_os_dma_addr_t
adf_os_dmamem_map2addr(adf_os_dma_map_t dmap)
{
    return(__adf_os_dmamem_map2addr(dmap));
  9081f1:	8532      	l32i.n	a5, a3, 8
	dd->dd_desc = adf_os_dmamem_alloc(sc->sc_dev,
  9081f3:	9a31      	s32i.n	a10, a3, 4
	dd->dd_desc_paddr = adf_os_dmamem_map2addr(dd->dd_desc_dmamap);
  9081f5:	8551      	l32i.n	a5, a5, 4
  9081f7:	9533      	s32i.n	a5, a3, 12
    return __adf_os_dmamem_alloc(osdev, size, coherent, dmap);
  9081f9:	d8a0      	mov.n	a8, a10
	if (dd->dd_desc == NULL) {
  9081fb:	64a06d        	beqz	a10, 90826c <ath_descdma_setup$isra$22$constprop$28+0x90>
	bsize = bfSize * nbuf;
  9081fe:	076c28        	mull	a12, a6, a7
    return __adf_os_mem_alloc(size);
  908201:	9812      	s32i.n	a8, a1, 8
  908203:	dac0      	mov.n	a10, a12
  908205:	9c10      	s32i.n	a12, a1, 0
  908207:	5bfe37        	call8	907ae4 <__adf_os_mem_alloc>
  90820a:	d5a0      	mov.n	a5, a10
	if (bf == NULL) {
  90820c:	8c10      	l32i.n	a12, a1, 0
  90820e:	64a05a        	beqz	a10, 90826c <ath_descdma_setup$isra$22$constprop$28+0x90>
    __adf_os_mem_set(buf, b, size);
  908211:	c0b0      	movi.n	a11, 0
  908213:	5bfe3e        	call8	907b0c <__adf_os_mem_set>
	asf_tailq_init(head);
  908216:	c090      	movi.n	a9, 0
	dd->dd_bufptr = bf;
  908218:	9535      	s32i.n	a5, a3, 20
	asf_tailq_init(head);
  90821a:	9940      	s32i.n	a9, a4, 0
  90821c:	9441      	s32i.n	a4, a4, 4
  90821e:	8812      	l32i.n	a8, a1, 8
  908220:	600041        	j	908265 <ath_descdma_setup$isra$22$constprop$28+0x89>
  908223:	00008a        	excw
    return (__adf_nbuf_dmamap_create(osdev, dmap));
  908226:	20db50        	l32ai	a0, a13, 0x140
  908229:	9812      	s32i.n	a8, a1, 8
  90822b:	9911      	s32i.n	a9, a1, 4
  90822d:	5bfa09        	call8	906a54 <__adf_nbuf_dmamap_create>
  908230:	dba0      	mov.n	a11, a10
		if (adf_nbuf_dmamap_create( sc->sc_dev, &bf->bf_dmamap) != A_STATUS_OK) {
  908232:	8812      	l32i.n	a8, a1, 8
  908234:	8911      	l32i.n	a9, a1, 4
  908236:	cfa2      	bnez.n	a10, 90826c <ath_descdma_setup$isra$22$constprop$28+0x90>
		bf->bf_desc = bf->bf_descarr = bf->bf_lastds = ds;
  908238:	985c      	s32i.n	a8, a5, 48
  90823a:	985e      	s32i.n	a8, a5, 56
  90823c:	985d      	s32i.n	a8, a5, 52
    __adf_nbuf_queue_init(head);
  90823e:	2a5c14        	addi	a10, a5, 20
  908241:	9812      	s32i.n	a8, a1, 8
  908243:	9911      	s32i.n	a9, a1, 4
  908245:	9b10      	s32i.n	a11, a1, 0
  908247:	5bfa96        	call8	906ca0 <__adf_nbuf_queue_init>
		asf_tailq_insert_tail(head, bf, bf_list);
  90824a:	8a41      	l32i.n	a10, a4, 4
  90824c:	8b10      	l32i.n	a11, a1, 0
  90824e:	9a5a      	s32i.n	a10, a5, 40
  908250:	9b59      	s32i.n	a11, a5, 36
  908252:	95a0      	s32i.n	a5, a10, 0
  908254:	2a5c24        	addi	a10, a5, 36
  908257:	9a41      	s32i.n	a10, a4, 4
	for (i = 0; i < nbuf; i++) {
  908259:	8911      	l32i.n	a9, a1, 4
		ds = (struct ath_desc *)ds_addr;
  90825b:	8812      	l32i.n	a8, a1, 8
  90825d:	8a1c      	l32i.n	a10, a1, 48
	for (i = 0; i < nbuf; i++) {
  90825f:	b199      	addi.n	a9, a9, 1
		ds = (struct ath_desc *)ds_addr;
  908261:	aa88      	add.n	a8, a8, a10
		bf = (struct ath_buf *)bf_addr;
  908263:	a755      	add.n	a5, a5, a7
	for (i = 0; i < nbuf; i++) {
  908265:	7692bc        	blt	a9, a6, 908225 <ath_descdma_setup$isra$22$constprop$28+0x49>
	return 0;
  908268:	c020      	movi.n	a2, 0
  90826a:	d10f      	retw.n
  90826c:	c1c8      	movi.n	a12, 24
  90826e:	da30      	mov.n	a10, a3
  908270:	c0b0      	movi.n	a11, 0
  908272:	5bfe26        	call8	907b0c <__adf_os_mem_set>
	adf_os_assert(0);
  908275:	1268b5        	l32r	a2, 8e254c <athos_indirection_table_install+0xfd8>
  908278:	1b69a8        	l32r	a11, 8e2918 <athos_indirection_table_install+0x13a4>
  90827b:	222212        	l32i	a2, a2, 72
  90827e:	1a6995        	l32r	a10, 8e28d4 <athos_indirection_table_install+0x1360>
  908281:	0b2000        	callx8	a2
  908284:	126919        	l32r	a2, 8e26e8 <athos_indirection_table_install+0x1174>
  908287:	0c0200        	memw
  90828a:	8220      	l32i.n	a2, a2, 0
	return error;
  90828c:	c021      	movi.n	a2, 1
}
  90828e:	d10f      	retw.n

00908290 <wmi_event>:
{
  908290:	6c1004        	entry	a1, 32
	netbuf = WMI_AllocEvent(handle, WMI_EVT_CLASS_CMD_EVENT,
  908293:	1668b5        	l32r	a6, 8e2568 <athos_indirection_table_install+0xff4>
  908296:	b45c      	addi.n	a12, a5, 4
  908298:	27628d        	l32i	a7, a6, 0x234
  90829b:	c0b0      	movi.n	a11, 0
  90829d:	da20      	mov.n	a10, a2
  90829f:	0b7000        	callx8	a7
  9082a2:	d7a0      	mov.n	a7, a10
	if (netbuf == ADF_NBUF_NULL) {
  9082a4:	65a00a        	bnez	a10, 9082b2 <wmi_event+0x22>
		adf_os_print("Buf null\n");
  9082a7:	226212        	l32i	a2, a6, 72
  9082aa:	1a69a9        	l32r	a10, 8e2950 <athos_indirection_table_install+0x13dc>
  9082ad:	0b2000        	callx8	a2
  9082b0:	d10f      	retw.n
	if (buffer != NULL && Length != 0 && Length < WMI_SVC_MAX_BUFFERED_EVENT_SIZE) {
  9082b2:	c090      	movi.n	a9, 0
  9082b4:	c081      	movi.n	a8, 1
  9082b6:	da90      	mov.n	a10, a9
  9082b8:	2b0a63        	movi	a11, 99
  9082bb:	058a39        	movnez	a10, a8, a5
  9082be:	75ba02        	bge	a11, a5, 9082c4 <wmi_event+0x34>
  9082c1:	099802        	or	a8, a9, a9
  9082c4:	78a010        	bnone	a10, a8, 9082d8 <wmi_event+0x48>
  9082c7:	c84d      	beqz.n	a4, 9082d8 <wmi_event+0x48>
    return __adf_nbuf_put_tail(buf, size);
  9082c9:	db50      	mov.n	a11, a5
  9082cb:	077a02        	or	a10, a7, a7
  9082ce:	5bfa43        	call8	906bdc <__adf_nbuf_put_tail>
    __adf_os_mem_copy(dst, src, size);
  9082d1:	dc50      	mov.n	a12, a5
  9082d3:	db40      	mov.n	a11, a4
  9082d5:	5bfe08        	call8	907af8 <__adf_os_mem_copy>
	WMI_SendEvent(handle, netbuf, evt_id, 0, Length);
  9082d8:	24628e        	l32i	a4, a6, 0x238
  9082db:	de50      	mov.n	a14, a5
  9082dd:	c0d0      	movi.n	a13, 0
  9082df:	030c4f        	extui	a12, a3, 0, 16
  9082e2:	db70      	mov.n	a11, a7
  9082e4:	da20      	mov.n	a10, a2
  9082e6:	0b4000        	callx8	a4
  9082e9:	d10f      	retw.n
	...

009082ec <ath_intr>:
{
  9082ec:	6c100a        	entry	a1, 80
	if (sc->sc_invalid)
  9082ef:	232249        	l32i	a3, a2, 0x124
  9082f2:	673006        	bgez	a3, 9082fc <ath_intr+0x10>
		return ADF_OS_IRQ_NONE;
  9082f5:	c030      	movi.n	a3, 0
  9082f7:	600641        	j	90893c <ath_intr+0x650>
  9082fa:	000025        	excw
	struct ath_hal *ah = sc->sc_ah;
  9082fd:	2d0584        	s16i	a13, a0, 0x108
  908300:	5b2342        	call8	8d100c <_bss_end+0x3be0fc>
	if (!ah->ah_isInterruptPending(ah))
  908303:	26da40        	movi	a6, 0xfffffd40
  908306:	0b3000        	callx8	a3
  908309:	64afe8        	beqz	a10, 9082f5 <ath_intr+0x9>
	ah->ah_getPendingInterrupts(ah, &status);
  90830c:	234227        	l32i	a3, a4, 156
  90830f:	bc1b      	addi.n	a11, a1, 12
  908311:	da40      	mov.n	a10, a4
  908313:	0b3000        	callx8	a3
	status &= sc->sc_imask;
  908316:	8613      	l32i.n	a6, a1, 12
  908318:	2322c4        	l32i	a3, a2, 0x310
  90831b:	063301        	and	a3, a3, a6
  90831e:	9313      	s32i.n	a3, a1, 12
	if (status & HAL_INT_FATAL) {
  908320:	713619        	bbci	a3, 1, 90833d <ath_intr+0x51>
		ah->ah_setInterrupts(ah, 0);
  908323:	234228        	l32i	a3, a4, 160
  908326:	c0b0      	movi.n	a11, 0
  908328:	da40      	mov.n	a10, a4
  90832a:	0b3000        	callx8	a3
 * @param[in] bh    bottom instance
 */
static inline void
adf_os_sched_bh(adf_os_handle_t hdl, adf_os_bh_t *bh)
{
    __adf_os_sched_bh(hdl, bh);
  90832d:	2a3a44        	movi	a10, 0x344
  908330:	aa2a      	add.n	a10, a2, a10
  908332:	5bfe6b        	call8	907ce0 <__adf_os_sched_bh$isra$6>
	return ADF_OS_IRQ_HANDLED;
  908335:	c031      	movi.n	a3, 1
  908337:	600601        	j	90893c <ath_intr+0x650>
  90833a:	000000        	ill
		if (status & HAL_INT_SWBA) {
  90833d:	7f3643        	bbci	a3, 15, 908384 <ath_intr+0x98>
			swbaEvt.tsf = ah->ah_getTsf64(ah);
  908340:	23421e        	l32i	a3, a4, 120
  908343:	da40      	mov.n	a10, a4
  908345:	0b3000        	callx8	a3
			swbaEvt.beaconPendingCount = ah->ah_numTxPending(ah, sc->sc_bhalq);
  908348:	232d01        	addmi	a3, a2, 0x100
			swbaEvt.tsf = ah->ah_getTsf64(ah);
  90834b:	9b11      	s32i.n	a11, a1, 4
			swbaEvt.beaconPendingCount = ah->ah_numTxPending(ah, sc->sc_bhalq);
  90834d:	864b      	l32i.n	a6, a4, 44
  90834f:	2b301c        	l8ui	a11, a3, 28
			swbaEvt.tsf = ah->ah_getTsf64(ah);
  908352:	9a10      	s32i.n	a10, a1, 0
			swbaEvt.beaconPendingCount = ah->ah_numTxPending(ah, sc->sc_bhalq);
  908354:	da40      	mov.n	a10, a4
  908356:	0b6000        	callx8	a6
  908359:	2a1408        	s8i	a10, a1, 8
			sc->sc_swba_tsf = ah->ah_getTsf64(ah);
  90835c:	23421e        	l32i	a3, a4, 120
  90835f:	044a02        	or	a10, a4, a4
  908362:	0b3000        	callx8	a3
  908365:	232d16        	addmi	a3, a2, 0x1600
  908368:	9a3c      	s32i.n	a10, a3, 48
  90836a:	9b3d      	s32i.n	a11, a3, 52
			wmi_event(sc->tgt_wmi_handle,
  90836c:	8a23      	l32i.n	a10, a2, 12
  90836e:	1b69aa        	l32r	a11, 8e2a18 <athos_indirection_table_install+0x14a4>
  908371:	dc10      	mov.n	a12, a1
  908373:	c0d9      	movi.n	a13, 9
  908375:	5bffc6        	call8	908290 <wmi_event>
	owltgt_tx_processq(sc, txq, OWL_TXQ_STOPPED);
  908378:	2b4acc        	movi	a11, 0x4cc
  90837b:	c0c1      	movi.n	a12, 1
  90837d:	ab2b      	add.n	a11, a2, a11
  90837f:	da20      	mov.n	a10, a2
  908381:	581943        	call8	90e890 <owltgt_tx_processq>
		if (status & HAL_INT_RXORN)
  908384:	8313      	l32i.n	a3, a1, 12
  908386:	7a3707        	bbci	a3, 26, 908391 <ath_intr+0xa5>
			sc->sc_int_stats.ast_rxorn++;
  908389:	26224d        	l32i	a6, a2, 0x134
  90838c:	b166      	addi.n	a6, a6, 1
  90838e:	26264d        	s32i	a6, a2, 0x134
		if (status & HAL_INT_RXEOL)
  908391:	7b3708        	bbci	a3, 27, 90839d <ath_intr+0xb1>
			sc->sc_int_stats.ast_rxeol++;
  908394:	26224e        	l32i	a6, a2, 0x138
  908397:	266c01        	addi	a6, a6, 1
  90839a:	26264e        	s32i	a6, a2, 0x138
		if (status & (HAL_INT_RX | HAL_INT_RXEOL | HAL_INT_RXORN)) {
  90839d:	c361      	movi.n	a6, 49
  90839f:	763802        	bany	a3, a6, 9083a5 <ath_intr+0xb9>
  9083a2:	600550        	j	9088f6 <ath_intr+0x60a>
			if (status & HAL_INT_RX)
  9083a5:	7f3707        	bbci	a3, 31, 9083b0 <ath_intr+0xc4>
				sc->sc_int_stats.ast_rx++;
  9083a8:	23224c        	l32i	a3, a2, 0x130
  9083ab:	b133      	addi.n	a3, a3, 1
  9083ad:	23264c        	s32i	a3, a2, 0x130
	struct ath_hal *ah = sc->sc_ah;
  9083b0:	855b      	l32i.n	a5, a5, 44
	ds = asf_tailq_first(&sc->sc_rxdesc);
  9083b2:	2322d9        	l32i	a3, a2, 0x364
	struct ath_hal *ah = sc->sc_ah;
  9083b5:	9515      	s32i.n	a5, a1, 20
	bf = asf_tailq_first(&sc->sc_rxbuf);
  9083b7:	2522d5        	l32i	a5, a2, 0x354
  9083ba:	6004ff        	j	9088bd <ath_intr+0x5d1>
		if (cnt == ath_numrxbufs - 1) {
  9083bd:	1a69ab        	l32r	a10, 8e2a6c <athos_indirection_table_install+0x14f8>
		++cnt;
  9083c0:	b177      	addi.n	a7, a7, 1
		if (cnt == ath_numrxbufs - 1) {
  9083c2:	89a0      	l32i.n	a9, a10, 0
  9083c4:	b099      	addi.n	a9, a9, -1
  9083c6:	797102        	beq	a7, a9, 9083cc <ath_intr+0xe0>
  9083c9:	600207        	j	9085d4 <ath_intr+0x2e8>
			adf_os_print("VERY LONG PACKET!!!!!\n");
  9083cc:	1868b5        	l32r	a8, 8e26a0 <athos_indirection_table_install+0x112c>
  9083cf:	1a69ac        	l32r	a10, 8e2a80 <athos_indirection_table_install+0x150c>
  9083d2:	258212        	l32i	a5, a8, 72
  9083d5:	0b5000        	callx8	a5
  9083d8:	6001f2        	j	9085ce <ath_intr+0x2e2>
