
/home/oleksij/tmp/my/ath9k-htc-firmware-blob/k2/fw.elf:     Dateiformat elf32-xtensa-be
/home/oleksij/tmp/my/ath9k-htc-firmware-blob/k2/fw.elf
Architektur: xtensa, Flags 0x00000112:
EXEC_P, HAS_SYMS, D_PAGED
Startadresse 0x00903000

Xtensa header:

Machine     = Base
Insn tables = true
Literal tables = true

Programm-Header:
    LOAD off    0x00501000 vaddr 0x00501000 paddr 0x00501000 align 2**29
         filesz 0x00000ae0 memsz 0x00000ae0 flags r--
    LOAD off    0x0050cb40 vaddr 0x0050cb40 paddr 0x0050cb40 align 2**29
         filesz 0x00000bfc memsz 0x00000cc8 flags rw-
    LOAD off    0x00903000 vaddr 0x00903000 paddr 0x00903000 align 2**29
         filesz 0x0000803f memsz 0x0000803f flags r-x

Sektionen:
Idx Name          Größe     VMA       LMA       Datei-Off Ausr.
  0 .lit4         0001be00  004e5200  004e5200  00000000  2**0
                  ALLOC
  1 .rodata       000005a4  00501000  00501000  00501000  2**2
                  CONTENTS, ALLOC, LOAD, READONLY, DATA
  2 .literals     0000053c  005015a4  005015a4  005015a4  2**2
                  CONTENTS, ALLOC, LOAD, READONLY, DATA
  3 .dport0.bss   00000000  0050cb40  0050cb40  0090b03f  2**0
                  CONTENTS
  4 .data         00000bfc  0050cb40  0050cb40  0050cb40  2**2
                  CONTENTS, ALLOC, LOAD, DATA
  5 .bss          000000cc  0050d73c  0050d73c  0050d73c  2**2
                  ALLOC
  6 .boot         0000023e  00903000  00903000  00903000  2**2
                  CONTENTS, ALLOC, LOAD, READONLY, CODE
  7 .text         00007dff  00903240  00903240  00903240  2**2
                  CONTENTS, ALLOC, LOAD, READONLY, CODE
  8 .debug_aranges 00000348  00000000  00000000  0090b03f  2**0
                  CONTENTS, READONLY, DEBUGGING
  9 .debug_info   0005b255  00000000  00000000  0090b387  2**0
                  CONTENTS, READONLY, DEBUGGING
 10 .debug_abbrev 00006085  00000000  00000000  009665dc  2**0
                  CONTENTS, READONLY, DEBUGGING
 11 .debug_line   00012b1a  00000000  00000000  0096c661  2**0
                  CONTENTS, READONLY, DEBUGGING
 12 .debug_frame  00001d00  00000000  00000000  0097f17c  2**2
                  CONTENTS, READONLY, DEBUGGING
 13 .debug_str    00008b39  00000000  00000000  00980e7c  2**0
                  CONTENTS, READONLY, DEBUGGING
 14 .debug_loc    0000c403  00000000  00000000  009899b5  2**0
                  CONTENTS, READONLY, DEBUGGING
 15 .xt.prop      00004e54  00000000  00000000  00995db8  2**0
                  CONTENTS, READONLY
 16 .debug_ranges 00000c20  00000000  00000000  0099ac0c  2**0
                  CONTENTS, READONLY, DEBUGGING
 17 .comment      0000006d  00000000  00000000  0099b82c  2**0
                  CONTENTS, READONLY
 18 .xtensa.info  00000038  00000000  00000000  0099b899  2**0
                  CONTENTS, READONLY
SYMBOL TABLE:
004e5200 l    d  .lit4	00000000 .lit4
00501000 l    d  .rodata	00000000 .rodata
005015a4 l    d  .literals	00000000 .literals
0050cb40 l    d  .dport0.bss	00000000 .dport0.bss
0050cb40 l    d  .data	00000000 .data
0050d73c l    d  .bss	00000000 .bss
00903000 l    d  .boot	00000000 .boot
00903240 l    d  .text	00000000 .text
00000000 l    d  .debug_aranges	00000000 .debug_aranges
00000000 l    d  .debug_info	00000000 .debug_info
00000000 l    d  .debug_abbrev	00000000 .debug_abbrev
00000000 l    d  .debug_line	00000000 .debug_line
00000000 l    d  .debug_frame	00000000 .debug_frame
00000000 l    d  .debug_str	00000000 .debug_str
00000000 l    d  .debug_loc	00000000 .debug_loc
00000000 l    d  .xt.prop	00000000 .xt.prop
00000000 l    d  .debug_ranges	00000000 .debug_ranges
00000000 l    d  .comment	00000000 .comment
00000000 l    d  .xtensa.info	00000000 .xtensa.info
00000000 l    df *ABS*	00000000 magpie.c
00501000 l     O .rodata	0000000d __FUNCTION__$3728
00000000 l    df *ABS*	00000000 usb_api_main_patch.c
0050cb42 l     O .data	00000002 cmd_is_new$5222
0050d764 l     O .bss	00000004 evntbuf$5220
0050d760 l     O .bss	00000004 regaddr$5221
0050d75c l     O .bss	00000002 buf_len$5219
0050cb40 l     O .data	00000002 cmd_is_new$5241
0050d758 l     O .bss	00000004 buf$5239
0050d754 l     O .bss	00000002 cmd_len$5238
0050100d l     O .rodata	00000012 __func__$5242
0050d750 l     O .bss	00000004 regaddr$5237
00000000 l    df *ABS*	00000000 ar5416_hw.c
00501020 l     O .rodata	000000d0 ar5416hal_10
00000000 l    df *ABS*	00000000 if_ath.c
0090640c l     F .text	00000014 __adf_os_mem_alloc
00906420 l     F .text	00000013 __adf_os_mem_copy
00906434 l     F .text	00000013 __adf_os_mem_set
00906448 l     F .text	00000005 tgt_HTCRecv_uapsdhandler
00906450 l     F .text	00000006 dispatch_magpie_sys_cmds
00906458 l     F .text	00000005 htc_setup_comp
00906460 l     F .text	0000005f tgt_ServiceConnect
00906ab0 l     F .text	0000010c tgt_HTCSendCompleteHandler
009064c0 l     F .text	0000002e tgt_reg_service
009064f0 l     F .text	0000008e tgt_HTCRecvMessageHandler
00906580 l     F .text	00000010 tgt_HTCRecv_mgmthandler
00906590 l     F .text	00000098 ath_descdma_cleanup
00906628 l     F .text	00000014 __adf_os_init_bh$isra$5
0090663c l     F .text	00000010 __adf_os_sched_bh$isra$6
0090664c l     F .text	000000b6 ath_tgt_rx_tasklet
0050d77d l     O .bss	00000001 flg$7419
0050d77c l     O .bss	00000001 reset_pll$7413
00906704 l     F .text	0000008e ath_hal_reg_write_filter$isra$13
00906794 l     F .text	0000005c ath_reg_read_filter
009067f0 l     F .text	0000003b tgt_HTCRecv_cabhandler
0090682c l     F .text	0000004c ath_desc_free
00906878 l     F .text	0000009f ath_descdma_setup$isra$21$constprop$26
00906918 l     F .text	00000198 ath_rxdesc_init
0050cec4 l     O .data	00000004 ath_numrxbufs
0090723c l     F .text	00000012 ath_fatal_tasklet
00907250 l     F .text	00000012 ath_bmiss_tasklet
009072ac l     F .text	0000004e ath_hal_reg_rmw_tgt
009072fc l     F .text	0000008a ath_rc_mask_tgt
00907388 l     F .text	00000023 ath_rx_stats_tgt
009073ac l     F .text	00000042 ath_tx_stats_tgt
009073f0 l     F .text	00000032 ath_int_stats_tgt
00907424 l     F .text	0000006f ath_node_update_tgt
00907494 l     F .text	0000002a ath_detach_tgt
00501114 l     O .rodata	00000014 __FUNCTION__$7337
009074c0 l     F .text	000000ab ath_enable_aggr_tgt
0090756c l     F .text	0000002c ath_ic_update_tgt
00907598 l     F .text	0000005a handle_rc_rate_update_cmd
009075f4 l     F .text	00000052 handle_rc_state_change_cmd
00907648 l     F .text	0000002e ath_hal_reg_write_tgt
00907678 l     F .text	00000042 ath_hal_reg_read_tgt
009076bc l     F .text	0000005c ath_vap_create_tgt
00907718 l     F .text	00000052 ath_vap_delete_tgt
0090776c l     F .text	00000030 ath_node_cleanup_tgt
0090779c l     F .text	000000af ath_node_create_tgt
0090784c l     F .text	0000006a ath_setcurmode_tgt
009078b8 l     F .text	00000050 ath_flushrecv_tgt
00907908 l     F .text	0000003a ath_stoprecv_tgt
00907944 l     F .text	00000086 ath_startrecv_tgt
009079cc l     F .text	000000c6 ath_draintxq_tgt
00907a94 l     F .text	0000002e ath_tx_draintxq_tgt
00907ac4 l     F .text	00000023 ath_aborttx_dma_tgt
00907ae8 l     F .text	00000026 ath_stop_tx_dma_tgt
00907b10 l     F .text	00000040 ath_aborttxq_tgt
00907b50 l     F .text	0000004e ath_init_tgt
00907ba0 l     F .text	00000054 ath_enable_intr_tgt
00907bf4 l     F .text	00000026 ath_disable_intr_tgt
00907c1c l     F .text	0000001e ath_get_tgt_version
00907c3c l     F .text	00000013 handle_echo_command
00907c68 l     F .text	000001a2 tgt_HTCRecv_beaconhandler
0050cdc0 l     O .data	00000100 Magpie_Sys_DispatchEntries
0050cec0 l     O .data	00000004 ath_numrxdescs
00000000 l    df *ABS*	00000000 ratectrl_11n_ln.c
0090829c l     F .text	00000058 rcIsValidPhyRate
00501128 l     O .rodata	00000028 nRetry2PerLookup$7046
009082f4 l     F .text	000001fa rcUpdate_ht$constprop$6
009084f0 l     F .text	0000007a rcRateSetseries$constprop$11
0090856c l     F .text	000003bc rcSibUpdate_ht$isra$3$constprop$13
00908928 l     F .text	00000062 rcRateGetIndex$constprop$9
00000000 l    df *ABS*	00000000 if_owl.c
00908ec0 l     F .text	00000013 __adf_os_mem_copy
00908ed4 l     F .text	0000004d ieee80211_anyhdrsize
00908f24 l     F .text	0000004c owl_tgt_tid_init
00908f70 l     F .text	00000076 ath_tgt_txq_add_ucast
00908fe8 l     F .text	0000005f ath_tx_update_baw
00909048 l     F .text	00000060 ath_update_stats$isra$1
009090a8 l     F .text	00000024 ath_tgt_tx_enqueue$isra$3
009090cc l     F .text	00000076 ath_update_aggr_stats$isra$5
00909144 l     F .text	00000014 ath_dma_unmap$isra$6
00909158 l     F .text	00000026 ath_tgt_skb_free$isra$7
00909180 l     F .text	0000009e ath_filltxdesc$isra$9
00909220 l     F .text	0000004e ath_tx_tgt_setds
00909270 l     F .text	00000013 __adf_os_mem_set$constprop$19
00501150 l     O .rodata	00000040 bits_per_symbol
00909284 l     F .text	000001f2 ath_buf_set_rate
00909478 l     F .text	00000016 ath_dma_map$isra$8
00909490 l     F .text	000000c9 ath_buf_toggle
0090955c l     F .text	0000003c ath_buf_comp
00909598 l     F .text	00000083 ath_tx_freebuf
0090ae38 l     F .text	00000107 ath_bar_tx_comp
0090961c l     F .text	00000166 ath_bar_tx
00909984 l     F .text	00000010 ATH_SKB2_WH
00909994 l     F .text	0000002f ath_tx_set_retry$isra$12
009099c4 l     F .text	000000e7 ath_tx_retry_subframe$isra$14
00909aac l     F .text	000000b7 ath_tx_comp_aggr_error
0090a93c l     F .text	0000005a ath_tgt_tx_comp_normal
0090a5a4 l     F .text	000001fe ath_tgt_txq_schedule
0090a8a8 l     F .text	00000046 ath_aggr_resume_tid
0090a8f0 l     F .text	0000004b owl_tgt_tid_cleanup
00000000 l    df *ABS*	00000000 app_start.c
0090af4c l     F .text	00000029 io32_rmw
00000000 l    df *ABS*	00000000 ah_osdep.c
00000000 l    df *ABS*	00000000 wlan_pci.c
00000000 l    df *ABS*	00000000 usb_api_k2_patch.c
009046a4 l     F .text	0000002b io8_rmw
009046d0 l     F .text	00000021 io32_rmw$constprop$0
00000000 l    df *ABS*	00000000 k2_fw_cmnos_printf.c
00904ad0 l     F .text	00000051 _cvt
00904b24 l     F .text	0000002a cmnos_write_char
00000000 l    df *ABS*	00000000 if_ath_pci.c
00906338 l     F .text	00000005 ath_pci_suspend
00906340 l     F .text	00000005 ath_pci_resume
00906348 l     F .text	00000010 ath_pci_remove
0050cd80 l     O .data	00000020 ath_drv_info
00906368 l     F .text	0000007e ath_pci_probe
0050cda0 l     O .data	00000020 ath_pci_id_table
00000000 l    df *ABS*	00000000 init.c
0050d744 l     O .bss	00000004 loop_high
0050d748 l     O .bss	00000004 loop_low
00000000 l    df *ABS*	00000000 adf_nbuf.c
00000000 l    df *ABS*	00000000 buf_pool_static.c
00000000 l    df *ABS*	00000000 htc.c
00000000 l    df *ABS*	00000000 wmi_svc.c
00904488 l     F .text	0000000b WMIServiceConnect
00904494 l     F .text	00000007 _WMI_GetPendingEventsCount
0090449c l     F .text	00000007 _WMI_GetControlEp
009044a4 l     F .text	00000014 _WMI_RegisterDispatchTable
009044b8 l     F .text	00000005 _WMI_Shutdown
009044c0 l     F .text	00000086 WMIRecvMessageHandler
00904548 l     F .text	00000024 _WMI_SendCompleteHandler
0090456c l     F .text	00000030 _WMI_AllocEvent
0090459c l     F .text	00000036 _WMI_SendEvent
009045d4 l     F .text	0000006f _WMI_Init
00000000 l    df *ABS*	00000000 k2_HIF_usb_patch.c
00000000 l    df *ABS*	00000000 k2_cmnos_clock_patch.c
0050d778 l     O .bss	00000004 last_tick$3640
00000000 l    df *ABS*	00000000 ah.c
00000000 l    df *ABS*	00000000 ar5416_phy.c
00000000 l    df *ABS*	00000000 adf_net.c
00000000 l    df *ABS*	00000000 adf_os_irq_pvt.c
00000000 l    df *ABS*	00000000 adf_os_dma.c
00000000 l    df *ABS*	00000000 ar5416Phy.c
00000000 l    df *ABS*	00000000 ieee80211_output.c
005009e4 g       *ABS*	00000000 u16TxRxCounter
00903240 g     F .text	00000035 init_mem
00908e40 g     F .text	00000036 ath_rate_tx_complete
004e5200 g       *ABS*	00000000 _rom_literal_start
009034ec g     F .text	0000002b __adf_nbuf_dmamap_info
00903af4 g     F .text	00000079 bGet_descriptor_patch
00909b64 g     F .text	0000002d ath_tgt_tid_drain
009035dc g     F .text	00000011 __adf_nbuf_last
0050d784 g     O .bss	00000004 save_cmnos_printf
005009f8 g       *ABS*	00000000 u8UsbInterfaceValue
0090341c g     F .text	0000000c __adf_nbuf_copy
0050d780 g     O .bss	00000004 _assfail_ori
009034cc g     F .text	00000009 __adf_nbuf_map
005015a4 g       *ABS*	00000000 _bss_table_end
0090af78 g     F .text	0000000c __adf_net_register_drv
0050d768 g     O .bss	00000004 g_wlan_intr
009034b0 g     F .text	0000001c __adf_nbuf_dmamap_create
009041a8 g     F .text	00000087 HTCControlSvcProcessMsg
0050cec8 g     O .data	00000874 ar5416_11ngRateTable
00903bfc g     F .text	0000000f wlan_pci_module_init
00500000 g       *ABS*	00000000 _indir_tbl
00904f94 g     F .text	00000010 ath_hal_attach_tgt
00903798 g     F .text	00000023 buf_pool_module_install
00501000 g       *ABS*	00000000 _lit4_end
0090367c g     F .text	00000007 __adf_nbuf_is_cloned
00903924 g     F .text	000000ff usb_reg_out_patch
00903518 g     F .text	00000005 __adf_nbuf_set_rx_cksum
00906094 g     F .text	000000bc ar5416AbortTxDma
0090b03f g       *ABS*	00000000 _text_end
0090a998 g     F .text	000003e8 ath_tgt_tx_comp_aggr
00904690 g     F .text	00000013 _HIFusb_isr_handler_patch
00908de0 g     F .text	0000002e ath_rate_attach
00905fb0 g     F .text	00000044 ar5416Set11nBurstDuration_20
00903a68 g     F .text	00000022 vUsbFIFO_EPxCfg_FS_patch
00903528 g     F .text	00000067 __adf_nbuf_create_frm_frag
00903800 g     F .text	00000022 cold_reboot
00501000 g       *ABS*	00000000 _lit4_start
00501ae0 g       *ABS*	00000000 _dram0_literal_end
00904230 g     F .text	00000040 AdjustCreditThreshold
00501ae0 g       *ABS*	00000000 _dram0_literal_start
0090504c g     F .text	00000029 ath_hal_wait
0090b03f g       .text	00000000 _etext
00905ff4 g     F .text	0000006f ar5416Set11nVirtualMoreFrag_20
008e408c g       *ABS*	00000000 vbuf_module_install
0050d740 g     O .bss	00000004 idle_cnt
00909784 g     F .text	00000043 owl_tgt_node_init
00903824 g     F .text	000000ff usb_status_in_patch
00903c0c g     F .text	0000000a wlan_pci_register_drv
009033c4 g     F .text	0000002a __adf_nbuf_push_head
009037bc g     F .text	00000022 _fw_usbfifo_recv_command
0090af40 g     F .text	0000000a ar5416AttachRateTables
00903d34 g     F .text	000000bf _HTC_Init
009033ac g     F .text	00000006 __adf_nbuf_realloc_headroom
00905de0 g     F .text	00000089 ar5416Set11nAggrFirst_20
009034e4 g     F .text	00000005 __adf_nbuf_dmamap_destroy
00909e78 g     F .text	000003cf ath_tgt_send_mgt
00906328 g     F .text	00000010 ar5416GetRateTable
0090369c g     F .text	0000000d __adf_nbuf_queue_init
008e4eb8 g       *ABS*	00000000 memcpy
00908e78 g     F .text	00000013 ath_rate_newassoc
005015a4 g       *ABS*	00000000 _rodata_end
00903520 g     F .text	00000007 __adf_nbuf_get_vlan_info
00908bd0 g     F .text	00000172 rcUpdate_11n
00904fdc g     F .text	0000006f ath_hal_computetxtime
00500a00 g       *ABS*	00000000 u8UsbDeviceDescriptor
00908d44 g     F .text	0000009a ath_tx_status_update_rate
009036b4 g     F .text	00000007 __adf_nbuf_queue_first
0050d788 g     O .bss	00000004 htc_handle
00909984 g     F .text	00000010 ATH_SKB_2_WH
0090af8c g     F .text	000000b3 ieee80211_tgt_crypto_encap
008e4da0 g       *ABS*	00000000 __udivsi3
00903e84 g     F .text	00000057 _HTC_Ready
00903b70 g     F .text	00000010 ath_hal_getuptime
00903618 g     F .text	00000024 __adf_nbuf_trim_tail
0050d740 g       *ABS*	00000000 _bss_start
0050cb40 g       *ABS*	00000000 _dram0_data_end
00903f44 g     F .text	00000066 ReturnBuffers
00909df0 g     F .text	00000088 ath_tgt_tx_send_normal
005009fa g       *ABS*	00000000 u8UsbInterfaceAlternateSetting
0050d73c g       *ABS*	00000000 __XT_EXCEPTION_DESCS__
0090a2c8 g     F .text	00000092 ath_tgt_handle_aggr
00903240 g       *ABS*	00000000 _text_start
009037e0 g     F .text	00000020 _fw_usbfifo_init
0090a7a4 g     F .text	00000096 owltgt_tx_processq
009033b4 g     F .text	00000006 __adf_nbuf_realloc_tailroom
0090a248 g     F .text	00000033 ath_tgt_handle_normal
00905444 g     F .text	00000015 ar5416StartTxDma
00906258 g     F .text	00000055 ar5416SetRxFilter
00903bdc g     F .text	00000005 ath_hal_free
00904270 g     F .text	0000014e _HTC_SendMsg
009062b0 g     F .text	00000077 ar5416Attach
00903674 g     F .text	00000005 __adf_nbuf_cat
00905430 g     F .text	00000014 ar5416SetTxDP
00908e8c g     F .text	00000013 ath_rate_node_update
00903648 g     F .text	00000019 __adf_nbuf_tailroom
0090366c g     F .text	00000007 __adf_nbuf_clone
008e3ca4 g       *ABS*	00000000 mUsbFIFOConfig
00904a60 g     F .text	0000000a cmnos_clock_init_patch
008e2b58 g       *ABS*	00000000 _HIFusb_isr_handler
009036f4 g     F .text	00000057 _buf_pool_static_create_pool
009036ac g     F .text	00000007 __adf_nbuf_queue_len
00501000 g       *ABS*	00000000 _dport0_literal_start
009063e8 g     F .text	0000000b exit_ath_pci
0050d808 g       *ABS*	00000000 _bss_end
009036ec g     F .text	00000005 _buf_pool_static_shutdown
009053cc g     F .text	00000061 ar5416UpdateTxTrigLevel
0050d78c g     O .bss	0000002c g_poolCtx
0090345c g     F .text	0000000c __adf_nbuf_get_priv
0090412c g     F .text	0000007b HTCProcessConfigPipeMsg
0090374c g     F .text	00000024 _buf_pool_static_alloc_buf
00906064 g     F .text	0000000a ar5416Detach
00905150 g     F .text	0000000f ar5416EnableReceive
005009cc g       *ABS*	00000000 usbFifoConf
005009e0 g       *ABS*	00000000 pu8DescriptorEX
00904a6c g     F .text	0000000a cmnos_refclk_speed_get_patch
00905a78 g     F .text	00000108 ar5416Set11nTxDesc_20
0050cb40 g       *ABS*	00000000 _dram0_data_start
00906358 g     F .text	0000000d init_ath_pci
008e2ec4 g       *ABS*	00000000 bGet_descriptor
0090545c g     F .text	0000002e ar5416NumTxPending
00907e0c g     F .text	00000438 ath_tgt_attach
00903cd8 g     F .text	00000013 _HTC_GetReservedHeadroom
00903328 g     F .text	0000003c Magpie_init
0050d73c g       *ABS*	00000000 __XT_EXCEPTION_DESCS_END__
00903590 g     F .text	0000004c __adf_nbuf_split_to_frag
005009f0 g       *ABS*	00000000 eUsbCxCommand
00904644 g     F .text	00000037 WMI_service_module_install
00903770 g     F .text	00000010 _buf_pool_static_alloc_buf_align
008e4df0 g       *ABS*	00000000 __umodsi3
00501000 g       *ABS*	00000000 _dport0_rodata_start
0050cb40 g       *ABS*	00000000 _dport0_data_start
008e4cac g       *ABS*	00000000 xthal_get_ccount
009033bc g     F .text	00000006 __adf_nbuf_expand
00905090 g     F .text	00000085 ar5416SetInterrupts
00905140 g     F .text	0000000d ar5416SetRxDP
009097c8 g     F .text	00000010 ath_tx_status_clear
0050d76c g     O .bss	00000004 g_wlan_drv_handle
008e2bd4 g       *ABS*	00000000 hif_module_install
00903cec g     F .text	0000002e HTCSendDoneHandler
009046f4 g     F .text	000001c4 _fw_usb_suspend_reboot
008e3cec g       *ABS*	00000000 mUsbEPMxPtSzLow
00905118 g     F .text	00000026 ar5416GetTsf64
0050d774 g     O .bss	00000004 ref_clk
00903edc g     F .text	00000066 HTCCheckAndSendCreditReport
005009c0 g       *ABS*	00000000 ControlCmd
0050cb40 g       *ABS*	00000000 _data_start
005009f6 g       *ABS*	00000000 u8UsbConfigValue
00903bb8 g     F .text	00000022 ath_hal_malloc
00906070 g     F .text	00000021 ar5416StopDmaReceive
00903df4 g     F .text	00000005 _HTC_PauseRecv
0090af84 g     F .text	00000005 __adf_net_unregister_drv
0090826c g     F .text	0000002e __adf_os_dmamem_alloc
008e3c68 g       *ABS*	00000000 mUsbEPMap
009033f0 g     F .text	0000002b __adf_nbuf_pull_head
009063f4 g     F .text	0000000c __adf_os_setup_intr
0050d74c g     O .bss	00000004 m_origUsbfifoRecvCmd
00904a94 g     F .text	0000002b cmnos_tick_patch
00903468 g     F .text	0000001e __adf_nbuf_queue_add
00907264 g     F .text	00000047 wmi_cmd_rsp
00903428 g     F .text	0000000c __adf_nbuf_unshare
0050d7b8 g     O .bss	00000012 UsbDeviceDescriptorPatch
00903780 g     F .text	00000018 _buf_pool_static_free_buf
009036c4 g     F .text	00000010 __adf_nbuf_is_queue_empty
00905078 g     F .text	00000017 ar5416IsInterruptPending
00903be4 g     F .text	00000015 ath_hal_memcpy
00903000 g     F .boot	0000023e app_start
0090548c g     F .text	000001e6 ar5416SetupTxDesc_20
0050088c g       *ABS*	00000000 cticks
008e413c g       *ABS*	00000000 vdesc_module_install
009097d8 g     F .text	000000c3 ath_tx_status_update
0050d73c g       *ABS*	00000000 _data_end
0090b03f g       *ABS*	00000000 _iram0_text_end
0090a35c g     F .text	00000245 ath_tgt_tx_form_aggr
00501592 g       *ABS*	00000000 __XT_EXCEPTION_TABLE__
0090a27c g     F .text	0000004a ath_tx_addto_baw
00903488 g     F .text	00000026 __adf_nbuf_queue_remove
00908244 g     F .text	00000028 ath_detach
00903278 g     F .text	0000004f wlan_task
005015a4 g       *ABS*	00000000 _literals_start
009036d4 g     F .text	00000018 _buf_pool_static_init
00903664 g     F .text	00000008 __adf_nbuf_len
00906150 g     F .text	0000003d ar5416StopTxDma
00903ca8 g     F .text	00000016 wlan_pci_isr
008e519c g       *ABS*	00000000 memset
00501ae0 g       *ABS*	00000000 _literals_end
00903cc0 g     F .text	00000005 _HTC_Shutdown
00904fa4 g     F .text	00000037 ath_hal_getcapability
00903434 g     F .text	00000027 __adf_nbuf_frag_info
00501000 g       *ABS*	00000000 _dport0_rodata_end
00904a78 g     F .text	0000001c cmnos_delay_us_patch
005009ec g       *ABS*	00000000 eUsbCxFinishAction
00903e48 g     F .text	00000016 HTCFreeMsgBuffer
00905e6c g     F .text	00000083 ar5416Set11nAggrMiddle_20
00903684 g     F .text	00000015 __adf_nbuf_peek_header
008e4cec g       *ABS*	00000000 __divsi3
009051f0 g     F .text	000001dc ar5416ProcRxDescFast_20
00501000 g       *ABS*	00000000 _dram0_rodata_start
00501000 g       *ABS*	00000000 _rom_literal_end
00906bbc g     F .text	0000005b wmi_event
00903ca0 g     F .text	00000007 wlan_pci_config_read
00906c18 g     F .text	00000624 ath_intr
00903fac g     F .text	00000010 _HTC_ReturnBuffers
008e1548 g       *ABS*	00000000 athos_indirection_table_install
0090a83c g     F .text	0000006c owl_tgt_tx_tasklet
008e3cc4 g       *ABS*	00000000 mUsbEPMxPtSzHigh
00903ba8 g     F .text	00000010 ath_hal_delay
005009e8 g       *ABS*	00000000 u8ConfigDescriptorEX
00903364 g     F .text	0000003e __adf_nbuf_alloc
009036bc g     F .text	00000007 __adf_nbuf_queue_next
005009f4 g       *ABS*	00000000 UsbChirpFinish
009043c0 g     F .text	000000be HTCMsgRecvHandler
0090989c g     F .text	000000a0 ath_tx_status_update_aggr
009033a4 g     F .text	00000006 __adf_nbuf_free
008e3c84 g       *ABS*	00000000 mUsbFIFOMap
009032c8 g     F .text	00000005 htc_setup_comp
00501594 g       *ABS*	00000000 _bss_table_start
0050cb44 g     O .data	00000238 ar5416_11ng_table
009049d8 g     F .text	00000086 _fw_usb_reset_fifo
009034d8 g     F .text	00000009 __adf_nbuf_unmap
0090363c g     F .text	0000000a __adf_nbuf_headroom
0090ad80 g     F .text	000000b6 ath_tgt_tx_cleanup
008e328c g       *ABS*	00000000 bStandardCommand
008e2f7c g       *ABS*	00000000 bSet_configuration
00903c18 g     F .text	00000080 wlan_pci_probe
00903e04 g     F .text	00000041 htc_module_install
0050cb40 g       *ABS*	00000000 _dport0_data_end
00904ac0 g     F .text	0000000d cmnos_milliseconds_patch
00501000 g       *ABS*	00000000 _rodata_start
00907c50 g     F .text	00000018 ath_get_minrateidx
0050d808 g       .bss	00000000 _end
0090467c g     F .text	00000011 _HIFusb_get_max_msg_len_patch
0090993c g     F .text	00000046 ath_tx_status_send
0090b03f g       *ABS*	00000000 _iram0_text_start
00905ef0 g     F .text	0000007d ar5416Set11nAggrLast_20
00904008 g     F .text	00000043 HTCControlSvcProcessSendComplete
00903e60 g     F .text	00000021 HTCAllocMsgBuffer
0050cd7c g     O .data	00000004 g_pci_init_func
00903cc8 g     F .text	0000000d _HTC_RegisterService
00903b80 g     F .text	00000026 _ath_hal_attach_tgt
0090404c g     F .text	000000e0 HTCProcessConnectMsg
00905f70 g     F .text	0000003e ar5416Clr11nAggr_20
0090898c g     F .text	00000242 rcRateFind_11n
009035f0 g     F .text	00000026 __adf_nbuf_put_tail
00908e10 g     F .text	0000002f ath_rate_findrate
0050d770 g     O .bss	00000004 g_wlan_drv
00905674 g     F .text	00000136 ar5416FillTxDesc_20
00903d1c g     F .text	00000017 HTC_AssembleBuffers
0050d808 g       *ABS*	00000000 _fw_image_end
00903dfc g     F .text	00000005 _HTC_ResumeRecv
00909b94 g     F .text	0000025a ath_tgt_tx_prepare
00903240 g       .text	00000000 _stext
00903a8c g     F .text	00000023 bSet_configuration_patch
00906400 g     F .text	0000000c __adf_os_free_intr
009057ac g     F .text	00000021 ar5416FillKeyTxDesc_20
009032d0 g     F .text	00000057 _wmi_cmd_rsp
00903c98 g     F .text	00000007 wlan_pci_config_write
00903fbc g     F .text	0000004a _HTC_ReturnBuffersList
00904b50 g     F .text	00000444 fw_cmnos_printf
00905178 g     F .text	00000077 ar5416SetupRxDesc_20
008e3d10 g       *ABS*	00000000 mUsbEPinHighBandSet
00908ea0 g     F .text	0000001e ath_rate_newstate
0050cb40 g       *ABS*	00000000 _dport0_bss_start
00501000 g       *ABS*	00000000 _dram0_rodata_end
009057d0 g     F .text	000002a8 ar5416ProcTxDesc_20
00904480 g     F .text	00000005 RedistributeCredit
00903a24 g     F .text	00000042 vUSBFIFO_EP6Cfg_FS_patch
0050cb40 g       *ABS*	00000000 _dport0_bss_end
00903ab0 g     F .text	00000044 bStandardCommand_patch
0050d7ca g     O .bss	0000003c ConfigDescriptorPatch
00906190 g     F .text	000000c7 ar5416GetPendingInterrupts
00501000 g       *ABS*	00000000 _dport0_literal_end
00905b80 g     F .text	00000260 ar5416Set11nRateScenario_20
00905160 g     F .text	00000017 ar5416StopPcuReceive
009048b8 g     F .text	0000011e _fw_usb_fw_task



Disassembly of section .boot:

00903000 <app_start>:

extern BOOLEAN bJumptoFlash;
extern BOOLEAN bEepromExist;

void __section(boot) __noreturn __visible app_start(void)
{
  903000:	6c1004        	entry	a1, 32
#if defined(PROJECT_MAGPIE)
	T_EEP_RET retEEP;
#endif

	/* Zero BSS segment & dynamic memory section. */
	init_mem();
  903003:	58008f        	call8	903240 <_text_start>

#if defined(PROJECT_MAGPIE)
	fatal_exception_func();
#endif

	if( IS_FLASHBOOT() ) {
  903006:	12716b        	l32r	a2, 8df5b4 <_bss_end+0x3d1dac>
  903009:	14716c        	l32r	a4, 8df5bc <_bss_end+0x3d1db4>
  90300c:	0c0200        	memw
  90300f:	8320      	l32i.n	a3, a2, 0
  903011:	12716e        	l32r	a2, 8df5cc <_bss_end+0x3d1dc4>
  903014:	03035f        	extui	a3, a3, 16, 16
  903017:	74393d        	bne	a3, a4, 903058 <app_start+0x58>
		athos_indirection_table_install();
  90301a:	5b794b        	call8	8e1548 <athos_indirection_table_install>
		DBG_MODULE_INSTALL();
		A_CLOCK_INIT(SYSTEM_CLK);
  90301d:	1a716d        	l32r	a10, 8df5d4 <_bss_end+0x3d1dcc>
  903020:	232237        	l32i	a3, a2, 220
  903023:	0b3000        	callx8	a3
		A_UART_INIT();
  903026:	2a2213        	l32i	a10, a2, 76
  903029:	0ba000        	callx8	a10
		A_PRINTF_INIT();
  90302c:	232211        	l32i	a3, a2, 68
  90302f:	0b3000        	callx8	a3
		A_DBG_INIT();
		A_EEP_INIT();
  903032:	23225f        	l32i	a3, a2, 0x17c
  903035:	0b3000        	callx8	a3
		A_TASKLET_INIT();
  903038:	232269        	l32i	a3, a2, 0x1a4
  90303b:	0b3000        	callx8	a3
		_indir_tbl.cmnos.timer._timer_init();
  90303e:	232241        	l32i	a3, a2, 0x104
  903041:	0b3000        	callx8	a3
#if defined(PROJECT_K2)
		/*
		 * WAR: these variable is not initialized when boot from flash
		 *      either re-enumeration or config them to default value = 0 would fix the issue
		 */
		u8UsbInterfaceAlternateSetting = u8UsbConfigValue = u8UsbInterfaceValue = 0;
  903044:	14716f        	l32r	a4, 8df600 <_bss_end+0x3d1df8>
  903047:	c030      	movi.n	a3, 0
  903049:	234500        	s16i	a3, a4, 0
  90304c:	147170        	l32r	a4, 8df60c <_bss_end+0x3d1e04>
  90304f:	234500        	s16i	a3, a4, 0
  903052:	147171        	l32r	a4, 8df618 <_bss_end+0x3d1e10>
  903055:	234500        	s16i	a3, a4, 0
	} else {
		bEepromExist = FALSE;
	}
#endif

	hostif = A_IS_HOST_PRESENT();
  903058:	8a2e      	l32i.n	a10, a2, 56
  90305a:	0ba000        	callx8	a10
  90305d:	d5a0      	mov.n	a5, a10
	return *(const volatile uint16_t *) addr;
}

static inline uint32_t ioread32(const volatile uint32_t addr)
{
	return *(const volatile uint32_t *) addr;
  90305f:	137172        	l32r	a3, 8df628 <_bss_end+0x3d1e20>
#elif defined(PROJECT_K2)
	rst_status = ioread32(MAGPIE_REG_RST_STATUS_ADDR);
#endif /* #if defined(PROJECT_MAGPIE) */


	A_PRINTF(" A_WDT_INIT()\n\r");
  903062:	242212        	l32i	a4, a2, 72
  903065:	1a7173        	l32r	a10, 8df634 <_bss_end+0x3d1e2c>
  903068:	0c0200        	memw
  90306b:	8330      	l32i.n	a3, a3, 0
  90306d:	0b4000        	callx8	a4

#if defined(PROJECT_K2)
	save_cmnos_printf = fw_cmnos_printf;
  903070:	167174        	l32r	a6, 8df640 <_bss_end+0x3d1e38>
  903073:	147175        	l32r	a4, 8df648 <_bss_end+0x3d1e40>
  903076:	246600        	s32i	a4, a6, 0
#endif

	if( hostif == HIF_USB ) {
  903079:	655014        	bnez	a5, 903091 <app_start+0x91>
#if defined(PROJECT_K2)
#if MOVE_PRINT_TO_RAM
		save_cmnos_printf = _indir_tbl.cmnos.printf._printf;
  90307c:	272212        	l32i	a7, a2, 72
		_indir_tbl.cmnos.printf._printf = fw_cmnos_printf;
  90307f:	242612        	s32i	a4, a2, 72
#endif
		_indir_tbl.cmnos.usb._usb_fw_task = _fw_usb_fw_task;
  903082:	147176        	l32r	a4, 8df65c <_bss_end+0x3d1e54>
		save_cmnos_printf = _indir_tbl.cmnos.printf._printf;
  903085:	276600        	s32i	a7, a6, 0
		_indir_tbl.cmnos.usb._usb_fw_task = _fw_usb_fw_task;
  903088:	24261d        	s32i	a4, a2, 116
		_indir_tbl.cmnos.usb._usb_reset_fifo = _fw_usb_reset_fifo;
  90308b:	147177        	l32r	a4, 8df668 <_bss_end+0x3d1e60>
  90308e:	242629        	s32i	a4, a2, 164
#endif
	}

	if( rst_status == WDT_MAGIC_PATTERN ) {
  903091:	147178        	l32r	a4, 8df674 <_bss_end+0x3d1e6c>
  903094:	74391c        	bne	a3, a4, 9030b4 <app_start+0xb4>
		A_PRINTF(" ==>WDT reset<==\n");
  903097:	232212        	l32i	a3, a2, 72
  90309a:	1a7179        	l32r	a10, 8df680 <_bss_end+0x3d1e78>
  90309d:	0b3000        	callx8	a3
#if defined(PROJECT_MAGPIE)
		reset_EP4_FIFO();
#endif
		*((volatile uint32_t*)WATCH_DOG_RESET_COUNTER_ADDR)+=1;
  9030a0:	14717a        	l32r	a4, 8df688 <_bss_end+0x3d1e80>
  9030a3:	0c0200        	memw
  9030a6:	8340      	l32i.n	a3, a4, 0
  9030a8:	b133      	addi.n	a3, a3, 1
  9030aa:	0c0200        	memw
  9030ad:	9340      	s32i.n	a3, a4, 0
  9030af:	60001a        	j	9030cd <app_start+0xcd>
  9030b2:	000014        	srli	a0, a0, 0
	} else if (rst_status == SUS_MAGIC_PATTERN) {
  9030b5:	717b74        	bgeu	a7, a1, 90312d <app_start+0x12d>
  9030b8:	390923        	excw
		A_PRINTF(" ==>warm start<==\n");
  9030bb:	22121a        	l32i	a2, a1, 104
  9030be:	717c60        	bnall	a7, a1, 903122 <app_start+0x122>
  9030c1:	000600        	rsil	a0, 0
	} else
		A_PRINTF(" ==>cold start<==\n");
  9030c4:	232212        	l32i	a3, a2, 72
  9030c7:	1a717d        	l32r	a10, 8df6bc <_bss_end+0x3d1eb4>
  9030ca:	0b3000        	callx8	a3
	*(volatile uint16_t *) addr = b;
}

static inline void iowrite32(volatile uint32_t addr, const uint32_t b)
{
	*(volatile uint32_t *) addr = b;
  9030cd:	147178        	l32r	a4, 8df6b0 <_bss_end+0x3d1ea8>
  9030d0:	137172        	l32r	a3, 8df698 <_bss_end+0x3d1e90>
	SFLASH_MODULE_INSTALL();
	A_SFLASH_INIT();
#endif
#endif

	HIF_MODULE_INSTALL();
  9030d3:	1a717e        	l32r	a10, 8df6cc <_bss_end+0x3d1ec4>
  9030d6:	0c0200        	memw
  9030d9:	9430      	s32i.n	a4, a3, 0
  9030db:	5b7ebe        	call8	8e2bd4 <hif_module_install>
	HTC_MODULE_INSTALL();
  9030de:	1a717f        	l32r	a10, 8df6dc <_bss_end+0x3d1ed4>
  9030e1:	580348        	call8	903e04 <htc_module_install>
	WMI_SERVICE_MODULE_INSTALL();
  9030e4:	1a7180        	l32r	a10, 8df6e4 <_bss_end+0x3d1edc>
  9030e7:	580557        	call8	904644 <WMI_service_module_install>
	BUF_POOL_MODULE_INSTALL();
  9030ea:	1a7181        	l32r	a10, 8df6f0 <_bss_end+0x3d1ee8>
  9030ed:	5801aa        	call8	903798 <buf_pool_module_install>
	VBUF_MODULE_INSTALL();
  9030f0:	1a7182        	l32r	a10, 8df6f8 <_bss_end+0x3d1ef0>
  9030f3:	5b83e6        	call8	8e408c <vbuf_module_install>
	VDESC_MODULE_INSTALL();
  9030f6:	1a7183        	l32r	a10, 8df704 <_bss_end+0x3d1efc>
  9030f9:	5b8410        	call8	8e413c <vdesc_module_install>

	//init each module, should be put together..
	A_PRINTF("ALLOCRAM start 0x%x size %d\n", ALLOCRAM_START, ALLOCRAM_SIZE);
  9030fc:	147184        	l32r	a4, 8df70c <_bss_end+0x3d1f04>
  9030ff:	167185        	l32r	a6, 8df714 <_bss_end+0x3d1f0c>
  903102:	282212        	l32i	a8, a2, 72
  903105:	b443      	addi.n	a3, a4, 4
  903107:	04670c        	sub	a7, a6, a4
  90310a:	1a7186        	l32r	a10, 8df724 <_bss_end+0x3d1f1c>
  90310d:	dc70      	mov.n	a12, a7
  90310f:	db30      	mov.n	a11, a3
  903111:	0b8000        	callx8	a8
	A_ALLOCRAM_INIT(ALLOCRAM_START, ALLOCRAM_SIZE);
  903114:	c78c      	movi.n	a8, -4
  903116:	78410b        	beq	a4, a8, 903125 <app_start+0x125>
  903119:	da30      	mov.n	a10, a3
  90311b:	1b716a        	l32r	a11, 8df6c4 <_bss_end+0x3d1ebc>
  90311e:	764906        	bne	a4, a6, 903128 <app_start+0x128>
  903121:	600006        	j	90312b <app_start+0x12b>
  903124:	001a71        	excw
  903127:	69077b        	bnei	a0, 7, 9031a6 <app_start+0x1a6>
  90312a:	022322        	excw
  90312d:	510b30        	call0	945df0 <_iram0_text_end+0x3adb1>
  903130:	006550        	extui	a5, a0, 22, 1

	if( hostif == HIF_USB ) {
  903133:	b413      	addi.n	a3, a1, 4
		_indir_tbl.hif._get_max_msg_len = _HIFusb_get_max_msg_len_patch;
  903135:	718723        	bbci	a8, 17, 90315c <app_start+0x15c>
  903138:	267e13        	s32c1i	a6, a7, 76
		_indir_tbl.cmnos.usb._usb_reg_out = usb_reg_out_patch;
  90313b:	718823        	bany	a8, a1, 903162 <app_start+0x162>
  90313e:	263213        	l32i	a6, a3, 76
		_indir_tbl.hif._isr_handler = _HIFusb_isr_handler_patch;
  903141:	718923        	bne	a8, a1, 903168 <app_start+0x168>
  903144:	268013        	l8ui	a6, a8, 19
		_indir_tbl.cmnos.usb._usb_set_configuration = bSet_configuration_patch;
  903147:	718a23        	bge	a8, a1, 90316e <app_start+0x16e>
  90314a:	262513        	s16i	a6, a2, 38
		_indir_tbl.cmnos.usb._usb_status_in = usb_status_in_patch;
  90314d:	718b23        	bgeu	a8, a1, 903174 <app_start+0x174>
  903150:	263313        	excw
		_indir_tbl.cmnos.usb._usb_get_descriptor = bGet_descriptor_patch;
  903153:	718c23        	bnall	a8, a1, 90317a <app_start+0x17a>
  903156:	262f13        	s32ri	a6, a2, 76
		_indir_tbl.cmnos.usb._usb_standard_cmd = bStandardCommand_patch;
  903159:	718d23        	bbs	a8, a1, 903180 <app_start+0x180>
  90315c:	262613        	s32i	a6, a2, 76
		_indir_tbl.usbfifo_api._init = _fw_usbfifo_init;
  90315f:	718e23        	bbsi	a8, 1, 903186 <app_start+0x186>
  903162:	269b13        	l32ai	a6, a9, 76
	return *(const volatile uint8_t *) addr;
  903165:	718f23        	bbsi	a8, 17, 90318c <app_start+0x18c>
  903168:	300079        	excw
		_indir_tbl.hif._start = _HIFusb_start_patch;
		_indir_tbl.htc._HTC_MsgRecvHandler = HTCMsgRecvHandler_patch;
		_indir_tbl.htc._HTC_ControlSvcProcessMsg = HTCControlSvcProcessMsg_patch;
#endif

		if (!(ioread8_usb(ZM_MAIN_CTRL_OFFSET) & BIT6))
  90316b:	3f0258        	excw
			vUSBFIFO_EP6Cfg_FS_patch();
  90316e:	022d13        	srai	a13, a2, 18
	return *(const volatile uint32_t *) addr;
  903171:	719024        	bnone	a9, a1, 903199 <app_start+0x199>

#ifdef FUSION_USB_ENABLE_TX_STREAM
		// For K2, enable tx stream mode
		A_PRINTF("Enable Tx Stream mode: 0x%x\r\n",
  903174:	22120c        	l32i	a2, a1, 48
  903177:	02008b        	excw
  90317a:	301a71        	excw
  90317d:	910b      	s32i.n	a1, a0, 44
  90317f:	4000da        	excw
			ioread32_usb(ZM_SOC_USB_MODE_CTRL_OFFSET));

		/* Patch for K2 USB STREAM mode */
		/* disable down stream DMA mode */
		io32_rmw_usb(ZM_SOC_USB_MODE_CTRL_OFFSET, BIT6, BIT0);
  903182:	30c0c1        	excw
  903185:	c4b0      	movi.n	a11, 64
  903187:	581f71        	call8	90af4c <io32_rmw>
#if SYSTEM_MODULE_HP_EP5
		io32_set_usb(ZM_SOC_USB_MODE_CTRL_OFFSET, BIT8);
  90318a:	da30      	mov.n	a10, a3
  90318c:	c0c0      	movi.n	a12, 0
  90318e:	2b1a00        	movi	a11, 0x100
  903191:	581f6e        	call8	90af4c <io32_rmw>
#endif

#if SYSTEM_MODULE_HP_EP6
		io32_set_usb(ZM_SOC_USB_MODE_CTRL_OFFSET, BIT9);
  903194:	da30      	mov.n	a10, a3
  903196:	c0c0      	movi.n	a12, 0
  903198:	2b2a00        	movi	a11, 0x200
  90319b:	581f6c        	call8	90af4c <io32_rmw>
#endif
		/* enable down stream DMA mode */
		io32_set_usb(ZM_SOC_USB_MODE_CTRL_OFFSET, BIT0);
  90319e:	da30      	mov.n	a10, a3
  9031a0:	c0c0      	movi.n	a12, 0
  9031a2:	2b0a01        	movi	a11, 1
  9031a5:	581f69        	call8	90af4c <io32_rmw>
#endif

#ifdef FUSION_USB_ENABLE_RX_STREAM
		/* Patch for K2 USB STREAM mode */
		/* disable upstream DMA mode and enable upstream stream mode */
		io32_clr_usb(ZM_SOC_USB_MODE_CTRL_OFFSET, BIT1 | BIT3);
  9031a8:	da30      	mov.n	a10, a3
  9031aa:	c0ca      	movi.n	a12, 10
  9031ac:	c0b0      	movi.n	a11, 0
  9031ae:	581f67        	call8	90af4c <io32_rmw>

		/* K2, Set maximum IN transfer to 8K */
		io32_rmw_usb(ZM_SOC_USB_MODE_CTRL_OFFSET, 0x20, 0x30);
  9031b1:	da30      	mov.n	a10, a3
  9031b3:	c3c0      	movi.n	a12, 48
  9031b5:	c2b0      	movi.n	a11, 32
  9031b7:	581f65        	call8	90af4c <io32_rmw>

		/* enable upstream DMA mode */
		io32_set_usb(ZM_SOC_USB_MODE_CTRL_OFFSET, BIT1);
  9031ba:	da30      	mov.n	a10, a3
  9031bc:	c0c0      	movi.n	a12, 0
  9031be:	2b0a02        	movi	a11, 2
  9031c1:	581f62        	call8	90af4c <io32_rmw>
	*(volatile uint32_t *) addr = b;
  9031c4:	137192        	l32r	a3, 8df80c <_bss_end+0x3d2004>
  9031c7:	240aa0        	movi	a4, 160
  9031ca:	0c0200        	memw
  9031cd:	9430      	s32i.n	a4, a3, 0
	return *(const volatile uint32_t *) addr;
  9031cf:	137193        	l32r	a3, 8df81c <_bss_end+0x3d2014>
  9031d2:	0c0200        	memw
  9031d5:	8430      	l32i.n	a4, a3, 0
  9031d7:	137194        	l32r	a3, 8df828 <_bss_end+0x3d2020>

		/* set stream mode timeout critirea */
		iowrite32_usb(ZM_SOC_USB_TIME_CTRL_OFFSET, 0xa0);
#if defined(PROJECT_K2)
		/*0x10004020 is vaild in k2 but could be invaild in other chip*/
		if ((ioread32(0x10004020) & 0x2000) != 0) {
  9031da:	724704        	bbci	a4, 18, 9031e2 <app_start+0x1e2>
	*(volatile uint32_t *) addr = b;
  9031dd:	c040      	movi.n	a4, 0
  9031df:	600001        	j	9031e4 <app_start+0x1e4>
  9031e2:	c049      	movi.n	a4, 9
  9031e4:	0c0200        	memw
  9031e7:	9430      	s32i.n	a4, a3, 0
	return *(const volatile uint32_t *) addr;
  9031e9:	137195        	l32r	a3, 8df840 <_bss_end+0x3d2038>
	}
#if defined(PROJECT_MAGPIE) && !defined(ROM_VER_1_1)
	else if (hostif == HIF_PCI )
		hif_pci_patch_install(&_indir_tbl.hif);
#endif
	A_PRINTF("USB mode: 0x%x\r\n", ioread32_usb(0x100));
  9031ec:	1a7196        	l32r	a10, 8df844 <_bss_end+0x3d203c>
  9031ef:	0c0200        	memw
  9031f2:	8b30      	l32i.n	a11, a3, 0
  9031f4:	232212        	l32i	a3, a2, 72
  9031f7:	0b3000        	callx8	a3

	// patch the clock function
	if(1) {
		_indir_tbl.cmnos.clock._clock_init = cmnos_clock_init_patch;
  9031fa:	137197        	l32r	a3, 8df858 <_bss_end+0x3d2050>
		_indir_tbl.cmnos.clock._delay_us = cmnos_delay_us_patch;
		_indir_tbl.cmnos.clock._clock_tick = cmnos_tick_patch;
		_indir_tbl.cmnos.clock._milliseconds = cmnos_milliseconds_patch;

		//default clock, setup initial variable, SYSTEM_FREQ=40
		A_CLOCK_INIT(SYSTEM_FREQ);
  9031fd:	c2a8      	movi.n	a10, 40
		_indir_tbl.cmnos.clock._clock_init = cmnos_clock_init_patch;
  9031ff:	232637        	s32i	a3, a2, 220
		_indir_tbl.cmnos.clock._refclk_speed_get = cmnos_refclk_speed_get_patch;
  903202:	137198        	l32r	a3, 8df864 <_bss_end+0x3d205c>
  903205:	23263c        	s32i	a3, a2, 240
		_indir_tbl.cmnos.clock._delay_us = cmnos_delay_us_patch;
  903208:	137199        	l32r	a3, 8df86c <_bss_end+0x3d2064>
  90320b:	23263a        	s32i	a3, a2, 232
		_indir_tbl.cmnos.clock._clock_tick = cmnos_tick_patch;
  90320e:	13719a        	l32r	a3, 8df878 <_bss_end+0x3d2070>
  903211:	232640        	s32i	a3, a2, 0x100
		_indir_tbl.cmnos.clock._milliseconds = cmnos_milliseconds_patch;
  903214:	13719b        	l32r	a3, 8df880 <_bss_end+0x3d2078>
  903217:	23263d        	s32i	a3, a2, 244
		A_CLOCK_INIT(SYSTEM_FREQ);
  90321a:	580611        	call8	904a60 <cmnos_clock_init_patch>
	}

	Magpie_init();
  90321d:	580042        	call8	903328 <Magpie_init>

#if MAGPIE_ENABLE_WLAN == 1
	io32_clr(MAGPIE_REG_RST_RESET_ADDR, BIT10 | BIT8 | BIT7 | BIT6);
  903220:	1a719c        	l32r	a10, 8df890 <_bss_end+0x3d2088>
  903223:	2c5ac0        	movi	a12, 0x5c0
  903226:	2b0a00        	movi	a11, 0
  903229:	581f48        	call8	90af4c <io32_rmw>
#if defined(PROJECT_MAGPIE)
	io32_set(MAGPIE_REG_AHB_ARB_ADDR, BIT1);
#endif

	wlan_pci_module_init();
  90322c:	580273        	call8	903bfc <wlan_pci_module_init>
	wlan_pci_probe();
  90322f:	58027a        	call8	903c18 <wlan_pci_probe>
#endif


	A_PRINTF("Tgt running\n\r");
  903232:	1a719d        	l32r	a10, 8df8a8 <_bss_end+0x3d20a0>
  903235:	222212        	l32i	a2, a2, 72
  903238:	0b2000        	callx8	a2
		_indir_tbl.cmnos.misc._assfail = exception_reset;
	}

	change_magpie_clk();
#endif
	wlan_task(); //never return
  90323b:	58000f        	call8	903278 <wlan_task>

Disassembly of section .text:

00903240 <init_mem>:
	}
}
#endif

void init_mem()
{
  903240:	6c1004        	entry	a1, 32
	int i = 0;
	uint32_t *temp = (uint32_t *)ALLOCRAM_START;

	/* clear bss segment */
	for(temp = (uint32_t *)&START_BSS; temp < (uint32_t *)&END_BSS; temp++)
  903243:	18719e        	l32r	a8, 8df8bc <_bss_end+0x3d20b4>
  903246:	19719f        	l32r	a9, 8df8c4 <_bss_end+0x3d20bc>
		*temp = 0;
  903249:	c0a0      	movi.n	a10, 0
	for(temp = (uint32_t *)&START_BSS; temp < (uint32_t *)&END_BSS; temp++)
  90324b:	600003        	j	903252 <init_mem+0x12>
		*temp = 0;
  90324e:	9a80      	s32i.n	a10, a8, 0
	for(temp = (uint32_t *)&START_BSS; temp < (uint32_t *)&END_BSS; temp++)
  903250:	b488      	addi.n	a8, a8, 4
  903252:	7983f8        	bltu	a8, a9, 90324e <init_mem+0xe>

	/* clear heap segment */
	for(i = 0; i < ((ALLOCRAM_SIZE - 4)/4); i++)
  903255:	1a7184        	l32r	a10, 8df868 <_bss_end+0x3d2060>
  903258:	1971a0        	l32r	a9, 8df8d8 <_bss_end+0x3d20d0>
  90325b:	0a990c        	sub	a9, a9, a10
  90325e:	092914        	srli	a9, a9, 2
  903261:	0e9911        	slli	a9, a9, 2
  903264:	a989      	add.n	a9, a8, a9
		temp[i] = 0;
  903266:	c0a0      	movi.n	a10, 0
  903268:	600004        	j	903270 <init_mem+0x30>
  90326b:	009a80        	excw
  90326e:	b488      	addi.n	a8, a8, 4
	for(i = 0; i < ((ALLOCRAM_SIZE - 4)/4); i++)
  903270:	7989f8        	bne	a8, a9, 90326c <init_mem+0x2c>
}
  903273:	d10f      	retw.n
  903275:	000000        	ill

00903278 <wlan_task>:
	}
	return;
}

void __noreturn wlan_task(void)
{
  903278:	6c1004        	entry	a1, 32
	loop_low=loop_high=0;
  90327b:	1471a1        	l32r	a4, 8df900 <_bss_end+0x3d20f8>
  90327e:	1371a2        	l32r	a3, 8df908 <_bss_end+0x3d2100>
  903281:	c020      	movi.n	a2, 0
  903283:	9240      	s32i.n	a2, a4, 0
  903285:	9230      	s32i.n	a2, a3, 0

	while(1) {
		/* update wdt timer */
		A_WDT_TASK();
  903287:	12716e        	l32r	a2, 8df840 <_bss_end+0x3d2038>
  90328a:	28225c        	l32i	a8, a2, 0x170
  90328d:	0b8000        	callx8	a8

		/* UPDATE cticks - to be moved to idle_tsk, put here will be easier to read  */
		A_CLOCK_TICK();
  903290:	282240        	l32i	a8, a2, 0x100
  903293:	0b8000        	callx8	a8

		HIF_isr_handler(NULL);
  903296:	282280        	l32i	a8, a2, 0x200
  903299:	c0a0      	movi.n	a10, 0
  90329b:	0b8000        	callx8	a8

#if MAGPIE_ENABLE_WLAN == 1
		wlan_pci_isr();
  90329e:	580282        	call8	903ca8 <wlan_pci_isr>
#endif

		A_TASKLET_RUN();
  9032a1:	28226d        	l32i	a8, a2, 0x1b4
  9032a4:	0b8000        	callx8	a8
		A_TIMER_RUN();
  9032a7:	282245        	l32i	a8, a2, 0x114
  9032aa:	0b8000        	callx8	a8
	if (loop_low == 0xffffffff) {
  9032ad:	8830      	l32i.n	a8, a3, 0
  9032af:	69800d        	bnei	a8, -1, 9032c0 <wlan_task+0x48>
		loop_low = 0;
  9032b2:	c080      	movi.n	a8, 0
  9032b4:	9830      	s32i.n	a8, a3, 0
		loop_high++;
  9032b6:	8840      	l32i.n	a8, a4, 0
  9032b8:	b188      	addi.n	a8, a8, 1
  9032ba:	9840      	s32i.n	a8, a4, 0
  9032bc:	63ffca        	j	90328a <wlan_task+0x12>
  9032bf:	00b188        	excw
		loop_low++;
  9032c2:	9830      	s32i.n	a8, a3, 0
  9032c4:	63ffc2        	j	90328a <wlan_task+0x12>
	...

009032c8 <htc_setup_comp>:
#define MAGPIE 1

#if MAGPIE==1

void htc_setup_comp(void)
{
  9032c8:	6c1004        	entry	a1, 32
  9032cb:	d10f      	retw.n
  9032cd:	000000        	ill

009032d0 <_wmi_cmd_rsp>:
	}
}

void _wmi_cmd_rsp(void *pContext, WMI_COMMAND_ID cmd_id, A_UINT16 SeqNo,
		  A_UINT8 *buffer, int Length)
{
  9032d0:	6c1006        	entry	a1, 48
	adf_nbuf_t netbuf = ADF_NBUF_NULL;
	A_UINT8 *pData;

	netbuf = WMI_AllocEvent(pContext, WMI_EVT_CLASS_CMD_REPLY, sizeof(WMI_CMD_HDR) + Length);
  9032d3:	17716e        	l32r	a7, 8df88c <_bss_end+0x3d2084>
  9032d6:	2c6c04        	addi	a12, a6, 4
  9032d9:	287292        	l32i	a8, a7, 0x248
  9032dc:	c0b1      	movi.n	a11, 1
  9032de:	022a02        	or	a10, a2, a2
  9032e1:	0b8000        	callx8	a8
{
  9032e4:	04044f        	extui	a4, a4, 0, 16
	netbuf = WMI_AllocEvent(pContext, WMI_EVT_CLASS_CMD_REPLY, sizeof(WMI_CMD_HDR) + Length);
  9032e7:	d8a0      	mov.n	a8, a10

	if (netbuf == ADF_NBUF_NULL) {
  9032e9:	cda1      	bnez.n	a10, 9032fe <_wmi_cmd_rsp+0x2e>
		adf_os_print("%s: buffer allocation for event_id %x failed!\n", __FUNCTION__, cmd_id);
  9032eb:	227212        	l32i	a2, a7, 72
  9032ee:	1b71a3        	l32r	a11, 8df97c <_bss_end+0x3d2174>
  9032f1:	1a71a4        	l32r	a10, 8df984 <_bss_end+0x3d217c>
  9032f4:	dc30      	mov.n	a12, a3
  9032f6:	0b2000        	callx8	a2
  9032f9:	63fffc        	j	9032f9 <_wmi_cmd_rsp+0x29>
  9032fc:	0000c9        	excw
		adf_os_assert(0);
		return;
	}

	if (Length != 0 && buffer != NULL) {
  9032ff:	62c950        	j	8efc53 <memset+0xaab7>
 *         put, or NULL if there is not enough room in this buf.
 */
static inline a_uint8_t *
adf_nbuf_put_tail(adf_nbuf_t buf, adf_os_size_t size)
{
    return __adf_nbuf_put_tail(buf, size);
  903302:	db60      	mov.n	a11, a6
  903304:	9a10      	s32i.n	a10, a1, 0
  903306:	5800ba        	call8	9035f0 <__adf_nbuf_put_tail>
}

/* move a memory buffer */
static inline void 		__adf_os_mem_copy(void *dst, const void *src, adf_os_size_t size)
{
    A_MEMCPY(dst,src,size);
  903309:	8975      	l32i.n	a9, a7, 20
  90330b:	dc60      	mov.n	a12, a6
  90330d:	db50      	mov.n	a11, a5
  90330f:	0b9000        	callx8	a9
  903312:	8810      	l32i.n	a8, a1, 0
		pData = (A_UINT8 *)adf_nbuf_put_tail(netbuf, Length);
		adf_os_mem_copy(pData, buffer, Length);
	}

	WMI_SendEvent(pContext, netbuf, cmd_id, SeqNo, Length);
  903314:	257293        	l32i	a5, a7, 0x24c
  903317:	de60      	mov.n	a14, a6
  903319:	dd40      	mov.n	a13, a4
  90331b:	030c4f        	extui	a12, a3, 0, 16
  90331e:	db80      	mov.n	a11, a8
  903320:	da20      	mov.n	a10, a2
  903322:	0b5000        	callx8	a5
  903325:	d10f      	retw.n
	...

00903328 <Magpie_init>:
}


void Magpie_init(void)
{
  903328:	6c1004        	entry	a1, 32
	A_PRINTF("[+++Magpie_init]\n\r");
  90332b:	12716e        	l32r	a2, 8df8e4 <_bss_end+0x3d20dc>
  90332e:	1a71a5        	l32r	a10, 8df9c4 <_bss_end+0x3d21bc>
  903331:	232212        	l32i	a3, a2, 72
  903334:	0b3000        	callx8	a3

	A_PRINTF("[+++VBUF_init(%d)]\n\r", MAX_BUF_NUM);
  903337:	1371a6        	l32r	a3, 8df9d0 <_bss_end+0x3d21c8>
  90333a:	282212        	l32i	a8, a2, 72
  90333d:	2b0a64        	movi	a11, 100
  903340:	da30      	mov.n	a10, a3
  903342:	0b8000        	callx8	a8
	VBUF_init(MAX_BUF_NUM);
  903345:	2822a5        	l32i	a8, a2, 0x294
  903348:	2a0a64        	movi	a10, 100
  90334b:	0b8000        	callx8	a8

	A_PRINTF("[+++VBUF_init(%d)]\n\r", MAX_DESC_NUM);
  90334e:	282212        	l32i	a8, a2, 72
  903351:	2b0a64        	movi	a11, 100
  903354:	da30      	mov.n	a10, a3
  903356:	0b8000        	callx8	a8
	VDESC_init(MAX_DESC_NUM);
  903359:	2222aa        	l32i	a2, a2, 0x2a8
  90335c:	2a0a64        	movi	a10, 100
  90335f:	0b2000        	callx8	a2
  903362:	d10f      	retw.n

00903364 <__adf_nbuf_alloc>:
 * @return newly allocated nbuf
 */
__adf_nbuf_t
__adf_nbuf_alloc(adf_os_size_t size, a_uint32_t reserve,
                 a_uint32_t align)
{
  903364:	6c1004        	entry	a1, 32
    VBUF *buf = NULL;
    VDESC *desc;

    buf = VBUF_alloc_vbuf();
  903367:	15716e        	l32r	a5, 8df920 <_bss_end+0x3d2118>
{
  90336a:	d620      	mov.n	a6, a2
    buf = VBUF_alloc_vbuf();
  90336c:	2a52a6        	l32i	a10, a5, 0x298
  90336f:	0ba000        	callx8	a10
  903372:	d2a0      	mov.n	a2, a10
    if ( buf != NULL ) {
  903374:	64a028        	beqz	a10, 9033a0 <__adf_nbuf_alloc+0x3c>
        desc = VDESC_alloc_vdesc();
  903377:	2a52ab        	l32i	a10, a5, 0x2ac
  90337a:	0ba000        	callx8	a10
        desc->buf_addr = (A_UINT8 *)A_ALLOCRAM(size);
  90337d:	255252        	l32i	a5, a5, 0x148
        desc = VDESC_alloc_vdesc();
  903380:	d4a0      	mov.n	a4, a10
        desc->buf_addr = (A_UINT8 *)A_ALLOCRAM(size);
  903382:	db60      	mov.n	a11, a6
  903384:	c0a0      	movi.n	a10, 0
  903386:	0b5000        	callx8	a5
        desc->buf_size = size;
        desc->next_desc = NULL;
  903389:	c080      	movi.n	a8, 0
        desc->buf_addr = (A_UINT8 *)A_ALLOCRAM(size);
  90338b:	9a41      	s32i.n	a10, a4, 4
        desc->buf_size = size;
  90338d:	264504        	s16i	a6, a4, 8
        desc->next_desc = NULL;
  903390:	9840      	s32i.n	a8, a4, 0
        desc->data_offset = reserve;
  903392:	234505        	s16i	a3, a4, 10
        desc->data_size = 0;
  903395:	284506        	s16i	a8, a4, 12
        desc->control = 0;
  903398:	284507        	s16i	a8, a4, 14

        buf->desc_list = desc;
  90339b:	9420      	s32i.n	a4, a2, 0
        buf->buf_length = 0;
  90339d:	282504        	s16i	a8, a2, 8
    }

    return buf;
}
  9033a0:	d10f      	retw.n
	...

009033a4 <__adf_nbuf_free>:
 * @param hdl
 * @param adf_nbuf
 *
 */
void __adf_nbuf_free(__adf_nbuf_t  buf)
{
  9033a4:	6c1004        	entry	a1, 32
  9033a7:	63fffc        	j	9033a7 <__adf_nbuf_free+0x3>
	...

009033ac <__adf_nbuf_realloc_headroom>:
 *
 * @return new nbuf
 */
__adf_nbuf_t
__adf_nbuf_realloc_headroom(__adf_nbuf_t buf, a_uint32_t headroom)
{
  9033ac:	6c1004        	entry	a1, 32
  9033af:	63fffc        	j	9033af <__adf_nbuf_realloc_headroom+0x3>
	...

009033b4 <__adf_nbuf_realloc_tailroom>:
 *
 * @return struct mbuf * (buffer with the new tailroom)
 */
__adf_nbuf_t
__adf_nbuf_realloc_tailroom(__adf_nbuf_t  buf, a_uint32_t tailroom)
{
  9033b4:	6c1004        	entry	a1, 32
  9033b7:	63fffc        	j	9033b7 <__adf_nbuf_realloc_tailroom+0x3>
	...

009033bc <__adf_nbuf_expand>:
 *
 * @return struct mbuf* (NULL if something goofed up)
 */
__adf_nbuf_t
__adf_nbuf_expand(__adf_nbuf_t buf, a_uint32_t headroom, a_uint32_t tailroom)
{
  9033bc:	6c1004        	entry	a1, 32
  9033bf:	63fffc        	j	9033bf <__adf_nbuf_expand+0x3>
	...

009033c4 <__adf_nbuf_push_head>:
 * @return new data pointer ,NULL if the len is more than the
 *         space available in the head frag.
 */
a_uint8_t *
__adf_nbuf_push_head(__adf_nbuf_t buf, adf_os_size_t len)
{
  9033c4:	6c1004        	entry	a1, 32
    a_uint8_t *ptr = NULL;
    VDESC *desc = buf->desc_list;
  9033c7:	8920      	l32i.n	a9, a2, 0

    desc->data_offset -= len;
  9033c9:	03034f        	extui	a3, a3, 0, 16
    desc->data_size += len;
  9033cc:	2a9106        	l16ui	a10, a9, 12
    desc->data_offset -= len;
  9033cf:	289105        	l16ui	a8, a9, 10
    desc->data_size += len;
  9033d2:	aa3a      	add.n	a10, a3, a10
  9033d4:	2a9506        	s16i	a10, a9, 12
    desc->data_offset -= len;
  9033d7:	03880c        	sub	a8, a8, a3
    buf->buf_length += len;
  9033da:	2a2104        	l16ui	a10, a2, 8
    desc->data_offset -= len;
  9033dd:	08084f        	extui	a8, a8, 0, 16
  9033e0:	289505        	s16i	a8, a9, 10
    buf->buf_length += len;
  9033e3:	aa33      	add.n	a3, a3, a10
  9033e5:	232504        	s16i	a3, a2, 8
    ptr = desc->buf_addr + desc->data_offset;
  9033e8:	8291      	l32i.n	a2, a9, 4
    return(ptr);
}
  9033ea:	a822      	add.n	a2, a2, a8
  9033ec:	d10f      	retw.n
	...

009033f0 <__adf_nbuf_pull_head>:
 *
 * @return new data pointer
 */
a_uint8_t *
__adf_nbuf_pull_head(__adf_nbuf_t buf, adf_os_size_t len)
{
  9033f0:	6c1004        	entry	a1, 32
    a_uint8_t *ptr = NULL;
    VDESC *desc = buf->desc_list;
  9033f3:	8920      	l32i.n	a9, a2, 0

    desc->data_offset += len;
  9033f5:	030a4f        	extui	a10, a3, 0, 16
    desc->data_size -= len;
  9033f8:	239106        	l16ui	a3, a9, 12
    desc->data_offset += len;
  9033fb:	289105        	l16ui	a8, a9, 10
    desc->data_size -= len;
  9033fe:	0a330c        	sub	a3, a3, a10
  903401:	239506        	s16i	a3, a9, 12
    desc->data_offset += len;
  903404:	a8a8      	add.n	a8, a10, a8
    buf->buf_length -= len;
  903406:	232104        	l16ui	a3, a2, 8
    desc->data_offset += len;
  903409:	08084f        	extui	a8, a8, 0, 16
  90340c:	289505        	s16i	a8, a9, 10
    buf->buf_length -= len;
  90340f:	0a330c        	sub	a3, a3, a10
  903412:	232504        	s16i	a3, a2, 8
    ptr = desc->buf_addr + desc->data_offset;
  903415:	8291      	l32i.n	a2, a9, 4

    return ptr;
}
  903417:	a822      	add.n	a2, a2, a8
  903419:	d10f      	retw.n
	...

0090341c <__adf_nbuf_copy>:
  90341c:	6c1004        	entry	a1, 32
  90341f:	cc21      	bnez.n	a2, 903424 <__adf_nbuf_copy+0x8>
  903421:	63fffc        	j	903421 <__adf_nbuf_copy+0x5>
  903424:	c020      	movi.n	a2, 0
  903426:	d10f      	retw.n

00903428 <__adf_nbuf_unshare>:
 *
 * @return new nbuf
 */
__adf_nbuf_t
__adf_nbuf_unshare(__adf_nbuf_t  src)
{
  903428:	6c1004        	entry	a1, 32
    __adf_nbuf_t buf = NULL;

    adf_os_assert(src != NULL);
  90342b:	cc21      	bnez.n	a2, 903430 <__adf_nbuf_unshare+0x8>
  90342d:	63fffc        	j	90342d <__adf_nbuf_unshare+0x5>

    return buf;
}
  903430:	c020      	movi.n	a2, 0
  903432:	d10f      	retw.n

00903434 <__adf_nbuf_frag_info>:
 * @param[out] sg (scatter/gather list of all the frags)
 *
 */
void
__adf_nbuf_frag_info(__adf_nbuf_t buf, adf_os_sglist_t	*sg)
{
  903434:	6c1004        	entry	a1, 32
    VDESC *desc = buf->desc_list;
  903437:	8820      	l32i.n	a8, a2, 0
  903439:	b439      	addi.n	a9, a3, 4
    int count = 0;
  90343b:	c0a0      	movi.n	a10, 0

    while( desc != NULL ) {
  90343d:	600013        	j	903454 <__adf_nbuf_frag_info+0x20>
        sg->sg_segs[count].vaddr = desc->buf_addr + desc->data_offset;
  903440:	2c8105        	l16ui	a12, a8, 10
  903443:	8b81      	l32i.n	a11, a8, 4
        sg->sg_segs[count].len   = desc->data_size;

        count++;
  903445:	b1aa      	addi.n	a10, a10, 1
        sg->sg_segs[count].vaddr = desc->buf_addr + desc->data_offset;
  903447:	acbb      	add.n	a11, a11, a12
  903449:	9b90      	s32i.n	a11, a9, 0
        sg->sg_segs[count].len   = desc->data_size;
  90344b:	2b8106        	l16ui	a11, a8, 12
        desc = desc->next_desc;
  90344e:	8880      	l32i.n	a8, a8, 0
        sg->sg_segs[count].len   = desc->data_size;
  903450:	9b91      	s32i.n	a11, a9, 4
  903452:	b899      	addi.n	a9, a9, 8
    while( desc != NULL ) {
  903454:	658fe8        	bnez	a8, 903440 <__adf_nbuf_frag_info+0xc>
    }

    sg->nsegs = count;
  903457:	9a30      	s32i.n	a10, a3, 0
  903459:	d10f      	retw.n
	...

0090345c <__adf_nbuf_get_priv>:
 *
 * @return uint8_t* ( pointer to the data )
 */
a_uint8_t *
__adf_nbuf_get_priv(__adf_nbuf_t buf)
{
  90345c:	6c1004        	entry	a1, 32
    adf_os_assert(buf != NULL);
  90345f:	cc21      	bnez.n	a2, 903464 <__adf_nbuf_get_priv+0x8>
  903461:	63fffc        	j	903461 <__adf_nbuf_get_priv+0x5>

    return buf->ctx;
}
  903464:	bc22      	addi.n	a2, a2, 12
  903466:	d10f      	retw.n

00903468 <__adf_nbuf_queue_add>:
 *
 */
void
__adf_nbuf_queue_add(__adf_nbuf_qhead_t  *qhead,
                     __adf_nbuf_t  buf)
{
  903468:	6c1004        	entry	a1, 32
    qhead->qlen++;
  90346b:	8822      	l32i.n	a8, a2, 8
  90346d:	b188      	addi.n	a8, a8, 1
  90346f:	9822      	s32i.n	a8, a2, 8

    buf->next_buf = NULL;
  903471:	c080      	movi.n	a8, 0
  903473:	9831      	s32i.n	a8, a3, 4

    if (qhead->head == NULL) {
  903475:	8820      	l32i.n	a8, a2, 0
  903477:	cc83      	bnez.n	a8, 90347e <__adf_nbuf_queue_add+0x16>
        qhead->head = buf;
  903479:	9320      	s32i.n	a3, a2, 0
  90347b:	600003        	j	903482 <__adf_nbuf_queue_add+0x1a>
    }
    else {
        qhead->tail->next_buf = buf;
  90347e:	8821      	l32i.n	a8, a2, 4
  903480:	9381      	s32i.n	a3, a8, 4
    }
    qhead->tail = buf;
  903482:	9321      	s32i.n	a3, a2, 4
  903484:	d10f      	retw.n
	...

00903488 <__adf_nbuf_queue_remove>:
 *
 * @return the nbuf
 */
__adf_nbuf_t
__adf_nbuf_queue_remove(__adf_nbuf_qhead_t *qhead)
{
  903488:	6c1004        	entry	a1, 32
  90348b:	d820      	mov.n	a8, a2
    __adf_nbuf_t  b0 = NULL;

    if (qhead->head) {
  90348d:	8220      	l32i.n	a2, a2, 0
  90348f:	c929      	beqz.n	a2, 9034ac <__adf_nbuf_queue_remove+0x24>
        qhead->qlen--;
  903491:	8982      	l32i.n	a9, a8, 8
        b0 = qhead->head;
        if ( qhead->head == qhead->tail ) {
  903493:	8a81      	l32i.n	a10, a8, 4
        qhead->qlen--;
  903495:	b099      	addi.n	a9, a9, -1
  903497:	9982      	s32i.n	a9, a8, 8
  903499:	c090      	movi.n	a9, 0
        if ( qhead->head == qhead->tail ) {
  90349b:	7a2907        	bne	a2, a10, 9034a6 <__adf_nbuf_queue_remove+0x1e>
            qhead->head = NULL;
  90349e:	9980      	s32i.n	a9, a8, 0
            qhead->tail = NULL;
  9034a0:	9981      	s32i.n	a9, a8, 4
  9034a2:	600004        	j	9034aa <__adf_nbuf_queue_remove+0x22>
  9034a5:	008a21        	excw
        } else {
            qhead->head = qhead->head->next_buf;
  9034a8:	9a80      	s32i.n	a10, a8, 0
        }

        b0->next_buf = NULL;
  9034aa:	9921      	s32i.n	a9, a2, 4
    }
	return b0;
}
  9034ac:	d10f      	retw.n
	...

009034b0 <__adf_nbuf_dmamap_create>:
 *
 * @return a_status_t
 */
a_status_t
__adf_nbuf_dmamap_create(__adf_os_device_t osdev, __adf_os_dma_map_t *dmap)
{
  9034b0:	6c1004        	entry	a1, 32
    a_status_t retval = A_STATUS_OK;

    (*dmap) = A_ALLOCRAM(sizeof(struct __adf_dma_map));
  9034b3:	12716e        	l32r	a2, 8dfa6c <_bss_end+0x3d2264>
  9034b6:	c0bc      	movi.n	a11, 12
  9034b8:	222252        	l32i	a2, a2, 0x148
  9034bb:	c0a0      	movi.n	a10, 0
  9034bd:	0b2000        	callx8	a2
  9034c0:	9a30      	s32i.n	a10, a3, 0
    if(*dmap == NULL)
        return A_STATUS_ENOMEM;
  9034c2:	c023      	movi.n	a2, 3
    if(*dmap == NULL)
  9034c4:	c8a2      	beqz.n	a10, 9034ca <__adf_nbuf_dmamap_create+0x1a>

    (*dmap)->buf = NULL;
  9034c6:	c020      	movi.n	a2, 0
  9034c8:	92a0      	s32i.n	a2, a10, 0
    return retval;
}
  9034ca:	d10f      	retw.n

009034cc <__adf_nbuf_map>:


a_status_t
__adf_nbuf_map(__adf_os_device_t osdev, __adf_os_dma_map_t bmap,
                          __adf_nbuf_t buf, adf_os_dma_dir_t dir)
{
  9034cc:	6c1004        	entry	a1, 32
    bmap->buf = buf;
  9034cf:	9430      	s32i.n	a4, a3, 0

    return A_STATUS_OK;
}
  9034d1:	c020      	movi.n	a2, 0
  9034d3:	d10f      	retw.n
  9034d5:	000000        	ill

009034d8 <__adf_nbuf_unmap>:

void
__adf_nbuf_unmap(__adf_os_device_t osdev, __adf_os_dma_map_t bmap,
                            adf_os_dma_dir_t dir)
{
  9034d8:	6c1004        	entry	a1, 32
    bmap->buf = NULL;
  9034db:	c080      	movi.n	a8, 0
  9034dd:	9830      	s32i.n	a8, a3, 0
  9034df:	d10f      	retw.n
  9034e1:	000000        	ill

009034e4 <__adf_nbuf_dmamap_destroy>:
  9034e4:	6c1004        	entry	a1, 32
  9034e7:	d10f      	retw.n
  9034e9:	000000        	ill

009034ec <__adf_nbuf_dmamap_info>:
 * @param[in]  bmap
 * @param[out] sg (map_info ptr)
 */
void
__adf_nbuf_dmamap_info(__adf_os_dma_map_t bmap, adf_os_dmamap_info_t *sg)
{
  9034ec:	6c1004        	entry	a1, 32
    VDESC *desc = bmap->buf->desc_list;
  9034ef:	8820      	l32i.n	a8, a2, 0
  9034f1:	b439      	addi.n	a9, a3, 4
  9034f3:	8880      	l32i.n	a8, a8, 0
    int count = 0;
  9034f5:	c0a0      	movi.n	a10, 0

    while( desc != NULL ) {
  9034f7:	600015        	j	903510 <__adf_nbuf_dmamap_info+0x24>
  9034fa:	00002c        	excw
        sg->dma_segs[count].paddr = (adf_os_dma_addr_t)(desc->buf_addr + desc->data_offset);
  9034fd:	8105      	l32i.n	a1, a0, 20
  9034ff:	8b81      	l32i.n	a11, a8, 4
        sg->dma_segs[count].len   = desc->data_size;

        count++;
  903501:	b1aa      	addi.n	a10, a10, 1
        sg->dma_segs[count].paddr = (adf_os_dma_addr_t)(desc->buf_addr + desc->data_offset);
  903503:	acbb      	add.n	a11, a11, a12
  903505:	9b90      	s32i.n	a11, a9, 0
        sg->dma_segs[count].len   = desc->data_size;
  903507:	2b8106        	l16ui	a11, a8, 12
        desc = desc->next_desc;
  90350a:	8880      	l32i.n	a8, a8, 0
        sg->dma_segs[count].len   = desc->data_size;
  90350c:	9b91      	s32i.n	a11, a9, 4
  90350e:	b899      	addi.n	a9, a9, 8
    while( desc != NULL ) {
  903510:	658fe8        	bnez	a8, 9034fc <__adf_nbuf_dmamap_info+0x10>
    }

    sg->nsegs = count;
  903513:	9a30      	s32i.n	a10, a3, 0
  903515:	d10f      	retw.n
	...

00903518 <__adf_nbuf_set_rx_cksum>:
  903518:	6c1004        	entry	a1, 32
  90351b:	d10f      	retw.n
  90351d:	000000        	ill

00903520 <__adf_nbuf_get_vlan_info>:
}

a_status_t
__adf_nbuf_get_vlan_info(adf_net_handle_t hdl, __adf_nbuf_t buf,
                         adf_net_vlanhdr_t *vlan)
{
  903520:	6c1004        	entry	a1, 32
    return A_STATUS_OK;
}
  903523:	c020      	movi.n	a2, 0
  903525:	d10f      	retw.n
	...

00903528 <__adf_nbuf_create_frm_frag>:

__adf_nbuf_t
__adf_nbuf_create_frm_frag(__adf_nbuf_queue_t *qhead)
{
  903528:	6c1006        	entry	a1, 48
    VBUF *buf_tmp, *buf_head = NULL;
    VDESC *vdesc_prev = NULL, *vdesc_tmp = NULL;
    a_uint32_t cnt = 0, len = __adf_nbuf_queue_len(qhead);
    a_uint16_t total_len = 0;

    buf_head = VBUF_alloc_vbuf();
  90352b:	14716e        	l32r	a4, 8dfae4 <_bss_end+0x3d22dc>
 *
 */
a_uint32_t
__adf_nbuf_queue_len(__adf_nbuf_qhead_t *qhead)
{
    return qhead->qlen;
  90352e:	8322      	l32i.n	a3, a2, 8
    buf_head = VBUF_alloc_vbuf();
  903530:	2a42a6        	l32i	a10, a4, 0x298
    return qhead->qlen;
  903533:	9310      	s32i.n	a3, a1, 0
    buf_head = VBUF_alloc_vbuf();
  903535:	0ba000        	callx8	a10
  903538:	d7a0      	mov.n	a7, a10
    __adf_os_assert(buf_head);
  90353a:	cca2      	bnez.n	a10, 903540 <__adf_nbuf_create_frm_frag+0x18>
  90353c:	63fffc        	j	90353c <__adf_nbuf_create_frm_frag+0x14>
  90353f:	008320        	excw
    __adf_os_assert(buf_tmp);
  903542:	cc32      	bnez.n	a3, 903548 <__adf_nbuf_create_frm_frag+0x20>
  903544:	63fffc        	j	903544 <__adf_nbuf_create_frm_frag+0x1c>
  903547:	008330        	excw
    buf_head->desc_list = buf_tmp->desc_list;
  90354a:	93a0      	s32i.n	a3, a10, 0
    a_uint16_t total_len = 0;
  90354c:	c030      	movi.n	a3, 0
    a_uint32_t cnt = 0, len = __adf_nbuf_queue_len(qhead);
  90354e:	d530      	mov.n	a5, a3
    VDESC *vdesc_prev = NULL, *vdesc_tmp = NULL;
  903550:	d630      	mov.n	a6, a3
    while ((buf_tmp = __adf_nbuf_queue_remove(qhead)) != NULL) {
  903552:	600022        	j	903578 <__adf_nbuf_create_frm_frag+0x50>
        total_len += buf_tmp->buf_length;
  903555:	28a104        	l16ui	a8, a10, 8
        cnt++;
  903558:	b155      	addi.n	a5, a5, 1
        total_len += buf_tmp->buf_length;
  90355a:	a833      	add.n	a3, a3, a8
  90355c:	03034f        	extui	a3, a3, 0, 16
  90355f:	88a0      	l32i.n	a8, a10, 0
        if (vdesc_prev) {
  903561:	c861      	beqz.n	a6, 903566 <__adf_nbuf_create_frm_frag+0x3e>
            vdesc_prev->next_desc = buf_tmp->desc_list;
  903563:	286600        	s32i	a8, a6, 0
  903566:	d680      	mov.n	a6, a8
        while (vdesc_tmp->next_desc) {
  903568:	8880      	l32i.n	a8, a8, 0
  90356a:	658ff8        	bnez	a8, 903566 <__adf_nbuf_create_frm_frag+0x3e>
        buf_tmp->desc_list = NULL;
  90356d:	98a0      	s32i.n	a8, a10, 0
        buf_tmp->buf_length = 0;
  90356f:	28a504        	s16i	a8, a10, 8
        VBUF_free_vbuf(buf_tmp);
  903572:	2842a8        	l32i	a8, a4, 0x2a0
  903575:	0b8000        	callx8	a8
    while ((buf_tmp = __adf_nbuf_queue_remove(qhead)) != NULL) {
  903578:	da20      	mov.n	a10, a2
  90357a:	5bffc3        	call8	903488 <__adf_nbuf_queue_remove>
  90357d:	65afd4        	bnez	a10, 903555 <__adf_nbuf_create_frm_frag+0x2d>
    if (cnt != len) {
  903580:	8210      	l32i.n	a2, a1, 0
  903582:	725102        	beq	a5, a2, 903588 <__adf_nbuf_create_frm_frag+0x60>
  903585:	63fffc        	j	903585 <__adf_nbuf_create_frm_frag+0x5d>
    buf_head->buf_length = total_len;
  903588:	237504        	s16i	a3, a7, 8
}
  90358b:	d270      	mov.n	a2, a7
  90358d:	d10f      	retw.n
	...

00903590 <__adf_nbuf_split_to_frag>:
{
  903590:	6c1004        	entry	a1, 32
    qhead->qlen = 0;
  903593:	c040      	movi.n	a4, 0
  903595:	9432      	s32i.n	a4, a3, 8
    qhead->head = NULL;
  903597:	9430      	s32i.n	a4, a3, 0
    qhead->tail = NULL;
  903599:	9431      	s32i.n	a4, a3, 4
  90359b:	16716e        	l32r	a6, 8dfb54 <_bss_end+0x3d234c>
    desc_tmp = buf->desc_list;
  90359e:	8420      	l32i.n	a4, a2, 0
    while (desc_tmp /*&& desc_tmp->buf_addr*/) {
  9035a0:	600026        	j	9035ca <__adf_nbuf_split_to_frag+0x3a>
        buf_tmp = VBUF_alloc_vbuf();
  9035a3:	2a62a6        	l32i	a10, a6, 0x298
  9035a6:	0ba000        	callx8	a10
  9035a9:	d5a0      	mov.n	a5, a10
        __adf_os_assert(buf_tmp);
  9035ab:	cca2      	bnez.n	a10, 9035b1 <__adf_nbuf_split_to_frag+0x21>
  9035ad:	63fffc        	j	9035ad <__adf_nbuf_split_to_frag+0x1d>
  9035b0:	002741        	extui	a7, a0, 2, 2
        buf_tmp->buf_length = desc_tmp->data_size;
  9035b3:	0694a0        	excw
  9035b6:	27a504        	s16i	a7, a10, 8
        buf_tmp->next_buf = NULL;
  9035b9:	c070      	movi.n	a7, 0
  9035bb:	97a1      	s32i.n	a7, a10, 4
        __adf_nbuf_queue_add(qhead, buf_tmp);
  9035bd:	dba0      	mov.n	a11, a10
  9035bf:	da30      	mov.n	a10, a3
  9035c1:	5bffa9        	call8	903468 <__adf_nbuf_queue_add>
        buf_tmp->desc_list->next_desc = NULL;
  9035c4:	8550      	l32i.n	a5, a5, 0
        desc_tmp = desc_tmp->next_desc;
  9035c6:	8440      	l32i.n	a4, a4, 0
        buf_tmp->desc_list->next_desc = NULL;
  9035c8:	9750      	s32i.n	a7, a5, 0
    while (desc_tmp /*&& desc_tmp->buf_addr*/) {
  9035ca:	654fd5        	bnez	a4, 9035a3 <__adf_nbuf_split_to_frag+0x13>
    VBUF_free_vbuf(buf);
  9035cd:	2362a8        	l32i	a3, a6, 0x2a0
    buf->desc_list = NULL;
  9035d0:	9420      	s32i.n	a4, a2, 0
    buf->buf_length = 0;
  9035d2:	242504        	s16i	a4, a2, 8
    VBUF_free_vbuf(buf);
  9035d5:	da20      	mov.n	a10, a2
  9035d7:	0b3000        	callx8	a3
  9035da:	d10f      	retw.n

009035dc <__adf_nbuf_last>:
{
  9035dc:	6c1004        	entry	a1, 32
    VDESC *desc = buf->desc_list;
  9035df:	8220      	l32i.n	a2, a2, 0
    while(desc->next_desc != NULL)
  9035e1:	600001        	j	9035e6 <__adf_nbuf_last+0xa>
  9035e4:	d280      	mov.n	a2, a8
  9035e6:	8820      	l32i.n	a8, a2, 0
  9035e8:	658ff8        	bnez	a8, 9035e4 <__adf_nbuf_last+0x8>
}
  9035eb:	d10f      	retw.n
  9035ed:	000000        	ill

009035f0 <__adf_nbuf_put_tail>:
{
  9035f0:	6c1004        	entry	a1, 32
    VDESC *last_desc = __adf_nbuf_last(buf);
  9035f3:	da20      	mov.n	a10, a2
  9035f5:	5bfff9        	call8	9035dc <__adf_nbuf_last>
    tail = last_desc->buf_addr + last_desc->data_offset + last_desc->data_size;
  9035f8:	28a106        	l16ui	a8, a10, 12
  9035fb:	29a105        	l16ui	a9, a10, 10
    last_desc->data_size += len;
  9035fe:	03034f        	extui	a3, a3, 0, 16
    tail = last_desc->buf_addr + last_desc->data_offset + last_desc->data_size;
  903601:	a899      	add.n	a9, a9, a8
    last_desc->data_size += len;
  903603:	a388      	add.n	a8, a8, a3
  903605:	28a506        	s16i	a8, a10, 12
    buf->buf_length += len;
  903608:	282104        	l16ui	a8, a2, 8
    tail = last_desc->buf_addr + last_desc->data_offset + last_desc->data_size;
  90360b:	8ba1      	l32i.n	a11, a10, 4
    buf->buf_length += len;
  90360d:	a833      	add.n	a3, a3, a8
  90360f:	232504        	s16i	a3, a2, 8
}
  903612:	a9b2      	add.n	a2, a11, a9
  903614:	d10f      	retw.n
	...

00903618 <__adf_nbuf_trim_tail>:
{
  903618:	6c1004        	entry	a1, 32
    VDESC *last_desc = __adf_nbuf_last(buf);
  90361b:	da20      	mov.n	a10, a2
  90361d:	5bffef        	call8	9035dc <__adf_nbuf_last>
    adf_os_assert(buf != NULL);
  903620:	cc21      	bnez.n	a2, 903625 <__adf_nbuf_trim_tail+0xd>
  903622:	63fffc        	j	903622 <__adf_nbuf_trim_tail+0xa>
    last_desc->data_size -= len;
  903625:	28a106        	l16ui	a8, a10, 12
  903628:	03034f        	extui	a3, a3, 0, 16
  90362b:	03880c        	sub	a8, a8, a3
  90362e:	28a506        	s16i	a8, a10, 12
    buf->buf_length -= len;
  903631:	282104        	l16ui	a8, a2, 8
  903634:	03830c        	sub	a3, a8, a3
  903637:	232504        	s16i	a3, a2, 8
  90363a:	d10f      	retw.n

0090363c <__adf_nbuf_headroom>:
{
  90363c:	6c1004        	entry	a1, 32
    return buf->desc_list->data_offset;
  90363f:	8820      	l32i.n	a8, a2, 0
}
  903641:	228105        	l16ui	a2, a8, 10
  903644:	d10f      	retw.n
	...

00903648 <__adf_nbuf_tailroom>:
{
  903648:	6c1004        	entry	a1, 32
    VDESC *last_desc = __adf_nbuf_last(buf);
  90364b:	da20      	mov.n	a10, a2
  90364d:	5bffe3        	call8	9035dc <__adf_nbuf_last>
    return last_desc->buf_size - last_desc->data_offset - last_desc->data_size;
  903650:	22a105        	l16ui	a2, a10, 10
  903653:	28a104        	l16ui	a8, a10, 8
  903656:	02880c        	sub	a8, a8, a2
  903659:	22a106        	l16ui	a2, a10, 12
}
  90365c:	02820c        	sub	a2, a8, a2
  90365f:	d10f      	retw.n
  903661:	000000        	ill

00903664 <__adf_nbuf_len>:
{
  903664:	6c1004        	entry	a1, 32
}
  903667:	222104        	l16ui	a2, a2, 8
  90366a:	d10f      	retw.n

0090366c <__adf_nbuf_clone>:
{
  90366c:	6c1004        	entry	a1, 32
}
  90366f:	c020      	movi.n	a2, 0
  903671:	d10f      	retw.n
	...

00903674 <__adf_nbuf_cat>:
{
  903674:	6c1004        	entry	a1, 32
  903677:	d10f      	retw.n
  903679:	000000        	ill

0090367c <__adf_nbuf_is_cloned>:
{
  90367c:	6c1004        	entry	a1, 32
}
  90367f:	c020      	movi.n	a2, 0
  903681:	d10f      	retw.n
	...

00903684 <__adf_nbuf_peek_header>:
{
  903684:	6c1004        	entry	a1, 32
    VDESC *desc = buf->desc_list;
  903687:	8820      	l32i.n	a8, a2, 0
    *addr = desc->buf_addr + desc->data_offset;
  903689:	2a8105        	l16ui	a10, a8, 10
  90368c:	8981      	l32i.n	a9, a8, 4
    *len = desc->data_size;
  90368e:	288106        	l16ui	a8, a8, 12
    *addr = desc->buf_addr + desc->data_offset;
  903691:	aa99      	add.n	a9, a9, a10
  903693:	9930      	s32i.n	a9, a3, 0
    *len = desc->data_size;
  903695:	9840      	s32i.n	a8, a4, 0
  903697:	d10f      	retw.n
  903699:	000000        	ill

0090369c <__adf_nbuf_queue_init>:
{
  90369c:	6c1004        	entry	a1, 32
    qhead->qlen = 0;
  90369f:	c080      	movi.n	a8, 0
  9036a1:	9822      	s32i.n	a8, a2, 8
    qhead->head = NULL;
  9036a3:	9820      	s32i.n	a8, a2, 0
    qhead->tail = NULL;
  9036a5:	9821      	s32i.n	a8, a2, 4
  9036a7:	d10f      	retw.n
  9036a9:	000000        	ill

009036ac <__adf_nbuf_queue_len>:
{
  9036ac:	6c1004        	entry	a1, 32
}
  9036af:	8222      	l32i.n	a2, a2, 8
  9036b1:	d10f      	retw.n
	...

009036b4 <__adf_nbuf_queue_first>:
 *
 * @return (NULL if the Q is empty)
 */
__adf_nbuf_t
__adf_nbuf_queue_first(__adf_nbuf_queue_t *qhead)
{
  9036b4:	6c1004        	entry	a1, 32
    return qhead->head;
}
  9036b7:	8220      	l32i.n	a2, a2, 0
  9036b9:	d10f      	retw.n
	...

009036bc <__adf_nbuf_queue_next>:
 *
 * @return (NULL if no packets are there)
 */
__adf_nbuf_t
__adf_nbuf_queue_next(__adf_nbuf_t  buf)
{
  9036bc:	6c1004        	entry	a1, 32
    return buf->next_buf;
}
  9036bf:	8221      	l32i.n	a2, a2, 4
  9036c1:	d10f      	retw.n
	...

009036c4 <__adf_nbuf_is_queue_empty>:
 *
 * @return a_bool_t
 */
a_bool_t
__adf_nbuf_is_queue_empty(__adf_nbuf_qhead_t *qhead)
{
  9036c4:	6c1004        	entry	a1, 32
    return ((qhead->qlen == 0));
  9036c7:	8222      	l32i.n	a2, a2, 8
  9036c9:	c091      	movi.n	a9, 1
  9036cb:	c080      	movi.n	a8, 0
  9036cd:	029838        	moveqz	a8, a9, a2
  9036d0:	d280      	mov.n	a2, a8
}
  9036d2:	d10f      	retw.n

009036d4 <_buf_pool_static_init>:
    pAPIs->_free_buf = _buf_pool_static_free_buf;
    pAPIs->_shutdown = _buf_pool_static_shutdown;
}

LOCAL pool_handle_t _buf_pool_static_init(adf_os_handle_t handle)
{
  9036d4:	6c1004        	entry	a1, 32
  9036d7:	c080      	movi.n	a8, 0
#if 1
    int i;

    for(i=0; i < POOL_ID_MAX; i++) {
        g_poolCtx.bufQ[i] = NULL;
  9036d9:	1271a7        	l32r	a2, 8dfd78 <_bss_end+0x3d2570>
  9036dc:	db80      	mov.n	a11, a8
    for(i=0; i < POOL_ID_MAX; i++) {
  9036de:	290a0a        	movi	a9, 10
  9036e1:	6d9805        	loop	a9, 9036ea <_buf_pool_static_init+0x16>
        g_poolCtx.bufQ[i] = NULL;
  9036e4:	a28a      	add.n	a10, a8, a2
  9036e6:	9ba0      	s32i.n	a11, a10, 0
  9036e8:	b488      	addi.n	a8, a8, 4
    ctx = (BUF_POOL_STATIC_CONTEXT *)adf_os_mem_alloc(sizeof(BUF_POOL_STATIC_CONTEXT));
    ctx->NetHandle = handle;

    return ctx;
#endif
}
  9036ea:	d10f      	retw.n

009036ec <_buf_pool_static_shutdown>:

LOCAL void _buf_pool_static_shutdown(pool_handle_t handle)
{
  9036ec:	6c1004        	entry	a1, 32
  9036ef:	d10f      	retw.n
  9036f1:	000000        	ill

009036f4 <_buf_pool_static_create_pool>:
    // SHALL NOT BE USED in FW
}

LOCAL void _buf_pool_static_create_pool(pool_handle_t handle, BUF_POOL_ID poolId, int nItems, int nSize)
{
  9036f4:	6c1006        	entry	a1, 48
        desc->data_size = 0;

        buf->buf_length = 0;
        buf->desc_list = desc;

        if ( g_poolCtx.bufQ[poolId] == NULL ) {
  9036f7:	1271a7        	l32r	a2, 8dfd94 <_bss_end+0x3d258c>
  9036fa:	0e3311        	slli	a3, a3, 2
{
  9036fd:	d940      	mov.n	a9, a4
        buf = VBUF_alloc_vbuf();
  9036ff:	16716e        	l32r	a6, 8dfcb8 <_bss_end+0x3d24b0>
    for ( i = 0; i < nItems; i++) {
  903702:	c040      	movi.n	a4, 0
        if ( g_poolCtx.bufQ[poolId] == NULL ) {
  903704:	a323      	add.n	a3, a2, a3
    for ( i = 0; i < nItems; i++) {
  903706:	60003c        	j	903746 <_buf_pool_static_create_pool+0x52>
        buf = VBUF_alloc_vbuf();
  903709:	2a62a6        	l32i	a10, a6, 0x298
  90370c:	9910      	s32i.n	a9, a1, 0
  90370e:	0ba000        	callx8	a10
  903711:	d2a0      	mov.n	a2, a10
        desc = VDESC_alloc_vdesc();
  903713:	2a62ab        	l32i	a10, a6, 0x2ac
  903716:	0ba000        	callx8	a10
    return A_ALLOCRAM(size);
  903719:	286252        	l32i	a8, a6, 0x148
  90371c:	d7a0      	mov.n	a7, a10
  90371e:	db50      	mov.n	a11, a5
  903720:	c0a0      	movi.n	a10, 0
  903722:	0b8000        	callx8	a8
        desc->data_offset = 0;
  903725:	c080      	movi.n	a8, 0
        desc->buf_addr = (A_UINT8 *)adf_os_mem_alloc(nSize);
  903727:	9a71      	s32i.n	a10, a7, 4
        desc->buf_size = nSize;
  903729:	257504        	s16i	a5, a7, 8
        desc->data_offset = 0;
  90372c:	287505        	s16i	a8, a7, 10
        desc->data_size = 0;
  90372f:	287506        	s16i	a8, a7, 12
        buf->desc_list = desc;
  903732:	9720      	s32i.n	a7, a2, 0
        if ( g_poolCtx.bufQ[poolId] == NULL ) {
  903734:	8730      	l32i.n	a7, a3, 0
        buf->buf_length = 0;
  903736:	282504        	s16i	a8, a2, 8
        if ( g_poolCtx.bufQ[poolId] == NULL ) {
  903739:	8910      	l32i.n	a9, a1, 0
  90373b:	cc71      	bnez.n	a7, 903740 <_buf_pool_static_create_pool+0x4c>
  90373d:	600001        	j	903742 <_buf_pool_static_create_pool+0x4e>
            g_poolCtx.bufQ[poolId] = buf;
        } else {
            buf->next_buf = g_poolCtx.bufQ[poolId];
  903740:	9721      	s32i.n	a7, a2, 4
            g_poolCtx.bufQ[poolId] = buf;
  903742:	9230      	s32i.n	a2, a3, 0
    for ( i = 0; i < nItems; i++) {
  903744:	b144      	addi.n	a4, a4, 1
  903746:	7942bf        	blt	a4, a9, 903709 <_buf_pool_static_create_pool+0x15>
        }
    }
}
  903749:	d10f      	retw.n
	...

0090374c <_buf_pool_static_alloc_buf>:

LOCAL adf_nbuf_t  _buf_pool_static_alloc_buf(pool_handle_t handle, BUF_POOL_ID poolId, int reserve)
{
  90374c:	6c1004        	entry	a1, 32
    VBUF *buf;

    buf = g_poolCtx.bufQ[poolId];
  90374f:	1271a7        	l32r	a2, 8dfdec <_bss_end+0x3d25e4>
  903752:	0e3311        	slli	a3, a3, 2
  903755:	a323      	add.n	a3, a2, a3
  903757:	8230      	l32i.n	a2, a3, 0
    if ( buf != NULL ) {
  903759:	c921      	beqz.n	a2, 90376e <_buf_pool_static_alloc_buf+0x22>
        g_poolCtx.bufQ[poolId] = buf->next_buf;
  90375b:	8821      	l32i.n	a8, a2, 4
  90375d:	9830      	s32i.n	a8, a3, 0

        buf->next_buf = NULL;
  90375f:	c030      	movi.n	a3, 0
        buf->desc_list->data_offset = reserve;
  903761:	8820      	l32i.n	a8, a2, 0
        buf->next_buf = NULL;
  903763:	9321      	s32i.n	a3, a2, 4
        buf->desc_list->data_offset = reserve;
  903765:	248505        	s16i	a4, a8, 10
        buf->desc_list->data_size = 0;
  903768:	238506        	s16i	a3, a8, 12
        buf->buf_length = 0;
  90376b:	232504        	s16i	a3, a2, 8
    }

    return buf;
}
  90376e:	d10f      	retw.n

00903770 <_buf_pool_static_alloc_buf_align>:

LOCAL adf_nbuf_t  _buf_pool_static_alloc_buf_align(pool_handle_t handle, BUF_POOL_ID poolId, int reserve, int align)
{
  903770:	6c1004        	entry	a1, 32
    return _buf_pool_static_alloc_buf(handle, poolId, reserve);
  903773:	dc40      	mov.n	a12, a4
  903775:	db30      	mov.n	a11, a3
  903777:	da20      	mov.n	a10, a2
  903779:	5bfff4        	call8	90374c <_buf_pool_static_alloc_buf>
}
  90377c:	d2a0      	mov.n	a2, a10
  90377e:	d10f      	retw.n

00903780 <_buf_pool_static_free_buf>:

LOCAL void _buf_pool_static_free_buf(pool_handle_t handle, BUF_POOL_ID poolId, adf_nbuf_t buf)
{
  903780:	6c1004        	entry	a1, 32
    if ( g_poolCtx.bufQ[poolId] == NULL ) {
  903783:	1871a7        	l32r	a8, 8dfe20 <_bss_end+0x3d2618>
  903786:	0e3311        	slli	a3, a3, 2
  903789:	a383      	add.n	a3, a8, a3
  90378b:	8830      	l32i.n	a8, a3, 0
  90378d:	cc81      	bnez.n	a8, 903792 <_buf_pool_static_free_buf+0x12>
  90378f:	600001        	j	903794 <_buf_pool_static_free_buf+0x14>
        g_poolCtx.bufQ[poolId] = buf;
    } else {
        buf->next_buf = g_poolCtx.bufQ[poolId];
  903792:	9841      	s32i.n	a8, a4, 4
        g_poolCtx.bufQ[poolId] = buf;
  903794:	9430      	s32i.n	a4, a3, 0
  903796:	d10f      	retw.n

00903798 <buf_pool_module_install>:
{
  903798:	6c1004        	entry	a1, 32
    pAPIs->_init = _buf_pool_static_init;
  90379b:	1871a8        	l32r	a8, 8dfe3c <_bss_end+0x3d2634>
  90379e:	9820      	s32i.n	a8, a2, 0
    pAPIs->_create_pool = _buf_pool_static_create_pool;
  9037a0:	1871a9        	l32r	a8, 8dfe44 <_bss_end+0x3d263c>
  9037a3:	9822      	s32i.n	a8, a2, 8
    pAPIs->_alloc_buf = _buf_pool_static_alloc_buf;
  9037a5:	1871aa        	l32r	a8, 8dfe50 <_bss_end+0x3d2648>
  9037a8:	9823      	s32i.n	a8, a2, 12
    pAPIs->_alloc_buf_align = _buf_pool_static_alloc_buf_align;
  9037aa:	1871ab        	l32r	a8, 8dfe58 <_bss_end+0x3d2650>
  9037ad:	9824      	s32i.n	a8, a2, 16
    pAPIs->_free_buf = _buf_pool_static_free_buf;
  9037af:	1871ac        	l32r	a8, 8dfe60 <_bss_end+0x3d2658>
  9037b2:	9825      	s32i.n	a8, a2, 20
    pAPIs->_shutdown = _buf_pool_static_shutdown;
  9037b4:	1871ad        	l32r	a8, 8dfe68 <_bss_end+0x3d2660>
  9037b7:	9821      	s32i.n	a8, a2, 4
  9037b9:	d10f      	retw.n
	...

009037bc <_fw_usbfifo_recv_command>:

typedef void (* USBFIFO_recv_command)(VBUF *cmd);
USBFIFO_recv_command m_origUsbfifoRecvCmd = NULL;

void _fw_usbfifo_recv_command(VBUF *buf)
{
  9037bc:	6c1004        	entry	a1, 32
	uint8_t *cmd_data;
	uint32_t tmp;

	cmd_data = (uint8_t *)(buf->desc_list->buf_addr +
  9037bf:	8920      	l32i.n	a9, a2, 0
{
  9037c1:	da20      	mov.n	a10, a2
				buf->desc_list->data_offset);
  9037c3:	2b9105        	l16ui	a11, a9, 10
	tmp = *((uint32_t *)cmd_data);
  9037c6:	8891      	l32i.n	a8, a9, 4
  9037c8:	ab88      	add.n	a8, a8, a11
	if (tmp == 0xFFFFFFFF)
  9037ca:	8880      	l32i.n	a8, a8, 0
  9037cc:	698004        	bnei	a8, -1, 9037d4 <_fw_usbfifo_recv_command+0x18>
		_fw_usb_suspend_reboot();
  9037cf:	5803c9        	call8	9046f4 <_fw_usb_suspend_reboot>
  9037d2:	d10f      	retw.n
	else
		m_origUsbfifoRecvCmd(buf);
  9037d4:	1871ae        	l32r	a8, 8dfe8c <_bss_end+0x3d2684>
  9037d7:	8880      	l32i.n	a8, a8, 0
  9037d9:	0b8000        	callx8	a8
  9037dc:	d10f      	retw.n
	...

009037e0 <_fw_usbfifo_init>:
}

void _fw_usbfifo_init(USB_FIFO_CONFIG *pConfig)
{
  9037e0:	6c1004        	entry	a1, 32
	m_origUsbfifoRecvCmd = pConfig->recv_command;
  9037e3:	8921      	l32i.n	a9, a2, 4
  9037e5:	1871ae        	l32r	a8, 8dfea0 <_bss_end+0x3d2698>
  9037e8:	9980      	s32i.n	a9, a8, 0

	usbFifoConf.get_command_buf = pConfig->get_command_buf;
  9037ea:	8920      	l32i.n	a9, a2, 0
  9037ec:	1871af        	l32r	a8, 8dfea8 <_bss_end+0x3d26a0>
  9037ef:	9980      	s32i.n	a9, a8, 0
	usbFifoConf.recv_command    = _fw_usbfifo_recv_command;
  9037f1:	1971b0        	l32r	a9, 8dfeb4 <_bss_end+0x3d26ac>
  9037f4:	9981      	s32i.n	a9, a8, 4
	usbFifoConf.get_event_buf   = pConfig->get_event_buf;
  9037f6:	8922      	l32i.n	a9, a2, 8
	usbFifoConf.send_event_done = pConfig->send_event_done;
  9037f8:	8223      	l32i.n	a2, a2, 12
	usbFifoConf.get_event_buf   = pConfig->get_event_buf;
  9037fa:	9982      	s32i.n	a9, a8, 8
	usbFifoConf.send_event_done = pConfig->send_event_done;
  9037fc:	9283      	s32i.n	a2, a8, 12
  9037fe:	d10f      	retw.n

00903800 <cold_reboot>:
}

void cold_reboot(void)
{
  903800:	6c1004        	entry	a1, 32
	A_PRINTF("Cold reboot initiated.");
  903803:	12716e        	l32r	a2, 8dfdbc <_bss_end+0x3d25b4>
  903806:	1a71b1        	l32r	a10, 8dfecc <_bss_end+0x3d26c4>
  903809:	282212        	l32i	a8, a2, 72
  90380c:	0b8000        	callx8	a8
	*(volatile uint32_t *) addr = b;
  90380f:	187172        	l32r	a8, 8dfdd8 <_bss_end+0x3d25d0>
  903812:	c090      	movi.n	a9, 0
#if defined(PROJECT_MAGPIE)
	iowrite32(WATCH_DOG_MAGIC_PATTERN_ADDR, 0);
#elif defined(PROJECT_K2)
	iowrite32(MAGPIE_REG_RST_STATUS_ADDR, 0);
#endif /* #if defined(PROJECT_MAGPIE) */
	A_USB_JUMP_BOOT();
  903814:	22222b        	l32i	a2, a2, 172
  903817:	0c0200        	memw
  90381a:	298600        	s32i	a9, a8, 0
  90381d:	0b2000        	callx8	a2
  903820:	d10f      	retw.n
	...

00903824 <usb_status_in_patch>:

/*
 * support more than 64 bytes command on ep3
 */
void usb_status_in_patch(void)
{
  903824:	6c1004        	entry	a1, 32
	static VBUF *evntbuf = NULL;
	static volatile uint32_t *regaddr;
	static BOOLEAN cmd_is_new = TRUE;
	BOOLEAN cmd_end = FALSE;

	if (cmd_is_new) {
  903827:	1271b2        	l32r	a2, 8dfef0 <_bss_end+0x3d26e8>
  90382a:	282100        	l16ui	a8, a2, 0
  90382d:	648048        	beqz	a8, 903879 <usb_status_in_patch+0x55>
		evntbuf = usbFifoConf.get_event_buf();
  903830:	1871af        	l32r	a8, 8dfeec <_bss_end+0x3d26e4>
  903833:	8a82      	l32i.n	a10, a8, 8
  903835:	0ba000        	callx8	a10
  903838:	1871b3        	l32r	a8, 8dff04 <_bss_end+0x3d26fc>
  90383b:	9a80      	s32i.n	a10, a8, 0
		if (evntbuf != NULL) {
  90383d:	c9af      	beqz.n	a10, 903860 <usb_status_in_patch+0x3c>
			regaddr = (uint32_t *)VBUF_GET_DATA_ADDR(evntbuf);
  90383f:	89a0      	l32i.n	a9, a10, 0
  903841:	2b9105        	l16ui	a11, a9, 10
  903844:	8891      	l32i.n	a8, a9, 4
  903846:	1971b4        	l32r	a9, 8dff18 <_bss_end+0x3d2710>
  903849:	ab88      	add.n	a8, a8, a11
  90384b:	9890      	s32i.n	a8, a9, 0
			buf_len = evntbuf->buf_length;
  90384d:	1871b5        	l32r	a8, 8dff24 <_bss_end+0x3d271c>
  903850:	29a104        	l16ui	a9, a10, 8
  903853:	298500        	s16i	a9, a8, 0
		} else {
			mUSB_STATUS_IN_INT_DISABLE();
			return;
		}

		cmd_is_new = FALSE;
  903856:	c080      	movi.n	a8, 0
  903858:	282500        	s16i	a8, a2, 0
  90385b:	60001a        	j	903879 <usb_status_in_patch+0x55>
  90385e:	000018        	src	a0, a0, a0
	return *(const volatile uint8_t *) addr;
  903861:	71b629        	bbci	a11, 1, 90388e <usb_status_in_patch+0x6a>
			mUSB_STATUS_IN_INT_DISABLE();
  903864:	0ac022        	excw
  903867:	8000      	l32i.n	a0, a0, 0
  903869:	020247        	extui	a2, a2, 0, 8
  90386c:	092202        	or	a2, a2, a9
	*(volatile uint8_t *) addr = b;
  90386f:	0c0200        	memw
  903872:	228400        	s8i	a2, a8, 0
  903875:	d10f      	retw.n
  903877:	00001a        	sll	a0, a0
	}

	if (buf_len > USB_EP3_MAX_PKT_SIZE) {
  90387a:	71b5c4        	bbc	a11, a1, 903842 <usb_status_in_patch+0x1e>
  90387d:	9028      	s32i.n	a0, a2, 32
  90387f:	a100      	add.n	a0, a0, a1
	}
	/* TODO: 64 bytes...
	 * controller supposed will take care of zero-length? */
	else {
		reg_buf_len = buf_len;
		cmd_end = TRUE;
  903881:	c0c1      	movi.n	a12, 1
	if (buf_len > USB_EP3_MAX_PKT_SIZE) {
  903883:	789b09        	bgeu	a9, a8, 903890 <usb_status_in_patch+0x6c>
		buf_len -= USB_EP3_MAX_PKT_SIZE;
  903886:	288cc0        	addi	a8, a8, -64
  903889:	28a500        	s16i	a8, a10, 0
	BOOLEAN cmd_end = FALSE;
  90388c:	c0c0      	movi.n	a12, 0
		reg_buf_len = USB_EP3_MAX_PKT_SIZE;
  90388e:	d890      	mov.n	a8, a9
  903890:	1b71b4        	l32r	a11, 8dff60 <_bss_end+0x3d2758>
  903893:	082914        	srli	a9, a8, 2
  903896:	8ab0      	l32i.n	a10, a11, 0
  903898:	0e9911        	slli	a9, a9, 2
  90389b:	a9a9      	add.n	a9, a10, a9
	}

	/* INT use EP3 */
	for (count = 0; count < (reg_buf_len / 4); count++)
  90389d:	c0d0      	movi.n	a13, 0
  90389f:	1e71b7        	l32r	a14, 8dff7c <_bss_end+0x3d2774>
  9038a2:	c0f1      	movi.n	a15, 1
  9038a4:	60000e        	j	9038b6 <usb_status_in_patch+0x92>
  9038a7:	000c02        	or	a12, a0, a0
	{
		iowrite32_usb(ZM_EP3_DATA_OFFSET, *regaddr);
  9038aa:	008da0        	excw
		regaddr++;
  9038ad:	b4aa      	addi.n	a10, a10, 4
	*(volatile uint32_t *) addr = b;
  9038af:	0c0200        	memw
  9038b2:	9de0      	s32i.n	a13, a14, 0
  9038b4:	ddf0      	mov.n	a13, a15
	for (count = 0; count < (reg_buf_len / 4); count++)
  9038b6:	7a99ee        	bne	a9, a10, 9038a8 <usb_status_in_patch+0x84>
  9038b9:	c8d0      	beqz.n	a13, 9038bd <usb_status_in_patch+0x99>
  9038bb:	99b0      	s32i.n	a9, a11, 0
	}

	remainder = reg_buf_len % 4;
  9038bd:	080841        	extui	a8, a8, 0, 2

	if (remainder) {
  9038c0:	cb81      	beqz.n	a8, 9038f5 <usb_status_in_patch+0xd1>
  9038c2:	197195        	l32r	a9, 8dff18 <_bss_end+0x3d2710>
		switch(remainder) {
  9038c5:	688207        	beqi	a8, 2, 9038d0 <usb_status_in_patch+0xac>
  9038c8:	698309        	bnei	a8, 3, 9038d5 <usb_status_in_patch+0xb1>
  9038cb:	c087      	movi.n	a8, 7
  9038cd:	600006        	j	9038d7 <usb_status_in_patch+0xb3>
  9038d0:	c083      	movi.n	a8, 3
  9038d2:	600001        	j	9038d7 <usb_status_in_patch+0xb3>
  9038d5:	c081      	movi.n	a8, 1
  9038d7:	0c0200        	memw
  9038da:	9890      	s32i.n	a8, a9, 0
		case 1:
			iowrite32_usb(ZM_CBUS_FIFO_SIZE_OFFSET, 0x1);
			break;
		}

		iowrite32_usb(ZM_EP3_DATA_OFFSET, *regaddr);
  9038dc:	88b0      	l32i.n	a8, a11, 0
  9038de:	0c0200        	memw
  9038e1:	8980      	l32i.n	a9, a8, 0
  9038e3:	1871b7        	l32r	a8, 8dffc0 <_bss_end+0x3d27b8>
  9038e6:	0c0200        	memw
  9038e9:	9980      	s32i.n	a9, a8, 0
  9038eb:	187195        	l32r	a8, 8dff40 <_bss_end+0x3d2738>
  9038ee:	c09f      	movi.n	a9, 15
  9038f0:	0c0200        	memw
  9038f3:	9980      	s32i.n	a9, a8, 0
	return *(const volatile uint8_t *) addr;
  9038f5:	1971b8        	l32r	a9, 8dffd8 <_bss_end+0x3d27d0>

		/* Restore CBus FIFO size to word size */
		iowrite32_usb(ZM_CBUS_FIFO_SIZE_OFFSET, 0xF);
	}

	mUSB_EP3_XFER_DONE();
  9038f8:	c0a8      	movi.n	a10, 8
  9038fa:	289000        	l8ui	a8, a9, 0
  9038fd:	080847        	extui	a8, a8, 0, 8
  903900:	0a8802        	or	a8, a8, a10
	*(volatile uint8_t *) addr = b;
  903903:	0c0200        	memw
  903906:	289400        	s8i	a8, a9, 0

	if (evntbuf != NULL && cmd_end) {
  903909:	1871b3        	l32r	a8, 8dffd8 <_bss_end+0x3d27d0>
  90390c:	8a80      	l32i.n	a10, a8, 0
  90390e:	c8af      	beqz.n	a10, 903921 <usb_status_in_patch+0xfd>
  903910:	64c00d        	beqz	a12, 903921 <usb_status_in_patch+0xfd>
		usbFifoConf.send_event_done(evntbuf);
  903913:	1871af        	l32r	a8, 8dffd0 <_bss_end+0x3d27c8>
  903916:	288203        	l32i	a8, a8, 12
  903919:	0b8000        	callx8	a8
		cmd_is_new = TRUE;
  90391c:	c081      	movi.n	a8, 1
  90391e:	282500        	s16i	a8, a2, 0
  903921:	d10f      	retw.n
	...

00903924 <usb_reg_out_patch>:

/*
 * support more than 64 bytes command on ep4
 */
void usb_reg_out_patch(void)
{
  903924:	6c1004        	entry	a1, 32
	return *(const volatile uint8_t *) addr;
  903927:	1271b9        	l32r	a2, 8e000c <_bss_end+0x3d2804>
	static BOOLEAN cmd_is_new = TRUE;

	/* get the size of this transcation */
	usbfifolen = ioread8_usb(ZM_EP4_BYTE_COUNT_LOW_OFFSET);

	if (usbfifolen > USB_EP4_MAX_PKT_SIZE) {
  90392a:	240a40        	movi	a4, 64
  90392d:	222000        	l8ui	a2, a2, 0
  903930:	020247        	extui	a2, a2, 0, 8
	usbfifolen = ioread8_usb(ZM_EP4_BYTE_COUNT_LOW_OFFSET);
  903933:	02034f        	extui	a3, a2, 0, 16
	if (usbfifolen > USB_EP4_MAX_PKT_SIZE) {
  903936:	734b11        	bgeu	a4, a3, 90394b <usb_reg_out_patch+0x27>
		A_PRINTF("EP4 FIFO Bug? Buffer is too big: %x\n", usbfifolen);
  903939:	14716e        	l32r	a4, 8dfef4 <_bss_end+0x3d26ec>
  90393c:	1a71ba        	l32r	a10, 8e0024 <_bss_end+0x3d281c>
  90393f:	244212        	l32i	a4, a4, 72
  903942:	022b02        	or	a11, a2, a2
  903945:	0b4000        	callx8	a4
		cold_reboot();
  903948:	5bffad        	call8	903800 <cold_reboot>
	}

	/* check is command is new */
	if(cmd_is_new) {
  90394b:	1471bb        	l32r	a4, 8e0038 <_bss_end+0x3d2830>
  90394e:	1571bc        	l32r	a5, 8e0040 <_bss_end+0x3d2838>
  903951:	284100        	l16ui	a8, a4, 0
  903954:	ca8d      	beqz.n	a8, 903985 <usb_reg_out_patch+0x61>

		buf = usbFifoConf.get_command_buf();
  903956:	1871af        	l32r	a8, 8e0014 <_bss_end+0x3d280c>
  903959:	8a80      	l32i.n	a10, a8, 0
  90395b:	0ba000        	callx8	a10
		cmd_len = 0;
  90395e:	1971bd        	l32r	a9, 8e0054 <_bss_end+0x3d284c>
  903961:	c080      	movi.n	a8, 0
		buf = usbFifoConf.get_command_buf();
  903963:	9a50      	s32i.n	a10, a5, 0
		cmd_len = 0;
  903965:	289500        	s16i	a8, a9, 0

		if(!buf) {
  903968:	ccad      	bnez.n	a10, 903979 <usb_reg_out_patch+0x55>
			A_PRINTF("%s: Filed to get new buffer.\n", __func__);
  90396a:	12716e        	l32r	a2, 8dff24 <_bss_end+0x3d271c>
  90396d:	1b71be        	l32r	a11, 8e0068 <_bss_end+0x3d2860>
  903970:	222212        	l32i	a2, a2, 72
  903973:	1a71bf        	l32r	a10, 8e0070 <_bss_end+0x3d2868>
  903976:	600031        	j	9039ab <usb_reg_out_patch+0x87>
			goto err;
		}

		/* copy free, assignment buffer of the address */
		regaddr = (uint32_t *)buf->desc_list->buf_addr;
  903979:	89a0      	l32i.n	a9, a10, 0

		cmd_is_new = FALSE;
  90397b:	284500        	s16i	a8, a4, 0
		regaddr = (uint32_t *)buf->desc_list->buf_addr;
  90397e:	8a91      	l32i.n	a10, a9, 4
  903980:	1971c0        	l32r	a9, 8e0080 <_bss_end+0x3d2878>
  903983:	9a90      	s32i.n	a10, a9, 0
	}

	/* just in case, suppose should not happen */
	if(!buf)
  903985:	8a50      	l32i.n	a10, a5, 0
  903987:	caa3      	beqz.n	a10, 9039ae <usb_reg_out_patch+0x8a>
	 */
	if(usbfifolen < USB_EP4_MAX_PKT_SIZE)
		cmd_is_last = TRUE;

	/* accumulate the size */
	cmd_len += usbfifolen;
  903989:	1971bd        	l32r	a9, 8e0080 <_bss_end+0x3d2878>
  90398c:	289100        	l16ui	a8, a9, 0
  90398f:	a838      	add.n	a8, a3, a8
  903991:	08084f        	extui	a8, a8, 0, 16
  903994:	289500        	s16i	a8, a9, 0

	if (cmd_len > buf->desc_list->buf_size) {
  903997:	89a0      	l32i.n	a9, a10, 0
  903999:	259104        	l16ui	a5, a9, 8
  90399c:	785b18        	bgeu	a5, a8, 9039b8 <usb_reg_out_patch+0x94>
		A_PRINTF("%s: Data length on EP4 FIFO is bigger as "
  90399f:	12716e        	l32r	a2, 8dff58 <_bss_end+0x3d2750>
  9039a2:	1b71be        	l32r	a11, 8e009c <_bss_end+0x3d2894>
  9039a5:	222212        	l32i	a2, a2, 72
  9039a8:	1a71c1        	l32r	a10, 8e00ac <_bss_end+0x3d28a4>
  9039ab:	0b2000        	callx8	a2
		usbfifolen = (usbfifolen >> 2) + 1;
	else
		usbfifolen = usbfifolen >> 2;

	/* retrieve the data from fifo */
	for(ii = 0; ii < usbfifolen; ii++) {
  9039ae:	c020      	movi.n	a2, 0
	return *(const volatile uint32_t *) addr;
  9039b0:	1471c2        	l32r	a4, 8e00b8 <_bss_end+0x3d28b0>
  9039b3:	600067        	j	903a1e <usb_reg_out_patch+0xfa>
  9039b6:	000003        	xor	a0, a0, a0
		usbfifolen = (usbfifolen >> 2) + 1;
  9039b9:	2b141c        	s8i	a11, a1, 28
  9039bc:	71c002        	bnone	a12, a1, 9039c2 <usb_reg_out_patch+0x9e>
	if(usbfifolen % 4)
  9039bf:	0241b1        	excw
		usbfifolen = (usbfifolen >> 2) + 1;
  9039c2:	b502      	addi.n	a2, a0, 5
  9039c4:	b538      	addi.n	a8, a3, 5
  9039c6:	8bc0      	l32i.n	a11, a12, 0
  9039c8:	0e5211        	slli	a2, a5, 2
  9039cb:	a2b2      	add.n	a2, a11, a2
	for(ii = 0; ii < usbfifolen; ii++) {
  9039cd:	c0d0      	movi.n	a13, 0
  9039cf:	1571c2        	l32r	a5, 8e00d8 <_bss_end+0x3d28d0>
  9039d2:	c0e1      	movi.n	a14, 1
  9039d4:	60000e        	j	9039e6 <usb_reg_out_patch+0xc2>
  9039d7:	000c02        	or	a12, a0, a0
  9039da:	008d50        	extui	a13, a0, 24, 1
		/* read fifo data out */
		ep4_data = ioread32_usb(ZM_EP4_DATA_OFFSET);
		*regaddr = ep4_data;
  9039dd:	0c0200        	memw
  9039e0:	9db0      	s32i.n	a13, a11, 0
		regaddr++;
  9039e2:	b4bb      	addi.n	a11, a11, 4
  9039e4:	dde0      	mov.n	a13, a14
	for(ii = 0; ii < usbfifolen; ii++) {
  9039e6:	7b29ee        	bne	a2, a11, 9039d8 <usb_reg_out_patch+0xb4>
  9039e9:	c8d0      	beqz.n	a13, 9039ed <usb_reg_out_patch+0xc9>
  9039eb:	92c0      	s32i.n	a2, a12, 0
	}

	/* if this is the last command, callback to HTC */
	if (cmd_is_last) {
  9039ed:	c32f      	movi.n	a2, 63
  9039ef:	73232e        	bltu	a2, a3, 903a21 <usb_reg_out_patch+0xfd>
		buf->desc_list->next_desc = NULL;
  9039f2:	c020      	movi.n	a2, 0
  9039f4:	9290      	s32i.n	a2, a9, 0
		buf->desc_list->data_offset = 0;
  9039f6:	229505        	s16i	a2, a9, 10
		buf->desc_list->data_size = cmd_len;
		buf->desc_list->control = 0;
  9039f9:	229507        	s16i	a2, a9, 14
		buf->desc_list->data_size = cmd_len;
  9039fc:	289506        	s16i	a8, a9, 12
		buf->next_buf = NULL;
  9039ff:	92a1      	s32i.n	a2, a10, 4
		buf->buf_length = cmd_len;

		usbFifoConf.recv_command(buf);
  903a01:	1271af        	l32r	a2, 8e00c0 <_bss_end+0x3d28b8>
		buf->buf_length = cmd_len;
  903a04:	28a504        	s16i	a8, a10, 8
		usbFifoConf.recv_command(buf);
  903a07:	8221      	l32i.n	a2, a2, 4
  903a09:	0b2000        	callx8	a2

		cmd_is_new = TRUE;
  903a0c:	c021      	movi.n	a2, 1
  903a0e:	224500        	s16i	a2, a4, 0
  903a11:	d10f      	retw.n
  903a13:	00b122        	excw
  903a16:	0c0200        	memw
  903a19:	8540      	l32i.n	a5, a4, 0
	goto done;
err:
	/* we might get no command buffer here?
	 * but if we return here, the ep4 fifo will be lock out,
	 * so that we still read them out but just drop it? */
	for(ii = 0; ii < usbfifolen; ii++)
  903a1b:	02024f        	extui	a2, a2, 0, 16
  903a1e:	7323f2        	bltu	a2, a3, 903a14 <usb_reg_out_patch+0xf0>
  903a21:	d10f      	retw.n
	...

00903a24 <vUSBFIFO_EP6Cfg_FS_patch>:
#define FS_C1_I0_A0_EP6_MAP		\
	 (FS_C1_I0_A0_EP6_FIFO_START | (FS_C1_I0_A0_EP6_FIFO_START << 4) | \
	  (MASK_F0 >> (4*FS_C1_I0_A0_EP6_DIRECTION)))

void vUSBFIFO_EP6Cfg_FS_patch(void)
{
  903a24:	6c1004        	entry	a1, 32
#if (FS_C1_I0_A0_EP_NUMBER >= 6)
	int i;

	/* EP0X06 */
	mUsbEPMap(EP6, FS_C1_I0_A0_EP6_MAP);
  903a27:	2b0a6f        	movi	a11, 111
  903a2a:	2a0a06        	movi	a10, 6
  903a2d:	5b808e        	call8	8e3c68 <mUsbEPMap>
	mUsbFIFOMap(FS_C1_I0_A0_EP6_FIFO_START, FS_C1_I0_A0_EP6_FIFO_MAP);
  903a30:	2b0a06        	movi	a11, 6
  903a33:	0bba02        	or	a10, a11, a11
  903a36:	5b8093        	call8	8e3c84 <mUsbFIFOMap>
	mUsbFIFOConfig(FS_C1_I0_A0_EP6_FIFO_START, FS_C1_I0_A0_EP6_FIFO_CONFIG);
  903a39:	2b0a86        	movi	a11, 134
  903a3c:	c0a6      	movi.n	a10, 6
  903a3e:	5b8099        	call8	8e3ca4 <mUsbFIFOConfig>

	for(i = FS_C1_I0_A0_EP6_FIFO_START + 1 ;
            i < FS_C1_I0_A0_EP6_FIFO_START + FS_C1_I0_A0_EP6_FIFO_NO ; i ++)
	{
		mUsbFIFOConfig(i, (FS_C1_I0_A0_EP6_FIFO_CONFIG & (~BIT7)) );
  903a41:	c0b6      	movi.n	a11, 6
  903a43:	c0a7      	movi.n	a10, 7
  903a45:	5b8097        	call8	8e3ca4 <mUsbFIFOConfig>
	}

	mUsbEPMxPtSzHigh(EP6, FS_C1_I0_A0_EP6_DIRECTION,
  903a48:	c4c0      	movi.n	a12, 64
  903a4a:	c0b1      	movi.n	a11, 1
  903a4c:	c0a6      	movi.n	a10, 6
  903a4e:	5b809d        	call8	8e3cc4 <mUsbEPMxPtSzHigh>
			 (FS_C1_I0_A0_EP6_MAX_PACKET & 0x7ff));
	mUsbEPMxPtSzLow(EP6, FS_C1_I0_A0_EP6_DIRECTION,
  903a51:	c4c0      	movi.n	a12, 64
  903a53:	c0b1      	movi.n	a11, 1
  903a55:	c0a6      	movi.n	a10, 6
  903a57:	5b80a5        	call8	8e3cec <mUsbEPMxPtSzLow>
			(FS_C1_I0_A0_EP6_MAX_PACKET & 0x7ff));
	mUsbEPinHighBandSet(EP6, FS_C1_I0_A0_EP6_DIRECTION,
  903a5a:	c4c0      	movi.n	a12, 64
  903a5c:	c0b1      	movi.n	a11, 1
  903a5e:	2a0a06        	movi	a10, 6
  903a61:	5b80ab        	call8	8e3d10 <mUsbEPinHighBandSet>
  903a64:	d10f      	retw.n
	...

00903a68 <vUsbFIFO_EPxCfg_FS_patch>:
			    FS_C1_I0_A0_EP6_MAX_PACKET);
#endif
}

void vUsbFIFO_EPxCfg_FS_patch(void)
{
  903a68:	6c1004        	entry	a1, 32
	switch (u8UsbConfigValue)
  903a6b:	187170        	l32r	a8, 8e002c <_bss_end+0x3d2824>
  903a6e:	288100        	l16ui	a8, a8, 0
  903a71:	698113        	bnei	a8, 1, 903a88 <vUsbFIFO_EPxCfg_FS_patch+0x20>
	{
#if (FS_CONFIGURATION_NUMBER >= 1)
		/* Configuration 0X01 */
        case 0X01:
		switch (u8UsbInterfaceValue)
  903a74:	18716f        	l32r	a8, 8e0030 <_bss_end+0x3d2828>
  903a77:	288100        	l16ui	a8, a8, 0
  903a7a:	cc8a      	bnez.n	a8, 903a88 <vUsbFIFO_EPxCfg_FS_patch+0x20>
		{
#if (FS_C1_INTERFACE_NUMBER >= 1)
			/* Interface 0 */
                case 0:
			switch (u8UsbInterfaceAlternateSetting)
  903a7c:	187171        	l32r	a8, 8e0040 <_bss_end+0x3d2838>
  903a7f:	288100        	l16ui	a8, a8, 0
  903a82:	658002        	bnez	a8, 903a88 <vUsbFIFO_EPxCfg_FS_patch+0x20>
                        case 0:

				/* snapped.... */

				/* patch up this ep6_fs config */
				vUSBFIFO_EP6Cfg_FS_patch();
  903a85:	5bffe7        	call8	903a24 <vUSBFIFO_EP6Cfg_FS_patch>
  903a88:	d10f      	retw.n
	...

00903a8c <bSet_configuration_patch>:
	}
	/* mCHECK_STACK(); */
}

BOOLEAN bSet_configuration_patch(void)
{
  903a8c:	6c1004        	entry	a1, 32
	/* do some defaul configuration */
	bSet_configuration();
  903a8f:	5b7d3b        	call8	8e2f7c <bSet_configuration>

	/* overwrite defaul FIFO configuration for FullSpeed USB */
	if ((mLOW_BYTE(mDEV_REQ_VALUE()) != 0) && !mUsbHighSpeedST())
  903a92:	1271c3        	l32r	a2, 8e01a0 <_bss_end+0x3d2998>
  903a95:	222007        	l8ui	a2, a2, 7
  903a98:	c82a      	beqz.n	a2, 903aa6 <bSet_configuration_patch+0x1a>
	return *(const volatile uint8_t *) addr;
  903a9a:	12718f        	l32r	a2, 8e00d8 <_bss_end+0x3d28d0>
  903a9d:	222000        	l8ui	a2, a2, 0
  903aa0:	792f02        	bbsi	a2, 25, 903aa6 <bSet_configuration_patch+0x1a>
			vUsbFIFO_EPxCfg_FS_patch();
  903aa3:	5bfff1        	call8	903a68 <vUsbFIFO_EPxCfg_FS_patch>

	eUsbCxFinishAction = ACT_DONE;
  903aa6:	1871c4        	l32r	a8, 8e01b8 <_bss_end+0x3d29b0>
  903aa9:	c021      	movi.n	a2, 1
  903aab:	9280      	s32i.n	a2, a8, 0
	return TRUE;
}
  903aad:	d10f      	retw.n
	...

00903ab0 <bStandardCommand_patch>:

extern BOOLEAN bStandardCommand(void);

BOOLEAN bStandardCommand_patch(void)
{
  903ab0:	6c1004        	entry	a1, 32
	if (mDEV_REQ_REQ() == USB_SET_CONFIGURATION) {
  903ab3:	1871c3        	l32r	a8, 8e01c0 <_bss_end+0x3d29b8>
  903ab6:	298102        	l16ui	a9, a8, 4
  903ab9:	280a09        	movi	a8, 9
  903abc:	78992d        	bne	a9, a8, 903aed <bStandardCommand_patch+0x3d>
		A_USB_SET_CONFIG();
  903abf:	18716e        	l32r	a8, 8e0078 <_bss_end+0x3d2870>
  903ac2:	2a8225        	l32i	a10, a8, 148
  903ac5:	0ba000        	callx8	a10

#if ENABLE_SWAP_DATA_MODE
		/* SWAP FUNCTION should be enabled while DMA engine
		 * is not working, the best place to enable it
		 * is before we trigger the DMA */
		MAGPIE_REG_USB_RX0_SWAP_DATA = 0x1;
  903ac8:	1871c5        	l32r	a8, 8e01dc <_bss_end+0x3d29d4>
  903acb:	c0a1      	movi.n	a10, 1
  903acd:	0c0200        	memw
  903ad0:	9a80      	s32i.n	a10, a8, 0
		MAGPIE_REG_USB_TX0_SWAP_DATA = 0x1;
  903ad2:	1871c6        	l32r	a8, 8e01ec <_bss_end+0x3d29e4>
  903ad5:	0c0200        	memw
  903ad8:	9a80      	s32i.n	a10, a8, 0

#if SYSTEM_MODULE_HP_EP5
		MAGPIE_REG_USB_RX1_SWAP_DATA = 0x1;
  903ada:	1871c7        	l32r	a8, 8e01f8 <_bss_end+0x3d29f0>
  903add:	0c0200        	memw
  903ae0:	9a80      	s32i.n	a10, a8, 0
#endif

#if SYSTEM_MODULE_HP_EP6
		MAGPIE_REG_USB_RX2_SWAP_DATA = 0x1;
  903ae2:	1871c8        	l32r	a8, 8e0204 <_bss_end+0x3d29fc>
  903ae5:	0c0200        	memw
  903ae8:	9a80      	s32i.n	a10, a8, 0
#endif

#endif /* ENABLE_SWAP_DATA_MODE */
		return TRUE;
  903aea:	600002        	j	903af0 <bStandardCommand_patch+0x40>
	} else
		return bStandardCommand();
  903aed:	5b7de7        	call8	8e328c <bStandardCommand>
}
  903af0:	d2a0      	mov.n	a2, a10
  903af2:	d10f      	retw.n

00903af4 <bGet_descriptor_patch>:
#define EP3_INT_INTERVAL		19
#define EP4_TRANSFER_TYPE_OFFSET	21
#define EP4_INT_INTERVAL		22

BOOLEAN bGet_descriptor_patch(void)
{
  903af4:	6c1004        	entry	a1, 32
	if (mDEV_REQ_VALUE_HIGH() == 1)
  903af7:	1271c3        	l32r	a2, 8e0204 <_bss_end+0x3d29fc>
  903afa:	282103        	l16ui	a8, a2, 6
  903afd:	088814        	srli	a8, a8, 8
  903b00:	698120        	bnei	a8, 1, 903b24 <bGet_descriptor_patch+0x30>
	{
		uint8_t *p = (uint8_t *)u8UsbDeviceDescriptor;
  903b03:	1471c9        	l32r	a4, 8e0228 <_bss_end+0x3d2a20>

		/* Copy Usb Device Descriptor */
		ath_hal_memcpy(UsbDeviceDescriptorPatch, p,
  903b06:	1371ca        	l32r	a3, 8e0230 <_bss_end+0x3d2a28>
  903b09:	8b40      	l32i.n	a11, a4, 0
  903b0b:	da30      	mov.n	a10, a3
  903b0d:	c1c2      	movi.n	a12, 18
  903b0f:	580035        	call8	903be4 <ath_hal_memcpy>
				sizeof(UsbDeviceDescriptorPatch));

		/* Change bcdDevice. we need it to detect if FW
		 * was uploaded. */
		UsbDeviceDescriptorPatch[BCD_DEVICE_OFFSET] =
  903b12:	c78f      	movi.n	a8, -1
  903b14:	283506        	s16i	a8, a3, 12
			BCD_DEVICE_FW_SIGNATURE;

		pu8DescriptorEX = UsbDeviceDescriptorPatch;
  903b17:	1871cb        	l32r	a8, 8e0244 <_bss_end+0x3d2a3c>
  903b1a:	9380      	s32i.n	a3, a8, 0
		u16TxRxCounter = mTABLE_LEN(u8UsbDeviceDescriptor[0]);
  903b1c:	8340      	l32i.n	a3, a4, 0
  903b1e:	283001        	l8ui	a8, a3, 1
  903b21:	600024        	j	903b49 <bGet_descriptor_patch+0x55>
			u16TxRxCounter = mDEV_REQ_LENGTH();

		A_USB_EP0_TX_DATA();

		return TRUE;
	} else if (mDEV_REQ_VALUE_HIGH() == 2) {
  903b24:	69823e        	bnei	a8, 2, 903b66 <bGet_descriptor_patch+0x72>
		uint8_t *p = (uint8_t *)u8ConfigDescriptorEX;

		/* Copy ConfigDescriptor */
		ath_hal_memcpy(ConfigDescriptorPatch, p,
  903b27:	1471cd        	l32r	a4, 8e025c <_bss_end+0x3d2a54>
  903b2a:	1371ce        	l32r	a3, 8e0264 <_bss_end+0x3d2a5c>
  903b2d:	2b4200        	l32i	a11, a4, 0
  903b30:	2c0a3c        	movi	a12, 60
  903b33:	033a02        	or	a10, a3, a3
  903b36:	58002b        	call8	903be4 <ath_hal_memcpy>
				sizeof(ConfigDescriptorPatch));

		 /* place holder for EPx patches */

		if (mDEV_REQ_VALUE_LOW() == 0) {
  903b39:	242007        	l8ui	a4, a2, 7
			/* configuration no: 0 */
			pu8DescriptorEX = ConfigDescriptorPatch;
			u16TxRxCounter = ConfigDescriptorPatch[1];
		} else
			return FALSE;
  903b3c:	c0a0      	movi.n	a10, 0
		if (mDEV_REQ_VALUE_LOW() == 0) {
  903b3e:	7a4927        	bne	a4, a10, 903b69 <bGet_descriptor_patch+0x75>
			pu8DescriptorEX = ConfigDescriptorPatch;
  903b41:	1471cb        	l32r	a4, 8e0270 <_bss_end+0x3d2a68>
			u16TxRxCounter = ConfigDescriptorPatch[1];
  903b44:	283101        	l16ui	a8, a3, 2
			pu8DescriptorEX = ConfigDescriptorPatch;
  903b47:	9340      	s32i.n	a3, a4, 0
			u16TxRxCounter = ConfigDescriptorPatch[1];
  903b49:	1371cc        	l32r	a3, 8e027c <_bss_end+0x3d2a74>

		if (u16TxRxCounter > mDEV_REQ_LENGTH())
  903b4c:	222105        	l16ui	a2, a2, 10
			u16TxRxCounter = ConfigDescriptorPatch[1];
  903b4f:	283500        	s16i	a8, a3, 0
		if (u16TxRxCounter > mDEV_REQ_LENGTH())
  903b52:	782b02        	bgeu	a2, a8, 903b58 <bGet_descriptor_patch+0x64>
			u16TxRxCounter = mDEV_REQ_LENGTH();
  903b55:	223500        	s16i	a2, a3, 0

		A_USB_EP0_TX_DATA();
  903b58:	12716e        	l32r	a2, 8e0110 <_bss_end+0x3d2908>
  903b5b:	222234        	l32i	a2, a2, 208
  903b5e:	0b2000        	callx8	a2
		return TRUE;
  903b61:	c0a1      	movi.n	a10, 1
  903b63:	600002        	j	903b69 <bGet_descriptor_patch+0x75>
	} else
		return bGet_descriptor();
  903b66:	5b7cd7        	call8	8e2ec4 <bGet_descriptor>
}
  903b69:	d2a0      	mov.n	a2, a10
  903b6b:	d10f      	retw.n
  903b6d:	000000        	ill

00903b70 <ath_hal_getuptime>:
#include<ah_internal.h>
#include "ah_osdep.h"

a_uint32_t __ahdecl
ath_hal_getuptime(struct ath_hal *ah)
{
  903b70:	6c1004        	entry	a1, 32
	return MSEC_TO_TICK(msecs);
}
static inline unsigned long
__adf_os_getuptime(void)
{
    return MSEC_TO_TICK(A_MILLISECONDS());;
  903b73:	18716e        	l32r	a8, 8e012c <_bss_end+0x3d2924>
  903b76:	2a823d        	l32i	a10, a8, 244
  903b79:	0ba000        	callx8	a10
	return adf_os_getuptime();
}
  903b7c:	d2a0      	mov.n	a2, a10
  903b7e:	d10f      	retw.n

00903b80 <_ath_hal_attach_tgt>:

struct ath_hal *
_ath_hal_attach_tgt(a_uint32_t devid, HAL_SOFTC sc,
		    adf_os_device_t dev, a_uint32_t flags, void* s)
{
  903b80:	6c1006        	entry	a1, 48
	HAL_STATUS status;
	struct ath_hal *ah = ath_hal_attach_tgt(devid, sc, dev, flags, &status);
  903b83:	de10      	mov.n	a14, a1
  903b85:	dd50      	mov.n	a13, a5
  903b87:	dc40      	mov.n	a12, a4
  903b89:	db30      	mov.n	a11, a3
  903b8b:	da20      	mov.n	a10, a2
  903b8d:	580501        	call8	904f94 <ath_hal_attach_tgt>
	adf_os_print(" ath_hal = %p \n",ah);
  903b90:	18716e        	l32r	a8, 8e0148 <_bss_end+0x3d2940>
  903b93:	dba0      	mov.n	a11, a10
	struct ath_hal *ah = ath_hal_attach_tgt(devid, sc, dev, flags, &status);
  903b95:	d2a0      	mov.n	a2, a10
	adf_os_print(" ath_hal = %p \n",ah);
  903b97:	288212        	l32i	a8, a8, 72
  903b9a:	1a71cf        	l32r	a10, 8e02d8 <_bss_end+0x3d2ad0>
  903b9d:	0b8000        	callx8	a8
	*(HAL_STATUS *)s = status;
  903ba0:	8810      	l32i.n	a8, a1, 0
  903ba2:	9860      	s32i.n	a8, a6, 0
	return ah;
}
  903ba4:	d10f      	retw.n
	...

00903ba8 <ath_hal_delay>:
/*
 * Delay n microseconds.
 */
void __ahdecl
ath_hal_delay(a_int32_t n)
{
  903ba8:	6c1004        	entry	a1, 32
}

static inline void
__adf_os_udelay(int usecs)
{
    A_DELAY_USECS(usecs);
  903bab:	18716e        	l32r	a8, 8e0164 <_bss_end+0x3d295c>
  903bae:	da20      	mov.n	a10, a2
  903bb0:	28823a        	l32i	a8, a8, 232
  903bb3:	0b8000        	callx8	a8
  903bb6:	d10f      	retw.n

00903bb8 <ath_hal_malloc>:
/*
 * Allocate/free memory.
 */
void * __ahdecl
ath_hal_malloc(adf_os_size_t size)
{
  903bb8:	6c1004        	entry	a1, 32
  903bbb:	14716e        	l32r	a4, 8e0174 <_bss_end+0x3d296c>
  903bbe:	d320      	mov.n	a3, a2
  903bc0:	224252        	l32i	a2, a4, 0x148
  903bc3:	db30      	mov.n	a11, a3
  903bc5:	c0a0      	movi.n	a10, 0
  903bc7:	0b2000        	callx8	a2
  903bca:	d2a0      	mov.n	a2, a10
	void *p;

	p = adf_os_mem_alloc(size);
	if (p)
  903bcc:	c8a8      	beqz.n	a10, 903bd8 <ath_hal_malloc+0x20>
}
/* zero a memory buffer */
static inline void
__adf_os_mem_zero(void *buf, adf_os_size_t size)
{
    A_MEMZERO(buf,size);
  903bce:	8444      	l32i.n	a4, a4, 16
  903bd0:	dc30      	mov.n	a12, a3
  903bd2:	2b0a00        	movi	a11, 0
  903bd5:	0b4000        	callx8	a4
		adf_os_mem_zero(p, size);

	return p;
}
  903bd8:	d10f      	retw.n
	...

00903bdc <ath_hal_free>:

void __ahdecl
ath_hal_free(void* p)
{
  903bdc:	6c1004        	entry	a1, 32
  903bdf:	d10f      	retw.n
  903be1:	000000        	ill

00903be4 <ath_hal_memcpy>:
	adf_os_mem_free(p);
}

void * __ahdecl
ath_hal_memcpy(void *dst, const void *src, adf_os_size_t n)
{
  903be4:	6c1004        	entry	a1, 32
    A_MEMCPY(dst,src,size);
  903be7:	18716e        	l32r	a8, 8e01a0 <_bss_end+0x3d2998>
  903bea:	dc40      	mov.n	a12, a4
  903bec:	8885      	l32i.n	a8, a8, 20
  903bee:	db30      	mov.n	a11, a3
  903bf0:	da20      	mov.n	a10, a2
  903bf2:	0b8000        	callx8	a8
	adf_os_mem_copy(dst, src, n);
	return 0;
}
  903bf5:	c020      	movi.n	a2, 0
  903bf7:	d10f      	retw.n
  903bf9:	000000        	ill

00903bfc <wlan_pci_module_init>:
adf_drv_info_t* g_wlan_drv = NULL;
adf_drv_handle_t g_wlan_drv_handle = NULL;
adf_os_drv_intr g_wlan_intr = NULL;

void wlan_pci_module_init(void)
{
  903bfc:	6c1004        	entry	a1, 32
	if (g_pci_init_func != NULL) {
  903bff:	1871d0        	l32r	a8, 8e0340 <_bss_end+0x3d2b38>
  903c02:	8a80      	l32i.n	a10, a8, 0
  903c04:	c8a1      	beqz.n	a10, 903c09 <wlan_pci_module_init+0xd>
		g_pci_init_func();
  903c06:	0ba000        	callx8	a10
  903c09:	d10f      	retw.n
	...

00903c0c <wlan_pci_register_drv>:
	}
}

void wlan_pci_register_drv(adf_drv_info_t *drv)
{
  903c0c:	6c1004        	entry	a1, 32
	g_wlan_drv = drv;
  903c0f:	1871d1        	l32r	a8, 8e0354 <_bss_end+0x3d2b4c>
  903c12:	9280      	s32i.n	a2, a8, 0
  903c14:	d10f      	retw.n
	...

00903c18 <wlan_pci_probe>:

#define ATHEROS_VENDOR_ID 0x168c
#define AR5416_DEVID_PCIE 0x24

void wlan_pci_probe(void)
{
  903c18:	6c100a        	entry	a1, 80
	__adf_softc_t           *sc;
	adf_os_resource_t       drv_res = {0};
  903c1b:	c1c8      	movi.n	a12, 24
  903c1d:	2b0a00        	movi	a11, 0
  903c20:	011a02        	or	a10, a1, a1
  903c23:	5b855e        	call8	8e519c <memset>
	adf_os_attach_data_t    drv_data = {{0}};
  903c26:	c1c0      	movi.n	a12, 16
  903c28:	c0b0      	movi.n	a11, 0
  903c2a:	2a1c18        	addi	a10, a1, 24
  903c2d:	5b855b        	call8	8e519c <memset>
	int vendor_id;
	int device_id;

	A_PRINTF("<wlan_pci_probe>: Attaching the driver\n");
  903c30:	12716e        	l32r	a2, 8e01e8 <_bss_end+0x3d29e0>
  903c33:	1a71d2        	l32r	a10, 8e037c <_bss_end+0x3d2b74>
  903c36:	232212        	l32i	a3, a2, 72
  903c39:	0b3000        	callx8	a3
	device_id = AR5416_DEVID_PCIE;
#else
	vendor_id = wlan_pci_config_read(0, 2);
	device_id = wlan_pci_config_read(2, 2);
#endif
	A_PRINTF("<wlan_pci_probe>: Vendor id 0x%x Dev id 0x%x\n", vendor_id, device_id);
  903c3c:	1371d3        	l32r	a3, 8e0388 <_bss_end+0x3d2b80>
  903c3f:	282212        	l32i	a8, a2, 72
  903c42:	1a71d4        	l32r	a10, 8e0394 <_bss_end+0x3d2b8c>
  903c45:	db30      	mov.n	a11, a3
  903c47:	c2c4      	movi.n	a12, 36
  903c49:	0b8000        	callx8	a8
	}

	/**
	 * Allocate the sc & zero down
	 */
	sc = A_ALLOCRAM(sizeof(__adf_softc_t));
  903c4c:	282252        	l32i	a8, a2, 0x148
  903c4f:	c0b4      	movi.n	a11, 4
  903c51:	c0a0      	movi.n	a10, 0
  903c53:	0b8000        	callx8	a8
	if (!sc) {
  903c56:	ccaa      	bnez.n	a10, 903c64 <wlan_pci_probe+0x4c>
		A_PRINTF("Cannot malloc softc\n");
  903c58:	222212        	l32i	a2, a2, 72
  903c5b:	1a71d5        	l32r	a10, 8e03b0 <_bss_end+0x3d2ba8>
  903c5e:	0b2000        	callx8	a2

	g_wlan_drv_handle = g_wlan_drv->drv_attach(&drv_res, 1, &drv_data, NULL);

	return;
mem_fail:
	return;
  903c61:	d10f      	retw.n
  903c63:	00c224        	excw
	drv_data.pci.device    = AR5416_DEVID_PCIE;
  903c66:	9217      	s32i.n	a2, a1, 28
	g_wlan_drv_handle = g_wlan_drv->drv_attach(&drv_res, 1, &drv_data, NULL);
  903c68:	1271d1        	l32r	a2, 8e03ac <_bss_end+0x3d2ba4>
	drv_data.pci.subvendor = 0;
  903c6b:	c0d0      	movi.n	a13, 0
	g_wlan_drv_handle = g_wlan_drv->drv_attach(&drv_res, 1, &drv_data, NULL);
  903c6d:	8220      	l32i.n	a2, a2, 0
	drv_res.start  = (a_uint32_t) 0;
  903c6f:	1871d6        	l32r	a8, 8e03c8 <_bss_end+0x3d2bc0>
  903c72:	1971d6        	l32r	a9, 8e03cc <_bss_end+0x3d2bc4>
	drv_data.pci.vendor    = 0x168c;
  903c75:	9316      	s32i.n	a3, a1, 24
	drv_data.pci.subvendor = 0;
  903c77:	9d18      	s32i.n	a13, a1, 32
	drv_data.pci.subdevice = 0;
  903c79:	9d19      	s32i.n	a13, a1, 36
	g_wlan_drv_handle = g_wlan_drv->drv_attach(&drv_res, 1, &drv_data, NULL);
  903c7b:	8220      	l32i.n	a2, a2, 0
	drv_res.start  = (a_uint32_t) 0;
  903c7d:	9810      	s32i.n	a8, a1, 0
  903c7f:	9911      	s32i.n	a9, a1, 4
	drv_res.end    = 0;
  903c81:	9812      	s32i.n	a8, a1, 8
  903c83:	9913      	s32i.n	a9, a1, 12
	drv_res.type   = ADF_OS_RESOURCE_TYPE_MEM;
  903c85:	9d14      	s32i.n	a13, a1, 16
	g_wlan_drv_handle = g_wlan_drv->drv_attach(&drv_res, 1, &drv_data, NULL);
  903c87:	2c1c18        	addi	a12, a1, 24
  903c8a:	c0b1      	movi.n	a11, 1
  903c8c:	da10      	mov.n	a10, a1
  903c8e:	0b2000        	callx8	a2
  903c91:	1271d7        	l32r	a2, 8e03f0 <_bss_end+0x3d2be8>
  903c94:	9a20      	s32i.n	a10, a2, 0
  903c96:	d10f      	retw.n

00903c98 <wlan_pci_config_write>:
}

int wlan_pci_config_write(int offset, a_uint32_t val, int width)
{
  903c98:	6c1004        	entry	a1, 32
		ptr[idx + i] = valptr[3-i];
	}
#endif

	return 0;
}
  903c9b:	c020      	movi.n	a2, 0
  903c9d:	d10f      	retw.n
	...

00903ca0 <wlan_pci_config_read>:

int wlan_pci_config_read(int offset, int width)
{
  903ca0:	6c1004        	entry	a1, 32
		result |= (ptr[ 3 - (idx + i)] << (8*i));
	}

	return result;
#endif
}
  903ca3:	c020      	movi.n	a2, 0
  903ca5:	d10f      	retw.n
	...

00903ca8 <wlan_pci_isr>:

void wlan_pci_isr()
{
  903ca8:	6c1004        	entry	a1, 32
	if (g_wlan_intr != NULL && g_wlan_drv_handle != NULL) {
  903cab:	1871d8        	l32r	a8, 8e040c <_bss_end+0x3d2c04>
  903cae:	8880      	l32i.n	a8, a8, 0
  903cb0:	c888      	beqz.n	a8, 903cbc <wlan_pci_isr+0x14>
  903cb2:	1971d7        	l32r	a9, 8e0410 <_bss_end+0x3d2c08>
  903cb5:	8a90      	l32i.n	a10, a9, 0
  903cb7:	c8a1      	beqz.n	a10, 903cbc <wlan_pci_isr+0x14>
		g_wlan_intr(g_wlan_drv_handle);
  903cb9:	0b8000        	callx8	a8
  903cbc:	d10f      	retw.n
	...

00903cc0 <_HTC_Shutdown>:

	return pHTC;
}

LOCAL void _HTC_Shutdown(htc_handle_t htcHandle)
{
  903cc0:	6c1004        	entry	a1, 32
  903cc3:	d10f      	retw.n
  903cc5:	000000        	ill

00903cc8 <_HTC_RegisterService>:

	adf_os_mem_free(pHTC);
}

LOCAL void _HTC_RegisterService(htc_handle_t htcHandle, HTC_SERVICE *pService)
{
  903cc8:	6c1004        	entry	a1, 32
	HTC_CONTEXT *pHTC = (HTC_CONTEXT *)htcHandle;

        /* add it to the list */
	pService->pNext = pHTC->pServiceList;
  903ccb:	282290        	l32i	a8, a2, 0x240
  903cce:	9830      	s32i.n	a8, a3, 0
	pHTC->pServiceList = pService;
  903cd0:	232690        	s32i	a3, a2, 0x240
  903cd3:	d10f      	retw.n
  903cd5:	000000        	ill

00903cd8 <_HTC_GetReservedHeadroom>:
void _HTC_ResumeRecv(HTC_ENDPOINT_ID EndpointID)
{
}

int _HTC_GetReservedHeadroom(htc_handle_t htcHandle)
{
  903cd8:	6c1004        	entry	a1, 32
	HTC_CONTEXT *pHTC = (HTC_CONTEXT *)htcHandle;

	return HTC_HDR_LENGTH + HIF_get_reserved_headroom(pHTC->hifHandle);
  903cdb:	18716e        	l32r	a8, 8e0294 <_bss_end+0x3d2a8c>
  903cde:	2a229a        	l32i	a10, a2, 0x268
  903ce1:	28827f        	l32i	a8, a8, 0x1fc
  903ce4:	0b8000        	callx8	a8
}
  903ce7:	b8a2      	addi.n	a2, a10, 8
  903ce9:	d10f      	retw.n
	...

00903cec <HTCSendDoneHandler>:
		HTCCheckAndSendCreditReport(pHTC, HTC_ANY_ENDPOINT_MASK,NULL,ENDPOINT_MAX);
	}
}

LOCAL void HTCSendDoneHandler(adf_nbuf_t buf, void *context)
{
  903cec:	6c1004        	entry	a1, 32
 * @return data pointer to typecast into your priv structure
 */
static inline a_uint8_t *
adf_nbuf_get_priv(adf_nbuf_t buf)
{
    return (__adf_nbuf_get_priv(buf));
  903cef:	022a02        	or	a10, a2, a2
  903cf2:	5bfdda        	call8	90345c <__adf_nbuf_get_priv>
	A_UINT8 current_eid;
	HTC_CONTEXT *pHTC = (HTC_CONTEXT *)context;
	HTC_BUF_CONTEXT *ctx;

	ctx = (HTC_BUF_CONTEXT *)adf_nbuf_get_priv(buf);
	current_eid = ctx->end_point;
  903cf5:	24a000        	l8ui	a4, a10, 0
    return __adf_nbuf_pull_head(buf, size);
  903cf8:	c0b8      	movi.n	a11, 8
  903cfa:	022a02        	or	a10, a2, a2
  903cfd:	5bfdbc        	call8	9033f0 <__adf_nbuf_pull_head>
	/* Walk through the buffers and fixup the ones we used for HTC headers.
	 * The buffer list may contain more than one string of HTC buffers comprising of an
	 * HTC message so we need to check every buffer */
	adf_nbuf_pull_head(buf, HTC_HDR_LENGTH);

	pHTC->Endpoints[current_eid].pService->
  903d00:	0f4811        	slli	a8, a4, 1
  903d03:	a488      	add.n	a8, a8, a4
  903d05:	0d8811        	slli	a8, a8, 3
  903d08:	a833      	add.n	a3, a3, a8
  903d0a:	8332      	l32i.n	a3, a3, 8
  903d0c:	db20      	mov.n	a11, a2
  903d0e:	8832      	l32i.n	a8, a3, 8
  903d10:	8c36      	l32i.n	a12, a3, 24
  903d12:	044a02        	or	a10, a4, a4
  903d15:	0b8000        	callx8	a8
  903d18:	d10f      	retw.n
	...

00903d1c <HTC_AssembleBuffers>:
{
  903d1c:	6c1004        	entry	a1, 32
	BUF_Pool_create_pool(pHTC->PoolHandle, POOL_ID_HTC_CONTROL, Count, Size);
  903d1f:	18716e        	l32r	a8, 8e02d8 <_bss_end+0x3d2ad0>
  903d22:	2a229b        	l32i	a10, a2, 0x26c
  903d25:	2882a0        	l32i	a8, a8, 0x280
  903d28:	dd40      	mov.n	a13, a4
  903d2a:	dc30      	mov.n	a12, a3
  903d2c:	c0b0      	movi.n	a11, 0
  903d2e:	0b8000        	callx8	a8
  903d31:	d10f      	retw.n
	...

00903d34 <_HTC_Init>:
{
  903d34:	6c1006        	entry	a1, 48
    return A_ALLOCRAM(size);
  903d37:	14716e        	l32r	a4, 8e02f0 <_bss_end+0x3d2ae8>
  903d3a:	022502        	or	a5, a2, a2
  903d3d:	224252        	l32i	a2, a4, 0x148
  903d40:	2b2a74        	movi	a11, 0x274
  903d43:	c0a0      	movi.n	a10, 0
  903d45:	0b2000        	callx8	a2
    A_MEMZERO(buf,size);
  903d48:	8844      	l32i.n	a8, a4, 16
  903d4a:	2c2a74        	movi	a12, 0x274
  903d4d:	c0b0      	movi.n	a11, 0
    return A_ALLOCRAM(size);
  903d4f:	d2a0      	mov.n	a2, a10
    A_MEMZERO(buf,size);
  903d51:	0b8000        	callx8	a8
	pHTC->OSHandle = pConfig->OSHandle;
  903d54:	8832      	l32i.n	a8, a3, 8
	pHTC->hifHandle = pConfig->HIFHandle;
  903d56:	8a33      	l32i.n	a10, a3, 12
	pHTC->OSHandle = pConfig->OSHandle;
  903d58:	9820      	s32i.n	a8, a2, 0
	pHTC->PoolHandle = pConfig->PoolHandle;
  903d5a:	8834      	l32i.n	a8, a3, 16
	HIF_register_callback(pConfig->HIFHandle, &hifCBConfig);
  903d5c:	db10      	mov.n	a11, a1
	pHTC->PoolHandle = pConfig->PoolHandle;
  903d5e:	28269b        	s32i	a8, a2, 0x26c
	hifCBConfig.send_buf_done = A_INDIR(htc._HTC_SendDoneHandler);
  903d61:	28428c        	l32i	a8, a4, 0x230
	pHTC->hifHandle = pConfig->HIFHandle;
  903d64:	2a269a        	s32i	a10, a2, 0x268
	hifCBConfig.send_buf_done = A_INDIR(htc._HTC_SendDoneHandler);
  903d67:	9810      	s32i.n	a8, a1, 0
	hifCBConfig.recv_buf = A_INDIR(htc._HTC_MsgRecvHandler);
  903d69:	28428b        	l32i	a8, a4, 0x22c
	hifCBConfig.context = pHTC;
  903d6c:	9212      	s32i.n	a2, a1, 8
	hifCBConfig.recv_buf = A_INDIR(htc._HTC_MsgRecvHandler);
  903d6e:	9811      	s32i.n	a8, a1, 4
	HIF_register_callback(pConfig->HIFHandle, &hifCBConfig);
  903d70:	284277        	l32i	a8, a4, 0x1dc
  903d73:	0b8000        	callx8	a8
		pHTC->NumBuffersForCreditRpts = HTC_DEFAULT_NUM_CTRL_BUFFERS;
  903d76:	c086      	movi.n	a8, 6
  903d78:	282696        	s32i	a8, a2, 0x258
		pHTC->MaxEpPendingCreditRpts = HTC_DEFAULT_MAX_EP_PENDING_CREDIT_REPORTS;
  903d7b:	c083      	movi.n	a8, 3
  903d7d:	282699        	s32i	a8, a2, 0x264
	pHTC->CtrlBufferAllocSize = MIN_CREDIT_BUFFER_ALLOC_SIZE * pHTC->NumBuffersForCreditRpts;
  903d80:	280ad8        	movi	a8, 216
  903d83:	282697        	s32i	a8, a2, 0x25c
	pHTC->RecvBufferSize = pConfig->CreditSize; //RecvBufferSize;
  903d86:	8830      	l32i.n	a8, a3, 0
	pHTC->TotalCredits = pConfig->CreditNumber;
  903d88:	8331      	l32i.n	a3, a3, 4
	pHTC->RecvBufferSize = pConfig->CreditSize; //RecvBufferSize;
  903d8a:	282691        	s32i	a8, a2, 0x244
	pHTC->TotalCredits = pConfig->CreditNumber;
  903d8d:	232694        	s32i	a3, a2, 0x250
	pHTC->TotalCreditsAssigned = 0;
  903d90:	c030      	movi.n	a3, 0
  903d92:	232695        	s32i	a3, a2, 0x254
	pHTC->HTCControlService.ProcessRecvMsg = A_INDIR(htc._HTC_ControlSvcProcessMsg);
  903d95:	23428d        	l32i	a3, a4, 0x234
	pHTC->HTCControlService.TrailerSpcCheckLimit = HTC_CTRL_BUFFER_CHECK_SIZE;
  903d98:	c18c      	movi.n	a8, 28
	pHTC->HTCControlService.ProcessRecvMsg = A_INDIR(htc._HTC_ControlSvcProcessMsg);
  903d9a:	23268a        	s32i	a3, a2, 0x228
	pHTC->HTCControlService.ProcessSendBufferComplete = A_INDIR(htc._HTC_ControlSvcProcessSendComplete);
  903d9d:	23428e        	l32i	a3, a4, 0x238
	HIF_get_default_pipe(pHTC->hifHandle, &pHTC->Endpoints[ENDPOINT0].UpLinkPipeID,
  903da0:	2a229a        	l32i	a10, a2, 0x268
	pHTC->HTCControlService.ProcessSendBufferComplete = A_INDIR(htc._HTC_ControlSvcProcessSendComplete);
  903da3:	23268b        	s32i	a3, a2, 0x22c
	pHTC->HTCControlService.TrailerSpcCheckLimit = HTC_CTRL_BUFFER_CHECK_SIZE;
  903da6:	232d02        	addmi	a3, a2, 0x200
  903da9:	28351d        	s16i	a8, a3, 58
	pHTC->HTCControlService.MaxSvcMsgSize = MAX_HTC_SETUP_MSG_SIZE;
  903dac:	c480      	movi.n	a8, 64
  903dae:	28351c        	s16i	a8, a3, 56
	pHTC->Endpoints[ENDPOINT0].pService = &pHTC->HTCControlService;
  903db1:	232a24        	movi	a3, 0x224
  903db4:	032308        	add	a3, a2, a3
  903db7:	9322      	s32i.n	a3, a2, 8
	HIF_get_default_pipe(pHTC->hifHandle, &pHTC->Endpoints[ENDPOINT0].UpLinkPipeID,
  903db9:	234281        	l32i	a3, a4, 0x204
  903dbc:	2c2c18        	addi	a12, a2, 24
  903dbf:	2b2c19        	addi	a11, a2, 25
	pHTC->HTCControlService.ServiceCtx = pHTC;
  903dc2:	22268f        	s32i	a2, a2, 0x23c
	HIF_get_default_pipe(pHTC->hifHandle, &pHTC->Endpoints[ENDPOINT0].UpLinkPipeID,
  903dc5:	0b3000        	callx8	a3
	HIF_config_pipe(pHTC->hifHandle, pHTC->Endpoints[ENDPOINT0].UpLinkPipeID, 1);
  903dc8:	2b2019        	l8ui	a11, a2, 25
  903dcb:	23427a        	l32i	a3, a4, 0x1e8
  903dce:	2a229a        	l32i	a10, a2, 0x268
  903dd1:	c0c1      	movi.n	a12, 1
  903dd3:	0b3000        	callx8	a3
	pHTC->CurrentEpIndex = ENDPOINT1;
  903dd6:	c031      	movi.n	a3, 1
  903dd8:	232688        	s32i	a3, a2, 0x220
	HTC_AssembleBuffers(pHTC, 4, MAX_HTC_SETUP_MSG_SIZE);
  903ddb:	da20      	mov.n	a10, a2
	pHTC->SetupCompleteCb = SetupComplete;
  903ddd:	252693        	s32i	a5, a2, 0x24c
	HTC_AssembleBuffers(pHTC, 4, MAX_HTC_SETUP_MSG_SIZE);
  903de0:	c4c0      	movi.n	a12, 64
  903de2:	2b0a04        	movi	a11, 4
  903de5:	5bffcd        	call8	903d1c <HTC_AssembleBuffers>
	HIF_start(pHTC->hifHandle);
  903de8:	2a229a        	l32i	a10, a2, 0x268
  903deb:	234279        	l32i	a3, a4, 0x1e4
  903dee:	0b3000        	callx8	a3
}
  903df1:	d10f      	retw.n
	...

00903df4 <_HTC_PauseRecv>:
  903df4:	6c1004        	entry	a1, 32
  903df7:	d10f      	retw.n
  903df9:	000000        	ill

00903dfc <_HTC_ResumeRecv>:
{
  903dfc:	6c1004        	entry	a1, 32
  903dff:	d10f      	retw.n
  903e01:	000000        	ill

00903e04 <htc_module_install>:
{
  903e04:	6c1004        	entry	a1, 32
	pAPIs->_HTC_Init = _HTC_Init;
  903e07:	1871d9        	l32r	a8, 8e056c <_bss_end+0x3d2d64>
  903e0a:	9820      	s32i.n	a8, a2, 0
	pAPIs->_HTC_ReturnBuffers = _HTC_ReturnBuffers;
  903e0c:	1871da        	l32r	a8, 8e0574 <_bss_end+0x3d2d6c>
  903e0f:	9824      	s32i.n	a8, a2, 16
	pAPIs->_HTC_ReturnBuffersList = _HTC_ReturnBuffersList;
  903e11:	1871db        	l32r	a8, 8e0580 <_bss_end+0x3d2d78>
  903e14:	9825      	s32i.n	a8, a2, 20
	pAPIs->_HTC_Ready = _HTC_Ready;
  903e16:	1871dc        	l32r	a8, 8e0588 <_bss_end+0x3d2d80>
  903e19:	9823      	s32i.n	a8, a2, 12
	pAPIs->_HTC_RegisterService = _HTC_RegisterService;
  903e1b:	1871dd        	l32r	a8, 8e0590 <_bss_end+0x3d2d88>
  903e1e:	9822      	s32i.n	a8, a2, 8
	pAPIs->_HTC_SendMsg = _HTC_SendMsg;
  903e20:	1871de        	l32r	a8, 8e0598 <_bss_end+0x3d2d90>
  903e23:	9826      	s32i.n	a8, a2, 24
	pAPIs->_HTC_Shutdown = _HTC_Shutdown;
  903e25:	1871df        	l32r	a8, 8e05a4 <_bss_end+0x3d2d9c>
  903e28:	9821      	s32i.n	a8, a2, 4
	pAPIs->_HTC_GetReservedHeadroom = _HTC_GetReservedHeadroom;
  903e2a:	1871e0        	l32r	a8, 8e05ac <_bss_end+0x3d2da4>
  903e2d:	9827      	s32i.n	a8, a2, 28
	pAPIs->_HTC_MsgRecvHandler = HTCMsgRecvHandler;
  903e2f:	1871e1        	l32r	a8, 8e05b4 <_bss_end+0x3d2dac>
  903e32:	9828      	s32i.n	a8, a2, 32
	pAPIs->_HTC_SendDoneHandler = HTCSendDoneHandler;
  903e34:	1871e2        	l32r	a8, 8e05bc <_bss_end+0x3d2db4>
  903e37:	9829      	s32i.n	a8, a2, 36
	pAPIs->_HTC_ControlSvcProcessMsg = HTCControlSvcProcessMsg;
  903e39:	1871e3        	l32r	a8, 8e05c8 <_bss_end+0x3d2dc0>
  903e3c:	982a      	s32i.n	a8, a2, 40
	pAPIs->_HTC_ControlSvcProcessSendComplete = HTCControlSvcProcessSendComplete;
  903e3e:	1871e4        	l32r	a8, 8e05d0 <_bss_end+0x3d2dc8>
  903e41:	982b      	s32i.n	a8, a2, 44
  903e43:	d10f      	retw.n
  903e45:	000000        	ill

00903e48 <HTCFreeMsgBuffer>:
{
  903e48:	6c1004        	entry	a1, 32
	BUF_Pool_free_buf(pHTC->PoolHandle, POOL_ID_HTC_CONTROL, buf);
  903e4b:	18716e        	l32r	a8, 8e0404 <_bss_end+0x3d2bfc>
  903e4e:	2a229b        	l32i	a10, a2, 0x26c
  903e51:	2882a3        	l32i	a8, a8, 0x28c
  903e54:	dc30      	mov.n	a12, a3
  903e56:	2b0a00        	movi	a11, 0
  903e59:	0b8000        	callx8	a8
  903e5c:	d10f      	retw.n
	...

00903e60 <HTCAllocMsgBuffer>:
{
  903e60:	6c1004        	entry	a1, 32
	return BUF_Pool_alloc_buf(pHTC->PoolHandle,
  903e63:	18716e        	l32r	a8, 8e041c <_bss_end+0x3d2c14>
{
  903e66:	da20      	mov.n	a10, a2
	return BUF_Pool_alloc_buf(pHTC->PoolHandle,
  903e68:	2282a1        	l32i	a2, a8, 0x284
  903e6b:	28828a        	l32i	a8, a8, 0x228
  903e6e:	23a29b        	l32i	a3, a10, 0x26c
  903e71:	0b8000        	callx8	a8
  903e74:	dca0      	mov.n	a12, a10
  903e76:	c0b0      	movi.n	a11, 0
  903e78:	da30      	mov.n	a10, a3
  903e7a:	0b2000        	callx8	a2
}
  903e7d:	d2a0      	mov.n	a2, a10
  903e7f:	d10f      	retw.n
  903e81:	000000        	ill

00903e84 <_HTC_Ready>:
{
  903e84:	6c1004        	entry	a1, 32
	pBuffer = HTCAllocMsgBuffer(pHTC);
  903e87:	022a02        	or	a10, a2, a2
  903e8a:	5bfff5        	call8	903e60 <HTCAllocMsgBuffer>
    return __adf_nbuf_put_tail(buf, size);
  903e8d:	c0b8      	movi.n	a11, 8
  903e8f:	d4a0      	mov.n	a4, a10
  903e91:	5bfdd7        	call8	9035f0 <__adf_nbuf_put_tail>
	A_MEMZERO(pReady,sizeof(HTC_READY_MSG));
  903e94:	15716e        	l32r	a5, 8e044c <_bss_end+0x3d2c44>
  903e97:	c0c8      	movi.n	a12, 8
  903e99:	8854      	l32i.n	a8, a5, 16
  903e9b:	c0b0      	movi.n	a11, 0
  903e9d:	d3a0      	mov.n	a3, a10
  903e9f:	0b8000        	callx8	a8
	pReady->MessageID = adf_os_htons(HTC_MSG_READY_ID);
  903ea2:	c081      	movi.n	a8, 1
  903ea4:	283401        	s8i	a8, a3, 1
	pReady->CreditSize = adf_os_htons((A_UINT16)pHTC->RecvBufferSize);
  903ea7:	282291        	l32i	a8, a2, 0x244
	pReady->MessageID = adf_os_htons(HTC_MSG_READY_ID);
  903eaa:	c0b0      	movi.n	a11, 0
	pReady->CreditSize = adf_os_htons((A_UINT16)pHTC->RecvBufferSize);
  903eac:	08084f        	extui	a8, a8, 0, 16
  903eaf:	088914        	srli	a9, a8, 8
  903eb2:	283405        	s8i	a8, a3, 5
	pReady->CreditCount = adf_os_htons((A_UINT16)pHTC->TotalCredits);
  903eb5:	282294        	l32i	a8, a2, 0x250
	pReady->CreditSize = adf_os_htons((A_UINT16)pHTC->RecvBufferSize);
  903eb8:	293404        	s8i	a9, a3, 4
	pReady->CreditCount = adf_os_htons((A_UINT16)pHTC->TotalCredits);
  903ebb:	08084f        	extui	a8, a8, 0, 16
  903ebe:	088914        	srli	a9, a8, 8
  903ec1:	283403        	s8i	a8, a3, 3
	pReady->MaxEndpoints = ENDPOINT_MAX;
  903ec4:	c186      	movi.n	a8, 22
  903ec6:	283406        	s8i	a8, a3, 6
	pReady->MessageID = adf_os_htons(HTC_MSG_READY_ID);
  903ec9:	2b3400        	s8i	a11, a3, 0
	pReady->CreditCount = adf_os_htons((A_UINT16)pHTC->TotalCredits);
  903ecc:	293402        	s8i	a9, a3, 2
	HTC_SendMsg(pHTC, ENDPOINT0, pBuffer);
  903ecf:	235289        	l32i	a3, a5, 0x224
  903ed2:	dc40      	mov.n	a12, a4
  903ed4:	da20      	mov.n	a10, a2
  903ed6:	0b3000        	callx8	a3
  903ed9:	d10f      	retw.n
	...

00903edc <HTCCheckAndSendCreditReport>:
{
  903edc:	6c1004        	entry	a1, 32
		if (!(pHTC->EpHostNeedsCreditMap & EpMask)) {
  903edf:	282285        	l32i	a8, a2, 0x214
  903ee2:	78305a        	bnone	a3, a8, 903f40 <HTCCheckAndSendCreditReport+0x64>
		if (!(pHTC->EpCreditPendingMap & EpMask)) {
  903ee5:	282286        	l32i	a8, a2, 0x218
  903ee8:	783054        	bnone	a3, a8, 903f40 <HTCCheckAndSendCreditReport+0x64>
		if (pEndpoint != NULL) {
  903eeb:	c945      	beqz.n	a4, 903f04 <HTCCheckAndSendCreditReport+0x28>
			if (pEndpoint->CreditReturnThreshhold != 0) {
  903eed:	234904        	l16si	a3, a4, 8
  903ef0:	c834      	beqz.n	a3, 903ef8 <HTCCheckAndSendCreditReport+0x1c>
				if (pEndpoint->CreditsToReturn < pEndpoint->CreditReturnThreshhold) {
  903ef2:	284900        	l16si	a8, a4, 0
  903ef5:	738247        	blt	a8, a3, 903f40 <HTCCheckAndSendCreditReport+0x64>
			if (pEndpoint->PendingCreditReports >= pHTC->MaxEpPendingCreditRpts) {
  903ef8:	8844      	l32i.n	a8, a4, 16
  903efa:	232299        	l32i	a3, a2, 0x264
  903efd:	738203        	blt	a8, a3, 903f04 <HTCCheckAndSendCreditReport+0x28>
  903f00:	600009        	j	903f0d <HTCCheckAndSendCreditReport+0x31>
  903f03:	00da20        	excw
		pCredBuffer = HTCAllocMsgBuffer(pHTC);
  903f06:	5bffd6        	call8	903e60 <HTCAllocMsgBuffer>
  903f09:	d3a0      	mov.n	a3, a10
		if (NULL == pCredBuffer) {
  903f0b:	ccae      	bnez.n	a10, 903f1d <HTCCheckAndSendCreditReport+0x41>
			pHTC->StateFlags |= HTC_SEND_CREDIT_UPDATE_SOON;
  903f0d:	232292        	l32i	a3, a2, 0x248
  903f10:	c042      	movi.n	a4, 2
  903f12:	043302        	or	a3, a3, a4
  903f15:	232692        	s32i	a3, a2, 0x248
  903f18:	d10f      	retw.n
  903f1a:	000000        	ill
    return (__adf_nbuf_get_priv(buf));
  903f1d:	5bfd4f        	call8	90345c <__adf_nbuf_get_priv>
		if (pEndpoint != NULL) {
  903f20:	c84d      	beqz.n	a4, 903f31 <HTCCheckAndSendCreditReport+0x55>
			pEndpoint->PendingCreditReports++;
  903f22:	8844      	l32i.n	a8, a4, 16
  903f24:	b188      	addi.n	a8, a8, 1
  903f26:	9844      	s32i.n	a8, a4, 16
			ctx->htc_flags = Eid | HTC_FLAGS_CREDIT_RPT;
  903f28:	240a20        	movi	a4, 32
  903f2b:	045502        	or	a5, a5, a4
  903f2e:	25a401        	s8i	a5, a10, 1
		HTC_SendMsg(pHTC, ENDPOINT0, pCredBuffer);
  903f31:	14716e        	l32r	a4, 8e04ec <_bss_end+0x3d2ce4>
  903f34:	dc30      	mov.n	a12, a3
  903f36:	244289        	l32i	a4, a4, 0x224
  903f39:	c0b0      	movi.n	a11, 0
  903f3b:	da20      	mov.n	a10, a2
  903f3d:	0b4000        	callx8	a4
  903f40:	d10f      	retw.n
	...

00903f44 <ReturnBuffers>:
{
  903f44:	6c1004        	entry	a1, 32
    return __adf_nbuf_push_head(buf, size);
  903f47:	c0b8      	movi.n	a11, 8
  903f49:	da40      	mov.n	a10, a4
	HIF_return_recv_buf(pHTC->hifHandle, pHTC->Endpoints[EndpointID].UpLinkPipeID, pBuffers);
  903f4b:	0f3611        	slli	a6, a3, 1
  903f4e:	5bfd1d        	call8	9033c4 <__adf_nbuf_push_head>
  903f51:	a366      	add.n	a6, a6, a3
  903f53:	18716e        	l32r	a8, 8e050c <_bss_end+0x3d2d04>
  903f56:	0d6611        	slli	a6, a6, 3
  903f59:	a627      	add.n	a7, a2, a6
  903f5b:	28827c        	l32i	a8, a8, 0x1f0
  903f5e:	2b7019        	l8ui	a11, a7, 25
  903f61:	2a229a        	l32i	a10, a2, 0x268
  903f64:	dc40      	mov.n	a12, a4
  903f66:	0b8000        	callx8	a8
	if (pHTC->StateFlags & HTC_STATE_SETUP_COMPLETE) {
  903f69:	242292        	l32i	a4, a2, 0x248
  903f6c:	7f4730        	bbci	a4, 31, 903fa0 <ReturnBuffers+0x5c>
		pHTC->Endpoints[EndpointID].CreditsToReturn += (A_INT16)nbufs;
  903f6f:	287102        	l16ui	a8, a7, 4
		A_UINT32    epCreditMask = (1 << EndpointID);
  903f72:	c0b1      	movi.n	a11, 1
		pHTC->Endpoints[EndpointID].CreditsToReturn += (A_INT16)nbufs;
  903f74:	b188      	addi.n	a8, a8, 1
  903f76:	287502        	s16i	a8, a7, 4
		pHTC->Endpoints[EndpointID].CreditsConsumed -= (A_INT16)nbufs;
  903f79:	287107        	l16ui	a8, a7, 14
		A_UINT32    epCreditMask = (1 << EndpointID);
  903f7c:	003104        	ssl	a3
  903f7f:	00bb1a        	sll	a11, a11
		pHTC->Endpoints[EndpointID].CreditsConsumed -= (A_INT16)nbufs;
  903f82:	b088      	addi.n	a8, a8, -1
  903f84:	287507        	s16i	a8, a7, 14
		pHTC->EpCreditPendingMap |= epCreditMask;
  903f87:	272286        	l32i	a7, a2, 0x218
  903f8a:	0b7702        	or	a7, a7, a11
  903f8d:	272686        	s32i	a7, a2, 0x218
		if (sendCreditFlag) {
  903f90:	c954      	beqz.n	a5, 903fa8 <ReturnBuffers+0x64>
			HTCCheckAndSendCreditReport(pHTC, epCreditMask,&pHTC->Endpoints[EndpointID],EndpointID);
  903f92:	b46c      	addi.n	a12, a6, 4
  903f94:	dd30      	mov.n	a13, a3
  903f96:	ac2c      	add.n	a12, a2, a12
  903f98:	da20      	mov.n	a10, a2
  903f9a:	5bffd0        	call8	903edc <HTCCheckAndSendCreditReport>
  903f9d:	d10f      	retw.n
  903f9f:	002322        	excw
		pHTC->TotalCredits += nbufs;
  903fa2:	94b1      	s32i.n	a4, a11, 4
  903fa4:	332326        	excw
  903fa7:	94d1      	s32i.n	a4, a13, 4
  903fa9:	0f0000        	callx12	a0

00903fac <_HTC_ReturnBuffers>:
{
  903fac:	6c1004        	entry	a1, 32
	ReturnBuffers(htcHandle, EndpointID, pBuffers, TRUE);
  903faf:	c0d1      	movi.n	a13, 1
  903fb1:	dc40      	mov.n	a12, a4
  903fb3:	db30      	mov.n	a11, a3
  903fb5:	da20      	mov.n	a10, a2
  903fb7:	5bffe3        	call8	903f44 <ReturnBuffers>
  903fba:	d10f      	retw.n

00903fbc <_HTC_ReturnBuffersList>:
{
  903fbc:	6c1006        	entry	a1, 48
 * @return first buffer in queue
 */
static inline adf_nbuf_t
adf_nbuf_queue_first(adf_nbuf_queue_t *head)
{
    return (__adf_nbuf_queue_first(head));
  903fbf:	da10      	mov.n	a10, a1
  903fc1:	9410      	s32i.n	a4, a1, 0
  903fc3:	9511      	s32i.n	a5, a1, 4
  903fc5:	9612      	s32i.n	a6, a1, 8
  903fc7:	5bfdbb        	call8	9036b4 <__adf_nbuf_queue_first>
  903fca:	d4a0      	mov.n	a4, a10
		ReturnBuffers(htcHandle, EndpointID, tmpNbuf, FALSE);
  903fcc:	c050      	movi.n	a5, 0
	while (netbuf) {
  903fce:	600014        	j	903fe6 <_HTC_ReturnBuffersList+0x2a>
 * @return next buffer/packet
 */
static inline adf_nbuf_t
adf_nbuf_queue_next(adf_nbuf_t buf)
{
    return (__adf_nbuf_queue_next(buf));
  903fd1:	da40      	mov.n	a10, a4
  903fd3:	5bfdba        	call8	9036bc <__adf_nbuf_queue_next>
  903fd6:	d6a0      	mov.n	a6, a10
		ReturnBuffers(htcHandle, EndpointID, tmpNbuf, FALSE);
  903fd8:	dc40      	mov.n	a12, a4
  903fda:	dd50      	mov.n	a13, a5
  903fdc:	db30      	mov.n	a11, a3
  903fde:	022a02        	or	a10, a2, a2
  903fe1:	5bffd8        	call8	903f44 <ReturnBuffers>
		netbuf = adf_nbuf_queue_next(netbuf);
  903fe4:	d460      	mov.n	a4, a6
	while (netbuf) {
  903fe6:	654fe7        	bnez	a4, 903fd1 <_HTC_ReturnBuffersList+0x15>
	HTCCheckAndSendCreditReport(pHTC, (1 << EndpointID),&pHTC->Endpoints[EndpointID],EndpointID);
  903fe9:	0f3c11        	slli	a12, a3, 1
  903fec:	a3cc      	add.n	a12, a12, a3
  903fee:	0dcc11        	slli	a12, a12, 3
  903ff1:	b4cc      	addi.n	a12, a12, 4
  903ff3:	c0b1      	movi.n	a11, 1
  903ff5:	dd30      	mov.n	a13, a3
  903ff7:	ac2c      	add.n	a12, a2, a12
  903ff9:	003104        	ssl	a3
  903ffc:	00bb1a        	sll	a11, a11
  903fff:	da20      	mov.n	a10, a2
  904001:	5bffb6        	call8	903edc <HTCCheckAndSendCreditReport>
  904004:	d10f      	retw.n
	...

00904008 <HTCControlSvcProcessSendComplete>:
{
  904008:	6c1004        	entry	a1, 32
    return (__adf_nbuf_get_priv(buf));
  90400b:	da30      	mov.n	a10, a3
  90400d:	5bfd13        	call8	90345c <__adf_nbuf_get_priv>
	if ( ctx->htc_flags & HTC_FLAGS_CREDIT_RPT ) {
  904010:	28a001        	l8ui	a8, a10, 1
  904013:	7a8712        	bbci	a8, 26, 904029 <HTCControlSvcProcessSendComplete+0x21>
		creditRptEndpoint = ctx->htc_flags & HTC_FLAGS_CRPT_EP_MASK;
  904016:	080944        	extui	a9, a8, 0, 5
		pHTC->Endpoints[creditRptEndpoint].PendingCreditReports--;
  904019:	0f9811        	slli	a8, a9, 1
  90401c:	a988      	add.n	a8, a8, a9
  90401e:	0d8811        	slli	a8, a8, 3
  904021:	a848      	add.n	a8, a4, a8
  904023:	8985      	l32i.n	a9, a8, 20
  904025:	b099      	addi.n	a9, a9, -1
  904027:	9985      	s32i.n	a9, a8, 20
	HTCFreeMsgBuffer(pHTC, pBuffers);
  904029:	db30      	mov.n	a11, a3
  90402b:	da40      	mov.n	a10, a4
  90402d:	5bff86        	call8	903e48 <HTCFreeMsgBuffer>
	if (pHTC->StateFlags & HTC_SEND_CREDIT_UPDATE_SOON) {
  904030:	284292        	l32i	a8, a4, 0x248
  904033:	7e8712        	bbci	a8, 30, 904049 <HTCControlSvcProcessSendComplete+0x41>
		pHTC->StateFlags &= ~HTC_SEND_CREDIT_UPDATE_SOON;
  904036:	c73d      	movi.n	a3, -3
  904038:	038801        	and	a8, a8, a3
  90403b:	284692        	s32i	a8, a4, 0x248
		HTCCheckAndSendCreditReport(pHTC, HTC_ANY_ENDPOINT_MASK,NULL,ENDPOINT_MAX);
  90403e:	c1d6      	movi.n	a13, 22
  904040:	c0c0      	movi.n	a12, 0
  904042:	c7bf      	movi.n	a11, -1
  904044:	da40      	mov.n	a10, a4
  904046:	5bffa5        	call8	903edc <HTCCheckAndSendCreditReport>
  904049:	d10f      	retw.n
	...

0090404c <HTCProcessConnectMsg>:
{
  90404c:	6c1008        	entry	a1, 64
	int metaDataOutLen = 0;
  90404f:	c070      	movi.n	a7, 0
  904051:	9710      	s32i.n	a7, a1, 0
	A_UINT16 serviceId = adf_os_ntohs(pMsg->ServiceID);
  904053:	283002        	l8ui	a8, a3, 2
	pBuffer = HTCAllocMsgBuffer(pHTC);
  904056:	da20      	mov.n	a10, a2
	A_UINT16 serviceId = adf_os_ntohs(pMsg->ServiceID);
  904058:	088411        	slli	a4, a8, 8
  90405b:	283003        	l8ui	a8, a3, 3
	HTC_SERVICE *pService = pHTC->pServiceList;
  90405e:	252290        	l32i	a5, a2, 0x240
	A_UINT16 serviceId = adf_os_ntohs(pMsg->ServiceID);
  904061:	048802        	or	a8, a8, a4
	pBuffer = HTCAllocMsgBuffer(pHTC);
  904064:	9814      	s32i.n	a8, a1, 16
  904066:	5bff7e        	call8	903e60 <HTCAllocMsgBuffer>
    return __adf_nbuf_put_tail(buf, size);
  904069:	c0ba      	movi.n	a11, 10
  90406b:	d6a0      	mov.n	a6, a10
  90406d:	5bfd60        	call8	9035f0 <__adf_nbuf_put_tail>
	A_MEMZERO(pRspMsg,sizeof(HTC_CONNECT_SERVICE_RESPONSE_MSG));
  904070:	19716e        	l32r	a9, 8e0628 <_bss_end+0x3d2e20>
  904073:	c0ca      	movi.n	a12, 10
  904075:	8d94      	l32i.n	a13, a9, 16
  904077:	db70      	mov.n	a11, a7
  904079:	d4a0      	mov.n	a4, a10
  90407b:	0bd000        	callx8	a13
	pRspMsg->ServiceID = adf_os_htons(serviceId);
  90407e:	8814      	l32i.n	a8, a1, 16
	pRspMsg->MessageID = adf_os_htons(HTC_MSG_CONNECT_SERVICE_RESPONSE_ID);
  904080:	c093      	movi.n	a9, 3
  904082:	294401        	s8i	a9, a4, 1
	pRspMsg->ServiceID = adf_os_htons(serviceId);
  904085:	088914        	srli	a9, a8, 8
  904088:	294402        	s8i	a9, a4, 2
	pRspMsg->MessageID = adf_os_htons(HTC_MSG_CONNECT_SERVICE_RESPONSE_ID);
  90408b:	274400        	s8i	a7, a4, 0
	pRspMsg->ServiceID = adf_os_htons(serviceId);
  90408e:	284403        	s8i	a8, a4, 3
		if (pHTC->CurrentEpIndex >= ENDPOINT_MAX) {
  904091:	c195      	movi.n	a9, 21
	while (pService) {
  904093:	600077        	j	90410e <HTCProcessConnectMsg+0xc2>
		if (pHTC->CurrentEpIndex >= ENDPOINT_MAX) {
  904096:	2b2288        	l32i	a11, a2, 0x220
  904099:	7b9279        	blt	a9, a11, 904116 <HTCProcessConnectMsg+0xca>
		if (serviceId == pService->ServiceID) {
  90409c:	2a5108        	l16ui	a10, a5, 16
  90409f:	78a969        	bne	a10, a8, 90410c <HTCProcessConnectMsg+0xc0>
			if (pMsg->ServiceMetaLength != 0) {
  9040a2:	2d3008        	l8ui	a13, a3, 8
				pMetaDataIN = ((A_UINT8 *)pMsg) + sizeof(HTC_CONNECT_SERVICE_MSG);
  9040a5:	c080      	movi.n	a8, 0
  9040a7:	ba3c      	addi.n	a12, a3, 10
  9040a9:	0d8c38        	moveqz	a12, a8, a13
			connectStatus = pService->ProcessConnect(pService,
  9040ac:	8853      	l32i.n	a8, a5, 12
  9040ae:	df10      	mov.n	a15, a1
  9040b0:	ba4e      	addi.n	a14, a4, 10
  9040b2:	055a02        	or	a10, a5, a5
  9040b5:	0b8000        	callx8	a8
			if (HTC_SERVICE_SUCCESS == connectStatus) {
  9040b8:	65a05c        	bnez	a10, 904118 <HTCProcessConnectMsg+0xcc>
				pRspMsg->ServiceMetaLength = (A_UINT8)metaDataOutLen;
  9040bb:	8810      	l32i.n	a8, a1, 0
  9040bd:	284408        	s8i	a8, a4, 8
				pRspMsg->EndpointID = pHTC->CurrentEpIndex;
  9040c0:	292288        	l32i	a9, a2, 0x220
  9040c3:	294405        	s8i	a9, a4, 5
				pRspMsg->MaxMsgSize = adf_os_htons((A_UINT16)pService->MaxSvcMsgSize);
  9040c6:	285014        	l8ui	a8, a5, 20
  9040c9:	284406        	s8i	a8, a4, 6
  9040cc:	285015        	l8ui	a8, a5, 21
  9040cf:	284407        	s8i	a8, a4, 7
  9040d2:	0f9811        	slli	a8, a9, 1
  9040d5:	a988      	add.n	a8, a8, a9
  9040d7:	0d8811        	slli	a8, a8, 3
  9040da:	a828      	add.n	a8, a2, a8
				pHTC->Endpoints[pHTC->CurrentEpIndex].pService = pService;
  9040dc:	9582      	s32i.n	a5, a8, 8
				pHTC->Endpoints[pHTC->CurrentEpIndex].ConnectionFlags = pMsg->ConnectionFlags;
  9040de:	2b3004        	l8ui	a11, a3, 4
  9040e1:	08bc11        	slli	a12, a11, 8
  9040e4:	2b3005        	l8ui	a11, a3, 5
  9040e7:	0cbb02        	or	a11, a11, a12
  9040ea:	2b8508        	s16i	a11, a8, 16
				pHTC->Endpoints[pHTC->CurrentEpIndex].DownLinkPipeID = pMsg->DownLinkPipeID;
  9040ed:	2b3006        	l8ui	a11, a3, 6
  9040f0:	2b8418        	s8i	a11, a8, 24
				pHTC->Endpoints[pHTC->CurrentEpIndex].UpLinkPipeID = pMsg->UpLinkPipeID;
  9040f3:	233007        	l8ui	a3, a3, 7
  9040f6:	238419        	s8i	a3, a8, 25
				pService->ServiceFlags |= HTC_SERVICE_FLAGS_CONNECTED;
  9040f9:	235109        	l16ui	a3, a5, 18
  9040fc:	c081      	movi.n	a8, 1
  9040fe:	083302        	or	a3, a3, a8
  904101:	235509        	s16i	a3, a5, 18
				pHTC->CurrentEpIndex++;
  904104:	b193      	addi.n	a3, a9, 1
  904106:	232688        	s32i	a3, a2, 0x220
  904109:	60000b        	j	904118 <HTCProcessConnectMsg+0xcc>
		pService = pService->pNext;
  90410c:	8550      	l32i.n	a5, a5, 0
	while (pService) {
  90410e:	655f84        	bnez	a5, 904096 <HTCProcessConnectMsg+0x4a>
	A_UINT8 connectStatus = HTC_SERVICE_NOT_FOUND;
  904111:	c0a1      	movi.n	a10, 1
  904113:	600001        	j	904118 <HTCProcessConnectMsg+0xcc>
			connectStatus = HTC_SERVICE_NO_RESOURCES;
  904116:	c0a3      	movi.n	a10, 3
	pRspMsg->Status = connectStatus;
  904118:	2a4404        	s8i	a10, a4, 4
	HTC_SendMsg(pHTC, ENDPOINT0, pBuffer);
  90411b:	14716e        	l32r	a4, 8e06d4 <_bss_end+0x3d2ecc>
  90411e:	dc60      	mov.n	a12, a6
  904120:	234289        	l32i	a3, a4, 0x224
  904123:	c0b0      	movi.n	a11, 0
  904125:	da20      	mov.n	a10, a2
  904127:	0b3000        	callx8	a3
  90412a:	d10f      	retw.n

0090412c <HTCProcessConfigPipeMsg>:
{
  90412c:	6c1004        	entry	a1, 32
	pBuffer = HTCAllocMsgBuffer(pHTC);
  90412f:	022a02        	or	a10, a2, a2
  904132:	5bff4b        	call8	903e60 <HTCAllocMsgBuffer>
  904135:	c0b4      	movi.n	a11, 4
  904137:	d6a0      	mov.n	a6, a10
  904139:	5bfd2d        	call8	9035f0 <__adf_nbuf_put_tail>
	A_MEMZERO(pRspMsg,sizeof(HTC_CONFIG_PIPE_RESPONSE_MSG));
  90413c:	15716e        	l32r	a5, 8e06f4 <_bss_end+0x3d2eec>
  90413f:	c0b0      	movi.n	a11, 0
  904141:	8854      	l32i.n	a8, a5, 16
  904143:	c0c4      	movi.n	a12, 4
  904145:	d4a0      	mov.n	a4, a10
  904147:	0b8000        	callx8	a8
	pRspMsg->MessageID = adf_os_htons(HTC_MSG_CONFIG_PIPE_RESPONSE_ID);
  90414a:	c080      	movi.n	a8, 0
  90414c:	284400        	s8i	a8, a4, 0
  90414f:	280a06        	movi	a8, 6
  904152:	284401        	s8i	a8, a4, 1
	pRspMsg->PipeID = pMsg->PipeID;
  904155:	2b3002        	l8ui	a11, a3, 2
  904158:	2b4402        	s8i	a11, a4, 2
	if ( HIF_is_pipe_supported(pHTC->hifHandle, pMsg->PipeID) ) {
  90415b:	28527d        	l32i	a8, a5, 0x1f4
  90415e:	2a229a        	l32i	a10, a2, 0x268
  904161:	0b8000        	callx8	a8
  904164:	c9a4      	beqz.n	a10, 90417c <HTCProcessConfigPipeMsg+0x50>
		pRspMsg->Status = 0;
  904166:	c080      	movi.n	a8, 0
  904168:	284403        	s8i	a8, a4, 3
	if ( (pHTC->TotalCreditsAssigned + pMsg->CreditCount) <= pHTC->TotalCredits ) {
  90416b:	2c3003        	l8ui	a12, a3, 3
  90416e:	282295        	l32i	a8, a2, 0x254
  904171:	292294        	l32i	a9, a2, 0x250
  904174:	a8c8      	add.n	a8, a12, a8
  904176:	78921a        	blt	a9, a8, 904194 <HTCProcessConfigPipeMsg+0x68>
  904179:	600004        	j	904181 <HTCProcessConfigPipeMsg+0x55>
		pRspMsg->Status = 1;
  90417c:	c031      	movi.n	a3, 1
  90417e:	600014        	j	904196 <HTCProcessConfigPipeMsg+0x6a>
		pHTC->TotalCreditsAssigned += pMsg->CreditCount;
  904181:	282695        	s32i	a8, a2, 0x254
	HIF_config_pipe(pHTC->hifHandle, pMsg->PipeID, pMsg->CreditCount);
  904184:	24527a        	l32i	a4, a5, 0x1e8
  904187:	2b3002        	l8ui	a11, a3, 2
  90418a:	2a229a        	l32i	a10, a2, 0x268
  90418d:	0b4000        	callx8	a4
  904190:	600005        	j	904199 <HTCProcessConfigPipeMsg+0x6d>
  904193:	00c032        	sext	a0, a12, 7
		pRspMsg->Status = 2;
  904196:	234403        	s8i	a3, a4, 3
	HTC_SendMsg(pHTC, ENDPOINT0, pBuffer);
  904199:	235289        	l32i	a3, a5, 0x224
  90419c:	dc60      	mov.n	a12, a6
  90419e:	c0b0      	movi.n	a11, 0
  9041a0:	da20      	mov.n	a10, a2
  9041a2:	0b3000        	callx8	a3
  9041a5:	d10f      	retw.n
	...

009041a8 <HTCControlSvcProcessMsg>:
{
  9041a8:	6c1006        	entry	a1, 48
	adf_os_assert(hdr_buf == ADF_NBUF_NULL);
  9041ab:	c832      	beqz.n	a3, 9041b1 <HTCControlSvcProcessMsg+0x9>
  9041ad:	63fffc        	j	9041ad <HTCControlSvcProcessMsg+0x5>
  9041b0:	00b41b        	excw
    __adf_nbuf_peek_header(buf, addr, len);
  9041b3:	dc10      	mov.n	a12, a1
  9041b5:	da40      	mov.n	a10, a4
  9041b7:	5bfd33        	call8	903684 <__adf_nbuf_peek_header>
	pMsg = (HTC_UNKNOWN_MSG *)anbdata;
  9041ba:	8b11      	l32i.n	a11, a1, 4
	switch ( adf_os_ntohs(pMsg->MessageID) ) {
  9041bc:	28b000        	l8ui	a8, a11, 0
  9041bf:	088611        	slli	a6, a8, 8
  9041c2:	28b001        	l8ui	a8, a11, 1
  9041c5:	068802        	or	a8, a8, a6
		setupComplete = TRUE;
  9041c8:	c061      	movi.n	a6, 1
	switch ( adf_os_ntohs(pMsg->MessageID) ) {
  9041ca:	688416        	beqi	a8, 4, 9041e4 <HTCControlSvcProcessMsg+0x3c>
  9041cd:	68850c        	beqi	a8, 5, 9041dd <HTCControlSvcProcessMsg+0x35>
  9041d0:	69820e        	bnei	a8, 2, 9041e2 <HTCControlSvcProcessMsg+0x3a>
		HTCProcessConnectMsg(pHTC, (HTC_CONNECT_SERVICE_MSG *)pMsg);
  9041d3:	da50      	mov.n	a10, a5
  9041d5:	5bff9d        	call8	90404c <HTCProcessConnectMsg>
  9041d8:	600006        	j	9041e2 <HTCControlSvcProcessMsg+0x3a>
  9041db:	0000da        	excw
		HTCProcessConfigPipeMsg(pHTC, (HTC_CONFIG_PIPE_MSG *)pMsg);
  9041de:	505bff        	call0	91b1dc <_etext+0x1019d>
  9041e1:	d3d6      	excw
	A_BOOL setupComplete = FALSE;
  9041e3:	302852        	excw
	if (pHTC->StateFlags & HTC_STATE_SETUP_COMPLETE) {
  9041e6:	9213      	s32i.n	a2, a1, 12
  9041e8:	716e7f        	bbsi	a6, 1, 90426b <AdjustCreditThreshold+0x3b>
  9041eb:	870b      	l32i.n	a7, a0, 44
		HTC_ReturnBuffers(pHTC, ENDPOINT0,pBuffers);
  9041ed:	223287        	l32i	a2, a3, 0x21c
  9041f0:	dc40      	mov.n	a12, a4
  9041f2:	c0b0      	movi.n	a11, 0
  9041f4:	da50      	mov.n	a10, a5
  9041f6:	60001b        	j	904215 <HTCControlSvcProcessMsg+0x6d>
    return __adf_nbuf_push_head(buf, size);
  9041f9:	c0b8      	movi.n	a11, 8
  9041fb:	da40      	mov.n	a10, a4
  9041fd:	5bfc71        	call8	9033c4 <__adf_nbuf_push_head>
		HIF_return_recv_buf(pHTC->hifHandle, pHTC->Endpoints[EndpointID].UpLinkPipeID, pBuffers);
  904200:	0f2811        	slli	a8, a2, 1
  904203:	a288      	add.n	a8, a8, a2
  904205:	0d8811        	slli	a8, a8, 3
  904208:	a858      	add.n	a8, a5, a8
  90420a:	22327c        	l32i	a2, a3, 0x1f0
  90420d:	2b8019        	l8ui	a11, a8, 25
  904210:	2a529a        	l32i	a10, a5, 0x268
  904213:	dc40      	mov.n	a12, a4
  904215:	0b2000        	callx8	a2
	if (setupComplete) {
  904218:	c961      	beqz.n	a6, 90422d <HTCControlSvcProcessMsg+0x85>
		pHTC->StateFlags |= HTC_STATE_SETUP_COMPLETE;
  90421a:	225292        	l32i	a2, a5, 0x248
  90421d:	c031      	movi.n	a3, 1
  90421f:	032202        	or	a2, a2, a3
  904222:	225692        	s32i	a2, a5, 0x248
		if (pHTC->SetupCompleteCb != NULL) {
  904225:	225293        	l32i	a2, a5, 0x24c
  904228:	c821      	beqz.n	a2, 90422d <HTCControlSvcProcessMsg+0x85>
			pHTC->SetupCompleteCb();
  90422a:	0b2000        	callx8	a2
  90422d:	d10f      	retw.n
	...

00904230 <AdjustCreditThreshold>:
					  buf,
					  pHTC->Endpoints[current_eid].pService->ServiceCtx);
}

LOCAL void AdjustCreditThreshold(HTC_ENDPOINT  *pEndpoint)
{
  904230:	6c1004        	entry	a1, 32
	A_INT16 creditsOutstanding = pEndpoint->CreditsToReturn + pEndpoint->CreditsConsumed;
  904233:	292105        	l16ui	a9, a2, 10
  904236:	282100        	l16ui	a8, a2, 0
  904239:	a988      	add.n	a8, a8, a9
        /* set the new threshold based on the number of credits that have been consumed
         * and which have not been returned by the app.
         * Note: it is okay for this threshold to be zero which indicates no threshold
         * is in use */
	switch (pEndpoint->ConnectionFlags & HTC_CONNECT_FLAGS_THRESHOLD_LEVEL_MASK) {
  90423b:	292106        	l16ui	a9, a2, 12
	A_INT16 creditsOutstanding = pEndpoint->CreditsToReturn + pEndpoint->CreditsConsumed;
  90423e:	088832        	sext	a8, a8, 15
	switch (pEndpoint->ConnectionFlags & HTC_CONNECT_FLAGS_THRESHOLD_LEVEL_MASK) {
  904241:	090941        	extui	a9, a9, 0, 2
  904244:	689110        	beqi	a9, 1, 904258 <AdjustCreditThreshold+0x28>
  904247:	c895      	beqz.n	a9, 904250 <AdjustCreditThreshold+0x20>
  904249:	689213        	beqi	a9, 2, 904260 <AdjustCreditThreshold+0x30>
  90424c:	60001b        	j	90426b <AdjustCreditThreshold+0x3b>
  90424f:	000828        	mull	a8, a0, a0
        case HTC_CONNECT_FLAGS_THRESHOLD_LEVEL_ONE_FOURTH :
		creditsOutstanding >>= 2;
  904252:	126000        	l32r	a2, 8dc254 <_bss_end+0x3cea4c>
		break;
  904255:	140000        	l32r	a4, 8c4258 <_bss_end+0x3b6a50>
        case HTC_CONNECT_FLAGS_THRESHOLD_LEVEL_ONE_HALF :
		creditsOutstanding >>= 1;
  904258:	081812        	srai	a8, a8, 1
		break;
  90425b:	60000c        	j	90426b <AdjustCreditThreshold+0x3b>
  90425e:	00000f        	subx8	a0, a0, a0
        case HTC_CONNECT_FLAGS_THRESHOLD_LEVEL_THREE_FOURTHS :
		creditsOutstanding = (creditsOutstanding * 3) >> 2;
  904261:	8911      	l32i.n	a9, a1, 4
  904263:	a898      	add.n	a8, a9, a8
  904265:	082812        	srai	a8, a8, 2
  904268:	088832        	sext	a8, a8, 15
		break;
		/* default case is unity */
	}

	pEndpoint->CreditReturnThreshhold = creditsOutstanding;
  90426b:	282504        	s16i	a8, a2, 8
  90426e:	d10f      	retw.n

00904270 <_HTC_SendMsg>:
{
  904270:	6c1008        	entry	a1, 64
    return (__adf_nbuf_get_priv(buf));
  904273:	044a02        	or	a10, a4, a4
  904276:	5bfc79        	call8	90345c <__adf_nbuf_get_priv>
  904279:	d5a0      	mov.n	a5, a10
    return (__adf_nbuf_len(buf));
  90427b:	da40      	mov.n	a10, a4
  90427d:	5bfcf9        	call8	903664 <__adf_nbuf_len>
  904280:	9a10      	s32i.n	a10, a1, 0
    return __adf_nbuf_push_head(buf, size);
  904282:	c0b8      	movi.n	a11, 8
  904284:	da40      	mov.n	a10, a4
  904286:	5bfc4f        	call8	9033c4 <__adf_nbuf_push_head>
	ctx->htc_flags |= HTC_FLAGS_BUF_HDR;
  904289:	285001        	l8ui	a8, a5, 1
  90428c:	c490      	movi.n	a9, 64
  90428e:	098802        	or	a8, a8, a9
  904291:	285401        	s8i	a8, a5, 1
	ctx->end_point = EndpointID;
  904294:	030847        	extui	a8, a3, 0, 8
  904297:	285400        	s8i	a8, a5, 0
	pHTCHdr->Flags = 0;
  90429a:	c050      	movi.n	a5, 0
  90429c:	25a401        	s8i	a5, a10, 1
		pipeMaxLen = HIF_get_max_msg_len(pHTC->hifHandle,
  90429f:	0f3511        	slli	a5, a3, 1
  9042a2:	a355      	add.n	a5, a5, a3
	pHTCHdr->EndpointID = EndpointID;
  9042a4:	28a400        	s8i	a8, a10, 0
		pipeMaxLen = HIF_get_max_msg_len(pHTC->hifHandle,
  9042a7:	0d5511        	slli	a5, a5, 3
  9042aa:	18716e        	l32r	a8, 8e0864 <_bss_end+0x3d305c>
  9042ad:	a525      	add.n	a5, a2, a5
  9042af:	2b5018        	l8ui	a11, a5, 24
  9042b2:	28827e        	l32i	a8, a8, 0x1f8
  9042b5:	d6a0      	mov.n	a6, a10
  9042b7:	2a229a        	l32i	a10, a2, 0x268
  9042ba:	0b8000        	callx8	a8
  9042bd:	d5a0      	mov.n	a5, a10
    return (__adf_nbuf_headroom(buf));
  9042bf:	da40      	mov.n	a10, a4
  9042c1:	5bfcde        	call8	90363c <__adf_nbuf_headroom>
		roomForPipeMaxLen = pipeMaxLen - adf_nbuf_headroom(pBuffers) - adf_nbuf_len(pBuffers);
  9042c4:	0a550c        	sub	a5, a5, a10
    return (__adf_nbuf_len(buf));
  9042c7:	da40      	mov.n	a10, a4
  9042c9:	5bfce6        	call8	903664 <__adf_nbuf_len>
  9042cc:	0a550c        	sub	a5, a5, a10
    return (__adf_nbuf_tailroom(buf));
  9042cf:	da40      	mov.n	a10, a4
  9042d1:	5bfcdd        	call8	903648 <__adf_nbuf_tailroom>
		room = adf_os_min( adf_nbuf_tailroom(pBuffers), roomForPipeMaxLen);
  9042d4:	75ab06        	bgeu	a10, a5, 9042de <_HTC_SendMsg+0x6e>
  9042d7:	da40      	mov.n	a10, a4
  9042d9:	5bfcdb        	call8	903648 <__adf_nbuf_tailroom>
  9042dc:	d5a0      	mov.n	a5, a10
		if (room < (int)(sizeof(HTC_CREDIT_REPORT) + sizeof(HTC_RECORD_HDR))) {
  9042de:	6b5402        	bgei	a5, 4, 9042e4 <_HTC_SendMsg+0x74>
  9042e1:	6000ad        	j	904392 <_HTC_SendMsg+0x122>
		creditsPendingMap = pHTC->EpCreditPendingMap;
  9042e4:	272286        	l32i	a7, a2, 0x218
		if (creditsPendingMap) {
  9042e7:	6470a7        	beqz	a7, 904392 <_HTC_SendMsg+0x122>
    return __adf_nbuf_put_tail(buf, size);
  9042ea:	c0b2      	movi.n	a11, 2
  9042ec:	da40      	mov.n	a10, a4
  9042ee:	5bfcc0        	call8	9035f0 <__adf_nbuf_put_tail>
			pRecHdr->RecordID = HTC_RECORD_CREDITS;
  9042f1:	c091      	movi.n	a9, 1
  9042f3:	29a400        	s8i	a9, a10, 0
			pRecHdr->Length = 0;
  9042f6:	c090      	movi.n	a9, 0
  9042f8:	29a401        	s8i	a9, a10, 1
  9042fb:	dea0      	mov.n	a14, a10
			room -= sizeof(HTC_RECORD_HDR);
  9042fd:	255cfe        	addi	a5, a5, -2
  904300:	b429      	addi.n	a9, a2, 4
			totalReportBytes += sizeof(HTC_RECORD_HDR);
  904302:	c0c2      	movi.n	a12, 2
			for (i = 0;
  904304:	c0d0      	movi.n	a13, 0
  904306:	600069        	j	904373 <_HTC_SendMsg+0x103>
				compareMask = (1 << i);
  904309:	c081      	movi.n	a8, 1
  90430b:	00d104        	ssl	a13
  90430e:	008f1a        	sll	a15, a8
				if (compareMask & creditsPendingMap) {
  904311:	7f7059        	bnone	a7, a15, 90436e <_HTC_SendMsg+0xfe>
  904314:	c0b2      	movi.n	a11, 2
  904316:	da40      	mov.n	a10, a4
  904318:	9915      	s32i.n	a9, a1, 20
  90431a:	9c13      	s32i.n	a12, a1, 12
  90431c:	9d12      	s32i.n	a13, a1, 8
  90431e:	9e14      	s32i.n	a14, a1, 16
  904320:	9f11      	s32i.n	a15, a1, 4
  904322:	5bfcb3        	call8	9035f0 <__adf_nbuf_put_tail>
					pCreditRpt->EndpointID = i;
  904325:	8d12      	l32i.n	a13, a1, 8
					creditsPendingMap &= ~(compareMask);
  904327:	8f11      	l32i.n	a15, a1, 4
					pCreditRpt->EndpointID = i;
  904329:	2da400        	s8i	a13, a10, 0
					pCreditRpt->Credits = (A_UINT8)pHTC->Endpoints[i].CreditsToReturn;
  90432c:	8915      	l32i.n	a9, a1, 20
					creditsPendingMap &= ~(compareMask);
  90432e:	c7bf      	movi.n	a11, -1
  904330:	0fbf03        	xor	a15, a11, a15
					pCreditRpt->Credits = (A_UINT8)pHTC->Endpoints[i].CreditsToReturn;
  904333:	2b9100        	l16ui	a11, a9, 0
					creditsPendingMap &= ~(compareMask);
  904336:	0f7701        	and	a7, a7, a15
					pCreditRpt->Credits = (A_UINT8)pHTC->Endpoints[i].CreditsToReturn;
  904339:	2ba401        	s8i	a11, a10, 1
					pHTC->Endpoints[i].CreditsToReturn = 0;
  90433c:	c0a0      	movi.n	a10, 0
  90433e:	2a9500        	s16i	a10, a9, 0
					CHECK_AND_ADJUST_CREDIT_THRESHOLD(&pHTC->Endpoints[i]);
  904341:	2a9106        	l16ui	a10, a9, 12
  904344:	8c13      	l32i.n	a12, a1, 12
  904346:	8e14      	l32i.n	a14, a1, 16
  904348:	7da710        	bbci	a10, 29, 90435c <_HTC_SendMsg+0xec>
  90434b:	da90      	mov.n	a10, a9
  90434d:	9915      	s32i.n	a9, a1, 20
  90434f:	9d12      	s32i.n	a13, a1, 8
  904351:	5bffb7        	call8	904230 <AdjustCreditThreshold>
  904354:	8e14      	l32i.n	a14, a1, 16
  904356:	8d12      	l32i.n	a13, a1, 8
  904358:	8c13      	l32i.n	a12, a1, 12
  90435a:	8915      	l32i.n	a9, a1, 20
					pRecHdr->Length += sizeof(HTC_CREDIT_REPORT);
  90435c:	2ae001        	l8ui	a10, a14, 1
					room -= sizeof(HTC_CREDIT_REPORT);
  90435f:	255cfe        	addi	a5, a5, -2
					pRecHdr->Length += sizeof(HTC_CREDIT_REPORT);
  904362:	2aac02        	addi	a10, a10, 2
  904365:	2ae401        	s8i	a10, a14, 1
					totalReportBytes += sizeof(HTC_CREDIT_REPORT);
  904368:	2ccc02        	addi	a12, a12, 2
					if ( room < sizeof(HTC_CREDIT_REPORT) ) {
  90436b:	6e5209        	bltui	a5, 2, 904378 <_HTC_SendMsg+0x108>
			     i++) {
  90436e:	b1dd      	addi.n	a13, a13, 1
  904370:	299c18        	addi	a9, a9, 24
			for (i = 0;
  904373:	c871      	beqz.n	a7, 904378 <_HTC_SendMsg+0x108>
			     (creditsPendingMap != 0) && (room >= (int)sizeof(HTC_CREDIT_REPORT));
  904375:	6b5290        	bgei	a5, 2, 904309 <_HTC_SendMsg+0x99>
			pHTC->EpCreditPendingMap = creditsPendingMap;
  904378:	272686        	s32i	a7, a2, 0x218
		if (totalReportBytes <= 0) {
  90437b:	6ac113        	blti	a12, 1, 904392 <_HTC_SendMsg+0x122>
		pHTCHdr->Flags |= HTC_FLAGS_RECV_TRAILER;
  90437e:	256001        	l8ui	a5, a6, 1
  904381:	c082      	movi.n	a8, 2
  904383:	085502        	or	a5, a5, a8
  904386:	256401        	s8i	a5, a6, 1
		totsz += totalReportBytes;
  904389:	8510      	l32i.n	a5, a1, 0
		pHTCHdr->ControlBytes[0] = totalReportBytes;
  90438b:	2c6404        	s8i	a12, a6, 4
		totsz += totalReportBytes;
  90438e:	ac55      	add.n	a5, a5, a12
  904390:	9510      	s32i.n	a5, a1, 0
	pHTCHdr->PayloadLen = adf_os_htons(totsz);
  904392:	8810      	l32i.n	a8, a1, 0
	HIF_send_buffer(pHTC->hifHandle, pHTC->Endpoints[EndpointID].DownLinkPipeID, pBuffers);
  904394:	2a229a        	l32i	a10, a2, 0x268
	pHTCHdr->PayloadLen = adf_os_htons(totsz);
  904397:	08074f        	extui	a7, a8, 0, 16
  90439a:	078514        	srli	a5, a7, 8
  90439d:	256402        	s8i	a5, a6, 2
	HIF_send_buffer(pHTC->hifHandle, pHTC->Endpoints[EndpointID].DownLinkPipeID, pBuffers);
  9043a0:	0f3511        	slli	a5, a3, 1
  9043a3:	a353      	add.n	a3, a5, a3
  9043a5:	0d3311        	slli	a3, a3, 3
  9043a8:	15716e        	l32r	a5, 8e0960 <_bss_end+0x3d3158>
	pHTCHdr->PayloadLen = adf_os_htons(totsz);
  9043ab:	276403        	s8i	a7, a6, 3
	HIF_send_buffer(pHTC->hifHandle, pHTC->Endpoints[EndpointID].DownLinkPipeID, pBuffers);
  9043ae:	a323      	add.n	a3, a2, a3
  9043b0:	25527b        	l32i	a5, a5, 0x1ec
  9043b3:	2b3018        	l8ui	a11, a3, 24
  9043b6:	044c02        	or	a12, a4, a4
  9043b9:	0b5000        	callx8	a5
  9043bc:	d10f      	retw.n
	...

009043c0 <HTCMsgRecvHandler>:

}

/* callback from the mailbox hardware layer when a full message arrives */
LOCAL void HTCMsgRecvHandler(adf_nbuf_t hdr_buf, adf_nbuf_t buffer, void *context)
{
  9043c0:	6c1008        	entry	a1, 64
  9043c3:	9315      	s32i.n	a3, a1, 20
	a_uint32_t anblen;
	HTC_FRAME_HDR *pHTCHdr;
	HTC_CONTEXT *pHTC = (HTC_CONTEXT *)context;
	adf_nbuf_t tmp_nbuf;

	if (hdr_buf == ADF_NBUF_NULL) {
  9043c5:	022339        	movnez	a3, a2, a2
    __adf_nbuf_peek_header(buf, addr, len);
  9043c8:	dc10      	mov.n	a12, a1
  9043ca:	b41b      	addi.n	a11, a1, 4
  9043cc:	da30      	mov.n	a10, a3
  9043ce:	5bfcad        	call8	903684 <__adf_nbuf_peek_header>
	else {
		tmp_nbuf = hdr_buf;
	}

	adf_nbuf_peek_header(tmp_nbuf, &anbdata, &anblen);
	pHTCHdr = (HTC_FRAME_HDR *)anbdata;
  9043d1:	8511      	l32i.n	a5, a1, 4
	if (hdr_buf == ADF_NBUF_NULL) {
  9043d3:	d730      	mov.n	a7, a3
	eid = pHTCHdr->EndpointID;

	pEndpoint = &pHTC->Endpoints[eid];
	eidMask = 1 << eid;

	if (pHTCHdr->Flags & HTC_FLAGS_CREDIT_REDISTRIBUTION) {
  9043d5:	265001        	l8ui	a6, a5, 1
  9043d8:	7d6702        	bbci	a6, 29, 9043de <HTCMsgRecvHandler+0x1e>
  9043db:	60009d        	j	90447c <HTCMsgRecvHandler+0xbc>
	eid = pHTCHdr->EndpointID;
  9043de:	235000        	l8ui	a3, a5, 0
		 * Byte 0 */
		RedistributeCredit(tmp_nbuf, pHTCHdr->ControlBytes[0]);
		return;
	}

	if (pHTC->StateFlags & HTC_STATE_SETUP_COMPLETE) {
  9043e1:	254292        	l32i	a5, a4, 0x248
  9043e4:	03094f        	extui	a9, a3, 0, 16
  9043e7:	7f5711        	bbci	a5, 31, 9043fc <HTCMsgRecvHandler+0x3c>
  9043ea:	0f9511        	slli	a5, a9, 1
  9043ed:	a955      	add.n	a5, a5, a9
  9043ef:	0d5511        	slli	a5, a5, 3
  9043f2:	a545      	add.n	a5, a4, a5
		/* after setup we keep track of credit consumption to allow us to
		 * adjust thresholds to reduce credit dribbling */
		pEndpoint->CreditsConsumed ++;
  9043f4:	2a5107        	l16ui	a10, a5, 14
  9043f7:	b1aa      	addi.n	a10, a10, 1
  9043f9:	2a5507        	s16i	a10, a5, 14
	pEndpoint = &pHTC->Endpoints[eid];
  9043fc:	0f9511        	slli	a5, a9, 1
  9043ff:	a955      	add.n	a5, a5, a9
  904401:	0d5511        	slli	a5, a5, 3
  904404:	b455      	addi.n	a5, a5, 4
	eidMask = 1 << eid;
  904406:	c091      	movi.n	a9, 1
	pEndpoint = &pHTC->Endpoints[eid];
  904408:	a545      	add.n	a5, a4, a5
  90440a:	9514      	s32i.n	a5, a1, 16
	/* from the design document, we put the endpoint into a "host-needs-credit" state
	 * when we receive a frame with the NEED_CREDIT_UPDATE flag set .
	 * if the host received credits through an opportunistic path, then it can
	 * issue a another frame with this bit cleared, this signals the target to clear
	 * the "host-needs-credit" state */
	if (pHTCHdr->Flags & HTC_FLAGS_NEED_CREDIT_UPDATE) {
  90440c:	096b01        	and	a11, a6, a9
	eidMask = 1 << eid;
  90440f:	003104        	ssl	a3
  904412:	00951a        	sll	a5, a9
  904415:	2a4285        	l32i	a10, a4, 0x214
  904418:	009104        	ssl	a9
  90441b:	00361a        	sll	a6, a3
	if (pHTCHdr->Flags & HTC_FLAGS_NEED_CREDIT_UPDATE) {
  90441e:	c9bb      	beqz.n	a11, 90443d <HTCMsgRecvHandler+0x7d>
		/* the host is running low (or is out) of credits on this
		 * endpoint, update mask */
		pHTC->EpHostNeedsCreditMap |= eidMask;
  904420:	05aa02        	or	a10, a10, a5
  904423:	2a4685        	s32i	a10, a4, 0x214
		/* check and set new threshold since host has reached a low credit situation */
		CHECK_AND_ADJUST_CREDIT_THRESHOLD(pEndpoint);
  904426:	a36a      	add.n	a10, a6, a3
  904428:	0daa11        	slli	a10, a10, 3
  90442b:	aa4a      	add.n	a10, a4, a10
  90442d:	2aa108        	l16ui	a10, a10, 16
  904430:	7da71e        	bbci	a10, 29, 904452 <HTCMsgRecvHandler+0x92>
  904433:	8a14      	l32i.n	a10, a1, 16
  904435:	5bff7e        	call8	904230 <AdjustCreditThreshold>
  904438:	600016        	j	904452 <HTCMsgRecvHandler+0x92>
  90443b:	0000c7        	excw
	} else {
		/* clear the flag */
		pHTC->EpHostNeedsCreditMap &= ~(eidMask);
  90443e:	cf05      	bnez.n	a0, 904477 <HTCMsgRecvHandler+0xb7>
  904440:	cc03      	bnez.n	a0, 904447 <HTCMsgRecvHandler+0x87>
  904442:	0caa01        	and	a10, a10, a12
  904445:	2a4685        	s32i	a10, a4, 0x214
		pEndpoint->CreditReturnThreshhold = 0;
  904448:	a36a      	add.n	a10, a6, a3
  90444a:	0daa11        	slli	a10, a10, 3
  90444d:	aa4a      	add.n	a10, a4, a10
  90444f:	2ba506        	s16i	a11, a10, 12
	 *        as the result of parsing this message.  In either case, if there are
	 *        pending credits and the host needs them, a credit report will be sent either through
	 *        the response message trailer or a NULL message through HTC_ReturnBuffers().
	 */

	pEndpoint->pService->ProcessRecvMsg(eid, hdr_buf, buffer, pEndpoint->pService->ServiceCtx);
  904452:	a366      	add.n	a6, a6, a3
  904454:	0d6611        	slli	a6, a6, 3
    return __adf_nbuf_pull_head(buf, size);
  904457:	c0b8      	movi.n	a11, 8
  904459:	da70      	mov.n	a10, a7
  90445b:	064608        	add	a6, a4, a6
  90445e:	5bfbe4        	call8	9033f0 <__adf_nbuf_pull_head>
  904461:	8662      	l32i.n	a6, a6, 8
  904463:	8c15      	l32i.n	a12, a1, 20
  904465:	8d66      	l32i.n	a13, a6, 24
  904467:	8761      	l32i.n	a7, a6, 4
  904469:	db20      	mov.n	a11, a2
  90446b:	033a02        	or	a10, a3, a3
  90446e:	0b7000        	callx8	a7

	/* Calls to HTC_ReturnBuffers drives the endpoint credit reporting state machine.
	 * We do not want to delay credits for too long in the event that the application is
	 * holding onto buffers for excessive periods of time.  This gives us "some" better
	 * opportunities to send up credits. */
	HTCCheckAndSendCreditReport(pHTC, eidMask, pEndpoint, eid);
  904471:	8c14      	l32i.n	a12, a1, 16
  904473:	dd30      	mov.n	a13, a3
  904475:	db50      	mov.n	a11, a5
  904477:	da40      	mov.n	a10, a4
  904479:	5bfe98        	call8	903edc <HTCCheckAndSendCreditReport>
  90447c:	d10f      	retw.n
	...

00904480 <RedistributeCredit>:
{
  904480:	6c1004        	entry	a1, 32
  904483:	d10f      	retw.n
  904485:	000000        	ill

00904488 <WMIServiceConnect>:
                                 HTC_ENDPOINT_ID eid,
                                 A_UINT8 *pDataIn,
                                 int LengthIn,
                                 A_UINT8 *pDataOut,
                                 int *pLengthOut)
{
  904488:	6c1004        	entry	a1, 32
	WMI_SVC_CONTEXT *pWMI = (WMI_SVC_CONTEXT *)pService->ServiceCtx;

        /* save the eid to use */
	pWMI->ControlEp = eid;
  90448b:	8826      	l32i.n	a8, a2, 24
  90448d:	938a      	s32i.n	a3, a8, 40
	return HTC_SERVICE_SUCCESS;
}
  90448f:	c020      	movi.n	a2, 0
  904491:	d10f      	retw.n
	...

00904494 <_WMI_GetPendingEventsCount>:

	return pWMI;
}

static int _WMI_GetPendingEventsCount(wmi_handle_t handle)
{
  904494:	6c1004        	entry	a1, 32
	WMI_SVC_CONTEXT *pWMI = (WMI_SVC_CONTEXT *)handle;
	return pWMI->PendingEvents;
}
  904497:	8222      	l32i.n	a2, a2, 8
  904499:	d10f      	retw.n
	...

0090449c <_WMI_GetControlEp>:

static int  _WMI_GetControlEp(wmi_handle_t handle)
{
  90449c:	6c1004        	entry	a1, 32
	WMI_SVC_CONTEXT *pWMI = (WMI_SVC_CONTEXT *)handle;
	return pWMI->ControlEp;
}
  90449f:	822a      	l32i.n	a2, a2, 40
  9044a1:	d10f      	retw.n
	...

009044a4 <_WMI_RegisterDispatchTable>:

static void _WMI_RegisterDispatchTable(wmi_handle_t handle,
				       WMI_DISPATCH_TABLE *pDispatchTable)
{
  9044a4:	6c1004        	entry	a1, 32
	WMI_SVC_CONTEXT *pWMI = (WMI_SVC_CONTEXT *)handle;

	if (NULL == pWMI->pDispatchHead) {
  9044a7:	882b      	l32i.n	a8, a2, 44
  9044a9:	cc83      	bnez.n	a8, 9044b0 <_WMI_RegisterDispatchTable+0xc>
		pWMI->pDispatchHead = pDispatchTable;
  9044ab:	932b      	s32i.n	a3, a2, 44
  9044ad:	600003        	j	9044b4 <_WMI_RegisterDispatchTable+0x10>
		pWMI->pDispatchTail = pDispatchTable;
	} else {
		/* link to the tail */
		pWMI->pDispatchTail->pNext = pDispatchTable;
  9044b0:	882c      	l32i.n	a8, a2, 48
  9044b2:	9380      	s32i.n	a3, a8, 0
		pWMI->pDispatchTail = pDispatchTable;
  9044b4:	932c      	s32i.n	a3, a2, 48
  9044b6:	d10f      	retw.n

009044b8 <_WMI_Shutdown>:

	HTC_SendMsg(pWMI->HtcHandle, pWMI->ControlEp, pEvt);
}

static void _WMI_Shutdown(wmi_handle_t handle)
{
  9044b8:	6c1004        	entry	a1, 32
  9044bb:	d10f      	retw.n
  9044bd:	000000        	ill

009044c0 <WMIRecvMessageHandler>:
{
  9044c0:	6c1006        	entry	a1, 48
	adf_os_assert(hdr_buf == ADF_NBUF_NULL);
  9044c3:	c832      	beqz.n	a3, 9044c9 <WMIRecvMessageHandler+0x9>
  9044c5:	63fffc        	j	9044c5 <WMIRecvMessageHandler+0x5>
  9044c8:	00da40        	extui	a10, a0, 13, 1
    return (__adf_nbuf_len(buf));
  9044cb:	5bfc66        	call8	903664 <__adf_nbuf_len>
  9044ce:	d3a0      	mov.n	a3, a10
		if (length < sizeof(WMI_CMD_HDR)) {
  9044d0:	6ea459        	bltui	a10, 4, 90452d <WMIRecvMessageHandler+0x6d>
    __adf_nbuf_peek_header(buf, addr, len);
  9044d3:	dc10      	mov.n	a12, a1
  9044d5:	b41b      	addi.n	a11, a1, 4
  9044d7:	da40      	mov.n	a10, a4
  9044d9:	5bfc6a        	call8	903684 <__adf_nbuf_peek_header>
		cmdHdr = (WMI_CMD_HDR *)anbdata;
  9044dc:	8d11      	l32i.n	a13, a1, 4
		length = length - sizeof(WMI_CMD_HDR);
  9044de:	2e3cfc        	addi	a14, a3, -4
		cmd = adf_os_ntohs(cmdHdr->commandId);
  9044e1:	2bd000        	l8ui	a11, a13, 0
  9044e4:	23d001        	l8ui	a3, a13, 1
		seq = adf_os_ntohs(cmdHdr->seqNo);
  9044e7:	2cd002        	l8ui	a12, a13, 2
		cmd = adf_os_ntohs(cmdHdr->commandId);
  9044ea:	08bb11        	slli	a11, a11, 8
  9044ed:	0b3b02        	or	a11, a3, a11
		seq = adf_os_ntohs(cmdHdr->seqNo);
  9044f0:	23d003        	l8ui	a3, a13, 3
  9044f3:	08cc11        	slli	a12, a12, 8
		pCurrentTable = pWMI->pDispatchHead;
  9044f6:	895b      	l32i.n	a9, a5, 44
		seq = adf_os_ntohs(cmdHdr->seqNo);
  9044f8:	0c3c02        	or	a12, a3, a12
		pCmdBuffer = anbdata + sizeof(WMI_CMD_HDR);
  9044fb:	b4dd      	addi.n	a13, a13, 4
		while (pCurrentTable != NULL) {
  9044fd:	600029        	j	90452a <WMIRecvMessageHandler+0x6a>
			pCurrentEntry = pCurrentTable->pTable;
  904500:	8893      	l32i.n	a8, a9, 12
			for (i = 0; i < pCurrentTable->NumberOfEntries; i++, pCurrentEntry++) {
  904502:	8392      	l32i.n	a3, a9, 8
  904504:	c0a0      	movi.n	a10, 0
  904506:	600016        	j	904520 <WMIRecvMessageHandler+0x60>
				if (pCurrentEntry->CmdID == cmd) {
  904509:	2f8102        	l16ui	a15, a8, 4
  90450c:	7bf90c        	bne	a15, a11, 90451c <WMIRecvMessageHandler+0x5c>
					pCmdHandler = pCurrentEntry->pCmdHandler;
  90450f:	8f80      	l32i.n	a15, a8, 0
					if ((pCurrentEntry->CheckLength != 0) &&
  904511:	288103        	l16ui	a8, a8, 6
  904514:	c88e      	beqz.n	a8, 904526 <WMIRecvMessageHandler+0x66>
  904516:	78e20e        	blt	a14, a8, 904528 <WMIRecvMessageHandler+0x68>
  904519:	600009        	j	904526 <WMIRecvMessageHandler+0x66>
			for (i = 0; i < pCurrentTable->NumberOfEntries; i++, pCurrentEntry++) {
  90451c:	b1aa      	addi.n	a10, a10, 1
  90451e:	b888      	addi.n	a8, a8, 8
  904520:	73a2e5        	blt	a10, a3, 904509 <WMIRecvMessageHandler+0x49>
  904523:	600001        	j	904528 <WMIRecvMessageHandler+0x68>
			if (pCmdHandler != NULL) {
  904526:	cdf4      	bnez.n	a15, 90453e <WMIRecvMessageHandler+0x7e>
			pCurrentTable = pCurrentTable->pNext;
  904528:	8990      	l32i.n	a9, a9, 0
		while (pCurrentTable != NULL) {
  90452a:	659fd2        	bnez	a9, 904500 <WMIRecvMessageHandler+0x40>
	HTC_ReturnBuffers(pWMI->HtcHandle, EndPt, pHTCBuf);
  90452d:	13716e        	l32r	a3, 8e0ae8 <_bss_end+0x3d32e0>
  904530:	8a50      	l32i.n	a10, a5, 0
  904532:	233287        	l32i	a3, a3, 0x21c
  904535:	dc40      	mov.n	a12, a4
  904537:	db20      	mov.n	a11, a2
  904539:	0b3000        	callx8	a3
}
  90453c:	d10f      	retw.n
		pCmdHandler(pContext, cmd, seq, pCmdBuffer, length);
  90453e:	8a91      	l32i.n	a10, a9, 4
  904540:	0bf000        	callx8	a15
  904543:	63ffe6        	j	90452d <WMIRecvMessageHandler+0x6d>
	...

00904548 <_WMI_SendCompleteHandler>:
{
  904548:	6c1004        	entry	a1, 32
    return (__adf_nbuf_get_priv(buf));
  90454b:	da30      	mov.n	a10, a3
  90454d:	5bfbc3        	call8	90345c <__adf_nbuf_get_priv>
	if ( ctx->EventClass == WMI_EVT_CLASS_CMD_EVENT ) {
  904550:	8ba1      	l32i.n	a11, a10, 4
		poolId = POOL_ID_WMI_SVC_CMD_REPLY;
  904552:	c091      	movi.n	a9, 1
  904554:	c080      	movi.n	a8, 0
  904556:	0b9838        	moveqz	a8, a9, a11
  904559:	db80      	mov.n	a11, a8
	BUF_Pool_free_buf(pWMI->PoolHandle, poolId, pHTCBuf);
  90455b:	18716e        	l32r	a8, 8e0b14 <_bss_end+0x3d330c>
  90455e:	8a41      	l32i.n	a10, a4, 4
  904560:	2882a3        	l32i	a8, a8, 0x28c
  904563:	dc30      	mov.n	a12, a3
  904565:	a9bb      	add.n	a11, a11, a9
  904567:	0b8000        	callx8	a8
  90456a:	d10f      	retw.n

0090456c <_WMI_AllocEvent>:
{
  90456c:	6c1004        	entry	a1, 32
	buf = BUF_Pool_alloc_buf(pWMI->PoolHandle,
  90456f:	18716e        	l32r	a8, 8e0b28 <_bss_end+0x3d3320>
		poolId = POOL_ID_WMI_SVC_CMD_REPLY;
  904572:	c0b0      	movi.n	a11, 0
	buf = BUF_Pool_alloc_buf(pWMI->PoolHandle,
  904574:	2582a1        	l32i	a5, a8, 0x284
  904577:	8a20      	l32i.n	a10, a2, 0
  904579:	28828a        	l32i	a8, a8, 0x228
		poolId = POOL_ID_WMI_SVC_CMD_REPLY;
  90457c:	c041      	movi.n	a4, 1
  90457e:	03b439        	movnez	a4, a11, a3
	buf = BUF_Pool_alloc_buf(pWMI->PoolHandle,
  904581:	8621      	l32i.n	a6, a2, 4
		poolId = POOL_ID_WMI_SVC_CMD_REPLY;
  904583:	b144      	addi.n	a4, a4, 1
	buf = BUF_Pool_alloc_buf(pWMI->PoolHandle,
  904585:	0b8000        	callx8	a8
  904588:	b4ac      	addi.n	a12, a10, 4
  90458a:	db40      	mov.n	a11, a4
  90458c:	da60      	mov.n	a10, a6
  90458e:	0b5000        	callx8	a5
  904591:	d2a0      	mov.n	a2, a10
	if ( buf != NULL ) {
  904593:	c8a3      	beqz.n	a10, 90459a <_WMI_AllocEvent+0x2e>
  904595:	5bfbb1        	call8	90345c <__adf_nbuf_get_priv>
		ctx->EventClass = EventClass;
  904598:	93a1      	s32i.n	a3, a10, 4
}
  90459a:	d10f      	retw.n

0090459c <_WMI_SendEvent>:
{
  90459c:	6c1004        	entry	a1, 32
    return __adf_nbuf_push_head(buf, size);
  90459f:	2b0a04        	movi	a11, 4
  9045a2:	033a02        	or	a10, a3, a3
  9045a5:	5bfb87        	call8	9033c4 <__adf_nbuf_push_head>
  9045a8:	04044f        	extui	a4, a4, 0, 16
  9045ab:	05054f        	extui	a5, a5, 0, 16
	A_SET_UINT16_FIELD(pBuffer, WMI_CMD_HDR, commandId, adf_os_htons(EventId));
  9045ae:	24a401        	s8i	a4, a10, 1
  9045b1:	048814        	srli	a8, a4, 8
	A_SET_UINT16_FIELD(pBuffer, WMI_CMD_HDR, seqNo, adf_os_htons(SeqNo));
  9045b4:	058414        	srli	a4, a5, 8
  9045b7:	24a402        	s8i	a4, a10, 2
	HTC_SendMsg(pWMI->HtcHandle, pWMI->ControlEp, pEvt);
  9045ba:	14716e        	l32r	a4, 8e0b74 <_bss_end+0x3d336c>
	A_SET_UINT16_FIELD(pBuffer, WMI_CMD_HDR, commandId, adf_os_htons(EventId));
  9045bd:	28a400        	s8i	a8, a10, 0
	A_SET_UINT16_FIELD(pBuffer, WMI_CMD_HDR, seqNo, adf_os_htons(SeqNo));
  9045c0:	25a403        	s8i	a5, a10, 3
	HTC_SendMsg(pWMI->HtcHandle, pWMI->ControlEp, pEvt);
  9045c3:	244289        	l32i	a4, a4, 0x224
  9045c6:	8b2a      	l32i.n	a11, a2, 40
  9045c8:	8a20      	l32i.n	a10, a2, 0
  9045ca:	033c02        	or	a12, a3, a3
  9045cd:	0b4000        	callx8	a4
  9045d0:	d10f      	retw.n
	...

009045d4 <_WMI_Init>:
{
  9045d4:	6c1004        	entry	a1, 32
    return A_ALLOCRAM(size);
  9045d7:	13716e        	l32r	a3, 8e0b90 <_bss_end+0x3d3388>
  9045da:	d420      	mov.n	a4, a2
  9045dc:	223252        	l32i	a2, a3, 0x148
  9045df:	c3b8      	movi.n	a11, 56
  9045e1:	c0a0      	movi.n	a10, 0
  9045e3:	0b2000        	callx8	a2
  9045e6:	d2a0      	mov.n	a2, a10
	if (pWMI == NULL) {
  9045e8:	64a055        	beqz	a10, 904641 <_WMI_Init+0x6d>
	pWMI->pDispatchHead = NULL;
  9045eb:	c080      	movi.n	a8, 0
  9045ed:	98ab      	s32i.n	a8, a10, 44
	pWMI->HtcHandle = pWmiConfig->HtcHandle;
  9045ef:	8840      	l32i.n	a8, a4, 0
	pWMI->PoolHandle = pWmiConfig->PoolHandle;
  9045f1:	8a41      	l32i.n	a10, a4, 4
	BUF_Pool_create_pool(pWmiConfig->PoolHandle, POOL_ID_WMI_SVC_CMD_REPLY,
  9045f3:	8c42      	l32i.n	a12, a4, 8
	pWMI->HtcHandle = pWmiConfig->HtcHandle;
  9045f5:	9820      	s32i.n	a8, a2, 0
	BUF_Pool_create_pool(pWmiConfig->PoolHandle, POOL_ID_WMI_SVC_CMD_REPLY,
  9045f7:	2832a0        	l32i	a8, a3, 0x280
	pWMI->PoolHandle = pWmiConfig->PoolHandle;
  9045fa:	9a21      	s32i.n	a10, a2, 4
	BUF_Pool_create_pool(pWmiConfig->PoolHandle, POOL_ID_WMI_SVC_CMD_REPLY,
  9045fc:	2d0a70        	movi	a13, 112
  9045ff:	2b0a01        	movi	a11, 1
  904602:	0b8000        	callx8	a8
	BUF_Pool_create_pool(pWmiConfig->PoolHandle, POOL_ID_WMI_SVC_EVENT,
  904605:	2832a0        	l32i	a8, a3, 0x280
  904608:	8a41      	l32i.n	a10, a4, 4
  90460a:	8c43      	l32i.n	a12, a4, 12
  90460c:	c0b2      	movi.n	a11, 2
  90460e:	2d0a70        	movi	a13, 112
  904611:	0b8000        	callx8	a8
	pWMI->WMIControlService.ProcessRecvMsg = A_INDIR(wmi_svc_api._WMI_RecvMessageHandler);
  904614:	283298        	l32i	a8, a3, 0x260
	HTC_RegisterService(pWmiConfig->HtcHandle, &pWMI->WMIControlService);
  904617:	8a40      	l32i.n	a10, a4, 0
	pWMI->WMIControlService.ProcessRecvMsg = A_INDIR(wmi_svc_api._WMI_RecvMessageHandler);
  904619:	9824      	s32i.n	a8, a2, 16
	pWMI->WMIControlService.ProcessSendBufferComplete = A_INDIR(wmi_svc_api._WMI_SendCompleteHandler);
  90461b:	283295        	l32i	a8, a3, 0x254
	HTC_RegisterService(pWmiConfig->HtcHandle, &pWMI->WMIControlService);
  90461e:	bc2b      	addi.n	a11, a2, 12
	pWMI->WMIControlService.ProcessSendBufferComplete = A_INDIR(wmi_svc_api._WMI_SendCompleteHandler);
  904620:	9825      	s32i.n	a8, a2, 20
	pWMI->WMIControlService.ProcessConnect = A_INDIR(wmi_svc_api._WMI_ServiceConnect);
  904622:	283299        	l32i	a8, a3, 0x264
	HTC_RegisterService(pWmiConfig->HtcHandle, &pWMI->WMIControlService);
  904625:	233285        	l32i	a3, a3, 0x214
	pWMI->WMIControlService.ProcessConnect = A_INDIR(wmi_svc_api._WMI_ServiceConnect);
  904628:	9826      	s32i.n	a8, a2, 24
	pWMI->WMIControlService.MaxSvcMsgSize = WMI_SVC_MSG_SIZE + sizeof(WMI_CMD_HDR);
  90462a:	286a04        	movi	a8, 0x604
  90462d:	282510        	s16i	a8, a2, 32
	pWMI->WMIControlService.TrailerSpcCheckLimit = WMI_SVC_MAX_BUFFERED_EVENT_SIZE;
  904630:	280a64        	movi	a8, 100
  904633:	282511        	s16i	a8, a2, 34
	pWMI->WMIControlService.ServiceID = WMI_CONTROL_SVC;
  904636:	281a00        	movi	a8, 0x100
  904639:	28250e        	s16i	a8, a2, 28
	pWMI->WMIControlService.ServiceCtx = pWMI;
  90463c:	9229      	s32i.n	a2, a2, 36
	HTC_RegisterService(pWmiConfig->HtcHandle, &pWMI->WMIControlService);
  90463e:	0b3000        	callx8	a3
}
  904641:	d10f      	retw.n
	...

00904644 <WMI_service_module_install>:

	adf_os_mem_free(pWMI);
}

void WMI_service_module_install(WMI_SVC_APIS *pTbl)
{
  904644:	6c1004        	entry	a1, 32
	pTbl->_WMI_Init                     = _WMI_Init;
  904647:	1871e5        	l32r	a8, 8e0ddc <_bss_end+0x3d35d4>
  90464a:	9820      	s32i.n	a8, a2, 0
	pTbl->_WMI_RegisterDispatchTable    = _WMI_RegisterDispatchTable;
  90464c:	1871e6        	l32r	a8, 8e0de4 <_bss_end+0x3d35dc>
  90464f:	9821      	s32i.n	a8, a2, 4
	pTbl->_WMI_AllocEvent               = _WMI_AllocEvent;
  904651:	1871e7        	l32r	a8, 8e0df0 <_bss_end+0x3d35e8>
  904654:	9822      	s32i.n	a8, a2, 8
	pTbl->_WMI_SendEvent                = _WMI_SendEvent;
  904656:	1871e8        	l32r	a8, 8e0df8 <_bss_end+0x3d35f0>
  904659:	9823      	s32i.n	a8, a2, 12
	pTbl->_WMI_SendCompleteHandler      = _WMI_SendCompleteHandler;
  90465b:	1871e9        	l32r	a8, 8e0e00 <_bss_end+0x3d35f8>
  90465e:	9825      	s32i.n	a8, a2, 20
	pTbl->_WMI_GetPendingEventsCount    = _WMI_GetPendingEventsCount;
  904660:	1871ea        	l32r	a8, 8e0e08 <_bss_end+0x3d3600>
  904663:	9824      	s32i.n	a8, a2, 16
	pTbl->_WMI_GetControlEp             = _WMI_GetControlEp;
  904665:	1871eb        	l32r	a8, 8e0e14 <_bss_end+0x3d360c>
  904668:	9826      	s32i.n	a8, a2, 24
	pTbl->_WMI_Shutdown                 = _WMI_Shutdown;
  90466a:	1871ec        	l32r	a8, 8e0e1c <_bss_end+0x3d3614>
  90466d:	9827      	s32i.n	a8, a2, 28
	pTbl->_WMI_RecvMessageHandler       = WMIRecvMessageHandler;
  90466f:	1871ed        	l32r	a8, 8e0e24 <_bss_end+0x3d361c>
  904672:	9828      	s32i.n	a8, a2, 32
	pTbl->_WMI_ServiceConnect           = WMIServiceConnect;
  904674:	1871ee        	l32r	a8, 8e0e2c <_bss_end+0x3d3624>
  904677:	9829      	s32i.n	a8, a2, 36
  904679:	d10f      	retw.n
	...

0090467c <_HIFusb_get_max_msg_len_patch>:

/*
 * -- support more than 64 bytes command on ep4 --
 */
int _HIFusb_get_max_msg_len_patch(hif_handle_t handle, int pipe)
{
  90467c:	6c1004        	entry	a1, 32
    switch(pipe) {
  90467f:	233cfd        	addi	a3, a3, -3
        case HIF_USB_PIPE_INTERRUPT:
        case HIF_USB_PIPE_COMMAND:
            return 512;

        default:
            return 1600;
  904682:	226a40        	movi	a2, 0x640
    switch(pipe) {
  904685:	6f3202        	bgeui	a3, 2, 90468b <_HIFusb_get_max_msg_len_patch+0xf>
            return 512;
  904688:	222a00        	movi	a2, 0x200
    }
}
  90468b:	d10f      	retw.n
  90468d:	000000        	ill

00904690 <_HIFusb_isr_handler_patch>:

/*
 * -- move the usb_task to here --
 */
void _HIFusb_isr_handler_patch(hif_handle_t h)
{
  904690:	6c1004        	entry	a1, 32
    A_USB_FW_TASK();
  904693:	18716e        	l32r	a8, 8e0c4c <_bss_end+0x3d3444>
  904696:	28821d        	l32i	a8, a8, 116
  904699:	0b8000        	callx8	a8

    _HIFusb_isr_handler(h);
  90469c:	da20      	mov.n	a10, a2
  90469e:	5b792e        	call8	8e2b58 <_HIFusb_isr_handler>
  9046a1:	d10f      	retw.n
	...

009046a4 <io8_rmw>:
}

static inline void io8_rmw(volatile uint32_t addr,
			    const uint8_t set, const uint8_t clr)
{
  9046a4:	6c1006        	entry	a1, 48
  9046a7:	0c0200        	memw
  9046aa:	9210      	s32i.n	a2, a1, 0
	uint8_t val;

	val = ioread8(addr);
  9046ac:	0c0200        	memw
  9046af:	8810      	l32i.n	a8, a1, 0
	return *(const volatile uint8_t *) addr;
  9046b1:	298000        	l8ui	a9, a8, 0
	val &= ~clr;
  9046b4:	c78f      	movi.n	a8, -1
  9046b6:	048403        	xor	a4, a8, a4
	return *(const volatile uint8_t *) addr;
  9046b9:	090947        	extui	a9, a9, 0, 8
	val &= ~clr;
  9046bc:	094401        	and	a4, a4, a9
	val |= set;
	iowrite8(addr, val);
  9046bf:	0c0200        	memw
  9046c2:	8810      	l32i.n	a8, a1, 0
	val |= set;
  9046c4:	034402        	or	a4, a4, a3
	*(volatile uint8_t *) addr = b;
  9046c7:	0c0200        	memw
  9046ca:	248400        	s8i	a4, a8, 0
  9046cd:	d10f      	retw.n
	...

009046d0 <io32_rmw$constprop$0>:
}

static inline void io32_rmw(volatile uint32_t addr,
  9046d0:	6c1006        	entry	a1, 48
  9046d3:	0c0200        	memw
  9046d6:	9210      	s32i.n	a2, a1, 0
			    const uint32_t set, const uint32_t clr)
{
	uint32_t val;

	val = ioread32(addr);
  9046d8:	0c0200        	memw
  9046db:	8810      	l32i.n	a8, a1, 0
	return *(const volatile uint32_t *) addr;
  9046dd:	0c0200        	memw
  9046e0:	8880      	l32i.n	a8, a8, 0
	val &= ~clr;
	val |= set;
  9046e2:	038302        	or	a3, a8, a3
	iowrite32(addr, val);
  9046e5:	0c0200        	memw
  9046e8:	8810      	l32i.n	a8, a1, 0
	*(volatile uint32_t *) addr = b;
  9046ea:	0c0200        	memw
  9046ed:	9380      	s32i.n	a3, a8, 0
  9046ef:	d10f      	retw.n
  9046f1:	000000        	ill

009046f4 <_fw_usb_suspend_reboot>:
#if SYSTEM_MODULE_USB

#define CHECK_SOF_LOOP_CNT    50

void _fw_usb_suspend_reboot()
{
  9046f4:	6c1008        	entry	a1, 64
	volatile uint32_t gpio_in = 0;
  9046f7:	c020      	movi.n	a2, 0
  9046f9:	0c0200        	memw
  9046fc:	9214      	s32i.n	a2, a1, 16
	volatile uint32_t pupd = 0;
  9046fe:	0c0200        	memw
  904701:	9213      	s32i.n	a2, a1, 12
	volatile uint32_t t = 0;
  904703:	0c0200        	memw
  904706:	9212      	s32i.n	a2, a1, 8
	volatile uint32_t sof_no=0,sof_no_new=0;
	/* Set GO_TO_SUSPEND bit to USB main control register */
	io8_clr_usb(ZM_INTR_SOURCE_7_OFFSET, BIT2);
  904708:	1a71ef        	l32r	a10, 8e0ec4 <_bss_end+0x3d36bc>
  90470b:	c0c4      	movi.n	a12, 4
  90470d:	db20      	mov.n	a11, a2
	volatile uint32_t sof_no=0,sof_no_new=0;
  90470f:	0c0200        	memw
  904712:	9211      	s32i.n	a2, a1, 4
  904714:	0c0200        	memw
  904717:	9210      	s32i.n	a2, a1, 0
	io8_clr_usb(ZM_INTR_SOURCE_7_OFFSET, BIT2);
  904719:	5bffe2        	call8	9046a4 <io8_rmw>
	A_PRINTF("!USB suspend\n\r");
  90471c:	13716e        	l32r	a3, 8e0cd4 <_bss_end+0x3d34cc>
  90471f:	1a71f0        	l32r	a10, 8e0ee0 <_bss_end+0x3d36d8>
  904722:	243212        	l32i	a4, a3, 72
  904725:	0b4000        	callx8	a4
  904728:	18717b        	l32r	a8, 8e0d14 <_bss_end+0x3d350c>
  90472b:	147172        	l32r	a4, 8e0cf4 <_bss_end+0x3d34ec>
  90472e:	0c0200        	memw
  904731:	9840      	s32i.n	a8, a4, 0
#elif defined(PROJECT_K2)
	iowrite32(MAGPIE_REG_RST_STATUS_ADDR, SUS_MAGIC_PATTERN);
#endif /* #if defined(PROJECT_MAGPIE) */

	/* Reset USB FIFO */
	A_USB_RESET_FIFO();
  904733:	243229        	l32i	a4, a3, 164
  904736:	0b4000        	callx8	a4

	/* Turn off power */
	A_USB_POWER_OFF();
  904739:	243228        	l32i	a4, a3, 160
  90473c:	0b4000        	callx8	a4

	DEBUG_SYSTEM_STATE = (DEBUG_SYSTEM_STATE&(~0xffff)) | 0x1000;
  90473f:	14716b        	l32r	a4, 8e0cec <_bss_end+0x3d34e4>
  904742:	1971f1        	l32r	a9, 8e0f08 <_bss_end+0x3d3700>
  904745:	0c0200        	memw
  904748:	8840      	l32i.n	a8, a4, 0
  90474a:	098801        	and	a8, a8, a9
  90474d:	1971f2        	l32r	a9, 8e0f18 <_bss_end+0x3d3710>
  904750:	098802        	or	a8, a8, a9
  904753:	0c0200        	memw
  904756:	9840      	s32i.n	a8, a4, 0
	return *(const volatile uint32_t *) addr;
  904758:	1471f3        	l32r	a4, 8e0f24 <_bss_end+0x3d371c>
  90475b:	0c0200        	memw
  90475e:	8840      	l32i.n	a8, a4, 0
	/* disable SPI */
	spi = ioread32(0x50040);
	iowrite32(0x50040, spi & ~BIT8);
#endif
	/* set all GPIO to input */
	gpio_in = ioread32(0x1000404c);
  904760:	0c0200        	memw
  904763:	9814      	s32i.n	a8, a1, 16
	*(volatile uint32_t *) addr = b;
  904765:	0c0200        	memw
  904768:	9240      	s32i.n	a2, a4, 0
	return *(const volatile uint32_t *) addr;
  90476a:	1471f4        	l32r	a4, 8e0f3c <_bss_end+0x3d3734>
  90476d:	0c0200        	memw
  904770:	8840      	l32i.n	a8, a4, 0
	iowrite32(0x1000404c, 0x0);

	/* set PU/PD for all GPIO except two UART pins */
	pupd = ioread32(0x10004088);
  904772:	0c0200        	memw
  904775:	9813      	s32i.n	a8, a1, 12
	*(volatile uint32_t *) addr = b;
  904777:	1871f5        	l32r	a8, 8e0f4c <_bss_end+0x3d3744>
  90477a:	0c0200        	memw
  90477d:	9840      	s32i.n	a8, a4, 0
	return *(const volatile uint32_t *) addr;
  90477f:	1471f6        	l32r	a4, 8e0f58 <_bss_end+0x3d3750>
  904782:	0c0200        	memw
  904785:	8440      	l32i.n	a4, a4, 0
	iowrite32(0x10004088, 0xA982AA6A);

	sof_no = ioread32(0x10004);
  904787:	0c0200        	memw
  90478a:	9411      	s32i.n	a4, a1, 4
	for (t = 0; t < CHECK_SOF_LOOP_CNT; t++)
  90478c:	0c0200        	memw
  90478f:	9212      	s32i.n	a2, a1, 8
  904791:	c341      	movi.n	a4, 49
  904793:	60004f        	j	9047e6 <_fw_usb_suspend_reboot+0xf2>
  904796:	000022        	excw
	{
		A_DELAY_USECS(1000);    /* delay 1ms */
  904799:	323a2a        	excw
  90479c:	3ae80b        	excw
  90479f:	200012        	l8ui	a0, a0, 18
  9047a2:	71f60c        	bbci	a15, 1, 9047b2 <_fw_usb_suspend_reboot+0xbe>
  9047a5:	020082        	excw
  9047a8:	200c02        	addi	a0, a0, 2
		sof_no_new = ioread32(0x10004);
  9047ab:	009210        	slli	a2, a9, 32

		if(sof_no_new == sof_no)
  9047ae:	0c0200        	memw
  9047b1:	8810      	l32i.n	a8, a1, 0
  9047b3:	0c0200        	memw
  9047b6:	8211      	l32i.n	a2, a1, 4
  9047b8:	728914        	bne	a8, a2, 9047d0 <_fw_usb_suspend_reboot+0xdc>
	 * Reset "printf" module patch point(RAM to ROM)
	 * when K2 warm start or suspend,
	 * which fixed the error issue cause by redownload
	 * another different firmware.
	 */
	_indir_tbl.cmnos.printf._printf = save_cmnos_printf;
  9047bb:	127174        	l32r	a2, 8e0d8c <_bss_end+0x3d3584>

	/* !!!!!!!!!!!!!!!!!!!!!!!!!!!!!!!!!!!!!!!!!!!!!!!!!!!!!
	 * setting the go suspend here, power down right away!!!
	 */
	if (t != CHECK_SOF_LOOP_CNT)   /* not time out */
  9047be:	0c0200        	memw
  9047c1:	8412      	l32i.n	a4, a1, 8
	_indir_tbl.cmnos.printf._printf = save_cmnos_printf;
  9047c3:	8220      	l32i.n	a2, a2, 0
  9047c5:	223612        	s32i	a2, a3, 72
	if (t != CHECK_SOF_LOOP_CNT)   /* not time out */
  9047c8:	c322      	movi.n	a2, 50
  9047ca:	724923        	bne	a4, a2, 9047f1 <_fw_usb_suspend_reboot+0xfd>
  9047cd:	600028        	j	9047f9 <_fw_usb_suspend_reboot+0x105>
		sof_no = sof_no_new;
  9047d0:	0c0200        	memw
  9047d3:	8210      	l32i.n	a2, a1, 0
  9047d5:	0c0200        	memw
  9047d8:	9211      	s32i.n	a2, a1, 4
	for (t = 0; t < CHECK_SOF_LOOP_CNT; t++)
  9047da:	0c0200        	memw
  9047dd:	8212      	l32i.n	a2, a1, 8
  9047df:	b122      	addi.n	a2, a2, 1
  9047e1:	0c0200        	memw
  9047e4:	9212      	s32i.n	a2, a1, 8
  9047e6:	0c0200        	memw
  9047e9:	8212      	l32i.n	a2, a1, 8
  9047eb:	724ba9        	bgeu	a4, a2, 904798 <_fw_usb_suspend_reboot+0xa4>
  9047ee:	63ffc9        	j	9047bb <_fw_usb_suspend_reboot+0xc7>
		io32_set(0x10000, BIT3);
  9047f1:	1a71f7        	l32r	a10, 8e0fd0 <_bss_end+0x3d37c8>
  9047f4:	c0b8      	movi.n	a11, 8
  9047f6:	5bffb6        	call8	9046d0 <io32_rmw$constprop$0>

	DEBUG_SYSTEM_STATE = (DEBUG_SYSTEM_STATE&(~0xffff)) | 0x1100;
  9047f9:	12716b        	l32r	a2, 8e0da8 <_bss_end+0x3d35a0>
  9047fc:	1471f1        	l32r	a4, 8e0fc0 <_bss_end+0x3d37b8>
  9047ff:	0c0200        	memw
  904802:	8920      	l32i.n	a9, a2, 0
  904804:	1871f8        	l32r	a8, 8e0fe4 <_bss_end+0x3d37dc>
  904807:	049901        	and	a9, a9, a4
  90480a:	089902        	or	a9, a9, a8
  90480d:	0c0200        	memw
  904810:	9920      	s32i.n	a9, a2, 0

	/* restore gpio setting */
	iowrite32(0x10004054, jtag);
	iowrite32(0x50040, spi);
#endif
	iowrite32(0x1000404c, gpio_in);
  904812:	0c0200        	memw
  904815:	8914      	l32i.n	a9, a1, 16
  904817:	1871f3        	l32r	a8, 8e0fe4 <_bss_end+0x3d37dc>
	/* since we still need to touch mac_base address after resuming back,
	 * so that reset mac can't be done in ResetFifo function,
	 * move to here... whole mac control reset.... (bit1)
	 */
	iowrite32(MAGPIE_REG_RST_PWDN_CTRL_ADDR, BIT1);
	io32_set(MAGPIE_REG_RST_PWDN_CTRL_ADDR, BIT0);
  90481a:	c0b1      	movi.n	a11, 1
	*(volatile uint32_t *) addr = b;
  90481c:	0c0200        	memw
  90481f:	9980      	s32i.n	a9, a8, 0
	iowrite32(0x10004088, pupd);
  904821:	0c0200        	memw
  904824:	8913      	l32i.n	a9, a1, 12
  904826:	1871f4        	l32r	a8, 8e0ff8 <_bss_end+0x3d37f0>
  904829:	0c0200        	memw
  90482c:	9980      	s32i.n	a9, a8, 0
	DEBUG_SYSTEM_STATE = (DEBUG_SYSTEM_STATE&(~0xffff)) | 0x1200;
  90482e:	0c0200        	memw
  904831:	8820      	l32i.n	a8, a2, 0
  904833:	048801        	and	a8, a8, a4
  904836:	1471f9        	l32r	a4, 8e101c <_bss_end+0x3d3814>
  904839:	048802        	or	a8, a8, a4
  90483c:	1471fa        	l32r	a4, 8e1024 <_bss_end+0x3d381c>
  90483f:	0c0200        	memw
  904842:	9820      	s32i.n	a8, a2, 0
  904844:	c082      	movi.n	a8, 2
  904846:	0c0200        	memw
  904849:	9840      	s32i.n	a8, a4, 0
	io32_set(MAGPIE_REG_RST_PWDN_CTRL_ADDR, BIT0);
  90484b:	da40      	mov.n	a10, a4
  90484d:	5bffa0        	call8	9046d0 <io32_rmw$constprop$0>
  904850:	c080      	movi.n	a8, 0
  904852:	0c0200        	memw
  904855:	9840      	s32i.n	a8, a4, 0
	iowrite32(MAGPIE_REG_RST_PWDN_CTRL_ADDR, 0);
	A_DELAY_USECS(1000);
  904857:	24323a        	l32i	a4, a3, 232
  90485a:	2a3ae8        	movi	a10, 0x3e8
  90485d:	0b4000        	callx8	a4
	return *(const volatile uint8_t *) addr;
  904860:	1471b6        	l32r	a4, 8e0f38 <_bss_end+0x3d3730>

	/* disable ep3 int enable, so that resume back won't
	 * send wdt magic pattern out!!! */
	mUSB_STATUS_IN_INT_DISABLE();
  904863:	290ac0        	movi	a9, 192
  904866:	284000        	l8ui	a8, a4, 0
  904869:	080847        	extui	a8, a8, 0, 8
  90486c:	098802        	or	a8, a8, a9
	*(volatile uint8_t *) addr = b;
  90486f:	0c0200        	memw
  904872:	284400        	s8i	a8, a4, 0

	MAGPIE_REG_USB_RX0_SWAP_DATA = 0x1;
  904875:	1471c5        	l32r	a4, 8e0f8c <_bss_end+0x3d3784>
  904878:	c081      	movi.n	a8, 1
  90487a:	0c0200        	memw
  90487d:	9840      	s32i.n	a8, a4, 0
	MAGPIE_REG_USB_TX0_SWAP_DATA = 0x1;
  90487f:	1471c6        	l32r	a4, 8e0f98 <_bss_end+0x3d3790>
  904882:	0c0200        	memw
  904885:	9840      	s32i.n	a8, a4, 0
	MAGPIE_REG_USB_RX1_SWAP_DATA = 0x1;
  904887:	1471c7        	l32r	a4, 8e0fa4 <_bss_end+0x3d379c>
  90488a:	0c0200        	memw
  90488d:	9840      	s32i.n	a8, a4, 0
	MAGPIE_REG_USB_RX2_SWAP_DATA = 0x1;
  90488f:	1471c8        	l32r	a4, 8e0fb0 <_bss_end+0x3d37a8>
  904892:	0c0200        	memw
  904895:	9840      	s32i.n	a8, a4, 0

	if (((DEBUG_SYSTEM_STATE&~(0x0000ffff))>>16 == 0x5342)) {
  904897:	0c0200        	memw
  90489a:	8220      	l32i.n	a2, a2, 0
  90489c:	14716c        	l32r	a4, 8e0e4c <_bss_end+0x3d3644>
  90489f:	02025f        	extui	a2, a2, 16, 16
  9048a2:	74290a        	bne	a2, a4, 9048b0 <_fw_usb_suspend_reboot+0x1bc>
	*(volatile uint32_t *) addr = b;
  9048a5:	1271fb        	l32r	a2, 8e1094 <_bss_end+0x3d388c>
  9048a8:	243a00        	movi	a4, 0x300
  9048ab:	0c0200        	memw
  9048ae:	9420      	s32i.n	a4, a2, 0
		/* UART_SEL and SPI_SEL */
		iowrite32(0x50040, 0x300 | 0 | (1 >> 1) << 12);
	}

	/* Jump to boot code */
	A_USB_JUMP_BOOT();
  9048b0:	22322b        	l32i	a2, a3, 172
  9048b3:	0b2000        	callx8	a2
  9048b6:	d10f      	retw.n

009048b8 <_fw_usb_fw_task>:
 * usb zero length interrupt should not clear by s/w, h/w will handle that
 * complete suspend handle, configure gpio, turn off related function,
 * slow down the pll for stable issue
 */
void _fw_usb_fw_task(void)
{
  9048b8:	6c1004        	entry	a1, 32
	return *(const volatile uint8_t *) addr;
  9048bb:	1271fc        	l32r	a2, 8e10ac <_bss_end+0x3d38a4>
  9048be:	222000        	l8ui	a2, a2, 0
  9048c1:	020247        	extui	a2, a2, 0, 8
	if (usb_interrupt_level1 & BIT5)
	{
		vUsb_Data_In();
	}
#endif
	if (usb_interrupt_level1 & BIT4) {
  9048c4:	7b2711        	bbci	a2, 27, 9048d9 <_fw_usb_fw_task+0x21>
  9048c7:	1371fd        	l32r	a3, 8e10bc <_bss_end+0x3d38b4>
  9048ca:	233000        	l8ui	a3, a3, 0
		usb_interrupt_level2 =
			ioread8_usb(ZM_INTR_SOURCE_4_OFFSET);

		if(usb_interrupt_level2 & BIT6)
  9048cd:	793708        	bbci	a3, 25, 9048d9 <_fw_usb_fw_task+0x21>
			A_USB_REG_OUT(); /* vUsb_Reg_Out() */
  9048d0:	13716e        	l32r	a3, 8e0e88 <_bss_end+0x3d3680>
  9048d3:	233232        	l32i	a3, a3, 200
  9048d6:	0b3000        	callx8	a3
	}

	if (usb_interrupt_level1 & BIT6) {
  9048d9:	c480      	movi.n	a8, 64
  9048db:	782014        	bnone	a2, a8, 9048f3 <_fw_usb_fw_task+0x3b>
  9048de:	1371fe        	l32r	a3, 8e10d8 <_bss_end+0x3d38d0>
  9048e1:	233000        	l8ui	a3, a3, 0
  9048e4:	030347        	extui	a3, a3, 0, 8
		/* zfGenWatchDogEvent(); ?? */
		usb_interrupt_level2 =
			ioread8_usb(ZM_INTR_SOURCE_6_OFFSET);
		if(usb_interrupt_level2 & BIT6)
  9048e7:	783008        	bnone	a3, a8, 9048f3 <_fw_usb_fw_task+0x3b>
			A_USB_STATUS_IN(); /* vUsb_Status_In() */
  9048ea:	13716e        	l32r	a3, 8e0ea4 <_bss_end+0x3d369c>
  9048ed:	233233        	l32i	a3, a3, 204
  9048f0:	0b3000        	callx8	a3
	}

	if (usb_interrupt_level1 & BIT0) {
  9048f3:	7f2f02        	bbsi	a2, 31, 9048f9 <_fw_usb_fw_task+0x41>
  9048f6:	60008e        	j	904988 <_fw_usb_fw_task+0xd0>
  9048f9:	1a71ff        	l32r	a10, 8e10f8 <_bss_end+0x3d38f0>
  9048fc:	28a000        	l8ui	a8, a10, 0
			ioread8_usb(ZM_INTR_SOURCE_0_OFFSET);

		/* refer to FUSB200, p 48, offset:21H, bit7 description,
		 * should clear the command abort interrupt first!?
		 */
		if (usb_interrupt_level2 & BIT7) {
  9048ff:	080347        	extui	a3, a8, 0, 8
  904902:	788713        	bbci	a8, 24, 904919 <_fw_usb_fw_task+0x61>
			/* Handle command abort */
			io8_clr_usb(ZM_INTR_SOURCE_0_OFFSET, BIT7);
  904905:	2c0a80        	movi	a12, 128
  904908:	c0b0      	movi.n	a11, 0
  90490a:	5bff66        	call8	9046a4 <io8_rmw>
			A_PRINTF("![SOURCE_0] bit7 on\n\r");
  90490d:	18716e        	l32r	a8, 8e0ec8 <_bss_end+0x3d36c0>
  904910:	1a7200        	l32r	a10, 8e1110 <_bss_end+0x3d3908>
  904913:	288212        	l32i	a8, a8, 72
  904916:	0b8000        	callx8	a8
		}

		if (usb_interrupt_level2 & BIT1)
  904919:	7e3708        	bbci	a3, 30, 904925 <_fw_usb_fw_task+0x6d>
			A_USB_EP0_TX(); /* USB EP0 tx interrupt */
  90491c:	18716e        	l32r	a8, 8e0ed4 <_bss_end+0x3d36cc>
  90491f:	288220        	l32i	a8, a8, 128
  904922:	0b8000        	callx8	a8

		if (usb_interrupt_level2 & BIT2)
  904925:	7d3708        	bbci	a3, 29, 904931 <_fw_usb_fw_task+0x79>
			A_USB_EP0_RX(); /* USB EP0 rx interrupt */
  904928:	18716e        	l32r	a8, 8e0ee0 <_bss_end+0x3d36d8>
  90492b:	288221        	l32i	a8, a8, 132
  90492e:	0b8000        	callx8	a8

		if (usb_interrupt_level2 & BIT0) {
  904931:	7f3708        	bbci	a3, 31, 90493d <_fw_usb_fw_task+0x85>
			A_USB_EP0_SETUP();
  904934:	18716e        	l32r	a8, 8e0eec <_bss_end+0x3d36e4>
  904937:	28821f        	l32i	a8, a8, 124
  90493a:	0b8000        	callx8	a8
			/* vWriteUSBFakeData() */
		}

		if (usb_interrupt_level2 & BIT3) {
  90493d:	7c3713        	bbci	a3, 28, 904954 <_fw_usb_fw_task+0x9c>
			/* vUsb_ep0end */
			eUsbCxCommand = CMD_VOID;
  904940:	187201        	l32r	a8, 8e1144 <_bss_end+0x3d393c>
  904943:	c090      	movi.n	a9, 0
  904945:	298600        	s32i	a9, a8, 0
	*(volatile uint8_t *) addr = b;
  904948:	187202        	l32r	a8, 8e1150 <_bss_end+0x3d3948>
  90494b:	290a01        	movi	a9, 1
  90494e:	0c0200        	memw
  904951:	298400        	s8i	a9, a8, 0
			iowrite8_usb(ZM_CX_CONFIG_STATUS_OFFSET, 0x01);
		}

		/* EP0 fail */
	        if (usb_interrupt_level2 & BIT4)
  904954:	7b370a        	bbci	a3, 27, 904962 <_fw_usb_fw_task+0xaa>
  904957:	137202        	l32r	a3, 8e1160 <_bss_end+0x3d3958>
  90495a:	c084      	movi.n	a8, 4
  90495c:	0c0200        	memw
  90495f:	283400        	s8i	a8, a3, 0
			iowrite8_usb(ZM_CX_CONFIG_STATUS_OFFSET, 0x04);

		if (eUsbCxFinishAction == ACT_STALL) {
  904962:	1871c4        	l32r	a8, 8e1074 <_bss_end+0x3d386c>
  904965:	8380      	l32i.n	a3, a8, 0
  904967:	69320d        	bnei	a3, 2, 904978 <_fw_usb_fw_task+0xc0>
  90496a:	137202        	l32r	a3, 8e1174 <_bss_end+0x3d396c>
  90496d:	c094      	movi.n	a9, 4
  90496f:	0c0200        	memw
  904972:	293400        	s8i	a9, a3, 0
  904975:	60000b        	j	904984 <_fw_usb_fw_task+0xcc>
			/* set CX_STL to stall Endpoint0 &
			 * will also clear FIFO0 */
			iowrite8_usb(ZM_CX_CONFIG_STATUS_OFFSET, 0x04);
		} else if (eUsbCxFinishAction == ACT_DONE) {
  904978:	693108        	bnei	a3, 1, 904984 <_fw_usb_fw_task+0xcc>
  90497b:	197202        	l32r	a9, 8e1184 <_bss_end+0x3d397c>
  90497e:	0c0200        	memw
  904981:	239400        	s8i	a3, a9, 0
			/* set CX_DONE to indicate the transmistion
			 * of control frame */
			iowrite8_usb(ZM_CX_CONFIG_STATUS_OFFSET, 0x01);
		}
		eUsbCxFinishAction = ACT_IDLE;
  904984:	c030      	movi.n	a3, 0
  904986:	9380      	s32i.n	a3, a8, 0
	}

	if (usb_interrupt_level1 & BIT7) {
  904988:	002232        	sext	a2, a2, 7
  90498b:	672045        	bgez	a2, 9049d4 <_fw_usb_fw_task+0x11c>
	return *(const volatile uint8_t *) addr;
  90498e:	1a71ef        	l32r	a10, 8e114c <_bss_end+0x3d3944>
  904991:	22a000        	l8ui	a2, a10, 0
  904994:	020247        	extui	a2, a2, 0, 8

	if (usb_interrupt_level2 & BIT6)
		vUsb_Data_In0Byte();
#endif

		if (usb_interrupt_level2 & BIT1) {
  904997:	7e271a        	bbci	a2, 30, 9049b5 <_fw_usb_fw_task+0xfd>
			io8_clr_usb(ZM_INTR_SOURCE_7_OFFSET, BIT1);
  90499a:	c0c2      	movi.n	a12, 2
  90499c:	c0b0      	movi.n	a11, 0
  90499e:	5bff41        	call8	9046a4 <io8_rmw>
			UsbChirpFinish = FALSE;
  9049a1:	137203        	l32r	a3, 8e11b0 <_bss_end+0x3d39a8>
  9049a4:	c080      	movi.n	a8, 0
  9049a6:	283500        	s16i	a8, a3, 0
			A_PRINTF("!USB reset\n\r");
  9049a9:	13716e        	l32r	a3, 8e0f64 <_bss_end+0x3d375c>
  9049ac:	1a7204        	l32r	a10, 8e11bc <_bss_end+0x3d39b4>
  9049af:	233212        	l32i	a3, a3, 72
  9049b2:	0b3000        	callx8	a3
		}
		if (usb_interrupt_level2 & BIT2) {
  9049b5:	7d2702        	bbci	a2, 29, 9049bb <_fw_usb_fw_task+0x103>
			/* TBD: the suspend resume code should put here,
			 * Ryan, 07/18
			 * issue, jump back to rom code and what peripherals
			 * should we reset here? */
			_fw_usb_suspend_reboot();
  9049b8:	5bff4e        	call8	9046f4 <_fw_usb_suspend_reboot>
		}
		if (usb_interrupt_level2 & BIT3) {
  9049bb:	7c2715        	bbci	a2, 28, 9049d4 <_fw_usb_fw_task+0x11c>
			io8_clr_usb(ZM_INTR_SOURCE_7_OFFSET, BIT3);
  9049be:	1a71ef        	l32r	a10, 8e117c <_bss_end+0x3d3974>
  9049c1:	c0c8      	movi.n	a12, 8
  9049c3:	c0b0      	movi.n	a11, 0
  9049c5:	5bff37        	call8	9046a4 <io8_rmw>
			A_PRINTF("!USB resume\n\r");
  9049c8:	12716e        	l32r	a2, 8e0f80 <_bss_end+0x3d3778>
  9049cb:	1a7205        	l32r	a10, 8e11e0 <_bss_end+0x3d39d8>
  9049ce:	222212        	l32i	a2, a2, 72
  9049d1:	0b2000        	callx8	a2
  9049d4:	d10f      	retw.n
	...

009049d8 <_fw_usb_reset_fifo>:
	}
}


void _fw_usb_reset_fifo(void)
{
  9049d8:	6c1004        	entry	a1, 32
	io8_set(0x100ae, 0x10);
  9049db:	1a7206        	l32r	a10, 8e11f4 <_bss_end+0x3d39ec>
  9049de:	c0c0      	movi.n	a12, 0
  9049e0:	c1b0      	movi.n	a11, 16
  9049e2:	5bff30        	call8	9046a4 <io8_rmw>
	io8_set(0x100af, 0x10);
  9049e5:	1a7207        	l32r	a10, 8e1204 <_bss_end+0x3d39fc>
  9049e8:	c0c0      	movi.n	a12, 0
  9049ea:	2b0a10        	movi	a11, 16
  9049ed:	5bff2d        	call8	9046a4 <io8_rmw>
  9049f0:	1271b6        	l32r	a2, 8e10c8 <_bss_end+0x3d38c0>

	/* disable ep3 int enable, so that resume back won't
	 * send wdt magic pattern out!!!
	 */
	mUSB_STATUS_IN_INT_DISABLE();
  9049f3:	230ac0        	movi	a3, 192
  9049f6:	282000        	l8ui	a8, a2, 0
	*(volatile uint32_t *) addr = b;
  9049f9:	c040      	movi.n	a4, 0
	return *(const volatile uint8_t *) addr;
  9049fb:	080847        	extui	a8, a8, 0, 8
  9049fe:	038802        	or	a8, a8, a3
	*(volatile uint8_t *) addr = b;
  904a01:	0c0200        	memw
  904a04:	282400        	s8i	a8, a2, 0
	*(volatile uint32_t *) addr = b;
  904a07:	13717b        	l32r	a3, 8e0ff4 <_bss_end+0x3d37ec>
  904a0a:	127172        	l32r	a2, 8e0fd4 <_bss_end+0x3d37cc>
  904a0d:	c084      	movi.n	a8, 4
  904a0f:	0c0200        	memw
  904a12:	9320      	s32i.n	a3, a2, 0
  904a14:	137208        	l32r	a3, 8e1234 <_bss_end+0x3d3a2c>
  904a17:	1271fa        	l32r	a2, 8e1200 <_bss_end+0x3d39f8>
  904a1a:	0c0200        	memw
  904a1d:	9430      	s32i.n	a4, a3, 0
  904a1f:	0c0200        	memw
  904a22:	9820      	s32i.n	a8, a2, 0
	 */
	iowrite32_usb(ZM_SOC_USB_DMA_RESET_OFFSET, 0x0);

	/* reset both usb(bit2)/wlan(bit1) dma */
	iowrite32(MAGPIE_REG_RST_PWDN_CTRL_ADDR, BIT2);
	io32_set(MAGPIE_REG_RST_PWDN_CTRL_ADDR, BIT0);
  904a24:	2b0a01        	movi	a11, 1
  904a27:	022a02        	or	a10, a2, a2
  904a2a:	5bff29        	call8	9046d0 <io32_rmw$constprop$0>
  904a2d:	0c0200        	memw
  904a30:	9420      	s32i.n	a4, a2, 0
  904a32:	c021      	movi.n	a2, 1
  904a34:	0c0200        	memw
  904a37:	9230      	s32i.n	a2, a3, 0

	//*reg_data = 0x00000000;

	//while (*reg_data)   ;

	A_PRINTF("\n change clock to 22 and go to suspend now!");
  904a39:	12716e        	l32r	a2, 8e0ff4 <_bss_end+0x3d37ec>
  904a3c:	1a7209        	l32r	a10, 8e1260 <_bss_end+0x3d3a58>
  904a3f:	232212        	l32i	a3, a2, 72
  904a42:	242a00        	movi	a4, 0x200
  904a45:	0b3000        	callx8	a3
  904a48:	1371fb        	l32r	a3, 8e1234 <_bss_end+0x3d3a2c>

	/* UART_SEL */
	iowrite32(0x50040, 0x200 | 0 | (1 >> 1) << 12);
	A_UART_HWINIT((22*1000*1000), 19200);
  904a4b:	22221a        	l32i	a2, a2, 104
  904a4e:	1b720a        	l32r	a11, 8e1278 <_bss_end+0x3d3a70>
  904a51:	1a720b        	l32r	a10, 8e1280 <_bss_end+0x3d3a78>
  904a54:	0c0200        	memw
  904a57:	9430      	s32i.n	a4, a3, 0
  904a59:	0b2000        	callx8	a2
  904a5c:	d10f      	retw.n
	...

00904a60 <cmnos_clock_init_patch>:
extern a_uint32_t cticks;

// clock change
//
void cmnos_clock_init_patch(a_uint32_t refclk)
{
  904a60:	6c1004        	entry	a1, 32
    ref_clk = refclk;
  904a63:	18720c        	l32r	a8, 8e1294 <_bss_end+0x3d3a8c>
  904a66:	9280      	s32i.n	a2, a8, 0
  904a68:	d10f      	retw.n
	...

00904a6c <cmnos_refclk_speed_get_patch>:
}

// retrieve current clock setting
//
a_uint32_t cmnos_refclk_speed_get_patch(void)
{
  904a6c:	6c1004        	entry	a1, 32
    return ref_clk;
}
  904a6f:	18720c        	l32r	a8, 8e12a0 <_bss_end+0x3d3a98>
  904a72:	8280      	l32i.n	a2, a8, 0
  904a74:	d10f      	retw.n
	...

00904a78 <cmnos_delay_us_patch>:


// software emulate delay function
//
void cmnos_delay_us_patch(int us)
{
  904a78:	6c1004        	entry	a1, 32
    a_uint32_t start_time = NOW();
  904a7b:	5b808c        	call8	8e4cac <xthal_get_ccount>
    unsigned int num_ticks = us*ref_clk; // system_freq == number of ticks per 1us
  904a7e:	18720c        	l32r	a8, 8e12b0 <_bss_end+0x3d3aa8>
    a_uint32_t start_time = NOW();
  904a81:	d3a0      	mov.n	a3, a10
    unsigned int num_ticks = us*ref_clk; // system_freq == number of ticks per 1us
  904a83:	288200        	l32i	a8, a8, 0
  904a86:	082228        	mull	a2, a2, a8

    while ( (NOW() - start_time) < num_ticks) {
  904a89:	5b8088        	call8	8e4cac <xthal_get_ccount>
  904a8c:	03aa0c        	sub	a10, a10, a3
  904a8f:	72a3f6        	bltu	a10, a2, 904a89 <cmnos_delay_us_patch+0x11>
        /* busy spin */
        ;
    }
}
  904a92:	d10f      	retw.n

00904a94 <cmnos_tick_patch>:


// software emulate microsecond ticks
//
void cmnos_tick_patch(void)
{
  904a94:	6c1004        	entry	a1, 32
    static a_uint32_t last_tick = 0;
    a_uint32_t current_tick = NOW();
  904a97:	5b8085        	call8	8e4cac <xthal_get_ccount>
    a_uint32_t delta_tick;

    delta_tick = (A_UINT32 ) (current_tick - last_tick)/(ref_clk<<10);
  904a9a:	18720c        	l32r	a8, 8e12cc <_bss_end+0x3d3ac4>
  904a9d:	12720d        	l32r	a2, 8e12d4 <_bss_end+0x3d3acc>
    a_uint32_t current_tick = NOW();
  904aa0:	d3a0      	mov.n	a3, a10
    delta_tick = (A_UINT32 ) (current_tick - last_tick)/(ref_clk<<10);
  904aa2:	8b80      	l32i.n	a11, a8, 0
  904aa4:	2a2200        	l32i	a10, a2, 0
  904aa7:	06bb11        	slli	a11, a11, 10
  904aaa:	0a3a0c        	sub	a10, a3, a10
  904aad:	5b80bc        	call8	8e4da0 <__udivsi3>

    if( delta_tick > 0 )
  904ab0:	c8a0      	beqz.n	a10, 904ab4 <cmnos_tick_patch+0x20>
        last_tick = current_tick;
  904ab2:	9320      	s32i.n	a3, a2, 0

    cticks += delta_tick;
  904ab4:	19720e        	l32r	a9, 8e12ec <_bss_end+0x3d3ae4>
  904ab7:	8890      	l32i.n	a8, a9, 0
  904ab9:	aa8a      	add.n	a10, a8, a10
  904abb:	9a90      	s32i.n	a10, a9, 0
  904abd:	d10f      	retw.n
	...

00904ac0 <cmnos_milliseconds_patch>:
}

// get current sysmem up time in milliseconds based
//
a_uint32_t cmnos_milliseconds_patch(void)
{
  904ac0:	6c1004        	entry	a1, 32
    cmnos_tick_patch();
  904ac3:	5bfff4        	call8	904a94 <cmnos_tick_patch>

    return (cticks);
}
  904ac6:	18720e        	l32r	a8, 8e1300 <_bss_end+0x3d3af8>
  904ac9:	8280      	l32i.n	a2, a8, 0
  904acb:	d10f      	retw.n
  904acd:	000000        	ill

00904ad0 <_cvt>:
LOCAL void
(*_putc)(char c) = cmnos_write_char;

LOCAL int
_cvt(unsigned long val, char *buf, long radix, char *digits)
{
  904ad0:	6c100e        	entry	a1, 112
    char temp[80];
    char *cp = temp;
    int length = 0;

    if (val == 0) {
  904ad3:	cc2d      	bnez.n	a2, 904ae4 <_cvt+0x14>
        /* Special case */
        *cp++ = '0';
  904ad5:	c320      	movi.n	a2, 48
  904ad7:	221400        	s8i	a2, a1, 0
  904ada:	b116      	addi.n	a6, a1, 1
  904adc:	d830      	mov.n	a8, a3
  904ade:	d260      	mov.n	a2, a6
  904ae0:	60002e        	j	904b12 <_cvt+0x42>
  904ae3:	00d710        	slli	a7, a13, 32
    } else {
        while (val) {
            *cp++ = digits[val % radix];
  904ae6:	db40      	mov.n	a11, a4
  904ae8:	da20      	mov.n	a10, a2
  904aea:	5b80c1        	call8	8e4df0 <__umodsi3>
  904aed:	aa5a      	add.n	a10, a5, a10
  904aef:	28a000        	l8ui	a8, a10, 0
            val /= radix;
  904af2:	db40      	mov.n	a11, a4
            *cp++ = digits[val % radix];
  904af4:	287400        	s8i	a8, a7, 0
            val /= radix;
  904af7:	da20      	mov.n	a10, a2
            *cp++ = digits[val % radix];
  904af9:	b176      	addi.n	a6, a7, 1
            val /= radix;
  904afb:	5b80a9        	call8	8e4da0 <__udivsi3>
  904afe:	d2a0      	mov.n	a2, a10
            *cp++ = digits[val % radix];
  904b00:	d760      	mov.n	a7, a6
        while (val) {
  904b02:	65afe0        	bnez	a10, 904ae6 <_cvt+0x16>
  904b05:	63ffd3        	j	904adc <_cvt+0xc>
        }
    }
    while (cp != temp) {
        *buf++ = *--cp;
  904b08:	b022      	addi.n	a2, a2, -1
  904b0a:	242000        	l8ui	a4, a2, 0
  904b0d:	248400        	s8i	a4, a8, 0
  904b10:	b188      	addi.n	a8, a8, 1
    while (cp != temp) {
  904b12:	7219f2        	bne	a1, a2, 904b08 <_cvt+0x38>
  904b15:	01620c        	sub	a2, a6, a1
        length++;
    }
    *buf = '\0';
  904b18:	a233      	add.n	a3, a3, a2
  904b1a:	c040      	movi.n	a4, 0
  904b1c:	243400        	s8i	a4, a3, 0
    return (length);
}
  904b1f:	d10f      	retw.n
  904b21:	000000        	ill

00904b24 <cmnos_write_char>:
{
  904b24:	6c1004        	entry	a1, 32
  904b27:	020247        	extui	a2, a2, 0, 8
    if (c == '\n') {
  904b2a:	69290e        	bnei	a2, 10, 904b3c <cmnos_write_char+0x18>
        A_PUTC('\r');
  904b2d:	13716e        	l32r	a3, 8e10e8 <_bss_end+0x3d38e0>
  904b30:	c0ad      	movi.n	a10, 13
  904b32:	283214        	l32i	a8, a3, 80
  904b35:	0b8000        	callx8	a8
  904b38:	600008        	j	904b44 <cmnos_write_char+0x20>
  904b3b:	00c03d        	excw
    } else if (c == '\r') {
  904b3e:	73210a        	beq	a2, a3, 904b4c <cmnos_write_char+0x28>
      A_PUTC(c);
  904b41:	13716e        	l32r	a3, 8e10fc <_bss_end+0x3d38f4>
  904b44:	233214        	l32i	a3, a3, 80
  904b47:	da20      	mov.n	a10, a2
  904b49:	0b3000        	callx8	a3
  904b4c:	d10f      	retw.n
	...

00904b50 <fw_cmnos_printf>:
    return (res);
}

int
fw_cmnos_printf(const char *fmt, ...)
{
  904b50:	6c1012        	entry	a1, 144
    va_list ap;
    int ret;

    va_start(ap, fmt);
  904b53:	951f      	s32i.n	a5, a1, 60
{
  904b55:	d520      	mov.n	a5, a2
    va_start(ap, fmt);
  904b57:	221c30        	addi	a2, a1, 48
  904b5a:	931d      	s32i.n	a3, a1, 52
  904b5c:	941e      	s32i.n	a4, a1, 56
  904b5e:	9219      	s32i.n	a2, a1, 36
    int res = 0, length = 0;
  904b60:	c040      	movi.n	a4, 0
    va_start(ap, fmt);
  904b62:	c024      	movi.n	a2, 4
  904b64:	231c70        	addi	a3, a1, 112
  904b67:	261610        	s32i	a6, a1, 64
  904b6a:	921a      	s32i.n	a2, a1, 40
  904b6c:	221614        	s32i	a2, a1, 80
  904b6f:	271611        	s32i	a7, a1, 68
  904b72:	9318      	s32i.n	a3, a1, 32
    int res = 0, length = 0;
  904b74:	d240      	mov.n	a2, a4
    long val = 0;
  904b76:	241615        	s32i	a4, a1, 84
    char c, sign, *cp=buf;
  904b79:	d610      	mov.n	a6, a1
  904b7b:	60039e        	j	904f1d <fw_cmnos_printf+0x3cd>
        if (c == '%') {
  904b7e:	c285      	movi.n	a8, 37
  904b80:	78a102        	beq	a10, a8, 904b86 <fw_cmnos_printf+0x36>
  904b83:	60038f        	j	904f16 <fw_cmnos_printf+0x3c6>
            c = *fmt++;
  904b86:	285001        	l8ui	a8, a5, 1
            if (c == '-') {
  904b89:	c23d      	movi.n	a3, 45
  904b8b:	738109        	beq	a8, a3, 904b98 <fw_cmnos_printf+0x48>
            left_prec = right_prec = pad_on_right = islong = islonglong = 0;
  904b8e:	c090      	movi.n	a9, 0
            c = *fmt++;
  904b90:	b257      	addi.n	a7, a5, 2
            left_prec = right_prec = pad_on_right = islong = islonglong = 0;
  904b92:	291617        	s32i	a9, a1, 92
  904b95:	600009        	j	904ba2 <fw_cmnos_printf+0x52>
                pad_on_right++;
  904b98:	c031      	movi.n	a3, 1
                c = *fmt++;
  904b9a:	285002        	l8ui	a8, a5, 2
  904b9d:	b357      	addi.n	a7, a5, 3
                pad_on_right++;
  904b9f:	231617        	s32i	a3, a1, 92
                zero_fill = FALSE;
  904ba2:	c050      	movi.n	a5, 0
            if (c == '0') {
  904ba4:	c330      	movi.n	a3, 48
                zero_fill = FALSE;
  904ba6:	251616        	s32i	a5, a1, 88
            if (c == '0') {
  904ba9:	738909        	bne	a8, a3, 904bb6 <fw_cmnos_printf+0x66>
                zero_fill = TRUE;
  904bac:	c091      	movi.n	a9, 1
                c = *fmt++;
  904bae:	287000        	l8ui	a8, a7, 0
                zero_fill = TRUE;
  904bb1:	291616        	s32i	a9, a1, 88
                c = *fmt++;
  904bb4:	b177      	addi.n	a7, a7, 1
                zero_fill = TRUE;
  904bb6:	c030      	movi.n	a3, 0
            while (is_digit(c)) {
  904bb8:	c0b9      	movi.n	a11, 9
  904bba:	60000e        	j	904bcc <fw_cmnos_printf+0x7c>
                left_prec = (left_prec * 10) + (c - '0');
  904bbd:	0e3511        	slli	a5, a3, 2
  904bc0:	a353      	add.n	a3, a5, a3
  904bc2:	0f3311        	slli	a3, a3, 1
                c = *fmt++;
  904bc5:	287000        	l8ui	a8, a7, 0
                left_prec = (left_prec * 10) + (c - '0');
  904bc8:	a393      	add.n	a3, a9, a3
  904bca:	b177      	addi.n	a7, a7, 1
            while (is_digit(c)) {
  904bcc:	298cd0        	addi	a9, a8, -48
  904bcf:	090a47        	extui	a10, a9, 0, 8
  904bd2:	d570      	mov.n	a5, a7
  904bd4:	7abbe5        	bgeu	a11, a10, 904bbd <fw_cmnos_printf+0x6d>
            if (c == '.') {
  904bd7:	c29e      	movi.n	a9, 46
  904bd9:	798923        	bne	a8, a9, 904c00 <fw_cmnos_printf+0xb0>
                zero_fill++;
  904bdc:	251216        	l32i	a5, a1, 88
                c = *fmt++;
  904bdf:	287000        	l8ui	a8, a7, 0
                zero_fill++;
  904be2:	b155      	addi.n	a5, a5, 1
  904be4:	251616        	s32i	a5, a1, 88
                c = *fmt++;
  904be7:	b177      	addi.n	a7, a7, 1
                while (is_digit(c)) {
  904be9:	c0a9      	movi.n	a10, 9
  904beb:	600006        	j	904bf5 <fw_cmnos_printf+0xa5>
  904bee:	000028        	mull	a0, a0, a0
                    c = *fmt++;
  904bf1:	7000b1        	bnone	a0, a0, 904ba6 <fw_cmnos_printf+0x56>
  904bf4:	77298c        	bne	a2, a7, 904b84 <fw_cmnos_printf+0x34>
                while (is_digit(c)) {
  904bf7:	d009      	excw
  904bf9:	0947d5        	excw
  904bfc:	7079ab        	bne	a7, a0, 904bab <fw_cmnos_printf+0x5b>
  904bff:	ef          	.byte 0xef
            if (c == 'l') {
  904c00:	290a6c        	movi	a9, 108
  904c03:	270a62        	movi	a7, 98
  904c06:	798102        	beq	a8, a9, 904c0c <fw_cmnos_printf+0xbc>
  904c09:	600323        	j	904f30 <fw_cmnos_printf+0x3e0>
                c = *fmt++;
  904c0c:	285000        	l8ui	a8, a5, 0
                if (c == 'l') {
  904c0f:	798105        	beq	a8, a9, 904c18 <fw_cmnos_printf+0xc8>
                c = *fmt++;
  904c12:	b155      	addi.n	a5, a5, 1
  904c14:	600318        	j	904f30 <fw_cmnos_printf+0x3e0>
  904c17:	002850        	extui	a8, a0, 18, 1
                    c = *fmt++;
  904c1a:	01b259        	extui	a2, a1, 27, 10
            switch (c) {
  904c1d:	778137        	beq	a8, a7, 904c58 <fw_cmnos_printf+0x108>
  904c20:	787318        	bltu	a7, a8, 904c3c <fw_cmnos_printf+0xec>
  904c23:	c454      	movi.n	a5, 68
  904c25:	75812f        	beq	a8, a5, 904c58 <fw_cmnos_printf+0x108>
  904c28:	785304        	bltu	a5, a8, 904c30 <fw_cmnos_printf+0xe0>
  904c2b:	c452      	movi.n	a5, 66
  904c2d:	600024        	j	904c55 <fw_cmnos_printf+0x105>
  904c30:	c555      	movi.n	a5, 85
  904c32:	758122        	beq	a8, a5, 904c58 <fw_cmnos_printf+0x108>
  904c35:	c558      	movi.n	a5, 88
  904c37:	60001a        	j	904c55 <fw_cmnos_printf+0x105>
  904c3a:	000025        	excw
  904c3d:	0a7075        	excw
  904c40:	8115      	l32i.n	a1, a1, 20
  904c42:	785306        	bltu	a5, a8, 904c4c <fw_cmnos_printf+0xfc>
  904c45:	250a64        	movi	a5, 100
  904c48:	600009        	j	904c55 <fw_cmnos_printf+0x105>
  904c4b:	00250a        	addx4	a5, a2, a0
  904c4e:	757581        	bbc	a7, a5, 904bd3 <fw_cmnos_printf+0x83>
  904c51:	05250a        	addx4	a5, a2, a5
  904c54:	787589        	bbc	a7, a8, 904be1 <fw_cmnos_printf+0x91>
  904c57:	6d2512        	excw
                    val = va_arg(ap, long);
  904c5a:	14c1a8        	l32r	a4, 8f52fc <memset+0x10160>
  904c5d:	b457      	addi.n	a7, a5, 4
  904c5f:	251c30        	addi	a5, a1, 48
  904c62:	77aa0a        	bge	a10, a7, 904c70 <fw_cmnos_printf+0x120>
  904c65:	251214        	l32i	a5, a1, 80
  904c68:	75a201        	blt	a10, a5, 904c6d <fw_cmnos_printf+0x11d>
  904c6b:	c274      	movi.n	a7, 36
  904c6d:	251c70        	addi	a5, a1, 112
  904c70:	a755      	add.n	a5, a5, a7
  904c72:	255cfc        	addi	a5, a5, -4
  904c75:	8550      	l32i.n	a5, a5, 0
  904c77:	271614        	s32i	a7, a1, 80
  904c7a:	251615        	s32i	a5, a1, 84
  904c7d:	d590      	mov.n	a5, a9
  904c7f:	600026        	j	904ca9 <fw_cmnos_printf+0x159>
  904c82:	00002a        	muluh	a0, a0, a0
                    val = (long)va_arg(ap, int);
  904c85:	121427        	l32r	a2, 8c9d24 <_bss_end+0x3bc51c>
  904c88:	1c30b4        	l32r	a12, 8d0f58 <_bss_end+0x3c3750>
  904c8b:	a9c1      	add.n	a1, a12, a9
  904c8d:	a879      	add.n	a9, a7, a8
  904c8f:	aa0a      	add.n	a10, a0, a10
  904c91:	2b1214        	l32i	a11, a1, 80
  904c94:	7ba201        	blt	a10, a11, 904c99 <fw_cmnos_printf+0x149>
  904c97:	c294      	movi.n	a9, 36
  904c99:	271c70        	addi	a7, a1, 112
  904c9c:	a977      	add.n	a7, a7, a9
  904c9e:	277cfc        	addi	a7, a7, -4
  904ca1:	8c70      	l32i.n	a12, a7, 0
  904ca3:	291614        	s32i	a9, a1, 80
  904ca6:	2c1615        	s32i	a12, a1, 84
                if ((c == 'd') || (c == 'D')) {
  904ca9:	27fadf        	movi	a7, -33
  904cac:	078701        	and	a7, a8, a7
  904caf:	277cbc        	addi	a7, a7, -68
                    if (val < 0) {
  904cb2:	cd72      	bnez.n	a7, 904cc8 <fw_cmnos_printf+0x178>
  904cb4:	291215        	l32i	a9, a1, 84
  904cb7:	67900d        	bgez	a9, 904cc8 <fw_cmnos_printf+0x178>
                        val = -val;
  904cba:	090906        	neg	a9, a9
  904cbd:	291615        	s32i	a9, a1, 84
                        sign = '-';
  904cc0:	c27d      	movi.n	a7, 45
  904cc2:	600004        	j	904cca <fw_cmnos_printf+0x17a>
  904cc5:	00d590        	l32e	a0, a13, -44
            sign = '\0';
  904cc8:	c070      	movi.n	a7, 0
            switch (c) {
  904cca:	c598      	movi.n	a9, 88
  904ccc:	798902        	bne	a8, a9, 904cd2 <fw_cmnos_printf+0x182>
  904ccf:	600081        	j	904d54 <fw_cmnos_printf+0x204>
  904cd2:	78932f        	bltu	a9, a8, 904d05 <fw_cmnos_printf+0x1b5>
  904cd5:	c493      	movi.n	a9, 67
  904cd7:	798902        	bne	a8, a9, 904cdd <fw_cmnos_printf+0x18d>
  904cda:	60010f        	j	904ded <fw_cmnos_printf+0x29d>
  904cdd:	789309        	bltu	a9, a8, 904cea <fw_cmnos_printf+0x19a>
  904ce0:	c2a5      	movi.n	a10, 37
  904ce2:	c492      	movi.n	a9, 66
  904ce4:	7a8938        	bne	a8, a10, 904d20 <fw_cmnos_printf+0x1d0>
  904ce7:	60015d        	j	904e48 <fw_cmnos_printf+0x2f8>
  904cea:	c593      	movi.n	a9, 83
  904cec:	798902        	bne	a8, a9, 904cf2 <fw_cmnos_printf+0x1a2>
  904cef:	6000b5        	j	904da8 <fw_cmnos_printf+0x258>
  904cf2:	c595      	movi.n	a9, 85
  904cf4:	79815c        	beq	a8, a9, 904d54 <fw_cmnos_printf+0x204>
  904cf7:	c494      	movi.n	a9, 68
  904cf9:	798102        	beq	a8, a9, 904cff <fw_cmnos_printf+0x1af>
  904cfc:	600150        	j	904e50 <fw_cmnos_printf+0x300>
  904cff:	600051        	j	904d54 <fw_cmnos_printf+0x204>
  904d02:	000000        	ill
  904d05:	290a70        	movi	a9, 112
  904d08:	798132        	beq	a8, a9, 904d3e <fw_cmnos_printf+0x1ee>
  904d0b:	78931a        	bltu	a9, a8, 904d29 <fw_cmnos_printf+0x1d9>
  904d0e:	290a63        	movi	a9, 99
  904d11:	798902        	bne	a8, a9, 904d17 <fw_cmnos_printf+0x1c7>
  904d14:	6000d5        	j	904ded <fw_cmnos_printf+0x29d>
  904d17:	290a64        	movi	a9, 100
  904d1a:	798136        	beq	a8, a9, 904d54 <fw_cmnos_printf+0x204>
  904d1d:	290a62        	movi	a9, 98
  904d20:	798902        	bne	a8, a9, 904d26 <fw_cmnos_printf+0x1d6>
  904d23:	6000ef        	j	904e16 <fw_cmnos_printf+0x2c6>
  904d26:	600126        	j	904e50 <fw_cmnos_printf+0x300>
  904d29:	290a75        	movi	a9, 117
  904d2c:	798124        	beq	a8, a9, 904d54 <fw_cmnos_printf+0x204>
  904d2f:	290a78        	movi	a9, 120
  904d32:	79811e        	beq	a8, a9, 904d54 <fw_cmnos_printf+0x204>
  904d35:	290a73        	movi	a9, 115
  904d38:	79816c        	beq	a8, a9, 904da8 <fw_cmnos_printf+0x258>
  904d3b:	600111        	j	904e50 <fw_cmnos_printf+0x300>
                (*putc)('0');
  904d3e:	c3a0      	movi.n	a10, 48
  904d40:	5bff78        	call8	904b24 <cmnos_write_char>
                zero_fill = TRUE;
  904d43:	230a01        	movi	a3, 1
                (*putc)('x');
  904d46:	2a0a78        	movi	a10, 120
  904d49:	5bff76        	call8	904b24 <cmnos_write_char>
                zero_fill = TRUE;
  904d4c:	231616        	s32i	a3, a1, 88
                left_prec = sizeof(unsigned long)*2;
  904d4f:	c038      	movi.n	a3, 8
  904d51:	600040        	j	904d95 <fw_cmnos_printf+0x245>
                switch (c) {
  904d54:	260a64        	movi	a6, 100
  904d57:	768132        	beq	a8, a6, 904d8d <fw_cmnos_printf+0x23d>
  904d5a:	786317        	bltu	a6, a8, 904d75 <fw_cmnos_printf+0x225>
  904d5d:	c565      	movi.n	a6, 85
  904d5f:	76812a        	beq	a8, a6, 904d8d <fw_cmnos_printf+0x23d>
  904d62:	c568      	movi.n	a6, 88
                    length = _cvt(val, buf, 16, "0123456789ABCDEF");
  904d64:	1d7212        	l32r	a13, 8e15ac <athos_indirection_table_install+0x64>
                switch (c) {
  904d67:	76812d        	beq	a8, a6, 904d98 <fw_cmnos_printf+0x248>
  904d6a:	c464      	movi.n	a6, 68
  904d6c:	768102        	beq	a8, a6, 904d72 <fw_cmnos_printf+0x222>
  904d6f:	6000f5        	j	904e68 <fw_cmnos_printf+0x318>
  904d72:	600017        	j	904d8d <fw_cmnos_printf+0x23d>
  904d75:	260a75        	movi	a6, 117
  904d78:	768111        	beq	a8, a6, 904d8d <fw_cmnos_printf+0x23d>
  904d7b:	260a78        	movi	a6, 120
  904d7e:	768113        	beq	a8, a6, 904d95 <fw_cmnos_printf+0x245>
  904d81:	260a70        	movi	a6, 112
  904d84:	768102        	beq	a8, a6, 904d8a <fw_cmnos_printf+0x23a>
  904d87:	6000dd        	j	904e68 <fw_cmnos_printf+0x318>
  904d8a:	600007        	j	904d95 <fw_cmnos_printf+0x245>
                    length = _cvt(val, buf, 10, "0123456789");
  904d8d:	1d7210        	l32r	a13, 8e15d0 <athos_indirection_table_install+0x88>
  904d90:	c0ca      	movi.n	a12, 10
  904d92:	600004        	j	904d9a <fw_cmnos_printf+0x24a>
                    length = _cvt(val, buf, 16, "0123456789abcdef");
  904d95:	1d7211        	l32r	a13, 8e15dc <athos_indirection_table_install+0x94>
  904d98:	c1c0      	movi.n	a12, 16
  904d9a:	2a1215        	l32i	a10, a1, 84
  904d9d:	db10      	mov.n	a11, a1
  904d9f:	5bff4c        	call8	904ad0 <_cvt>
  904da2:	d4a0      	mov.n	a4, a10
  904da4:	6000c0        	j	904e68 <fw_cmnos_printf+0x318>
  904da7:	002412        	srai	a4, a0, 2
                cp = va_arg(ap, char *);
  904daa:	14b446        	l32r	a4, 8f1ec4 <memset+0xcd28>
  904dad:	240a18        	movi	a4, 24
  904db0:	764a11        	bge	a4, a6, 904dc5 <fw_cmnos_printf+0x275>
  904db3:	281214        	l32i	a8, a1, 80
  904db6:	784202        	blt	a4, a8, 904dbc <fw_cmnos_printf+0x26c>
  904db9:	260a24        	movi	a6, 36
  904dbc:	261614        	s32i	a6, a1, 80
  904dbf:	241c70        	addi	a4, a1, 112
  904dc2:	600005        	j	904dcb <fw_cmnos_printf+0x27b>
  904dc5:	261614        	s32i	a6, a1, 80
  904dc8:	241c30        	addi	a4, a1, 48
  904dcb:	a644      	add.n	a4, a4, a6
  904dcd:	244cfc        	addi	a4, a4, -4
  904dd0:	264200        	l32i	a6, a4, 0
                    cp = "<null>";
  904dd3:	14720f        	l32r	a4, 8e1610 <athos_indirection_table_install+0xc8>
  904dd6:	064638        	moveqz	a6, a4, a6
  904dd9:	066802        	or	a8, a6, a6
  904ddc:	06840c        	sub	a4, a8, a6
  904ddf:	b188      	addi.n	a8, a8, 1
                while (cp[length] != '\0') length++;
  904de1:	b089      	addi.n	a9, a8, -1
  904de3:	299000        	l8ui	a9, a9, 0
  904de6:	659ff2        	bnez	a9, 904ddc <fw_cmnos_printf+0x28c>
  904de9:	60007d        	j	904e6a <fw_cmnos_printf+0x31a>
  904dec:	002912        	srai	a9, a0, 2
                c = va_arg(ap, int /*char*/);
  904def:	14c188        	l32r	a4, 8f5410 <memset+0x10274>
  904df2:	b497      	addi.n	a7, a9, 4
  904df4:	231c30        	addi	a3, a1, 48
  904df7:	778a08        	bge	a8, a7, 904e03 <fw_cmnos_printf+0x2b3>
  904dfa:	798202        	blt	a8, a9, 904e00 <fw_cmnos_printf+0x2b0>
  904dfd:	270a24        	movi	a7, 36
  904e00:	231c70        	addi	a3, a1, 112
  904e03:	a733      	add.n	a3, a3, a7
  904e05:	233cfc        	addi	a3, a3, -4
                (*putc)(c);
  904e08:	2a3003        	l8ui	a10, a3, 3
                res++;
  904e0b:	b122      	addi.n	a2, a2, 1
                (*putc)(c);
  904e0d:	5bff45        	call8	904b24 <cmnos_write_char>
                res++;
  904e10:	271614        	s32i	a7, a1, 80
  904e13:	600106        	j	904f1d <fw_cmnos_printf+0x3cd>
                if (left_prec == 0) {
  904e16:	c240      	movi.n	a4, 32
  904e18:	033439        	movnez	a4, a3, a3
                for (i = 0;  i < length-1;  i++) {
  904e1b:	c060      	movi.n	a6, 0
  904e1d:	b049      	addi.n	a9, a4, -1
                    buf[i] = ((val & ((long)1<<i)) ? '1' : '.');
  904e1f:	c2ae      	movi.n	a10, 46
  904e21:	c3b1      	movi.n	a11, 49
  904e23:	60001b        	j	904e42 <fw_cmnos_printf+0x2f2>
  904e26:	00002c        	excw
  904e29:	121500        	l32r	a2, 8ca22c <_bss_end+0x3bca24>
  904e2c:	60040c        	j	90523c <ar5416ProcRxDescFast_20+0x4c>
  904e2f:	081b08        	add	a11, a1, a8
  904e32:	0840dc        	excw
  904e35:	b008      	addi.n	a8, a0, -1
  904e37:	ac38      	add.n	a8, a3, a12
  904e39:	d8c0      	mov.n	a8, a12
  904e3b:	a61c      	add.n	a12, a1, a6
  904e3d:	28c400        	s8i	a8, a12, 0
                for (i = 0;  i < length-1;  i++) {
  904e40:	b166      	addi.n	a6, a6, 1
  904e42:	7962e2        	blt	a6, a9, 904e28 <fw_cmnos_printf+0x2d8>
  904e45:	60001f        	j	904e68 <fw_cmnos_printf+0x318>
                (*putc)('%');
  904e48:	c2a5      	movi.n	a10, 37
  904e4a:	5bff36        	call8	904b24 <cmnos_write_char>
  904e4d:	600019        	j	904e6a <fw_cmnos_printf+0x31a>
                (*putc)('%');
  904e50:	c2a5      	movi.n	a10, 37
  904e52:	281619        	s32i	a8, a1, 100
  904e55:	5bff33        	call8	904b24 <cmnos_write_char>
                (*putc)(c);
  904e58:	281219        	l32i	a8, a1, 100
                res += 2;
  904e5b:	222c02        	addi	a2, a2, 2
                (*putc)(c);
  904e5e:	088a02        	or	a10, a8, a8
  904e61:	5bff30        	call8	904b24 <cmnos_write_char>
  904e64:	600002        	j	904e6a <fw_cmnos_printf+0x31a>
  904e67:	00d610        	slli	a6, a13, 32
            pad = left_prec - length;
  904e6a:	04330c        	sub	a3, a3, a4
            if (sign != '\0') {
  904e6d:	c87b      	beqz.n	a7, 904e7c <fw_cmnos_printf+0x32c>
            if (zero_fill) {
  904e6f:	281216        	l32i	a8, a1, 88
                pad--;
  904e72:	b033      	addi.n	a3, a3, -1
            if (zero_fill) {
  904e74:	648108        	beqz	a8, 904f80 <fw_cmnos_printf+0x430>
  904e77:	60000a        	j	904e85 <fw_cmnos_printf+0x335>
  904e7a:	000029        	excw
  904e7d:	121665        	l32r	a2, 8ca814 <_bss_end+0x3bd00c>
  904e80:	90a2      	s32i.n	a0, a10, 8
  904e82:	600105        	j	904f8b <fw_cmnos_printf+0x43b>
                    (*putc)(sign);
  904e85:	da70      	mov.n	a10, a7
  904e87:	5bff27        	call8	904b24 <cmnos_write_char>
                    res++;
  904e8a:	b122      	addi.n	a2, a2, 1
  904e8c:	600095        	j	904f25 <fw_cmnos_printf+0x3d5>
  904e8f:	002712        	srai	a7, a0, 2
            if (!pad_on_right) {
  904e92:	17c380        	l32r	a7, 8f5c94 <memset+0x10af8>
  904e95:	600001        	j	904e9a <fw_cmnos_printf+0x34a>
  904e98:	c280      	movi.n	a8, 32
  904e9a:	d930      	mov.n	a9, a3
  904e9c:	600014        	j	904eb4 <fw_cmnos_printf+0x364>
  904e9f:	0000da        	excw
                    (*putc)(c);
  904ea2:	8028      	l32i.n	a0, a2, 32
  904ea4:	161929        	l32r	a6, 8cb348 <_bss_end+0x3bdb40>
  904ea7:	16185b        	l32r	a6, 8cb014 <_bss_end+0x3bd80c>
  904eaa:	ff          	.byte 0xff
  904eab:	1e2912        	l32r	a14, 8cf2f4 <_bss_end+0x3c1aec>
  904eae:	182812        	l32r	a8, 8ceef8 <_bss_end+0x3c16f0>
  904eb1:	19b099        	l32r	a9, 8f1118 <memset+0xbf7c>
                while (pad-- > 0) {
  904eb4:	6b91e9        	bgei	a9, 1, 904ea1 <fw_cmnos_printf+0x351>
  904eb7:	c080      	movi.n	a8, 0
  904eb9:	083835        	max	a8, a3, a8
  904ebc:	b033      	addi.n	a3, a3, -1
  904ebe:	a822      	add.n	a2, a2, a8
  904ec0:	08330c        	sub	a3, a3, a8
            if (sign != '\0') {
  904ec3:	c875      	beqz.n	a7, 904ecc <fw_cmnos_printf+0x37c>
                (*putc)(sign);
  904ec5:	da70      	mov.n	a10, a7
  904ec7:	5bff17        	call8	904b24 <cmnos_write_char>
                res++;
  904eca:	b122      	addi.n	a2, a2, 1
  904ecc:	d760      	mov.n	a7, a6
  904ece:	600007        	j	904ed9 <fw_cmnos_printf+0x389>
                (*putc)(c);
  904ed1:	2a7000        	l8ui	a10, a7, 0
  904ed4:	b177      	addi.n	a7, a7, 1
  904ed6:	5bff13        	call8	904b24 <cmnos_write_char>
  904ed9:	07480c        	sub	a8, a4, a7
  904edc:	a868      	add.n	a8, a6, a8
            while (length-- > 0) {
  904ede:	6b81ef        	bgei	a8, 1, 904ed1 <fw_cmnos_printf+0x381>
  904ee1:	c070      	movi.n	a7, 0
            if (pad_on_right) {
  904ee3:	281217        	l32i	a8, a1, 92
  904ee6:	074735        	max	a7, a4, a7
  904ee9:	b044      	addi.n	a4, a4, -1
  904eeb:	a766      	add.n	a6, a6, a7
  904eed:	a722      	add.n	a2, a2, a7
  904eef:	07440c        	sub	a4, a4, a7
  904ef2:	ca87      	beqz.n	a8, 904f1d <fw_cmnos_printf+0x3cd>
  904ef4:	d730      	mov.n	a7, a3
                    (*putc)(' ');
  904ef6:	c280      	movi.n	a8, 32
  904ef8:	60000d        	j	904f09 <fw_cmnos_printf+0x3b9>
  904efb:	00da80        	excw
  904efe:	281619        	s32i	a8, a1, 100
  904f01:	5bff08        	call8	904b24 <cmnos_write_char>
  904f04:	281219        	l32i	a8, a1, 100
  904f07:	b077      	addi.n	a7, a7, -1
                while (pad-- > 0) {
  904f09:	6b71ef        	bgei	a7, 1, 904efc <fw_cmnos_printf+0x3ac>
  904f0c:	c070      	movi.n	a7, 0
  904f0e:	073335        	max	a3, a3, a7
  904f11:	a322      	add.n	a2, a2, a3
  904f13:	600006        	j	904f1d <fw_cmnos_printf+0x3cd>
    while ((c = *fmt++) != '\0') {
  904f16:	b155      	addi.n	a5, a5, 1
            (*putc)(c);
  904f18:	5bff02        	call8	904b24 <cmnos_write_char>
            res++;
  904f1b:	b122      	addi.n	a2, a2, 1
    while ((c = *fmt++) != '\0') {
  904f1d:	2a5000        	l8ui	a10, a5, 0
  904f20:	65ac5a        	bnez	a10, 904b7e <fw_cmnos_printf+0x2e>
  904f23:	d10f      	retw.n
            if (!pad_on_right) {
  904f25:	291217        	l32i	a9, a1, 92
  904f28:	649f64        	beqz	a9, 904e90 <fw_cmnos_printf+0x340>
  904f2b:	63ff9d        	j	904ecc <fw_cmnos_printf+0x37c>
  904f2e:	000077        	excw
            switch (c) {
  904f31:	8902      	l32i.n	a9, a0, 8
  904f33:	63fd4d        	j	904c84 <fw_cmnos_printf+0x134>
  904f36:	78731e        	bltu	a7, a8, 904f58 <fw_cmnos_printf+0x408>
  904f39:	c474      	movi.n	a7, 68
  904f3b:	778902        	bne	a8, a7, 904f41 <fw_cmnos_printf+0x3f1>
  904f3e:	63fd42        	j	904c84 <fw_cmnos_printf+0x134>
  904f41:	787304        	bltu	a7, a8, 904f49 <fw_cmnos_printf+0x3f9>
  904f44:	c472      	movi.n	a7, 66
  904f46:	60002c        	j	904f76 <fw_cmnos_printf+0x426>
  904f49:	c575      	movi.n	a7, 85
  904f4b:	778902        	bne	a8, a7, 904f51 <fw_cmnos_printf+0x401>
  904f4e:	63fd32        	j	904c84 <fw_cmnos_printf+0x134>
  904f51:	c578      	movi.n	a7, 88
  904f53:	60001f        	j	904f76 <fw_cmnos_printf+0x426>
  904f56:	000027        	excw
  904f59:	0a7077        	excw
  904f5c:	8902      	l32i.n	a9, a0, 8
  904f5e:	63fd22        	j	904c84 <fw_cmnos_printf+0x134>
  904f61:	787305        	bltu	a7, a8, 904f6a <fw_cmnos_printf+0x41a>
  904f64:	270a64        	movi	a7, 100
  904f67:	60000b        	j	904f76 <fw_cmnos_printf+0x426>
  904f6a:	270a75        	movi	a7, 117
  904f6d:	778902        	bne	a8, a7, 904f73 <fw_cmnos_printf+0x423>
  904f70:	63fd10        	j	904c84 <fw_cmnos_printf+0x134>
  904f73:	270a78        	movi	a7, 120
  904f76:	778102        	beq	a8, a7, 904f7c <fw_cmnos_printf+0x42c>
  904f79:	63fd4b        	j	904cc8 <fw_cmnos_printf+0x178>
  904f7c:	63fd04        	j	904c84 <fw_cmnos_printf+0x134>
  904f7f:	002912        	srai	a9, a0, 2
            if (!pad_on_right) {
  904f82:	17c280        	l32r	a7, 8f5984 <memset+0x107e8>
  904f85:	649f11        	beqz	a9, 904e9a <fw_cmnos_printf+0x34a>
  904f88:	63ff39        	j	904ec5 <fw_cmnos_printf+0x375>
  904f8b:	281217        	l32i	a8, a1, 92
  904f8e:	658f3a        	bnez	a8, 904ecc <fw_cmnos_printf+0x37c>
  904f91:	63ff03        	j	904e98 <fw_cmnos_printf+0x348>

00904f94 <ath_hal_attach_tgt>:

struct ath_hal*
ath_hal_attach_tgt(a_uint32_t devid,HAL_SOFTC sc,
		   adf_os_device_t dev,
		   a_uint32_t flags, HAL_STATUS *error)
{
  904f94:	6c1004        	entry	a1, 32
	struct ath_hal *ah = AH_NULL;

	ah = ar5416Attach(sc, dev, error);
  904f97:	dc60      	mov.n	a12, a6
  904f99:	db40      	mov.n	a11, a4
  904f9b:	da30      	mov.n	a10, a3
  904f9d:	5804c4        	call8	9062b0 <ar5416Attach>

	return ah;
}
  904fa0:	d2a0      	mov.n	a2, a10
  904fa2:	d10f      	retw.n

00904fa4 <ath_hal_getcapability>:

HAL_STATUS
ath_hal_getcapability(struct ath_hal *ah, HAL_CAPABILITY_TYPE type)
{
  904fa4:	6c1004        	entry	a1, 32
	const HAL_CAPABILITIES *pCap = &AH_PRIVATE(ah)->ah_caps;
	switch (type) {
  904fa7:	683111        	beqi	a3, 1, 904fbc <ath_hal_getcapability+0x18>
  904faa:	c93e      	beqz.n	a3, 904fcc <ath_hal_getcapability+0x28>
	case HAL_CAP_BSSIDMASK:
		return pCap->halBssIdMaskSupport ? HAL_OK : HAL_ENOTSUPP;
	case HAL_CAP_VEOL:
		return pCap->halVEOLSupport ? HAL_OK : HAL_ENOTSUPP;
	default:
		return HAL_EINVAL;
  904fac:	223cfe        	addi	a2, a3, -2
  904faf:	c081      	movi.n	a8, 1
  904fb1:	c030      	movi.n	a3, 0
  904fb3:	028338        	moveqz	a3, a8, a2
  904fb6:	bc32      	addi.n	a2, a3, 12
  904fb8:	d10f      	retw.n
  904fba:	000013        	srai	a0, a0, 16
		return pCap->halBssIdMaskSupport ? HAL_OK : HAL_ENOTSUPP;
  904fbd:	721322        	bltu	a1, a2, 904fe3 <ath_hal_computetxtime+0x7>
  904fc0:	222b03        	l32ai	a2, a2, 12
  904fc3:	2201c0        	l16ui	a2, a0, 0x180
  904fc6:	306000        	excw
  904fc9:	070000        	callx4	a0
		return pCap->halVEOLSupport ? HAL_OK : HAL_ENOTSUPP;
  904fcc:	22222b        	l32i	a2, a2, 172
  904fcf:	02f240        	extui	a2, a2, 15, 1
		return pCap->halBssIdMaskSupport ? HAL_OK : HAL_ENOTSUPP;
  904fd2:	c08d      	movi.n	a8, 13
  904fd4:	028338        	moveqz	a3, a8, a2
  904fd7:	d230      	mov.n	a2, a3
	}
}
  904fd9:	d10f      	retw.n
	...

00904fdc <ath_hal_computetxtime>:

a_uint16_t
ath_hal_computetxtime(struct ath_hal *ah,
		      const HAL_RATE_TABLE *rates, a_uint32_t frameLen, a_uint16_t rateix,
		      HAL_BOOL shortPreamble)
{
  904fdc:	6c1004        	entry	a1, 32
  904fdf:	05054f        	extui	a5, a5, 0, 16
  904fe2:	0c5511        	slli	a5, a5, 4
  904fe5:	a533      	add.n	a3, a3, a5
	a_uint32_t bitsPerSymbol, numBits, numSymbols, phyTime, txTime;
	a_uint32_t kbps;

	kbps = rates->info[rateix].rateKbps;
  904fe7:	8b3b      	l32i.n	a11, a3, 44

	/*
	 * index can be invalid duting dynamic Turbo transitions.
	 */
	if(kbps == 0) return 0;
  904fe9:	c020      	movi.n	a2, 0
  904feb:	72b15a        	beq	a11, a2, 905049 <ath_hal_computetxtime+0x6d>
	switch (rates->info[rateix].phy) {
  904fee:	253029        	l8ui	a5, a3, 41
  904ff1:	725107        	beq	a5, a2, 904ffc <ath_hal_computetxtime+0x20>
  904ff4:	68522d        	beqi	a5, 2, 905025 <ath_hal_computetxtime+0x49>
  904ff7:	60004b        	j	905046 <ath_hal_computetxtime+0x6a>
  904ffa:	000025        	excw

	case IEEE80211_T_CCK:
		phyTime = CCK_PREAMBLE_BITS + CCK_PLCP_BITS;
  904ffd:	0ac0c8        	excw
		if (shortPreamble && rates->info[rateix].shortPreamble)
  905000:	672330        	bgez	a2, 905334 <ar5416ProcRxDescFast_20+0x144>
  905003:	31220a        	excw
			phyTime >>= 1;
  905006:	600325        	j	90532f <ar5416ProcRxDescFast_20+0x13f>
  905009:	390d42        	excw
		numBits = frameLen << 3;
  90500c:	11084a        	l32r	a1, 8c7134 <_bss_end+0x3b992c>
		txTime = phyTime + ((numBits * 1000)/kbps);
  90500f:	1102aa        	l32r	a1, 8c5ab8 <_bss_end+0x3b82b0>
  905012:	0c0eaa        	excw
  905015:	11a2aa        	l32r	a1, 8edac0 <memset+0x8924>
  905018:	0daa11        	slli	a10, a10, 3
  90501b:	5b7f61        	call8	8e4da0 <__udivsi3>
		/* TODO: make sure the same value of txTime can use in all device */
		if (ath_hal_getcapability(ah, HAL_CAP_HT) != HAL_OK)
			txTime = txTime + CCK_SIFS_TIME;
  90501e:	baa2      	addi.n	a2, a10, 10
  905020:	a522      	add.n	a2, a2, a5
  905022:	600020        	j	905046 <ath_hal_computetxtime+0x6a>
		break;
	case IEEE80211_T_OFDM:
		/* full rate channel */
		bitsPerSymbol   = (kbps * OFDM_SYMBOL_TIME) / 1000;
  905025:	0eb211        	slli	a2, a11, 2
  905028:	1b7214        	l32r	a11, 8e1878 <athos_indirection_table_install+0x330>
		HALASSERT(bitsPerSymbol != 0);

		numBits = OFDM_PLCP_BITS + (frameLen << 3);
  90502b:	0d4411        	slli	a4, a4, 3
		bitsPerSymbol   = (kbps * OFDM_SYMBOL_TIME) / 1000;
  90502e:	0b222a        	muluh	a2, a2, a11
		numSymbols = asf_howmany(numBits, bitsPerSymbol);
  905031:	2a4c15        	addi	a10, a4, 21
		bitsPerSymbol   = (kbps * OFDM_SYMBOL_TIME) / 1000;
  905034:	026214        	srli	a2, a2, 6
		numSymbols = asf_howmany(numBits, bitsPerSymbol);
  905037:	022b02        	or	a11, a2, a2
  90503a:	02aa08        	add	a10, a10, a2
  90503d:	5b7f58        	call8	8e4da0 <__udivsi3>
		txTime = OFDM_PREAMBLE_TIME + (numSymbols * OFDM_SYMBOL_TIME);
  905040:	0ea211        	slli	a2, a10, 2
		/* TODO: make sure the same value of txTime can use in all device */
		if (ath_hal_getcapability(ah, HAL_CAP_HT) != HAL_OK)
			txTime = txTime + OFDM_SIFS_TIME;
  905043:	222c24        	addi	a2, a2, 36
		break;
	default:
		txTime = 0;
		break;
	}
	return txTime;
  905046:	02024f        	extui	a2, a2, 0, 16
}
  905049:	d10f      	retw.n
	...

0090504c <ath_hal_wait>:

#endif

HAL_BOOL
ath_hal_wait(struct ath_hal *ah, a_uint32_t reg, a_uint32_t mask, a_uint32_t val)
{
  90504c:	6c1004        	entry	a1, 32
				return AH_TRUE;
			OS_DELAY(10);
		}
	} else {
		for (i = 0; i < AH_TIMEOUT_11G; i++) {
			if ((ioread32_mac(reg) & mask) == val)
  90504f:	187215        	l32r	a8, 8e18a4 <athos_indirection_table_install+0x35c>
{
  905052:	223ae8        	movi	a2, 0x3e8
			if ((ioread32_mac(reg) & mask) == val)
  905055:	083308        	add	a3, a3, a8
	return *(const volatile uint32_t *) addr;
  905058:	0c0200        	memw
  90505b:	8830      	l32i.n	a8, a3, 0
  90505d:	084801        	and	a8, a4, a8
  905060:	78510d        	beq	a5, a8, 905071 <ath_hal_wait+0x25>
				return AH_TRUE;
			OS_DELAY(10);
  905063:	2a0a0a        	movi	a10, 10
  905066:	222cff        	addi	a2, a2, -1
  905069:	5bfacf        	call8	903ba8 <ath_hal_delay>
		for (i = 0; i < AH_TIMEOUT_11G; i++) {
  90506c:	652fe8        	bnez	a2, 905058 <ath_hal_wait+0xc>
  90506f:	d10f      	retw.n
				return AH_TRUE;
  905071:	c021      	movi.n	a2, 1
	}
	return AH_FALSE;

#undef AH_TIMEOUT_11N
#undef AH_TIMEOUT_11G
}
  905073:	d10f      	retw.n
  905075:	000000        	ill

00905078 <ar5416IsInterruptPending>:
/**********************/
/* Interrupt Handling */
/**********************/

HAL_BOOL ar5416IsInterruptPending(struct ath_hal *ah)
{
  905078:	6c1004        	entry	a1, 32
  90507b:	127216        	l32r	a2, 8e18d4 <athos_indirection_table_install+0x38c>
  90507e:	0c0200        	memw
  905081:	8820      	l32i.n	a8, a2, 0
		ioread32_mac(AR_INTR_ASYNC_CAUSE);
	/*
	 * Some platforms trigger our ISR before applying power to
	 * the card, so make sure.
	 */
	return ((host_isr != AR_INTR_SPURIOUS) && (host_isr & AR_INTR_MAC_IRQ));
  905083:	c020      	movi.n	a2, 0
  905085:	081940        	extui	a9, a8, 1, 1
  905088:	b188      	addi.n	a8, a8, 1
  90508a:	089239        	movnez	a2, a9, a8
}
  90508d:	d10f      	retw.n
	...

00905090 <ar5416SetInterrupts>:
	return AH_TRUE;
}

HAL_INT
ar5416SetInterrupts(struct ath_hal *ah, HAL_INT ints)
{
  905090:	6c1004        	entry	a1, 32
	struct ath_hal_5416 *ahp = AH5416(ah);
	a_uint32_t omask = ahp->ah_maskReg;
  905093:	2b2235        	l32i	a11, a2, 212
	a_uint32_t mask;

	if (omask & HAL_INT_GLOBAL) {
  905096:	67b00e        	bgez	a11, 9050a8 <ar5416SetInterrupts+0x18>
  905099:	187217        	l32r	a8, 8e18f8 <athos_indirection_table_install+0x3b0>
	*(volatile uint32_t *) addr = b;
  90509c:	c090      	movi.n	a9, 0
  90509e:	0c0200        	memw
  9050a1:	9980      	s32i.n	a9, a8, 0
	return *(const volatile uint32_t *) addr;
  9050a3:	0c0200        	memw
  9050a6:	8880      	l32i.n	a8, a8, 0
		iowrite32_mac(AR_IER, AR_IER_DISABLE);
		(void) ioread32_mac(AR_IER);
	}

	mask = ints & HAL_INT_COMMON;
  9050a8:	187218        	l32r	a8, 8e1908 <athos_indirection_table_install+0x3c0>
#else
		mask |= AR_IMR_TXOK;
		mask |= AR_IMR_TXDESC;
#endif
		mask |= AR_IMR_TXERR;
		mask |= AR_IMR_TXEOL;
  9050ab:	295ac0        	movi	a9, 0x5c0
	mask = ints & HAL_INT_COMMON;
  9050ae:	083801        	and	a8, a3, a8
	if (ints & HAL_INT_TX) {
  9050b1:	036a40        	extui	a10, a3, 6, 1
		mask |= AR_IMR_TXEOL;
  9050b4:	098902        	or	a9, a8, a9
  9050b7:	0a9839        	movnez	a8, a9, a10
	if (ints & HAL_INT_RX) {
		mask |= AR_IMR_RXERR;
#ifdef AR5416_INT_MITIGATION
		mask |=  AR_IMR_RXMINTR | AR_IMR_RXINTM;
#else
		mask |= AR_IMR_RXOK | AR_IMR_RXDESC;
  9050ba:	c097      	movi.n	a9, 7
  9050bc:	098902        	or	a9, a8, a9
	if (ints & HAL_INT_RX) {
  9050bf:	030a40        	extui	a10, a3, 0, 1
		mask |= AR_IMR_RXOK | AR_IMR_RXDESC;
  9050c2:	0a9839        	movnez	a8, a9, a10
#endif
	}

	if (ints & (HAL_INT_GTT | HAL_INT_CST)) {
  9050c5:	197219        	l32r	a9, 8e192c <athos_indirection_table_install+0x3e4>
  9050c8:	793005        	bnone	a3, a9, 9050d1 <ar5416SetInterrupts+0x41>
		mask |= AR_IMR_BCNMISC;
  9050cb:	19721a        	l32r	a9, 8e1934 <athos_indirection_table_install+0x3ec>
  9050ce:	098802        	or	a8, a8, a9
  9050d1:	19721b        	l32r	a9, 8e1940 <athos_indirection_table_install+0x3f8>
	*(volatile uint32_t *) addr = b;
  9050d4:	0c0200        	memw
  9050d7:	9890      	s32i.n	a8, a9, 0
	return *(const volatile uint32_t *) addr;
  9050d9:	0c0200        	memw
  9050dc:	8890      	l32i.n	a8, a9, 0
	}

	iowrite32_mac(AR_IMR, mask);
	(void) ioread32_mac(AR_IMR);
	ahp->ah_maskReg = ints;
  9050de:	232635        	s32i	a3, a2, 212

	/* Re-enable interrupts if they were enabled before. */
	if (ints & HAL_INT_GLOBAL) {
  9050e1:	67300f        	bgez	a3, 9050f4 <ar5416SetInterrupts+0x64>
  9050e4:	137217        	l32r	a3, 8e1940 <athos_indirection_table_install+0x3f8>
	*(volatile uint32_t *) addr = b;
  9050e7:	c021      	movi.n	a2, 1
  9050e9:	0c0200        	memw
  9050ec:	9230      	s32i.n	a2, a3, 0
	return *(const volatile uint32_t *) addr;
  9050ee:	0c0200        	memw
  9050f1:	223200        	l32i	a2, a3, 0
	*(volatile uint32_t *) addr = b;
  9050f4:	12721c        	l32r	a2, 8e1964 <athos_indirection_table_install+0x41c>
  9050f7:	c032      	movi.n	a3, 2
  9050f9:	0c0200        	memw
  9050fc:	9320      	s32i.n	a3, a2, 0
  9050fe:	12721d        	l32r	a2, 8e1974 <athos_indirection_table_install+0x42c>
  905101:	0c0200        	memw
  905104:	9320      	s32i.n	a3, a2, 0
  905106:	12721e        	l32r	a2, 8e1980 <athos_indirection_table_install+0x438>
  905109:	13721f        	l32r	a3, 8e1988 <athos_indirection_table_install+0x440>
  90510c:	0c0200        	memw
  90510f:	9320      	s32i.n	a3, a2, 0
	iowrite32_mac(AR_INTR_ASYNC_ENABLE, AR_INTR_MAC_IRQ);
	iowrite32_mac(AR_INTR_ASYNC_MASK, AR_INTR_MAC_IRQ);
	iowrite32_mac(AR_INTR_SYNC_ENABLE, AR_INTR_SYNC_ALL);

	return omask;
}
  905111:	d2b0      	mov.n	a2, a11
  905113:	d10f      	retw.n
  905115:	000000        	ill

00905118 <ar5416GetTsf64>:
/****************/

#define ATH9K_HTC_MAX_TSF_READ 3

u_int64_t ar5416GetTsf64(struct ath_hal *ah)
{
  905118:	6c1004        	entry	a1, 32
	return *(const volatile uint32_t *) addr;
  90511b:	187220        	l32r	a8, 8e199c <athos_indirection_table_install+0x454>
  90511e:	1b7221        	l32r	a11, 8e19a4 <athos_indirection_table_install+0x45c>
  905121:	0c0200        	memw
  905124:	8a80      	l32i.n	a10, a8, 0
  905126:	c093      	movi.n	a9, 3
  905128:	0c0200        	memw
  90512b:	83b0      	l32i.n	a3, a11, 0
  90512d:	0c0200        	memw
  905130:	8280      	l32i.n	a2, a8, 0

	tsf_upper1 = ioread32_mac(AR_TSF_U32);
	for (i = 0; i < ATH9K_HTC_MAX_TSF_READ; i++) {
		tsf_lower = ioread32_mac(AR_TSF_L32);
		tsf_upper2 = ioread32_mac(AR_TSF_U32);
		if (tsf_upper2 == tsf_upper1)
  905132:	7a2106        	beq	a2, a10, 90513c <ar5416GetTsf64+0x24>
  905135:	b099      	addi.n	a9, a9, -1
  905137:	da20      	mov.n	a10, a2
	for (i = 0; i < ATH9K_HTC_MAX_TSF_READ; i++) {
  905139:	659feb        	bnez	a9, 905128 <ar5416GetTsf64+0x10>
			break;
		tsf_upper1 = tsf_upper2;
	}

	return (((u_int64_t)tsf_upper2 << 32) | tsf_lower);
}
  90513c:	d10f      	retw.n
	...

00905140 <ar5416SetRxDP>:

/******/
/* RX */
/******/
void ar5416SetRxDP(struct ath_hal *ah, a_uint32_t rxdp)
{
  905140:	6c1004        	entry	a1, 32
  905143:	187222        	l32r	a8, 8e19cc <athos_indirection_table_install+0x484>
	*(volatile uint32_t *) addr = b;
  905146:	0c0200        	memw
  905149:	9380      	s32i.n	a3, a8, 0
  90514b:	d10f      	retw.n
  90514d:	000000        	ill

00905150 <ar5416EnableReceive>:
			     & ~AR_RXCFG_ZLFDMA);
	}
}

void ar5416EnableReceive(struct ath_hal *ah)
{
  905150:	6c1004        	entry	a1, 32
  905153:	187223        	l32r	a8, 8e19e0 <athos_indirection_table_install+0x498>
  905156:	c094      	movi.n	a9, 4
  905158:	0c0200        	memw
  90515b:	9980      	s32i.n	a9, a8, 0
  90515d:	d10f      	retw.n
	...

00905160 <ar5416StopPcuReceive>:
	iowrite32_mac(AR_CR, AR_CR_RXE);
}

void ar5416StopPcuReceive(struct ath_hal *ah)
{
  905160:	6c1004        	entry	a1, 32
	return *(const volatile uint32_t *) addr;
  905163:	197224        	l32r	a9, 8e19f4 <athos_indirection_table_install+0x4ac>
	OS_REG_SET_BIT(ah, AR_DIAG_SW, AR_DIAG_RX_DIS);
  905166:	c2a0      	movi.n	a10, 32
  905168:	0c0200        	memw
  90516b:	8890      	l32i.n	a8, a9, 0
  90516d:	0a8802        	or	a8, a8, a10
	*(volatile uint32_t *) addr = b;
  905170:	0c0200        	memw
  905173:	9890      	s32i.n	a8, a9, 0
  905175:	d10f      	retw.n
	...

00905178 <ar5416SetupRxDesc_20>:
}

HAL_BOOL ar5416SetupRxDesc_20(struct ath_rx_desc *ds,
			      a_uint32_t size, a_uint32_t flags)
{
  905178:	6c1004        	entry	a1, 32
	struct ar5416_desc *ads = AR5416DESC(ds);

	HALASSERT((size &~ AR_BufLen) == 0);

	ads->ds_ctl1 = size & AR_BufLen;
  90517b:	03084b        	extui	a8, a3, 0, 12
	if (flags & HAL_RXDESC_INTREQ)
  90517e:	7a4f16        	bbsi	a4, 26, 905198 <ar5416SetupRxDesc_20+0x20>
	ads->ds_ctl1 = size & AR_BufLen;
  905181:	088957        	extui	a9, a8, 24, 8
  905184:	29240c        	s8i	a9, a2, 12
  905187:	088814        	srli	a8, a8, 8
  90518a:	c090      	movi.n	a9, 0
  90518c:	29240d        	s8i	a9, a2, 13
  90518f:	28240e        	s8i	a8, a2, 14
  905192:	23240f        	s8i	a3, a2, 15
  905195:	60001a        	j	9051b3 <ar5416SetupRxDesc_20+0x3b>
		ads->ds_ctl1 |= AR_RxIntrReq;
  905198:	137225        	l32r	a3, 8e1a2c <athos_indirection_table_install+0x4e4>
  90519b:	038802        	or	a8, a8, a3
  90519e:	088357        	extui	a3, a8, 24, 8
  9051a1:	23240c        	s8i	a3, a2, 12
  9051a4:	080357        	extui	a3, a8, 16, 8
  9051a7:	23240d        	s8i	a3, a2, 13
  9051aa:	088347        	extui	a3, a8, 8, 8
  9051ad:	23240e        	s8i	a3, a2, 14
  9051b0:	28240f        	s8i	a8, a2, 15

	/* this should be enough */
	ads->ds_rxstatus8 &= ~AR_RxDone;
  9051b3:	292030        	l8ui	a9, a2, 48
  9051b6:	c73e      	movi.n	a3, -2
  9051b8:	089810        	slli	a8, a9, 24
  9051bb:	292031        	l8ui	a9, a2, 49
  9051be:	009911        	slli	a9, a9, 16
  9051c1:	089902        	or	a9, a9, a8
  9051c4:	282032        	l8ui	a8, a2, 50
  9051c7:	088811        	slli	a8, a8, 8
  9051ca:	098902        	or	a9, a8, a9
  9051cd:	282033        	l8ui	a8, a2, 51
  9051d0:	098802        	or	a8, a8, a9
  9051d3:	038801        	and	a8, a8, a3
  9051d6:	088357        	extui	a3, a8, 24, 8
  9051d9:	232430        	s8i	a3, a2, 48
  9051dc:	080357        	extui	a3, a8, 16, 8
  9051df:	232431        	s8i	a3, a2, 49
  9051e2:	088347        	extui	a3, a8, 8, 8
  9051e5:	232432        	s8i	a3, a2, 50
  9051e8:	282433        	s8i	a8, a2, 51

	return AH_TRUE;
}
  9051eb:	c021      	movi.n	a2, 1
  9051ed:	d10f      	retw.n
	...

009051f0 <ar5416ProcRxDescFast_20>:

HAL_STATUS ar5416ProcRxDescFast_20(struct ath_hal *ah, struct ath_rx_desc *ds,
				   a_uint32_t pa, struct ath_desc *nds,
				   struct ath_rx_status *rx_stats)
{
  9051f0:	6c1004        	entry	a1, 32
	struct ar5416_desc ads;
	struct ar5416_desc *adsp = AR5416DESC(ds);
	struct ar5416_desc *ands = AR5416DESC(nds);

	if ((adsp->ds_rxstatus8 & AR_RxDone) == 0)
  9051f3:	223030        	l8ui	a2, a3, 48
  9051f6:	082810        	slli	a8, a2, 24
  9051f9:	223031        	l8ui	a2, a3, 49
  9051fc:	002211        	slli	a2, a2, 16
  9051ff:	082202        	or	a2, a2, a8
  905202:	283032        	l8ui	a8, a3, 50
  905205:	088811        	slli	a8, a8, 8
  905208:	028202        	or	a2, a8, a2
  90520b:	283033        	l8ui	a8, a3, 51
  90520e:	028802        	or	a8, a8, a2
		return HAL_EINPROGRESS;
  905211:	c02f      	movi.n	a2, 15
	if ((adsp->ds_rxstatus8 & AR_RxDone) == 0)
  905213:	7f8f02        	bbsi	a8, 31, 905219 <ar5416ProcRxDescFast_20+0x29>
  905216:	6001b0        	j	9053ca <ar5416ProcRxDescFast_20+0x1da>
	/*
	 * Given the use of a self-linked tail be very sure that the hw is
	 * done with this descriptor; the hw may have done this descriptor
	 * once and picked it up again...make sure the hw has moved on.
	 */
	if ((ands->ds_rxstatus8 & AR_RxDone) == 0
  905219:	255033        	l8ui	a5, a5, 51
  90521c:	7f5f0d        	bbsi	a5, 31, 90522d <ar5416ProcRxDescFast_20+0x3d>
	return *(const volatile uint32_t *) addr;
  90521f:	157222        	l32r	a5, 8e1aa8 <athos_indirection_table_install+0x560>
  905222:	0c0200        	memw
  905225:	8550      	l32i.n	a5, a5, 0
	    && ioread32_mac(AR_RXDP) == pa)
  905227:	754902        	bne	a4, a5, 90522d <ar5416ProcRxDescFast_20+0x3d>
  90522a:	60019c        	j	9053ca <ar5416ProcRxDescFast_20+0x1da>
	 * Next we fill in all values in a caller passed stack variable.
	 * This reduces the number of uncached accesses.
	 * Do this copy here, after the check so that when the checks fail, we
	 * dont end up copying the entire stats uselessly.
	 */
	ads.u.rx = adsp->u.rx;
  90522d:	223010        	l8ui	a2, a3, 16
  905230:	293018        	l8ui	a9, a3, 24
  905233:	082a10        	slli	a10, a2, 24
  905236:	223011        	l8ui	a2, a3, 17
  905239:	089910        	slli	a9, a9, 24
  90523c:	002211        	slli	a2, a2, 16
  90523f:	0a2202        	or	a2, a2, a10
  905242:	2a3012        	l8ui	a10, a3, 18
  905245:	2b301c        	l8ui	a11, a3, 28
  905248:	08aa11        	slli	a10, a10, 8
  90524b:	02a202        	or	a2, a10, a2
  90524e:	2a3013        	l8ui	a10, a3, 19
  905251:	08bb10        	slli	a11, a11, 24
  905254:	02aa02        	or	a10, a10, a2
  905257:	223014        	l8ui	a2, a3, 20
  90525a:	2c3020        	l8ui	a12, a3, 32
  90525d:	082e10        	slli	a14, a2, 24
  905260:	223015        	l8ui	a2, a3, 21
  905263:	08cc10        	slli	a12, a12, 24
  905266:	002211        	slli	a2, a2, 16
  905269:	0e2202        	or	a2, a2, a14
  90526c:	2e3016        	l8ui	a14, a3, 22
  90526f:	2d3024        	l8ui	a13, a3, 36
  905272:	08ee11        	slli	a14, a14, 8
  905275:	02e202        	or	a2, a14, a2
  905278:	2e3017        	l8ui	a14, a3, 23
  90527b:	08dd10        	slli	a13, a13, 24
  90527e:	02ee02        	or	a14, a14, a2
  905281:	223019        	l8ui	a2, a3, 25
  905284:	24301b        	l8ui	a4, a3, 27
  905287:	002211        	slli	a2, a2, 16
  90528a:	092902        	or	a9, a2, a9
  90528d:	22301a        	l8ui	a2, a3, 26
  905290:	2f3028        	l8ui	a15, a3, 40
  905293:	082211        	slli	a2, a2, 8
  905296:	092202        	or	a2, a2, a9
  905299:	29301d        	l8ui	a9, a3, 29
  90529c:	024202        	or	a2, a4, a2
  90529f:	009911        	slli	a9, a9, 16
  9052a2:	0b9b02        	or	a11, a9, a11
  9052a5:	29301e        	l8ui	a9, a3, 30
  9052a8:	24301f        	l8ui	a4, a3, 31
  9052ab:	089911        	slli	a9, a9, 8
  9052ae:	0b9902        	or	a9, a9, a11
  9052b1:	2b3021        	l8ui	a11, a3, 33
  9052b4:	08ff10        	slli	a15, a15, 24
  9052b7:	00bb11        	slli	a11, a11, 16
  9052ba:	0cbc02        	or	a12, a11, a12
  9052bd:	2b3022        	l8ui	a11, a3, 34
  9052c0:	094902        	or	a9, a4, a9
  9052c3:	08bb11        	slli	a11, a11, 8
  9052c6:	0cbb02        	or	a11, a11, a12
  9052c9:	2c3025        	l8ui	a12, a3, 37
  9052cc:	243023        	l8ui	a4, a3, 35
  9052cf:	00cc11        	slli	a12, a12, 16
  9052d2:	0dcd02        	or	a13, a12, a13
  9052d5:	2c3026        	l8ui	a12, a3, 38
  9052d8:	0b4b02        	or	a11, a4, a11
  9052db:	08cc11        	slli	a12, a12, 8
  9052de:	0dcc02        	or	a12, a12, a13
  9052e1:	2d3029        	l8ui	a13, a3, 41
  9052e4:	243027        	l8ui	a4, a3, 39
  9052e7:	00dd11        	slli	a13, a13, 16
  9052ea:	0fdf02        	or	a15, a13, a15
  9052ed:	2d302a        	l8ui	a13, a3, 42
  9052f0:	23302b        	l8ui	a3, a3, 43
  9052f3:	08dd11        	slli	a13, a13, 8
  9052f6:	0fdd02        	or	a13, a13, a15
  9052f9:	0d3d02        	or	a13, a3, a13

	rx_stats->rs_status = 0;
  9052fc:	c030      	movi.n	a3, 0
  9052fe:	23640a        	s8i	a3, a6, 10
	rx_stats->rs_flags = 0;
  905301:	23641a        	s8i	a3, a6, 26

	rx_stats->rs_datalen = ads.ds_rxstatus1 & AR_DataLen;
  905304:	0e034b        	extui	a3, a14, 0, 12
	rx_stats->rs_tstamp =  ads.AR_RcvTimestamp;
  905307:	9261      	s32i.n	a2, a6, 4
	rx_stats->rs_datalen = ads.ds_rxstatus1 & AR_DataLen;
  905309:	236504        	s16i	a3, a6, 8
	rx_stats->rs_tstamp =  ads.AR_RcvTimestamp;
  90530c:	c020      	movi.n	a2, 0
  90530e:	9260      	s32i.n	a2, a6, 0

	/* XXX what about KeyCacheMiss? */
	rx_stats->rs_rssi_combined =
		MS(ads.ds_rxstatus4, AR_RxRSSICombined);
  905310:	0b8257        	extui	a2, a11, 24, 8
	rx_stats->rs_rssi_combined =
  905313:	22640c        	s8i	a2, a6, 12
	rx_stats->rs_rssi_ctl0 = MS(ads.ds_rxstatus0, AR_RxRSSIAnt00);
	rx_stats->rs_rssi_ctl1 = MS(ads.ds_rxstatus0, AR_RxRSSIAnt01);
  905316:	0a8214        	srli	a2, a10, 8
  905319:	22640e        	s8i	a2, a6, 14
	rx_stats->rs_rssi_ctl2 = MS(ads.ds_rxstatus0, AR_RxRSSIAnt02);
  90531c:	0a025f        	extui	a2, a10, 16, 16
  90531f:	22640f        	s8i	a2, a6, 15
	rx_stats->rs_rssi_ext0 = MS(ads.ds_rxstatus4, AR_RxRSSIAnt10);
	rx_stats->rs_rssi_ext1 = MS(ads.ds_rxstatus4, AR_RxRSSIAnt11);
  905322:	0b8214        	srli	a2, a11, 8
  905325:	226411        	s8i	a2, a6, 17
	rx_stats->rs_rssi_ext2 = MS(ads.ds_rxstatus4, AR_RxRSSIAnt12);
  905328:	0b025f        	extui	a2, a11, 16, 16
  90532b:	226412        	s8i	a2, a6, 18
	rx_stats->rs_rssi_ctl0 = MS(ads.ds_rxstatus0, AR_RxRSSIAnt00);
  90532e:	2a640d        	s8i	a10, a6, 13
	rx_stats->rs_rssi_ext0 = MS(ads.ds_rxstatus4, AR_RxRSSIAnt10);
  905331:	2b6410        	s8i	a11, a6, 16
	ads.u.rx = adsp->u.rx;
  905334:	0c4c02        	or	a12, a4, a12
	if (ads.ds_rxstatus8 & AR_RxKeyIdxValid)
		rx_stats->rs_keyix = MS(ads.ds_rxstatus8, AR_KeyIdx);
  905337:	089246        	extui	a2, a8, 9, 7
	if (ads.ds_rxstatus8 & AR_RxKeyIdxValid)
  90533a:	778f02        	bbsi	a8, 23, 905340 <ar5416ProcRxDescFast_20+0x150>
	else
		rx_stats->rs_keyix = HAL_RXKEYIX_INVALID;
  90533d:	22faff        	movi	a2, -1
  905340:	226413        	s8i	a2, a6, 19
	/* NB: caller expected to do rate table mapping */
	rx_stats->rs_rate = RXSTATUS_RATE(ah, (&ads));
	rx_stats->rs_more = (ads.ds_rxstatus1 & AR_RxMore) ? 1 : 0;

	rx_stats->rs_isaggr = (ads.ds_rxstatus8 & AR_RxAggr) ? 1 : 0;
  905343:	081250        	extui	a2, a8, 17, 1
	rx_stats->rs_moreaggr = (ads.ds_rxstatus8 & AR_RxMoreAggr) ? 1 : 0;
	rx_stats->rs_flags  |= (ads.ds_rxstatus3 & AR_GI) ? HAL_RX_GI : 0;
  905346:	090340        	extui	a3, a9, 0, 1
	rx_stats->rs_rate = RXSTATUS_RATE(ah, (&ads));
  905349:	0a8a57        	extui	a10, a10, 24, 8
	rx_stats->rs_more = (ads.ds_rxstatus1 & AR_RxMore) ? 1 : 0;
  90534c:	0ece40        	extui	a14, a14, 12, 1
	rx_stats->rs_isaggr = (ads.ds_rxstatus8 & AR_RxAggr) ? 1 : 0;
  90534f:	226417        	s8i	a2, a6, 23
	rx_stats->rs_flags  |= (ads.ds_rxstatus3 & AR_2040) ? HAL_RX_2040 : 0;
  905352:	091940        	extui	a9, a9, 1, 1
	rx_stats->rs_moreaggr = (ads.ds_rxstatus8 & AR_RxMoreAggr) ? 1 : 0;
  905355:	080250        	extui	a2, a8, 16, 1
	rx_stats->rs_flags  |= (ads.ds_rxstatus3 & AR_GI) ? HAL_RX_GI : 0;
  905358:	0e3311        	slli	a3, a3, 2
	rx_stats->rs_flags  |= (ads.ds_rxstatus3 & AR_2040) ? HAL_RX_2040 : 0;
  90535b:	0d9911        	slli	a9, a9, 3
	rx_stats->rs_rate = RXSTATUS_RATE(ah, (&ads));
  90535e:	2a6414        	s8i	a10, a6, 20
	rx_stats->rs_more = (ads.ds_rxstatus1 & AR_RxMore) ? 1 : 0;
  905361:	2e6416        	s8i	a14, a6, 22
	rx_stats->rs_moreaggr = (ads.ds_rxstatus8 & AR_RxMoreAggr) ? 1 : 0;
  905364:	226418        	s8i	a2, a6, 24
	rx_stats->rs_flags  |= (ads.ds_rxstatus3 & AR_2040) ? HAL_RX_2040 : 0;
  905367:	093302        	or	a3, a3, a9

	if (ads.ds_rxstatus8 & AR_PreDelimCRCErr)
  90536a:	798f04        	bbsi	a8, 25, 905372 <ar5416ProcRxDescFast_20+0x182>
  90536d:	600006        	j	905377 <ar5416ProcRxDescFast_20+0x187>
  905370:	0000c1        	excw
		rx_stats->rs_flags |= HAL_RX_DELIM_CRC_PRE;
  905373:	200233        	l32i	a0, a0, 204
  905376:	022364        	excw
  905379:	1a7d86        	l32r	a10, 8e4994 <vdesc_module_install+0x858>
	if (ads.ds_rxstatus8 & AR_PostDelimCRCErr)
  90537c:	0a2260        	excw
		rx_stats->rs_flags |= HAL_RX_DELIM_CRC_POST;
  90537f:	1ac230        	l32r	a10, 8f5c40 <memset+0x10aa4>
  905382:	032202        	or	a2, a2, a3
  905385:	22641a        	s8i	a2, a6, 26
	if (ads.ds_rxstatus8 & AR_DecryptBusyErr)
  905388:	71860a        	bbci	a8, 1, 905396 <ar5416ProcRxDescFast_20+0x1a6>
		rx_stats->rs_flags |= HAL_RX_DECRYPT_BUSY;
  90538b:	22601a        	l8ui	a2, a6, 26
  90538e:	c430      	movi.n	a3, 64
  905390:	032202        	or	a2, a2, a3
  905393:	22641a        	s8i	a2, a6, 26

	if ((ads.ds_rxstatus8 & AR_RxFrameOK) == 0) {
  905396:	c032      	movi.n	a3, 2
  905398:	738826        	bany	a8, a3, 9053c2 <ar5416ProcRxDescFast_20+0x1d2>
		 * when a CRC error is detected, but these are specious.
		 * Consequently we filter them out here so we don't
		 * confuse and/or complicate drivers.
		 */
		if (ads.ds_rxstatus8 & AR_CRCErr)
			rx_stats->rs_status |= HAL_RXERR_CRC;
  90539b:	c021      	movi.n	a2, 1
		if (ads.ds_rxstatus8 & AR_CRCErr)
  90539d:	7d8f1e        	bbsi	a8, 29, 9053bf <ar5416ProcRxDescFast_20+0x1cf>
		else if (ads.ds_rxstatus8 & AR_PHYErr) {
  9053a0:	c120      	movi.n	a2, 16
  9053a2:	72800b        	bnone	a8, a2, 9053b1 <ar5416ProcRxDescFast_20+0x1c1>
			a_uint32_t phyerr;

			rx_stats->rs_status |= HAL_RXERR_PHY;
			phyerr = MS(ads.ds_rxstatus8, AR_PHYErrCode);
  9053a5:	088814        	srli	a8, a8, 8
			rx_stats->rs_status |= HAL_RXERR_PHY;
  9053a8:	23640a        	s8i	a3, a6, 10
			rx_stats->rs_phyerr = phyerr;
  9053ab:	28640b        	s8i	a8, a6, 11
  9053ae:	600010        	j	9053c2 <ar5416ProcRxDescFast_20+0x1d2>
		} else if (ads.ds_rxstatus8 & AR_DecryptCRCErr)
  9053b1:	c038      	movi.n	a3, 8
  9053b3:	738005        	bnone	a8, a3, 9053bc <ar5416ProcRxDescFast_20+0x1cc>
			rx_stats->rs_status |= HAL_RXERR_DECRYPT;
  9053b6:	23640a        	s8i	a3, a6, 10
  9053b9:	600005        	j	9053c2 <ar5416ProcRxDescFast_20+0x1d2>
		else if (ads.ds_rxstatus8 & AR_MichaelErr)
  9053bc:	7a8702        	bbci	a8, 26, 9053c2 <ar5416ProcRxDescFast_20+0x1d2>
			rx_stats->rs_status |= HAL_RXERR_MIC;
  9053bf:	22640a        	s8i	a2, a6, 10
	}
	rx_stats->evm0=ads.AR_RxEVM0;
  9053c2:	9b67      	s32i.n	a11, a6, 28
	rx_stats->evm1=ads.AR_RxEVM1;
  9053c4:	9c68      	s32i.n	a12, a6, 32
	rx_stats->evm2=ads.AR_RxEVM2;
  9053c6:	9d69      	s32i.n	a13, a6, 36

	return HAL_OK;
  9053c8:	c020      	movi.n	a2, 0
}
  9053ca:	d10f      	retw.n

009053cc <ar5416UpdateTxTrigLevel>:
/******/
/* TX */
/******/

HAL_BOOL ar5416UpdateTxTrigLevel(struct ath_hal *ah, HAL_BOOL bIncTrigLevel)
{
  9053cc:	6c1004        	entry	a1, 32
        HAL_INT omask;

        /*
         * Disable interrupts while futzing with the fifo level.
         */
        omask = ar5416SetInterrupts(ah, ahp->ah_maskReg &~ HAL_INT_GLOBAL);
  9053cf:	147226        	l32r	a4, 8e1c68 <athos_indirection_table_install+0x720>
  9053d2:	2b2235        	l32i	a11, a2, 212
  9053d5:	da20      	mov.n	a10, a2
  9053d7:	04bb01        	and	a11, a11, a4
  9053da:	5bff2d        	call8	905090 <ar5416SetInterrupts>
  9053dd:	147227        	l32r	a4, 8e1c7c <athos_indirection_table_install+0x734>
  9053e0:	0c0200        	memw
  9053e3:	8940      	l32i.n	a9, a4, 0

	txcfg = ioread32_mac(AR_TXCFG);
        curLevel = MS(txcfg, AR_FTRIG);
  9053e5:	094445        	extui	a4, a9, 4, 6
        newLevel = curLevel;

        if (bIncTrigLevel)  {
  9053e8:	c83a      	beqz.n	a3, 9053f6 <ar5416UpdateTxTrigLevel+0x2a>
		if (curLevel < MAX_TX_FIFO_THRESHOLD)
  9053ea:	c38f      	movi.n	a8, 63
  9053ec:	d340      	mov.n	a3, a4
  9053ee:	784128        	beq	a4, a8, 90541a <ar5416UpdateTxTrigLevel+0x4e>
			newLevel ++;
  9053f1:	b143      	addi.n	a3, a4, 1
  9053f3:	600006        	j	9053fd <ar5416UpdateTxTrigLevel+0x31>
  9053f6:	d340      	mov.n	a3, a4
        } else if (curLevel > MIN_TX_FIFO_THRESHOLD)
  9053f8:	6e421e        	bltui	a4, 2, 90541a <ar5416UpdateTxTrigLevel+0x4e>
                newLevel--;
  9053fb:	b043      	addi.n	a3, a4, -1
        if (newLevel != curLevel)
  9053fd:	743119        	beq	a3, a4, 90541a <ar5416UpdateTxTrigLevel+0x4e>
		iowrite32_mac(AR_TXCFG,
  905400:	2b3af0        	movi	a11, 0x3f0
  905403:	0c3811        	slli	a8, a3, 4
  905406:	0b8801        	and	a8, a8, a11
  905409:	2bca0f        	movi	a11, 0xfffffc0f
  90540c:	0b9901        	and	a9, a9, a11
  90540f:	098802        	or	a8, a8, a9
  905412:	197227        	l32r	a9, 8e1cb0 <athos_indirection_table_install+0x768>
	*(volatile uint32_t *) addr = b;
  905415:	0c0200        	memw
  905418:	9890      	s32i.n	a8, a9, 0
			     (txcfg & ~AR_FTRIG) | SM(newLevel, AR_FTRIG));

        /* re-enable chip interrupts */
        ar5416SetInterrupts(ah, omask);
  90541a:	dba0      	mov.n	a11, a10
  90541c:	da20      	mov.n	a10, a2

        return (newLevel != curLevel);
  90541e:	03440c        	sub	a4, a4, a3
        ar5416SetInterrupts(ah, omask);
  905421:	5bff1b        	call8	905090 <ar5416SetInterrupts>
        return (newLevel != curLevel);
  905424:	c031      	movi.n	a3, 1
  905426:	c020      	movi.n	a2, 0
  905428:	043239        	movnez	a2, a3, a4
}
  90542b:	d10f      	retw.n
  90542d:	000000        	ill

00905430 <ar5416SetTxDP>:

HAL_BOOL ar5416SetTxDP(struct ath_hal *ah, a_uint32_t q, a_uint32_t txdp)
{
  905430:	6c1004        	entry	a1, 32
         * Make sure that TXE is deasserted before setting the TXDP.  If TXE
         * is still asserted, setting TXDP will have no effect.
         */
	HALASSERT((ioread32_mac(AR_Q_TXE) & (1 << q)) == 0);

	iowrite32_mac(AR_QTXDP(q), txdp);
  905433:	187228        	l32r	a8, 8e1cd4 <athos_indirection_table_install+0x78c>
  905436:	0e3311        	slli	a3, a3, 2
  905439:	a833      	add.n	a3, a3, a8
  90543b:	0c0200        	memw
  90543e:	9430      	s32i.n	a4, a3, 0

        return AH_TRUE;
}
  905440:	c021      	movi.n	a2, 1
  905442:	d10f      	retw.n

00905444 <ar5416StartTxDma>:

HAL_BOOL ar5416StartTxDma(struct ath_hal *ah, a_uint32_t q)
{
  905444:	6c1004        	entry	a1, 32
        HALASSERT(AH5416(ah)->ah_txq[q].tqi_type != HAL_TX_QUEUE_INACTIVE);

        /* Check to be sure we're not enabling a q that has its TXD bit set. */
	HALASSERT((ioread32_mac(AR_Q_TXD) & (1 << q)) == 0);

	iowrite32_mac(AR_Q_TXE, 1 << q);
  905447:	c021      	movi.n	a2, 1
  905449:	187229        	l32r	a8, 8e1cf0 <athos_indirection_table_install+0x7a8>
  90544c:	003104        	ssl	a3
  90544f:	00231a        	sll	a3, a2
  905452:	0c0200        	memw
  905455:	9380      	s32i.n	a3, a8, 0

        return AH_TRUE;
}
  905457:	d10f      	retw.n
  905459:	000000        	ill

0090545c <ar5416NumTxPending>:

a_uint32_t ar5416NumTxPending(struct ath_hal *ah, a_uint32_t q)
{
  90545c:	6c1004        	entry	a1, 32
        a_uint32_t npend;

        HALASSERT(q < AH_PRIVATE(ah)->ah_caps.halTotalQueues);
        HALASSERT(AH5416(ah)->ah_txq[q].tqi_type != HAL_TX_QUEUE_INACTIVE);

	npend = ioread32_mac(AR_QSTS(q))
  90545f:	18722a        	l32r	a8, 8e1d08 <athos_indirection_table_install+0x7c0>
  905462:	0e3211        	slli	a2, a3, 2
  905465:	a822      	add.n	a2, a2, a8
	return *(const volatile uint32_t *) addr;
  905467:	0c0200        	memw
  90546a:	8220      	l32i.n	a2, a2, 0
  90546c:	020241        	extui	a2, a2, 0, 2
		& AR_Q_STS_PEND_FR_CNT;
        if (npend == 0) {
  90546f:	cd25      	bnez.n	a2, 905488 <ar5416NumTxPending+0x2c>
  905471:	187229        	l32r	a8, 8e1d18 <athos_indirection_table_install+0x7d0>
  905474:	0c0200        	memw
  905477:	8980      	l32i.n	a9, a8, 0
                /*
                 * Pending frame count (PFC) can momentarily go to zero
                 * while TXE remains asserted.  In other words a PFC of
                 * zero is not sufficient to say that the queue has stopped.
                 */
		if (ioread32_mac(AR_Q_TXE) & (1 << q))
  905479:	280a01        	movi	a8, 1
  90547c:	003104        	ssl	a3
  90547f:	00831a        	sll	a3, a8
  905482:	093301        	and	a3, a3, a9
  905485:	038239        	movnez	a2, a8, a3
			iowrite32_mac(AR_Q_RDYTIMESHDN, 1 << q);
                }
        }
#endif
        return npend;
}
  905488:	d10f      	retw.n
	...

0090548c <ar5416SetupTxDesc_20>:
			      a_uint32_t txRate0, a_uint32_t txTries0,
			      a_uint32_t keyIx,
			      a_uint32_t flags,
			      a_uint32_t rtsctsRate,
			      a_uint32_t rtsctsDuration)
{
  90548c:	6c1004        	entry	a1, 32

        struct ar5416_desc *ads = AR5416DESC(ds);

        (void) hdrLen;

        ads->ds_txstatus9 &= ~AR_TxDone;
  90548f:	29205c        	l8ui	a9, a2, 92
{
  905492:	d820      	mov.n	a8, a2
        ads->ds_txstatus9 &= ~AR_TxDone;
  905494:	089210        	slli	a2, a9, 24
  905497:	29805d        	l8ui	a9, a8, 93
{
  90549a:	8a1a      	l32i.n	a10, a1, 40
        ads->ds_txstatus9 &= ~AR_TxDone;
  90549c:	009911        	slli	a9, a9, 16
  90549f:	029902        	or	a9, a9, a2
  9054a2:	22805e        	l8ui	a2, a8, 94
        HALASSERT((flags & RTSCTS) != RTSCTS);

        if (txPower > 63)
		txPower=63;

        ads->ds_ctl0 = (pktLen & AR_FrameLen)
  9054a5:	03034b        	extui	a3, a3, 0, 12
        ads->ds_txstatus9 &= ~AR_TxDone;
  9054a8:	082211        	slli	a2, a2, 8
  9054ab:	092902        	or	a9, a2, a9
  9054ae:	22805f        	l8ui	a2, a8, 95
		| (txPower << AR_XmitPower_S)
		| (flags & HAL_TXDESC_VEOL ? AR_VEOL : 0)
		| (flags & HAL_TXDESC_CLRDMASK ? AR_ClrDestMask : 0)
  9054b1:	1c722b        	l32r	a12, 8e1d60 <athos_indirection_table_install+0x818>
        ads->ds_txstatus9 &= ~AR_TxDone;
  9054b4:	092202        	or	a2, a2, a9
  9054b7:	c79e      	movi.n	a9, -2
  9054b9:	092201        	and	a2, a2, a9
  9054bc:	028957        	extui	a9, a2, 24, 8
  9054bf:	29845c        	s8i	a9, a8, 92
  9054c2:	020957        	extui	a9, a2, 16, 8
  9054c5:	29845d        	s8i	a9, a8, 93
  9054c8:	028947        	extui	a9, a2, 8, 8
  9054cb:	29845e        	s8i	a9, a8, 94
		| (txPower << AR_XmitPower_S)
  9054ce:	c39f      	movi.n	a9, 63
  9054d0:	096936        	minu	a9, a6, a9
  9054d3:	009911        	slli	a9, a9, 16
  9054d6:	039302        	or	a3, a9, a3
        ads->ds_txstatus9 &= ~AR_TxDone;
  9054d9:	22845f        	s8i	a2, a8, 95
		| (flags & HAL_TXDESC_VEOL ? AR_VEOL : 0)
  9054dc:	c290      	movi.n	a9, 32
  9054de:	12721a        	l32r	a2, 8e1d48 <athos_indirection_table_install+0x800>
  9054e1:	09a901        	and	a9, a10, a9
  9054e4:	092939        	movnez	a9, a2, a9
		| (flags & HAL_TXDESC_CLRDMASK ? AR_ClrDestMask : 0)
  9054e7:	c0e0      	movi.n	a14, 0
		| (flags & HAL_TXDESC_VEOL ? AR_VEOL : 0)
  9054e9:	039902        	or	a9, a9, a3
		| (flags & HAL_TXDESC_CLRDMASK ? AR_ClrDestMask : 0)
  9054ec:	d2c0      	mov.n	a2, a12
  9054ee:	0a0340        	extui	a3, a10, 0, 1
  9054f1:	03e238        	moveqz	a2, a14, a3
		| (flags & HAL_TXDESC_INTREQ ? AR_TxIntrReq : 0);
  9054f4:	c1f0      	movi.n	a15, 16
		| (flags & HAL_TXDESC_CLRDMASK ? AR_ClrDestMask : 0)
  9054f6:	092902        	or	a9, a2, a9
		| (flags & HAL_TXDESC_INTREQ ? AR_TxIntrReq : 0);
  9054f9:	12722c        	l32r	a2, 8e1dac <athos_indirection_table_install+0x864>
  9054fc:	0fa301        	and	a3, a10, a15
  9054ff:	032339        	movnez	a3, a2, a3
  905502:	093902        	or	a9, a3, a9
        ads->ds_ctl0 = (pktLen & AR_FrameLen)
  905505:	098257        	extui	a2, a9, 24, 8
  905508:	228408        	s8i	a2, a8, 8
  90550b:	090257        	extui	a2, a9, 16, 8

        ads->ds_ctl1 = (type << AR_FrameType_S)
		| (flags & HAL_TXDESC_NOACK ? AR_NoAck : 0);
  90550e:	c032      	movi.n	a3, 2
        ads->ds_ctl0 = (pktLen & AR_FrameLen)
  905510:	228409        	s8i	a2, a8, 9
  905513:	098247        	extui	a2, a9, 8, 8
  905516:	22840a        	s8i	a2, a8, 10
		| (flags & HAL_TXDESC_NOACK ? AR_NoAck : 0);
  905519:	03a201        	and	a2, a10, a3
        ads->ds_ctl1 = (type << AR_FrameType_S)
  90551c:	0c5510        	slli	a5, a5, 20
		| (flags & HAL_TXDESC_NOACK ? AR_NoAck : 0);
  90551f:	02ec38        	moveqz	a12, a14, a2
  905522:	05c202        	or	a2, a12, a5
        ads->ds_ctl1 = (type << AR_FrameType_S)
  905525:	028557        	extui	a5, a2, 24, 8
  905528:	25840c        	s8i	a5, a8, 12
  90552b:	020557        	extui	a5, a2, 16, 8
  90552e:	25840d        	s8i	a5, a8, 13
        ads->ds_ctl2 = SM(txTries0, AR_XmitDataTries0);
  905531:	8c18      	l32i.n	a12, a1, 32
        ads->ds_ctl1 = (type << AR_FrameType_S)
  905533:	028547        	extui	a5, a2, 8, 8
  905536:	25840e        	s8i	a5, a8, 14
        ads->ds_ctl2 = SM(txTries0, AR_XmitDataTries0);
  905539:	15722f        	l32r	a5, 8e1df8 <athos_indirection_table_install+0x8b0>
  90553c:	00f104        	ssl	a15
  90553f:	00cc1a        	sll	a12, a12
  905542:	05cc01        	and	a12, a12, a5
  905545:	0c8557        	extui	a5, a12, 24, 8
  905548:	258410        	s8i	a5, a8, 16
  90554b:	0c0557        	extui	a5, a12, 16, 8
  90554e:	258411        	s8i	a5, a8, 17
        ads->ds_ctl3 = (txRate0 << AR_XmitRate0_S);
  905551:	078557        	extui	a5, a7, 24, 8
  905554:	258414        	s8i	a5, a8, 20
  905557:	070557        	extui	a5, a7, 16, 8
  90555a:	258415        	s8i	a5, a8, 21
  90555d:	078547        	extui	a5, a7, 8, 8
        ads->ds_ctl0 = (pktLen & AR_FrameLen)
  905560:	29840b        	s8i	a9, a8, 11
        ads->ds_ctl1 = (type << AR_FrameType_S)
  905563:	22840f        	s8i	a2, a8, 15
        ads->ds_ctl2 = SM(txTries0, AR_XmitDataTries0);
  905566:	2e8412        	s8i	a14, a8, 18
  905569:	2e8413        	s8i	a14, a8, 19
        ads->ds_ctl3 = (txRate0 << AR_XmitRate0_S);
  90556c:	258416        	s8i	a5, a8, 22
  90556f:	278417        	s8i	a7, a8, 23
{
  905572:	8d19      	l32i.n	a13, a1, 36
  905574:	2b120b        	l32i	a11, a1, 44

        ads->ds_ctl7 = SM(AR5416_LEGACY_CHAINMASK, AR_ChainSel0)
  905577:	2e8424        	s8i	a14, a8, 36
  90557a:	238425        	s8i	a3, a8, 37
  90557d:	23fa84        	movi	a3, -124
  905580:	238427        	s8i	a3, a8, 39
  905583:	2f8426        	s8i	a15, a8, 38
		| SM(AR5416_LEGACY_CHAINMASK, AR_ChainSel1)
		| SM(AR5416_LEGACY_CHAINMASK, AR_ChainSel2)
		| SM(AR5416_LEGACY_CHAINMASK, AR_ChainSel3);

        if (keyIx != HAL_TXKEYIX_INVALID) {
  905586:	230aff        	movi	a3, 255
  905589:	73d13b        	beq	a13, a3, 9055c8 <ar5416SetupTxDesc_20+0x13c>
                /* XXX validate key index */
                ads->ds_ctl1 |= SM(keyIx, AR_DestIdx);
  90558c:	137230        	l32r	a3, 8e1e4c <athos_indirection_table_install+0x904>
  90558f:	03d511        	slli	a5, a13, 13
  905592:	035501        	and	a5, a5, a3
  905595:	025502        	or	a5, a5, a2
  905598:	058257        	extui	a2, a5, 24, 8
  90559b:	22840c        	s8i	a2, a8, 12
  90559e:	050257        	extui	a2, a5, 16, 8
  9055a1:	22840d        	s8i	a2, a8, 13
  9055a4:	058247        	extui	a2, a5, 8, 8
  9055a7:	22840e        	s8i	a2, a8, 14
                ads->ds_ctl0 |= AR_DestIdxValid;
  9055aa:	127231        	l32r	a2, 8e1e70 <athos_indirection_table_install+0x928>
                ads->ds_ctl1 |= SM(keyIx, AR_DestIdx);
  9055ad:	25840f        	s8i	a5, a8, 15
                ads->ds_ctl0 |= AR_DestIdxValid;
  9055b0:	029902        	or	a9, a9, a2
  9055b3:	098257        	extui	a2, a9, 24, 8
  9055b6:	228408        	s8i	a2, a8, 8
  9055b9:	090257        	extui	a2, a9, 16, 8
  9055bc:	228409        	s8i	a2, a8, 9
  9055bf:	098247        	extui	a2, a9, 8, 8
  9055c2:	22840a        	s8i	a2, a8, 10
  9055c5:	29840b        	s8i	a9, a8, 11
        }

        if (flags & RTSCTS) {
  9055c8:	c03c      	movi.n	a3, 12
                ads->ds_ctl0 |= (flags & HAL_TXDESC_CTSENA ? AR_CTSEnable : 0)
			| (flags & HAL_TXDESC_RTSENA ? AR_RTSEnable : 0);
                ads->ds_ctl2 |= SM(rtsctsDuration, AR_BurstDur);
                ads->ds_ctl3 |= (rtsctsRate << AR_RTSCTSRate_S);
        }
        return AH_TRUE;
  9055ca:	c021      	movi.n	a2, 1
        if (flags & RTSCTS) {
  9055cc:	73a802        	bany	a10, a3, 9055d2 <ar5416SetupTxDesc_20+0x146>
  9055cf:	60009d        	j	905670 <ar5416SetupTxDesc_20+0x1e4>
                if (!isValidTxRate(rtsctsRate)) {
  9055d2:	137232        	l32r	a3, 8e1e9c <athos_indirection_table_install+0x954>
  9055d5:	00b004        	ssr	a11
  9055d8:	03031b        	sra	a3, a3
  9055db:	023301        	and	a3, a3, a2
  9055de:	64308c        	beqz	a3, 90566e <ar5416SetupTxDesc_20+0x1e2>
                ads->ds_ctl0 |= (flags & HAL_TXDESC_CTSENA ? AR_CTSEnable : 0)
  9055e1:	298008        	l8ui	a9, a8, 8
  9055e4:	238009        	l8ui	a3, a8, 9
  9055e7:	089910        	slli	a9, a9, 24
  9055ea:	003311        	slli	a3, a3, 16
  9055ed:	093902        	or	a9, a3, a9
  9055f0:	23800a        	l8ui	a3, a8, 10
  9055f3:	1d722d        	l32r	a13, 8e1ea8 <athos_indirection_table_install+0x960>
  9055f6:	083311        	slli	a3, a3, 8
  9055f9:	093302        	or	a3, a3, a9
  9055fc:	29800b        	l8ui	a9, a8, 11
  9055ff:	c050      	movi.n	a5, 0
  905601:	039302        	or	a3, a9, a3
  905604:	c098      	movi.n	a9, 8
  905606:	09a901        	and	a9, a10, a9
  905609:	095d38        	moveqz	a13, a5, a9
  90560c:	d9d0      	mov.n	a9, a13
			| (flags & HAL_TXDESC_RTSENA ? AR_RTSEnable : 0);
  90560e:	c0d4      	movi.n	a13, 4
  905610:	0daa01        	and	a10, a10, a13
  905613:	1d722e        	l32r	a13, 8e1ecc <athos_indirection_table_install+0x984>
                ads->ds_ctl0 |= (flags & HAL_TXDESC_CTSENA ? AR_CTSEnable : 0)
  905616:	039902        	or	a9, a9, a3
			| (flags & HAL_TXDESC_RTSENA ? AR_RTSEnable : 0);
  905619:	0a5d38        	moveqz	a13, a5, a10
                ads->ds_ctl0 |= (flags & HAL_TXDESC_CTSENA ? AR_CTSEnable : 0)
  90561c:	0d9902        	or	a9, a9, a13
                ads->ds_ctl2 |= SM(rtsctsDuration, AR_BurstDur);
  90561f:	851c      	l32i.n	a5, a1, 48
                ads->ds_ctl0 |= (flags & HAL_TXDESC_CTSENA ? AR_CTSEnable : 0)
  905621:	098357        	extui	a3, a9, 24, 8
  905624:	238408        	s8i	a3, a8, 8
                ads->ds_ctl2 |= SM(rtsctsDuration, AR_BurstDur);
  905627:	05054e        	extui	a5, a5, 0, 15
                ads->ds_ctl0 |= (flags & HAL_TXDESC_CTSENA ? AR_CTSEnable : 0)
  90562a:	090357        	extui	a3, a9, 16, 8
                ads->ds_ctl2 |= SM(rtsctsDuration, AR_BurstDur);
  90562d:	0c5c02        	or	a12, a5, a12
                ads->ds_ctl0 |= (flags & HAL_TXDESC_CTSENA ? AR_CTSEnable : 0)
  905630:	238409        	s8i	a3, a8, 9
  905633:	098347        	extui	a3, a9, 8, 8
  905636:	23840a        	s8i	a3, a8, 10
                ads->ds_ctl2 |= SM(rtsctsDuration, AR_BurstDur);
  905639:	0c8357        	extui	a3, a12, 24, 8
  90563c:	238410        	s8i	a3, a8, 16
                ads->ds_ctl3 |= (rtsctsRate << AR_RTSCTSRate_S);
  90563f:	0cbb10        	slli	a11, a11, 20
                ads->ds_ctl2 |= SM(rtsctsDuration, AR_BurstDur);
  905642:	0c0357        	extui	a3, a12, 16, 8
                ads->ds_ctl3 |= (rtsctsRate << AR_RTSCTSRate_S);
  905645:	07b702        	or	a7, a11, a7
                ads->ds_ctl2 |= SM(rtsctsDuration, AR_BurstDur);
  905648:	238411        	s8i	a3, a8, 17
  90564b:	0c8346        	extui	a3, a12, 8, 7
  90564e:	238412        	s8i	a3, a8, 18
                ads->ds_ctl3 |= (rtsctsRate << AR_RTSCTSRate_S);
  905651:	078357        	extui	a3, a7, 24, 8
  905654:	238414        	s8i	a3, a8, 20
  905657:	070357        	extui	a3, a7, 16, 8
  90565a:	238415        	s8i	a3, a8, 21
  90565d:	078347        	extui	a3, a7, 8, 8
                ads->ds_ctl0 |= (flags & HAL_TXDESC_CTSENA ? AR_CTSEnable : 0)
  905660:	29840b        	s8i	a9, a8, 11
                ads->ds_ctl2 |= SM(rtsctsDuration, AR_BurstDur);
  905663:	2c8413        	s8i	a12, a8, 19
                ads->ds_ctl3 |= (rtsctsRate << AR_RTSCTSRate_S);
  905666:	238416        	s8i	a3, a8, 22
  905669:	278417        	s8i	a7, a8, 23
  90566c:	d10f      	retw.n
                        return AH_FALSE;
  90566e:	d230      	mov.n	a2, a3

#undef RTSCTS
}
  905670:	d10f      	retw.n
	...

00905674 <ar5416FillTxDesc_20>:

HAL_BOOL ar5416FillTxDesc_20(struct ath_tx_desc *ds,
			     a_uint32_t segLen, HAL_BOOL firstSeg, HAL_BOOL lastSeg,
			     const struct ath_tx_desc *ds0)
{
  905674:	6c1004        	entry	a1, 32
        struct ar5416_desc *ads = AR5416DESC(ds);

        HALASSERT((segLen &~ AR_BufLen) == 0);

        if (firstSeg) {
  905677:	644045        	beqz	a4, 9056c0 <ar5416FillTxDesc_20+0x4c>
                /*
                 * First descriptor, don't clobber xmit control data
                 * setup by ar5416SetupTxDesc.
                 */
                ads->ds_ctl1 |= segLen | (lastSeg ? 0 : AR_TxMore);
  90567a:	24200c        	l8ui	a4, a2, 12
  90567d:	c060      	movi.n	a6, 0
  90567f:	084810        	slli	a8, a4, 24
  905682:	24200d        	l8ui	a4, a2, 13
  905685:	004411        	slli	a4, a4, 16
  905688:	084402        	or	a4, a4, a8
  90568b:	28200e        	l8ui	a8, a2, 14
  90568e:	088811        	slli	a8, a8, 8
  905691:	048402        	or	a4, a8, a4
  905694:	28200f        	l8ui	a8, a2, 15
  905697:	048802        	or	a8, a8, a4
  90569a:	1471f2        	l32r	a4, 8e1e64 <athos_indirection_table_install+0x91c>
  90569d:	038302        	or	a3, a8, a3
  9056a0:	054638        	moveqz	a6, a4, a5
  9056a3:	063302        	or	a3, a3, a6
  9056a6:	038457        	extui	a4, a3, 24, 8
  9056a9:	24240c        	s8i	a4, a2, 12
  9056ac:	030457        	extui	a4, a3, 16, 8
  9056af:	24240d        	s8i	a4, a2, 13
  9056b2:	038447        	extui	a4, a3, 8, 8
  9056b5:	d560      	mov.n	a5, a6
  9056b7:	24240e        	s8i	a4, a2, 14
  9056ba:	23240f        	s8i	a3, a2, 15
  9056bd:	6000cb        	j	90578c <ar5416FillTxDesc_20+0x118>
        } else if (lastSeg) {
  9056c0:	645089        	beqz	a5, 90574d <ar5416FillTxDesc_20+0xd9>
                /*
                 * Last descriptor in a multi-descriptor frame,
                 * copy the multi-rate transmit parameters from
                 * the first frame for processing on completion.
                 */
                ads->ds_ctl0 = 0;
  9056c3:	242408        	s8i	a4, a2, 8
  9056c6:	242409        	s8i	a4, a2, 9
  9056c9:	24240a        	s8i	a4, a2, 10
  9056cc:	24240b        	s8i	a4, a2, 11
                ads->ds_ctl1 = segLen;
  9056cf:	038457        	extui	a4, a3, 24, 8
  9056d2:	24240c        	s8i	a4, a2, 12
  9056d5:	030457        	extui	a4, a3, 16, 8
  9056d8:	24240d        	s8i	a4, a2, 13
  9056db:	038447        	extui	a4, a3, 8, 8
  9056de:	24240e        	s8i	a4, a2, 14
  9056e1:	23240f        	s8i	a3, a2, 15
                ads->ds_ctl2 = AR5416DESC_CONST(ds0)->ds_ctl2;
  9056e4:	256010        	l8ui	a5, a6, 16
  9056e7:	085310        	slli	a3, a5, 24
  9056ea:	256011        	l8ui	a5, a6, 17
  9056ed:	005511        	slli	a5, a5, 16
  9056f0:	035502        	or	a5, a5, a3
  9056f3:	236012        	l8ui	a3, a6, 18
  9056f6:	083311        	slli	a3, a3, 8
  9056f9:	053502        	or	a5, a3, a5
  9056fc:	236013        	l8ui	a3, a6, 19
  9056ff:	053302        	or	a3, a3, a5
  905702:	038457        	extui	a4, a3, 24, 8
  905705:	242410        	s8i	a4, a2, 16
  905708:	030457        	extui	a4, a3, 16, 8
  90570b:	242411        	s8i	a4, a2, 17
  90570e:	038447        	extui	a4, a3, 8, 8
  905711:	242412        	s8i	a4, a2, 18
  905714:	232413        	s8i	a3, a2, 19
                ads->ds_ctl3 = AR5416DESC_CONST(ds0)->ds_ctl3;
  905717:	256014        	l8ui	a5, a6, 20
  90571a:	085310        	slli	a3, a5, 24
  90571d:	256015        	l8ui	a5, a6, 21
  905720:	005511        	slli	a5, a5, 16
  905723:	035502        	or	a5, a5, a3
  905726:	236016        	l8ui	a3, a6, 22
  905729:	083311        	slli	a3, a3, 8
  90572c:	053502        	or	a5, a3, a5
  90572f:	236017        	l8ui	a3, a6, 23
  905732:	053302        	or	a3, a3, a5
  905735:	038457        	extui	a4, a3, 24, 8
  905738:	242414        	s8i	a4, a2, 20
  90573b:	030457        	extui	a4, a3, 16, 8
  90573e:	242415        	s8i	a4, a2, 21
  905741:	038447        	extui	a4, a3, 8, 8
  905744:	242416        	s8i	a4, a2, 22
  905747:	232417        	s8i	a3, a2, 23
  90574a:	60003e        	j	90578c <ar5416FillTxDesc_20+0x118>
        } else {
                /*
                 * Intermediate descriptor in a multi-descriptor frame.
                 */
                ads->ds_ctl0 = 0;
                ads->ds_ctl1 = segLen | AR_TxMore;
  90574d:	1471f2        	l32r	a4, 8e1f18 <athos_indirection_table_install+0x9d0>
                ads->ds_ctl0 = 0;
  905750:	252408        	s8i	a5, a2, 8
                ads->ds_ctl1 = segLen | AR_TxMore;
  905753:	043302        	or	a3, a3, a4
  905756:	038457        	extui	a4, a3, 24, 8
  905759:	24240c        	s8i	a4, a2, 12
  90575c:	030457        	extui	a4, a3, 16, 8
  90575f:	24240d        	s8i	a4, a2, 13
  905762:	038447        	extui	a4, a3, 8, 8
                ads->ds_ctl0 = 0;
  905765:	252409        	s8i	a5, a2, 9
  905768:	25240a        	s8i	a5, a2, 10
  90576b:	25240b        	s8i	a5, a2, 11
                ads->ds_ctl1 = segLen | AR_TxMore;
  90576e:	24240e        	s8i	a4, a2, 14
  905771:	23240f        	s8i	a3, a2, 15
                ads->ds_ctl2 = 0;
  905774:	252410        	s8i	a5, a2, 16
  905777:	252411        	s8i	a5, a2, 17
  90577a:	252412        	s8i	a5, a2, 18
  90577d:	252413        	s8i	a5, a2, 19
                ads->ds_ctl3 = 0;
  905780:	252414        	s8i	a5, a2, 20
  905783:	252415        	s8i	a5, a2, 21
  905786:	252416        	s8i	a5, a2, 22
  905789:	252417        	s8i	a5, a2, 23
        }
        ads->ds_txstatus0 = ads->ds_txstatus1 = 0;
  90578c:	c030      	movi.n	a3, 0
  90578e:	23243c        	s8i	a3, a2, 60
  905791:	23243d        	s8i	a3, a2, 61
  905794:	23243e        	s8i	a3, a2, 62
  905797:	23243f        	s8i	a3, a2, 63
  90579a:	232438        	s8i	a3, a2, 56
  90579d:	232439        	s8i	a3, a2, 57
  9057a0:	23243a        	s8i	a3, a2, 58
  9057a3:	23243b        	s8i	a3, a2, 59

        return AH_TRUE;
}
  9057a6:	c021      	movi.n	a2, 1
  9057a8:	d10f      	retw.n
	...

009057ac <ar5416FillKeyTxDesc_20>:

HAL_BOOL ar5416FillKeyTxDesc_20(struct ath_tx_desc *ds,
				HAL_KEY_TYPE keyType)
{
  9057ac:	6c1004        	entry	a1, 32
	struct ar5416_desc *ads = AR5416DESC(ds);

	ads->ds_ctl6 = SM(keyType, AR_EncrType);
  9057af:	187233        	l32r	a8, 8e207c <athos_indirection_table_install+0xb34>
  9057b2:	063310        	slli	a3, a3, 26
  9057b5:	083301        	and	a3, a3, a8
  9057b8:	038357        	extui	a3, a3, 24, 8
  9057bb:	232420        	s8i	a3, a2, 32
  9057be:	c030      	movi.n	a3, 0
  9057c0:	232421        	s8i	a3, a2, 33
  9057c3:	232422        	s8i	a3, a2, 34
  9057c6:	232423        	s8i	a3, a2, 35
	return AH_TRUE;
}
  9057c9:	c021      	movi.n	a2, 1
  9057cb:	d10f      	retw.n
  9057cd:	000000        	ill

009057d0 <ar5416ProcTxDesc_20>:

HAL_STATUS ar5416ProcTxDesc_20(struct ath_hal *ah, struct ath_tx_desc *gds)
{
  9057d0:	6c1004        	entry	a1, 32
        struct ar5416_desc *ads = AR5416DESC(gds);
        struct ath_tx_desc *ds = (struct ath_tx_desc *)gds;

        if ((ads->ds_txstatus9 & AR_TxDone) == 0)
  9057d3:	28305c        	l8ui	a8, a3, 92
  9057d6:	088910        	slli	a9, a8, 24
  9057d9:	28305d        	l8ui	a8, a3, 93
  9057dc:	008811        	slli	a8, a8, 16
  9057df:	098802        	or	a8, a8, a9
  9057e2:	29305e        	l8ui	a9, a3, 94
  9057e5:	089911        	slli	a9, a9, 8
  9057e8:	089802        	or	a8, a9, a8
  9057eb:	29305f        	l8ui	a9, a3, 95
  9057ee:	089902        	or	a9, a9, a8
                return HAL_EINPROGRESS;
  9057f1:	c08f      	movi.n	a8, 15
        if ((ads->ds_txstatus9 & AR_TxDone) == 0)
  9057f3:	7f9f02        	bbsi	a9, 31, 9057f9 <ar5416ProcTxDesc_20+0x29>
  9057f6:	60027a        	j	905a74 <ar5416ProcTxDesc_20+0x2a4>

        ads->ds_txstatus9 &= ~AR_TxDone;
  9057f9:	c78e      	movi.n	a8, -2
  9057fb:	089801        	and	a8, a9, a8
  9057fe:	088a57        	extui	a10, a8, 24, 8
  905801:	2a345c        	s8i	a10, a3, 92
  905804:	080a57        	extui	a10, a8, 16, 8
  905807:	2a345d        	s8i	a10, a3, 93
  90580a:	28345f        	s8i	a8, a3, 95
  90580d:	088a47        	extui	a10, a8, 8, 8

        /* Update software copies of the HW status */
        ds->ds_txstat.ts_seqnum = MS(ads->ds_txstatus9, AR_SeqNum);
  905810:	08184b        	extui	a8, a8, 1, 12
        ads->ds_txstatus9 &= ~AR_TxDone;
  905813:	2a345e        	s8i	a10, a3, 94
        ds->ds_txstat.ts_seqnum = MS(ads->ds_txstatus9, AR_SeqNum);
  905816:	088a14        	srli	a10, a8, 8
  905819:	2a3464        	s8i	a10, a3, 100
        ds->ds_txstat.ts_tstamp = ads->AR_SendTimestamp;
  90581c:	2a3040        	l8ui	a10, a3, 64
        ds->ds_txstat.ts_seqnum = MS(ads->ds_txstatus9, AR_SeqNum);
  90581f:	283465        	s8i	a8, a3, 101
        ds->ds_txstat.ts_tstamp = ads->AR_SendTimestamp;
  905822:	08a810        	slli	a8, a10, 24
  905825:	2a3041        	l8ui	a10, a3, 65
        ads->ds_txstatus9 &= ~AR_TxDone;
  905828:	c0b0      	movi.n	a11, 0
        ds->ds_txstat.ts_tstamp = ads->AR_SendTimestamp;
  90582a:	00aa11        	slli	a10, a10, 16
  90582d:	08aa02        	or	a10, a10, a8
  905830:	283042        	l8ui	a8, a3, 66
        ds->ds_txstat.ts_status = 0;
  905833:	2b3466        	s8i	a11, a3, 102
        ds->ds_txstat.ts_tstamp = ads->AR_SendTimestamp;
  905836:	088811        	slli	a8, a8, 8
  905839:	0a8a02        	or	a10, a8, a10
  90583c:	283043        	l8ui	a8, a3, 67
        ds->ds_txstat.ts_flags  = 0;
  90583f:	2b3467        	s8i	a11, a3, 103
        ds->ds_txstat.ts_tstamp = ads->AR_SendTimestamp;
  905842:	0a8802        	or	a8, a8, a10
  905845:	088a57        	extui	a10, a8, 24, 8
  905848:	2a3460        	s8i	a10, a3, 96
  90584b:	080a57        	extui	a10, a8, 16, 8
  90584e:	2a3461        	s8i	a10, a3, 97
  905851:	088a47        	extui	a10, a8, 8, 8
  905854:	2a3462        	s8i	a10, a3, 98
  905857:	283463        	s8i	a8, a3, 99

        if (ads->ds_txstatus1 & AR_ExcessiveRetries)
  90585a:	2a303c        	l8ui	a10, a3, 60
  90585d:	28303d        	l8ui	a8, a3, 61
  905860:	08aa10        	slli	a10, a10, 24
  905863:	008811        	slli	a8, a8, 16
  905866:	0a8a02        	or	a10, a8, a10
  905869:	28303e        	l8ui	a8, a3, 62
  90586c:	088811        	slli	a8, a8, 8
  90586f:	0a8802        	or	a8, a8, a10
  905872:	2a303f        	l8ui	a10, a3, 63
  905875:	08a802        	or	a8, a10, a8
  905878:	7e8704        	bbci	a8, 30, 905880 <ar5416ProcTxDesc_20+0xb0>
                ds->ds_txstat.ts_status |= HAL_TXERR_XRETRY;
  90587b:	c0a1      	movi.n	a10, 1
  90587d:	2a3466        	s8i	a10, a3, 102
        if (ads->ds_txstatus1 & AR_Filtered)
  905880:	7c870a        	bbci	a8, 28, 90588e <ar5416ProcTxDesc_20+0xbe>
                ds->ds_txstat.ts_status |= HAL_TXERR_FILT;
  905883:	2a3066        	l8ui	a10, a3, 102
  905886:	c0b2      	movi.n	a11, 2
  905888:	0baa02        	or	a10, a10, a11
  90588b:	2a3466        	s8i	a10, a3, 102
        if (ads->ds_txstatus1 & AR_FIFOUnderrun)
  90588e:	c0a4      	movi.n	a10, 4
  905890:	7a8008        	bnone	a8, a10, 90589c <ar5416ProcTxDesc_20+0xcc>
                ds->ds_txstat.ts_status |= HAL_TXERR_FIFO;
  905893:	2b3066        	l8ui	a11, a3, 102
  905896:	0baa02        	or	a10, a10, a11
  905899:	2a3466        	s8i	a10, a3, 102
        if (ads->ds_txstatus9 & AR_TxOpExceeded)
  90589c:	7e960a        	bbci	a9, 14, 9058aa <ar5416ProcTxDesc_20+0xda>
		ds->ds_txstat.ts_status |= HAL_TXERR_XTXOP;
  90589f:	293066        	l8ui	a9, a3, 102
  9058a2:	c0a8      	movi.n	a10, 8
  9058a4:	0a9902        	or	a9, a9, a10
  9058a7:	293466        	s8i	a9, a3, 102
        if (ads->ds_txstatus1 & AR_TxTimerExpired)
  9058aa:	7c860a        	bbci	a8, 12, 9058b8 <ar5416ProcTxDesc_20+0xe8>
		ds->ds_txstat.ts_status |= HAL_TXERR_TIMER_EXPIRED;
  9058ad:	293066        	l8ui	a9, a3, 102
  9058b0:	c1a0      	movi.n	a10, 16
  9058b2:	0a9902        	or	a9, a9, a10
  9058b5:	293466        	s8i	a9, a3, 102

        if (ads->ds_txstatus1 & AR_DescCfgErr)
  9058b8:	7d8604        	bbci	a8, 13, 9058c0 <ar5416ProcTxDesc_20+0xf0>
		ds->ds_txstat.ts_flags |= HAL_TX_DESC_CFG_ERR;
  9058bb:	c094      	movi.n	a9, 4
  9058bd:	293467        	s8i	a9, a3, 103
        if (ads->ds_txstatus1 & AR_TxDataUnderrun) {
  9058c0:	7e8611        	bbci	a8, 14, 9058d5 <ar5416ProcTxDesc_20+0x105>
		ds->ds_txstat.ts_flags |= HAL_TX_DATA_UNDERRUN;
  9058c3:	283067        	l8ui	a8, a3, 103
  9058c6:	c098      	movi.n	a9, 8
  9058c8:	098802        	or	a8, a8, a9
  9058cb:	283467        	s8i	a8, a3, 103
		ar5416UpdateTxTrigLevel(ah, AH_TRUE);
  9058ce:	c0b1      	movi.n	a11, 1
  9058d0:	da20      	mov.n	a10, a2
  9058d2:	5bfebe        	call8	9053cc <ar5416UpdateTxTrigLevel>
	}
        if (ads->ds_txstatus1 & AR_TxDelimUnderrun) {
  9058d5:	28303d        	l8ui	a8, a3, 61
  9058d8:	7f8711        	bbci	a8, 31, 9058ed <ar5416ProcTxDesc_20+0x11d>
		ds->ds_txstat.ts_flags |= HAL_TX_DELIM_UNDERRUN;
  9058db:	283067        	l8ui	a8, a3, 103
  9058de:	c190      	movi.n	a9, 16
  9058e0:	098802        	or	a8, a8, a9
  9058e3:	283467        	s8i	a8, a3, 103
		ar5416UpdateTxTrigLevel(ah, AH_TRUE);
  9058e6:	c0b1      	movi.n	a11, 1
  9058e8:	da20      	mov.n	a10, a2
  9058ea:	5bfeb8        	call8	9053cc <ar5416UpdateTxTrigLevel>
	}
        if (ads->ds_txstatus0 & AR_TxBaStatus) {
  9058ed:	293038        	l8ui	a9, a3, 56
  9058f0:	283039        	l8ui	a8, a3, 57
  9058f3:	089910        	slli	a9, a9, 24
  9058f6:	008811        	slli	a8, a8, 16
  9058f9:	098902        	or	a9, a8, a9
  9058fc:	28303a        	l8ui	a8, a3, 58
  9058ff:	22303b        	l8ui	a2, a3, 59
  905902:	088811        	slli	a8, a8, 8
  905905:	098802        	or	a8, a8, a9
  905908:	082802        	or	a8, a2, a8
  90590b:	718671        	bbci	a8, 1, 905980 <ar5416ProcTxDesc_20+0x1b0>
		ds->ds_txstat.ts_flags |= HAL_TX_BA;
  90590e:	223067        	l8ui	a2, a3, 103
		ds->ds_txstat.ba_low = ads->AR_BaBitmapLow;
  905911:	2a3044        	l8ui	a10, a3, 68
		ds->ds_txstat.ts_flags |= HAL_TX_BA;
  905914:	290a01        	movi	a9, 1
  905917:	092202        	or	a2, a2, a9
		ds->ds_txstat.ba_low = ads->AR_BaBitmapLow;
  90591a:	08a910        	slli	a9, a10, 24
  90591d:	2a3045        	l8ui	a10, a3, 69
		ds->ds_txstat.ts_flags |= HAL_TX_BA;
  905920:	223467        	s8i	a2, a3, 103
		ds->ds_txstat.ba_low = ads->AR_BaBitmapLow;
  905923:	00aa11        	slli	a10, a10, 16
  905926:	09aa02        	or	a10, a10, a9
  905929:	293046        	l8ui	a9, a3, 70
  90592c:	089911        	slli	a9, a9, 8
  90592f:	0a9a02        	or	a10, a9, a10
  905932:	293047        	l8ui	a9, a3, 71
  905935:	0a9902        	or	a9, a9, a10
  905938:	098257        	extui	a2, a9, 24, 8
		ds->ds_txstat.ba_high = ads->AR_BaBitmapHigh;
  90593b:	2a3048        	l8ui	a10, a3, 72
		ds->ds_txstat.ba_low = ads->AR_BaBitmapLow;
  90593e:	223474        	s8i	a2, a3, 116
  905941:	090257        	extui	a2, a9, 16, 8
  905944:	223475        	s8i	a2, a3, 117
  905947:	293477        	s8i	a9, a3, 119
  90594a:	098247        	extui	a2, a9, 8, 8
		ds->ds_txstat.ba_high = ads->AR_BaBitmapHigh;
  90594d:	08a910        	slli	a9, a10, 24
  905950:	2a3049        	l8ui	a10, a3, 73
		ds->ds_txstat.ba_low = ads->AR_BaBitmapLow;
  905953:	223476        	s8i	a2, a3, 118
		ds->ds_txstat.ba_high = ads->AR_BaBitmapHigh;
  905956:	00aa11        	slli	a10, a10, 16
  905959:	09aa02        	or	a10, a10, a9
  90595c:	29304a        	l8ui	a9, a3, 74
  90595f:	089911        	slli	a9, a9, 8
  905962:	0a9a02        	or	a10, a9, a10
  905965:	29304b        	l8ui	a9, a3, 75
  905968:	0a9902        	or	a9, a9, a10
  90596b:	098257        	extui	a2, a9, 24, 8
  90596e:	223478        	s8i	a2, a3, 120
  905971:	090257        	extui	a2, a9, 16, 8
  905974:	223479        	s8i	a2, a3, 121
  905977:	098247        	extui	a2, a9, 8, 8
  90597a:	22347a        	s8i	a2, a3, 122
  90597d:	29347b        	s8i	a9, a3, 123
         * Extract the transmit rate used and mark the rate as
         * ``alternate'' if it wasn't the series 0 rate.
         */
        ds->ds_txstat.ts_rate = MS(ads->ds_txstatus9, AR_FinalTxIdx);
        ds->ds_txstat.ts_rssi_combined =
		MS(ads->ds_txstatus5, AR_TxRSSICombined);
  905980:	2a304c        	l8ui	a10, a3, 76
        ds->ds_txstat.ts_rate = MS(ads->ds_txstatus9, AR_FinalTxIdx);
  905983:	22305d        	l8ui	a2, a3, 93
		MS(ads->ds_txstatus5, AR_TxRSSICombined);
  905986:	08a910        	slli	a9, a10, 24
  905989:	2a304d        	l8ui	a10, a3, 77
        ds->ds_txstat.ts_rate = MS(ads->ds_txstatus9, AR_FinalTxIdx);
  90598c:	025241        	extui	a2, a2, 5, 2
		MS(ads->ds_txstatus5, AR_TxRSSICombined);
  90598f:	00aa11        	slli	a10, a10, 16
  905992:	09aa02        	or	a10, a10, a9
  905995:	29304e        	l8ui	a9, a3, 78
        ds->ds_txstat.ts_rate = MS(ads->ds_txstatus9, AR_FinalTxIdx);
  905998:	223468        	s8i	a2, a3, 104
		MS(ads->ds_txstatus5, AR_TxRSSICombined);
  90599b:	089911        	slli	a9, a9, 8
  90599e:	0a9a02        	or	a10, a9, a10
  9059a1:	29304f        	l8ui	a9, a3, 79
        ds->ds_txstat.ts_rssi_ctl0 = MS(ads->ds_txstatus0, AR_TxRSSIAnt00);
        ds->ds_txstat.ts_rssi_ctl1 = MS(ads->ds_txstatus0, AR_TxRSSIAnt01);
  9059a4:	088214        	srli	a2, a8, 8
		MS(ads->ds_txstatus5, AR_TxRSSICombined);
  9059a7:	0a9902        	or	a9, a9, a10
        ds->ds_txstat.ts_rssi_ctl0 = MS(ads->ds_txstatus0, AR_TxRSSIAnt00);
  9059aa:	28346a        	s8i	a8, a3, 106
        ds->ds_txstat.ts_rssi_ctl2 = MS(ads->ds_txstatus0, AR_TxRSSIAnt02);
  9059ad:	08085f        	extui	a8, a8, 16, 16
		MS(ads->ds_txstatus5, AR_TxRSSICombined);
  9059b0:	098a57        	extui	a10, a9, 24, 8
        ds->ds_txstat.ts_rssi_ctl1 = MS(ads->ds_txstatus0, AR_TxRSSIAnt01);
  9059b3:	22346b        	s8i	a2, a3, 107
        ds->ds_txstat.ts_rssi_ctl2 = MS(ads->ds_txstatus0, AR_TxRSSIAnt02);
  9059b6:	28346c        	s8i	a8, a3, 108
        ds->ds_txstat.ts_rssi_ext0 = MS(ads->ds_txstatus5, AR_TxRSSIAnt10);
        ds->ds_txstat.ts_rssi_ext1 = MS(ads->ds_txstatus5, AR_TxRSSIAnt11);
  9059b9:	098214        	srli	a2, a9, 8
        ds->ds_txstat.ts_rssi_ext2 = MS(ads->ds_txstatus5, AR_TxRSSIAnt12);
  9059bc:	09085f        	extui	a8, a9, 16, 16
        ds->ds_txstat.ts_rssi_ext0 = MS(ads->ds_txstatus5, AR_TxRSSIAnt10);
  9059bf:	29346d        	s8i	a9, a3, 109
        ds->ds_txstat.evm0 = ads->AR_TxEVM0;
  9059c2:	29347f        	s8i	a9, a3, 127
        ds->ds_txstat.evm1 = ads->AR_TxEVM1;
  9059c5:	293050        	l8ui	a9, a3, 80
        ds->ds_txstat.ts_rssi_ext2 = MS(ads->ds_txstatus5, AR_TxRSSIAnt12);
  9059c8:	28346f        	s8i	a8, a3, 111
        ds->ds_txstat.evm0 = ads->AR_TxEVM0;
  9059cb:	28347d        	s8i	a8, a3, 125
        ds->ds_txstat.evm1 = ads->AR_TxEVM1;
  9059ce:	089810        	slli	a8, a9, 24
  9059d1:	293051        	l8ui	a9, a3, 81
        ds->ds_txstat.ts_rssi_ext1 = MS(ads->ds_txstatus5, AR_TxRSSIAnt11);
  9059d4:	22346e        	s8i	a2, a3, 110
        ds->ds_txstat.evm1 = ads->AR_TxEVM1;
  9059d7:	009911        	slli	a9, a9, 16
  9059da:	089902        	or	a9, a9, a8
  9059dd:	283052        	l8ui	a8, a3, 82
        ds->ds_txstat.evm0 = ads->AR_TxEVM0;
  9059e0:	22347e        	s8i	a2, a3, 126
        ds->ds_txstat.evm1 = ads->AR_TxEVM1;
  9059e3:	088811        	slli	a8, a8, 8
  9059e6:	098902        	or	a9, a8, a9
  9059e9:	283053        	l8ui	a8, a3, 83
        ds->ds_txstat.ts_rssi_combined =
  9059ec:	2a3469        	s8i	a10, a3, 105
        ds->ds_txstat.evm1 = ads->AR_TxEVM1;
  9059ef:	098802        	or	a8, a8, a9
  9059f2:	088257        	extui	a2, a8, 24, 8
        ds->ds_txstat.evm2 = ads->AR_TxEVM2;
  9059f5:	293054        	l8ui	a9, a3, 84
        ds->ds_txstat.evm1 = ads->AR_TxEVM1;
  9059f8:	223480        	s8i	a2, a3, 128
  9059fb:	080257        	extui	a2, a8, 16, 8
  9059fe:	223481        	s8i	a2, a3, 129
  905a01:	283483        	s8i	a8, a3, 131
  905a04:	088247        	extui	a2, a8, 8, 8
        ds->ds_txstat.evm2 = ads->AR_TxEVM2;
  905a07:	089810        	slli	a8, a9, 24
  905a0a:	293055        	l8ui	a9, a3, 85
        ds->ds_txstat.evm1 = ads->AR_TxEVM1;
  905a0d:	223482        	s8i	a2, a3, 130
        ds->ds_txstat.evm2 = ads->AR_TxEVM2;
  905a10:	009911        	slli	a9, a9, 16
  905a13:	089902        	or	a9, a9, a8
  905a16:	283056        	l8ui	a8, a3, 86
        ds->ds_txstat.evm0 = ads->AR_TxEVM0;
  905a19:	2a347c        	s8i	a10, a3, 124
        ds->ds_txstat.evm2 = ads->AR_TxEVM2;
  905a1c:	088811        	slli	a8, a8, 8
  905a1f:	098902        	or	a9, a8, a9
  905a22:	283057        	l8ui	a8, a3, 87
  905a25:	098802        	or	a8, a8, a9
  905a28:	088257        	extui	a2, a8, 24, 8
  905a2b:	223484        	s8i	a2, a3, 132
  905a2e:	080257        	extui	a2, a8, 16, 8
  905a31:	223485        	s8i	a2, a3, 133
  905a34:	088247        	extui	a2, a8, 8, 8
  905a37:	223486        	s8i	a2, a3, 134
  905a3a:	283487        	s8i	a8, a3, 135
        ds->ds_txstat.ts_shortretry = MS(ads->ds_txstatus1, AR_RTSFailCnt);
  905a3d:	29303c        	l8ui	a9, a3, 60
  905a40:	089810        	slli	a8, a9, 24
  905a43:	29303d        	l8ui	a9, a3, 61
  905a46:	009911        	slli	a9, a9, 16
  905a49:	089902        	or	a9, a9, a8
  905a4c:	28303e        	l8ui	a8, a3, 62
  905a4f:	088811        	slli	a8, a8, 8
  905a52:	098902        	or	a9, a8, a9
  905a55:	28303f        	l8ui	a8, a3, 63
  905a58:	098802        	or	a8, a8, a9
  905a5b:	084243        	extui	a2, a8, 4, 4
  905a5e:	223470        	s8i	a2, a3, 112
        ds->ds_txstat.ts_longretry = MS(ads->ds_txstatus1, AR_DataFailCnt);
  905a61:	088243        	extui	a2, a8, 8, 4
  905a64:	223471        	s8i	a2, a3, 113
        ds->ds_txstat.ts_virtcol = MS(ads->ds_txstatus1, AR_VirtRetryCnt);
  905a67:	08c843        	extui	a8, a8, 12, 4
        ds->ds_txstat.ts_antenna = 0;		/* ignored for owl */
  905a6a:	c020      	movi.n	a2, 0
        ds->ds_txstat.ts_virtcol = MS(ads->ds_txstatus1, AR_VirtRetryCnt);
  905a6c:	283472        	s8i	a8, a3, 114
        ds->ds_txstat.ts_antenna = 0;		/* ignored for owl */
  905a6f:	223473        	s8i	a2, a3, 115

        return HAL_OK;
  905a72:	c080      	movi.n	a8, 0
}
  905a74:	d280      	mov.n	a2, a8
  905a76:	d10f      	retw.n

00905a78 <ar5416Set11nTxDesc_20>:

void ar5416Set11nTxDesc_20(struct ath_tx_desc *ds,
			   a_uint32_t pktLen, HAL_PKT_TYPE type, a_uint32_t txPower,
			   a_uint32_t keyIx, HAL_KEY_TYPE keyType,
			   a_uint32_t flags)
{
  905a78:	6c1004        	entry	a1, 32
  905a7b:	8818      	l32i.n	a8, a1, 32
  905a7d:	c39f      	movi.n	a9, 63
  905a7f:	095536        	minu	a5, a5, a9

	if (txPower > 63)
                txPower = 63;

        ads->ds_ctl0 = (pktLen & AR_FrameLen)
		| (flags & HAL_TXDESC_VMF ? AR_VirtMoreFrag : 0)
  905a82:	2a1a00        	movi	a10, 0x100
        ads->ds_ctl0 = (pktLen & AR_FrameLen)
  905a85:	03094b        	extui	a9, a3, 0, 12
		| (flags & HAL_TXDESC_VMF ? AR_VirtMoreFrag : 0)
  905a88:	1371f2        	l32r	a3, 8e2250 <athos_indirection_table_install+0xd08>
  905a8b:	0a8a01        	and	a10, a8, a10
  905a8e:	0a3a39        	movnez	a10, a3, a10
		| SM(txPower, AR_XmitPower)
  905a91:	137235        	l32r	a3, 8e2368 <athos_indirection_table_install+0xe20>
  905a94:	005511        	slli	a5, a5, 16
  905a97:	035301        	and	a3, a5, a3
  905a9a:	093302        	or	a3, a3, a9
		| (flags & HAL_TXDESC_RTSENA ? AR_RTSEnable : 0)
  905a9d:	15722e        	l32r	a5, 8e2358 <athos_indirection_table_install+0xe10>
  905aa0:	c094      	movi.n	a9, 4
  905aa2:	098901        	and	a9, a8, a9
  905aa5:	095939        	movnez	a9, a5, a9
		| SM(txPower, AR_XmitPower)
  905aa8:	0a3302        	or	a3, a3, a10
		| (flags & HAL_TXDESC_RTSENA ? AR_RTSEnable : 0)
  905aab:	039302        	or	a3, a9, a3
		| (flags & HAL_TXDESC_VEOL ? AR_VEOL : 0)
  905aae:	15721a        	l32r	a5, 8e2318 <athos_indirection_table_install+0xdd0>
  905ab1:	c290      	movi.n	a9, 32
  905ab3:	098901        	and	a9, a8, a9
  905ab6:	095939        	movnez	a9, a5, a9
		| (flags & HAL_TXDESC_CLRDMASK ? AR_ClrDestMask : 0)
  905ab9:	1a722b        	l32r	a10, 8e2368 <athos_indirection_table_install+0xe20>
		| (flags & HAL_TXDESC_VEOL ? AR_VEOL : 0)
  905abc:	039902        	or	a9, a9, a3
		| (flags & HAL_TXDESC_CLRDMASK ? AR_ClrDestMask : 0)
  905abf:	080540        	extui	a5, a8, 0, 1
  905ac2:	c030      	movi.n	a3, 0
  905ac4:	053a38        	moveqz	a10, a3, a5
  905ac7:	09a502        	or	a5, a10, a9
		| (flags & HAL_TXDESC_INTREQ ? AR_TxIntrReq : 0)
  905aca:	1a722c        	l32r	a10, 8e237c <athos_indirection_table_install+0xe34>
  905acd:	290a10        	movi	a9, 16
  905ad0:	098901        	and	a9, a8, a9
  905ad3:	09a939        	movnez	a9, a10, a9
		| (keyIx != HAL_TXKEYIX_INVALID ? AR_DestIdxValid : 0)
  905ad6:	1b7231        	l32r	a11, 8e239c <athos_indirection_table_install+0xe54>
  905ad9:	2a0aff        	movi	a10, 255
		| (flags & HAL_TXDESC_INTREQ ? AR_TxIntrReq : 0)
  905adc:	059902        	or	a9, a9, a5
		| (keyIx != HAL_TXKEYIX_INVALID ? AR_DestIdxValid : 0)
  905adf:	0a650c        	sub	a5, a6, a10
  905ae2:	053b38        	moveqz	a11, a3, a5
  905ae5:	09b502        	or	a5, a11, a9
		| (flags & HAL_TXDESC_CTSENA ? AR_CTSEnable : 0);
  905ae8:	290a08        	movi	a9, 8
  905aeb:	1b722d        	l32r	a11, 8e23a0 <athos_indirection_table_install+0xe58>
  905aee:	098901        	and	a9, a8, a9
  905af1:	09b939        	movnez	a9, a11, a9
  905af4:	059902        	or	a9, a9, a5
        ads->ds_ctl0 = (pktLen & AR_FrameLen)
  905af7:	098557        	extui	a5, a9, 24, 8
  905afa:	252408        	s8i	a5, a2, 8
  905afd:	090557        	extui	a5, a9, 16, 8
  905b00:	252409        	s8i	a5, a2, 9
  905b03:	098547        	extui	a5, a9, 8, 8
  905b06:	25240a        	s8i	a5, a2, 10
  905b09:	29240b        	s8i	a9, a2, 11

        ads->ds_ctl1 = (keyIx != HAL_TXKEYIX_INVALID ? SM(keyIx, AR_DestIdx) : 0)
  905b0c:	7a6108        	beq	a6, a10, 905b18 <ar5416Set11nTxDesc_20+0xa0>
  905b0f:	137230        	l32r	a3, 8e23d0 <athos_indirection_table_install+0xe88>
  905b12:	036611        	slli	a6, a6, 13
  905b15:	036301        	and	a3, a6, a3
		| SM(type, AR_FrameType)
  905b18:	167236        	l32r	a6, 8e23f0 <athos_indirection_table_install+0xea8>
  905b1b:	0c4410        	slli	a4, a4, 20
  905b1e:	064401        	and	a4, a4, a6
  905b21:	034402        	or	a4, a4, a3
		| (flags & HAL_TXDESC_NOACK ? AR_NoAck : 0)
  905b24:	15722b        	l32r	a5, 8e23d0 <athos_indirection_table_install+0xe88>
  905b27:	c032      	movi.n	a3, 2
  905b29:	038301        	and	a3, a8, a3
  905b2c:	035339        	movnez	a3, a5, a3
  905b2f:	043402        	or	a4, a3, a4
		| (flags & HAL_TXDESC_EXT_ONLY ? AR_ExtOnly : 0)
  905b32:	157234        	l32r	a5, 8e2404 <athos_indirection_table_install+0xebc>
  905b35:	c430      	movi.n	a3, 64
  905b37:	038301        	and	a3, a8, a3
  905b3a:	035339        	movnez	a3, a5, a3
  905b3d:	043302        	or	a3, a3, a4
		| (flags & HAL_TXDESC_EXT_AND_CTL ? AR_ExtAndCtl : 0);
  905b40:	240a80        	movi	a4, 128
  905b43:	048801        	and	a8, a8, a4
  905b46:	147215        	l32r	a4, 8e239c <athos_indirection_table_install+0xe54>

        ads->ds_ctl6 = SM(keyType, AR_EncrType);
  905b49:	067710        	slli	a7, a7, 26
		| (flags & HAL_TXDESC_EXT_AND_CTL ? AR_ExtAndCtl : 0);
  905b4c:	084839        	movnez	a8, a4, a8
  905b4f:	038802        	or	a8, a8, a3
        ads->ds_ctl1 = (keyIx != HAL_TXKEYIX_INVALID ? SM(keyIx, AR_DestIdx) : 0)
  905b52:	088357        	extui	a3, a8, 24, 8
  905b55:	23240c        	s8i	a3, a2, 12
  905b58:	080357        	extui	a3, a8, 16, 8
  905b5b:	23240d        	s8i	a3, a2, 13
  905b5e:	088347        	extui	a3, a8, 8, 8
  905b61:	23240e        	s8i	a3, a2, 14
        ads->ds_ctl6 = SM(keyType, AR_EncrType);
  905b64:	137233        	l32r	a3, 8e2430 <athos_indirection_table_install+0xee8>
        ads->ds_ctl1 = (keyIx != HAL_TXKEYIX_INVALID ? SM(keyIx, AR_DestIdx) : 0)
  905b67:	28240f        	s8i	a8, a2, 15
        ads->ds_ctl6 = SM(keyType, AR_EncrType);
  905b6a:	037701        	and	a7, a7, a3
  905b6d:	078757        	extui	a7, a7, 24, 8
  905b70:	c030      	movi.n	a3, 0
  905b72:	272420        	s8i	a7, a2, 32
  905b75:	232421        	s8i	a3, a2, 33
  905b78:	232422        	s8i	a3, a2, 34
  905b7b:	232423        	s8i	a3, a2, 35
  905b7e:	d10f      	retw.n

00905b80 <ar5416Set11nRateScenario_20>:

void ar5416Set11nRateScenario_20(struct ath_tx_desc *ds,
				 a_uint32_t durUpdateEn, a_uint32_t rtsctsRate,
				 HAL_11N_RATE_SERIES series[], a_uint32_t nseries,
				 a_uint32_t flags)
{
  905b80:	6c1006        	entry	a1, 48
  905b83:	9412      	s32i.n	a4, a1, 8
	(void)nseries;

	/*
	* Rate control settings override
	*/
	ds_ctl0 = ads->ds_ctl0;
  905b85:	242008        	l8ui	a4, a2, 8

	if (flags & (HAL_TXDESC_RTSENA | HAL_TXDESC_CTSENA)) {
  905b88:	c08c      	movi.n	a8, 12
	ds_ctl0 = ads->ds_ctl0;
  905b8a:	084610        	slli	a6, a4, 24
  905b8d:	242009        	l8ui	a4, a2, 9
  905b90:	004411        	slli	a4, a4, 16
  905b93:	064402        	or	a4, a4, a6
  905b96:	26200a        	l8ui	a6, a2, 10
  905b99:	086611        	slli	a6, a6, 8
  905b9c:	046402        	or	a4, a6, a4
  905b9f:	26200b        	l8ui	a6, a2, 11
  905ba2:	046602        	or	a6, a6, a4
			ds_ctl0 |= AR_CTSEnable;
		}
	} else {
		/* this line is only difference between merlin and k2
		 * Current one is for merlin */
		ds_ctl0 = (ds_ctl0 & ~(AR_RTSEnable | AR_CTSEnable));
  905ba5:	14723a        	l32r	a4, 8e2490 <athos_indirection_table_install+0xf48>
  905ba8:	046401        	and	a4, a6, a4
	if (flags & (HAL_TXDESC_RTSENA | HAL_TXDESC_CTSENA)) {
  905bab:	78701a        	bnone	a7, a8, 905bc9 <ar5416Set11nRateScenario_20+0x49>
		if (flags & HAL_TXDESC_RTSENA) {
  905bae:	7d770b        	bbci	a7, 29, 905bbd <ar5416Set11nRateScenario_20+0x3d>
			ds_ctl0 &= ~AR_CTSEnable;
  905bb1:	147226        	l32r	a4, 8e244c <athos_indirection_table_install+0xf04>
  905bb4:	046601        	and	a6, a6, a4
			ds_ctl0 |= AR_RTSEnable;
  905bb7:	14722e        	l32r	a4, 8e2470 <athos_indirection_table_install+0xf28>
  905bba:	600008        	j	905bc6 <ar5416Set11nRateScenario_20+0x46>
			ds_ctl0 &= ~AR_RTSEnable;
  905bbd:	147239        	l32r	a4, 8e24a4 <athos_indirection_table_install+0xf5c>
  905bc0:	046601        	and	a6, a6, a4
			ds_ctl0 |= AR_CTSEnable;
  905bc3:	14722d        	l32r	a4, 8e2478 <athos_indirection_table_install+0xf30>
  905bc6:	046402        	or	a4, a6, a4
	}

	ads->ds_ctl0 = ds_ctl0;
  905bc9:	048657        	extui	a6, a4, 24, 8
  905bcc:	262408        	s8i	a6, a2, 8
  905bcf:	040657        	extui	a6, a4, 16, 8
  905bd2:	262409        	s8i	a6, a2, 9
  905bd5:	24240b        	s8i	a4, a2, 11
  905bd8:	048647        	extui	a6, a4, 8, 8

	ads->ds_ctl2 = set11nTries(series, 0)
  905bdb:	8450      	l32i.n	a4, a5, 0
	ads->ds_ctl0 = ds_ctl0;
  905bdd:	26240a        	s8i	a6, a2, 10
	ads->ds_ctl2 = set11nTries(series, 0)
  905be0:	16722f        	l32r	a6, 8e249c <athos_indirection_table_install+0xf54>
  905be3:	004411        	slli	a4, a4, 16
  905be6:	064401        	and	a4, a4, a6
				   | set11nTries(series, 1)
  905be9:	8655      	l32i.n	a6, a5, 20
  905beb:	177236        	l32r	a7, 8e24c4 <athos_indirection_table_install+0xf7c>
  905bee:	0c6610        	slli	a6, a6, 20
  905bf1:	076601        	and	a6, a6, a7
  905bf4:	064402        	or	a4, a4, a6
				   | set11nTries(series, 2)
				   | set11nTries(series, 3)
  905bf7:	865f      	l32i.n	a6, a5, 60
				   | set11nTries(series, 2)
  905bf9:	17723b        	l32r	a7, 8e24e8 <athos_indirection_table_install+0xfa0>
				   | set11nTries(series, 3)
  905bfc:	046610        	slli	a6, a6, 28
  905bff:	064402        	or	a4, a4, a6
				   | set11nTries(series, 2)
  905c02:	865a      	l32i.n	a6, a5, 40
	ads->ds_ctl3 = set11nRate(series, 0)
				   | set11nRate(series, 1)
				   | set11nRate(series, 2)
				   | set11nRate(series, 3);

	ads->ds_ctl4 = set11nPktDurRTSCTS(series, 0)
  905c04:	c0c0      	movi.n	a12, 0
				   | set11nTries(series, 2)
  905c06:	086610        	slli	a6, a6, 24
  905c09:	076601        	and	a6, a6, a7
				   | (durUpdateEn ? AR_DurUpdateEn : 0);
  905c0c:	177237        	l32r	a7, 8e24e8 <athos_indirection_table_install+0xfa0>
				   | set11nTries(series, 3)
  905c0f:	064402        	or	a4, a4, a6
				   | (durUpdateEn ? AR_DurUpdateEn : 0);
  905c12:	037339        	movnez	a3, a7, a3
  905c15:	043302        	or	a3, a3, a4
	ads->ds_ctl2 = set11nTries(series, 0)
  905c18:	038457        	extui	a4, a3, 24, 8
  905c1b:	242410        	s8i	a4, a2, 16
  905c1e:	030457        	extui	a4, a3, 16, 8
  905c21:	242411        	s8i	a4, a2, 17
  905c24:	038447        	extui	a4, a3, 8, 8
  905c27:	242412        	s8i	a4, a2, 18
  905c2a:	232413        	s8i	a3, a2, 19
				   | set11nRate(series, 3);
  905c2d:	245210        	l32i	a4, a5, 64
	ads->ds_ctl3 = set11nRate(series, 0)
  905c30:	235007        	l8ui	a3, a5, 7
				   | set11nRate(series, 3);
  905c33:	084410        	slli	a4, a4, 24
  905c36:	043302        	or	a3, a3, a4
				   | set11nRate(series, 1)
  905c39:	8456      	l32i.n	a4, a5, 24
				   | set11nRate(series, 2)
  905c3b:	16723c        	l32r	a6, 8e252c <athos_indirection_table_install+0xfe4>
				   | set11nRate(series, 1)
  905c3e:	084411        	slli	a4, a4, 8
  905c41:	04044f        	extui	a4, a4, 0, 16
				   | set11nRate(series, 3);
  905c44:	043302        	or	a3, a3, a4
				   | set11nRate(series, 2)
  905c47:	845b      	l32i.n	a4, a5, 44
				   | set11nPktDurRTSCTS(series, 1);
  905c49:	1b723d        	l32r	a11, 8e2540 <athos_indirection_table_install+0xff8>
				   | set11nRate(series, 2)
  905c4c:	004411        	slli	a4, a4, 16
  905c4f:	064401        	and	a4, a4, a6
				   | set11nRate(series, 3);
  905c52:	043302        	or	a3, a3, a4
	ads->ds_ctl3 = set11nRate(series, 0)
  905c55:	038457        	extui	a4, a3, 24, 8
  905c58:	242414        	s8i	a4, a2, 20
  905c5b:	030457        	extui	a4, a3, 16, 8
  905c5e:	242415        	s8i	a4, a2, 21
  905c61:	038447        	extui	a4, a3, 8, 8
  905c64:	242416        	s8i	a4, a2, 22
  905c67:	232417        	s8i	a3, a2, 23
	ads->ds_ctl4 = set11nPktDurRTSCTS(series, 0)
  905c6a:	8354      	l32i.n	a3, a5, 16
  905c6c:	8652      	l32i.n	a6, a5, 8
  905c6e:	030440        	extui	a4, a3, 0, 1
  905c71:	06084e        	extui	a8, a6, 0, 15
  905c74:	d670      	mov.n	a6, a7
  905c76:	04c638        	moveqz	a6, a12, a4
  905c79:	d460      	mov.n	a4, a6
				   | set11nPktDurRTSCTS(series, 1);
  905c7b:	8657      	l32i.n	a6, a5, 28
  905c7d:	8a59      	l32i.n	a10, a5, 36
  905c7f:	006611        	slli	a6, a6, 16
  905c82:	0b6601        	and	a6, a6, a11
  905c85:	19722d        	l32r	a9, 8e253c <athos_indirection_table_install+0xff4>
  905c88:	086602        	or	a6, a6, a8
  905c8b:	0a0840        	extui	a8, a10, 0, 1
  905c8e:	08c938        	moveqz	a9, a12, a8
  905c91:	064402        	or	a4, a4, a6
  905c94:	094402        	or	a4, a4, a9
	ads->ds_ctl4 = set11nPktDurRTSCTS(series, 0)
  905c97:	048657        	extui	a6, a4, 24, 8
  905c9a:	262418        	s8i	a6, a2, 24
  905c9d:	040657        	extui	a6, a4, 16, 8
  905ca0:	262419        	s8i	a6, a2, 25
  905ca3:	048647        	extui	a6, a4, 8, 8
  905ca6:	26241a        	s8i	a6, a2, 26
  905ca9:	24241b        	s8i	a4, a2, 27

	ads->ds_ctl5 = set11nPktDurRTSCTS(series, 2)
  905cac:	885c      	l32i.n	a8, a5, 48
  905cae:	895e      	l32i.n	a9, a5, 56
  905cb0:	08044e        	extui	a4, a8, 0, 15
				   | set11nPktDurRTSCTS(series, 3);
  905cb3:	285211        	l32i	a8, a5, 68
	ads->ds_ctl5 = set11nPktDurRTSCTS(series, 2)
  905cb6:	090640        	extui	a6, a9, 0, 1
				   | set11nPktDurRTSCTS(series, 3);
  905cb9:	008811        	slli	a8, a8, 16
	ads->ds_ctl5 = set11nPktDurRTSCTS(series, 2)
  905cbc:	dd70      	mov.n	a13, a7
				   | set11nPktDurRTSCTS(series, 3);
  905cbe:	0b8801        	and	a8, a8, a11
	ads->ds_ctl5 = set11nPktDurRTSCTS(series, 2)
  905cc1:	06cd38        	moveqz	a13, a12, a6
  905cc4:	048802        	or	a8, a8, a4
				   | set11nPktDurRTSCTS(series, 3);
  905cc7:	245213        	l32i	a4, a5, 76
	ads->ds_ctl5 = set11nPktDurRTSCTS(series, 2)
  905cca:	d6d0      	mov.n	a6, a13
				   | set11nPktDurRTSCTS(series, 3);
  905ccc:	1d722d        	l32r	a13, 8e2580 <athos_indirection_table_install+0x1038>
  905ccf:	040b40        	extui	a11, a4, 0, 1
  905cd2:	0bcd38        	moveqz	a13, a12, a11
  905cd5:	086602        	or	a6, a6, a8
  905cd8:	0d6602        	or	a6, a6, a13
	ads->ds_ctl5 = set11nPktDurRTSCTS(series, 2)
  905cdb:	068857        	extui	a8, a6, 24, 8
  905cde:	28241c        	s8i	a8, a2, 28
  905ce1:	060857        	extui	a8, a6, 16, 8
  905ce4:	28241d        	s8i	a8, a2, 29
  905ce7:	26241f        	s8i	a6, a2, 31
  905cea:	068847        	extui	a8, a6, 8, 8

	ads->ds_ctl7 = set11nRateFlags(series, 0)
  905ced:	032640        	extui	a6, a3, 2, 1
	ads->ds_ctl5 = set11nPktDurRTSCTS(series, 2)
  905cf0:	28241e        	s8i	a8, a2, 30
	ads->ds_ctl7 = set11nRateFlags(series, 0)
  905cf3:	0f6611        	slli	a6, a6, 1
  905cf6:	031840        	extui	a8, a3, 1, 1
  905cf9:	086602        	or	a6, a6, a8
  905cfc:	1d7215        	l32r	a13, 8e2550 <athos_indirection_table_install+0x1008>
  905cff:	c088      	movi.n	a8, 8
  905d01:	083301        	and	a3, a3, a8
  905d04:	03cd38        	moveqz	a13, a12, a3
  905d07:	06d602        	or	a6, a13, a6
  905d0a:	9610      	s32i.n	a6, a1, 0
  905d0c:	8653      	l32i.n	a6, a5, 12
				   | set11nRateFlags(series, 1)
  905d0e:	c0c2      	movi.n	a12, 2
	ads->ds_ctl7 = set11nRateFlags(series, 0)
  905d10:	c13c      	movi.n	a3, 28
  905d12:	0e6611        	slli	a6, a6, 2
  905d15:	036601        	and	a6, a6, a3
				   | set11nRateFlags(series, 1)
  905d18:	c0b4      	movi.n	a11, 4
  905d1a:	0ca301        	and	a3, a10, a12
  905d1d:	c2d0      	movi.n	a13, 32
  905d1f:	0baf01        	and	a15, a10, a11
  905d22:	03d339        	movnez	a3, a13, a3
  905d25:	c4d0      	movi.n	a13, 64
  905d27:	0fdf39        	movnez	a15, a13, a15
  905d2a:	1d722c        	l32r	a13, 8e25dc <athos_indirection_table_install+0x1094>
  905d2d:	08aa01        	and	a10, a10, a8
  905d30:	0ada39        	movnez	a10, a13, a10
  905d33:	8d58      	l32i.n	a13, a5, 32
  905d35:	2e3a80        	movi	a14, 0x380
  905d38:	09dd11        	slli	a13, a13, 7
  905d3b:	0edd01        	and	a13, a13, a14
  905d3e:	06dd02        	or	a13, a13, a6
				   | set11nRateFlags(series, 2)
  905d41:	0c9e01        	and	a14, a9, a12
  905d44:	264a00        	movi	a6, 0x400
  905d47:	0e6e39        	movnez	a14, a6, a14
  905d4a:	167238        	l32r	a6, 8e262c <athos_indirection_table_install+0x10e4>
  905d4d:	9d11      	s32i.n	a13, a1, 4
  905d4f:	0b9d01        	and	a13, a9, a11
  905d52:	0d6d39        	movnez	a13, a6, a13
  905d55:	167231        	l32r	a6, 8e261c <athos_indirection_table_install+0x10d4>
  905d58:	089901        	and	a9, a9, a8
  905d5b:	096939        	movnez	a9, a6, a9
  905d5e:	865d      	l32i.n	a6, a5, 52
  905d60:	1b723e        	l32r	a11, 8e2658 <athos_indirection_table_install+0x1110>
  905d63:	046611        	slli	a6, a6, 12
  905d66:	0b6601        	and	a6, a6, a11
				   | set11nRateFlags(series, 3)
  905d69:	0c4c01        	and	a12, a4, a12
				   | set11nRateFlags(series, 2)
  905d6c:	9613      	s32i.n	a6, a1, 12
				   | set11nRateFlags(series, 3)
  905d6e:	0c7c39        	movnez	a12, a7, a12
  905d71:	c064      	movi.n	a6, 4
  905d73:	1771f7        	l32r	a7, 8e2550 <athos_indirection_table_install+0x1008>
  905d76:	064b01        	and	a11, a4, a6
  905d79:	084801        	and	a8, a4, a8
				   | SM(rtsctsRate, AR_RTSCTSRate);
  905d7c:	8612      	l32i.n	a6, a1, 8
				   | set11nRateFlags(series, 3)
  905d7e:	14722d        	l32r	a4, 8e2634 <athos_indirection_table_install+0x10ec>
  905d81:	0b7b39        	movnez	a11, a7, a11
				   | SM(rtsctsRate, AR_RTSCTSRate);
  905d84:	17723f        	l32r	a7, 8e2680 <athos_indirection_table_install+0x1138>
				   | set11nRateFlags(series, 3)
  905d87:	084839        	movnez	a8, a4, a8
				   | SM(rtsctsRate, AR_RTSCTSRate);
  905d8a:	0c6410        	slli	a4, a6, 20
  905d8d:	8611      	l32i.n	a6, a1, 4
  905d8f:	074401        	and	a4, a4, a7
  905d92:	064402        	or	a4, a4, a6
  905d95:	8613      	l32i.n	a6, a1, 12
  905d97:	064702        	or	a7, a4, a6
				   | set11nRateFlags(series, 3)
  905d9a:	245212        	l32i	a4, a5, 72
  905d9d:	157240        	l32r	a5, 8e26a0 <athos_indirection_table_install+0x1158>
  905da0:	0f4410        	slli	a4, a4, 17
  905da3:	054401        	and	a4, a4, a5
				   | SM(rtsctsRate, AR_RTSCTSRate);
  905da6:	047602        	or	a6, a7, a4
  905da9:	8410      	l32i.n	a4, a1, 0
  905dab:	046602        	or	a6, a6, a4
  905dae:	036302        	or	a3, a6, a3
  905db1:	0f3f02        	or	a15, a3, a15
  905db4:	0afa02        	or	a10, a15, a10
  905db7:	0eae02        	or	a14, a10, a14
  905dba:	0ded02        	or	a13, a14, a13
  905dbd:	09d902        	or	a9, a13, a9
  905dc0:	0c9c02        	or	a12, a9, a12
  905dc3:	0bcb02        	or	a11, a12, a11
  905dc6:	08b802        	or	a8, a11, a8
	ads->ds_ctl7 = set11nRateFlags(series, 0)
  905dc9:	088357        	extui	a3, a8, 24, 8
  905dcc:	232424        	s8i	a3, a2, 36
  905dcf:	080357        	extui	a3, a8, 16, 8
  905dd2:	232425        	s8i	a3, a2, 37
  905dd5:	088347        	extui	a3, a8, 8, 8
  905dd8:	232426        	s8i	a3, a2, 38
  905ddb:	282427        	s8i	a8, a2, 39
  905dde:	d10f      	retw.n

00905de0 <ar5416Set11nAggrFirst_20>:
}

void ar5416Set11nAggrFirst_20(struct ath_tx_desc *ds, a_uint32_t aggrLen,
			      a_uint32_t numDelims)
{
  905de0:	6c1004        	entry	a1, 32
	struct ar5416_desc *ads = AR5416DESC(ds);

	ads->ds_ctl1 |= (AR_IsAggr | AR_MoreAggr);
  905de3:	29200c        	l8ui	a9, a2, 12

	ads->ds_ctl6 &= ~(AR_AggrLen | AR_PadDelim);
	ads->ds_ctl6 |= SM(aggrLen, AR_AggrLen) |
		SM(numDelims, AR_PadDelim);
  905de6:	0e4410        	slli	a4, a4, 18
	ads->ds_ctl1 |= (AR_IsAggr | AR_MoreAggr);
  905de9:	089810        	slli	a8, a9, 24
  905dec:	29200d        	l8ui	a9, a2, 13
	ads->ds_ctl6 |= SM(aggrLen, AR_AggrLen) |
  905def:	03034f        	extui	a3, a3, 0, 16
	ads->ds_ctl1 |= (AR_IsAggr | AR_MoreAggr);
  905df2:	009911        	slli	a9, a9, 16
  905df5:	089902        	or	a9, a9, a8
  905df8:	28200e        	l8ui	a8, a2, 14
  905dfb:	088811        	slli	a8, a8, 8
  905dfe:	098902        	or	a9, a8, a9
  905e01:	28200f        	l8ui	a8, a2, 15
  905e04:	098802        	or	a8, a8, a9
  905e07:	197241        	l32r	a9, 8e270c <athos_indirection_table_install+0x11c4>
  905e0a:	098802        	or	a8, a8, a9
  905e0d:	088957        	extui	a9, a8, 24, 8
  905e10:	29240c        	s8i	a9, a2, 12
  905e13:	080957        	extui	a9, a8, 16, 8
  905e16:	29240d        	s8i	a9, a2, 13
  905e19:	28240f        	s8i	a8, a2, 15
  905e1c:	088947        	extui	a9, a8, 8, 8
		SM(numDelims, AR_PadDelim);
  905e1f:	187242        	l32r	a8, 8e2728 <athos_indirection_table_install+0x11e0>
	ads->ds_ctl1 |= (AR_IsAggr | AR_MoreAggr);
  905e22:	29240e        	s8i	a9, a2, 14
		SM(numDelims, AR_PadDelim);
  905e25:	084401        	and	a4, a4, a8
	ads->ds_ctl6 &= ~(AR_AggrLen | AR_PadDelim);
  905e28:	282020        	l8ui	a8, a2, 32
	ads->ds_ctl6 |= SM(aggrLen, AR_AggrLen) |
  905e2b:	034402        	or	a4, a4, a3
	ads->ds_ctl6 &= ~(AR_AggrLen | AR_PadDelim);
  905e2e:	088310        	slli	a3, a8, 24
  905e31:	282021        	l8ui	a8, a2, 33
  905e34:	008811        	slli	a8, a8, 16
  905e37:	038802        	or	a8, a8, a3
  905e3a:	232022        	l8ui	a3, a2, 34
  905e3d:	083311        	slli	a3, a3, 8
  905e40:	083802        	or	a8, a3, a8
  905e43:	232023        	l8ui	a3, a2, 35
  905e46:	083302        	or	a3, a3, a8
  905e49:	187243        	l32r	a8, 8e2758 <athos_indirection_table_install+0x1210>
  905e4c:	083301        	and	a3, a3, a8
	ads->ds_ctl6 |= SM(aggrLen, AR_AggrLen) |
  905e4f:	034302        	or	a3, a4, a3
  905e52:	038457        	extui	a4, a3, 24, 8
  905e55:	242420        	s8i	a4, a2, 32
  905e58:	030457        	extui	a4, a3, 16, 8
  905e5b:	242421        	s8i	a4, a2, 33
  905e5e:	038447        	extui	a4, a3, 8, 8
  905e61:	242422        	s8i	a4, a2, 34
  905e64:	232423        	s8i	a3, a2, 35
  905e67:	d10f      	retw.n
  905e69:	000000        	ill

00905e6c <ar5416Set11nAggrMiddle_20>:
}

void ar5416Set11nAggrMiddle_20(struct ath_tx_desc *ds, a_uint32_t numDelims)
{
  905e6c:	6c1004        	entry	a1, 32
	struct ar5416_desc *ads = AR5416DESC(ds);
	a_uint32_t ctl6;

	ads->ds_ctl1 |= (AR_IsAggr | AR_MoreAggr);
  905e6f:	29200c        	l8ui	a9, a2, 12
	 * We use a stack variable to manipulate ctl6 to reduce uncached
	 * read modify, modfiy, write.
	 */
	ctl6 = ads->ds_ctl6;
	ctl6 &= ~AR_PadDelim;
	ctl6 |= SM(numDelims, AR_PadDelim);
  905e72:	0e3310        	slli	a3, a3, 18
	ads->ds_ctl1 |= (AR_IsAggr | AR_MoreAggr);
  905e75:	089810        	slli	a8, a9, 24
  905e78:	29200d        	l8ui	a9, a2, 13
  905e7b:	009911        	slli	a9, a9, 16
  905e7e:	089902        	or	a9, a9, a8
  905e81:	28200e        	l8ui	a8, a2, 14
  905e84:	088811        	slli	a8, a8, 8
  905e87:	098902        	or	a9, a8, a9
  905e8a:	28200f        	l8ui	a8, a2, 15
  905e8d:	098802        	or	a8, a8, a9
  905e90:	197241        	l32r	a9, 8e2794 <athos_indirection_table_install+0x124c>
  905e93:	098802        	or	a8, a8, a9
  905e96:	088957        	extui	a9, a8, 24, 8
  905e99:	29240c        	s8i	a9, a2, 12
  905e9c:	080957        	extui	a9, a8, 16, 8
  905e9f:	29240d        	s8i	a9, a2, 13
  905ea2:	088947        	extui	a9, a8, 8, 8
  905ea5:	29240e        	s8i	a9, a2, 14
	ctl6 = ads->ds_ctl6;
  905ea8:	292020        	l8ui	a9, a2, 32
	ads->ds_ctl1 |= (AR_IsAggr | AR_MoreAggr);
  905eab:	28240f        	s8i	a8, a2, 15
	ctl6 = ads->ds_ctl6;
  905eae:	089810        	slli	a8, a9, 24
  905eb1:	292021        	l8ui	a9, a2, 33
  905eb4:	009911        	slli	a9, a9, 16
  905eb7:	089902        	or	a9, a9, a8
  905eba:	282022        	l8ui	a8, a2, 34
  905ebd:	088811        	slli	a8, a8, 8
  905ec0:	098902        	or	a9, a8, a9
  905ec3:	282023        	l8ui	a8, a2, 35
  905ec6:	098802        	or	a8, a8, a9
	ctl6 &= ~AR_PadDelim;
  905ec9:	197244        	l32r	a9, 8e27dc <athos_indirection_table_install+0x1294>
  905ecc:	098801        	and	a8, a8, a9
	ctl6 |= SM(numDelims, AR_PadDelim);
  905ecf:	197242        	l32r	a9, 8e27d8 <athos_indirection_table_install+0x1290>
  905ed2:	093301        	and	a3, a3, a9
  905ed5:	083302        	or	a3, a3, a8
	ads->ds_ctl6 = ctl6;
  905ed8:	038857        	extui	a8, a3, 24, 8
  905edb:	282420        	s8i	a8, a2, 32
  905ede:	030857        	extui	a8, a3, 16, 8
  905ee1:	282421        	s8i	a8, a2, 33
  905ee4:	038847        	extui	a8, a3, 8, 8
  905ee7:	282422        	s8i	a8, a2, 34
  905eea:	232423        	s8i	a3, a2, 35
  905eed:	d10f      	retw.n
	...

00905ef0 <ar5416Set11nAggrLast_20>:
}

void ar5416Set11nAggrLast_20(struct ath_tx_desc *ds)
{
  905ef0:	6c1004        	entry	a1, 32
	struct ar5416_desc *ads = AR5416DESC(ds);

	ads->ds_ctl1 |= AR_IsAggr;
  905ef3:	29200c        	l8ui	a9, a2, 12
  905ef6:	089810        	slli	a8, a9, 24
  905ef9:	29200d        	l8ui	a9, a2, 13
  905efc:	009911        	slli	a9, a9, 16
  905eff:	089902        	or	a9, a9, a8
  905f02:	28200e        	l8ui	a8, a2, 14
  905f05:	088811        	slli	a8, a8, 8
  905f08:	098902        	or	a9, a8, a9
  905f0b:	28200f        	l8ui	a8, a2, 15
  905f0e:	098802        	or	a8, a8, a9
	ads->ds_ctl1 &= ~AR_MoreAggr;
  905f11:	197245        	l32r	a9, 8e2828 <athos_indirection_table_install+0x12e0>
  905f14:	098801        	and	a8, a8, a9
  905f17:	197231        	l32r	a9, 8e27dc <athos_indirection_table_install+0x1294>
  905f1a:	098802        	or	a8, a8, a9
  905f1d:	088957        	extui	a9, a8, 24, 8
  905f20:	29240c        	s8i	a9, a2, 12
  905f23:	080957        	extui	a9, a8, 16, 8
  905f26:	29240d        	s8i	a9, a2, 13
  905f29:	088947        	extui	a9, a8, 8, 8
  905f2c:	29240e        	s8i	a9, a2, 14
  905f2f:	28240f        	s8i	a8, a2, 15
	ads->ds_ctl6 &= ~AR_PadDelim;
  905f32:	292020        	l8ui	a9, a2, 32
  905f35:	282021        	l8ui	a8, a2, 33
  905f38:	089910        	slli	a9, a9, 24
  905f3b:	008811        	slli	a8, a8, 16
  905f3e:	098902        	or	a9, a8, a9
  905f41:	282022        	l8ui	a8, a2, 34
  905f44:	088811        	slli	a8, a8, 8
  905f47:	098802        	or	a8, a8, a9
  905f4a:	292023        	l8ui	a9, a2, 35
  905f4d:	089902        	or	a9, a9, a8
  905f50:	187244        	l32r	a8, 8e2860 <athos_indirection_table_install+0x1318>
  905f53:	292423        	s8i	a9, a2, 35
  905f56:	089801        	and	a8, a9, a8
  905f59:	088a57        	extui	a10, a8, 24, 8
  905f5c:	2a2420        	s8i	a10, a2, 32
  905f5f:	080a57        	extui	a10, a8, 16, 8
  905f62:	088847        	extui	a8, a8, 8, 8
  905f65:	2a2421        	s8i	a10, a2, 33
  905f68:	282422        	s8i	a8, a2, 34
  905f6b:	d10f      	retw.n
  905f6d:	000000        	ill

00905f70 <ar5416Clr11nAggr_20>:
}

void ar5416Clr11nAggr_20(struct ath_tx_desc *ds)
{
  905f70:	6c1004        	entry	a1, 32
	struct ar5416_desc *ads = AR5416DESC(ds);

	ads->ds_ctl1 &= (~AR_IsAggr & ~AR_MoreAggr);
  905f73:	29200c        	l8ui	a9, a2, 12
  905f76:	28200d        	l8ui	a8, a2, 13
  905f79:	089910        	slli	a9, a9, 24
  905f7c:	008811        	slli	a8, a8, 16
  905f7f:	098902        	or	a9, a8, a9
  905f82:	28200e        	l8ui	a8, a2, 14
  905f85:	088811        	slli	a8, a8, 8
  905f88:	098802        	or	a8, a8, a9
  905f8b:	29200f        	l8ui	a9, a2, 15
  905f8e:	089902        	or	a9, a9, a8
  905f91:	187246        	l32r	a8, 8e28ac <athos_indirection_table_install+0x1364>
  905f94:	29240f        	s8i	a9, a2, 15
  905f97:	089801        	and	a8, a9, a8
  905f9a:	088a57        	extui	a10, a8, 24, 8
  905f9d:	2a240c        	s8i	a10, a2, 12
  905fa0:	080a57        	extui	a10, a8, 16, 8
  905fa3:	088847        	extui	a8, a8, 8, 8
  905fa6:	2a240d        	s8i	a10, a2, 13
  905fa9:	28240e        	s8i	a8, a2, 14
  905fac:	d10f      	retw.n
	...

00905fb0 <ar5416Set11nBurstDuration_20>:
}

void ar5416Set11nBurstDuration_20(struct ath_tx_desc *ds,
				  a_uint32_t burstDuration)
{
  905fb0:	6c1004        	entry	a1, 32
	struct ar5416_desc *ads = AR5416DESC(ds);

	ads->ds_ctl2 &= ~AR_BurstDur;
  905fb3:	292010        	l8ui	a9, a2, 16
	ads->ds_ctl2 |= SM(burstDuration, AR_BurstDur);
  905fb6:	03034e        	extui	a3, a3, 0, 15
	ads->ds_ctl2 &= ~AR_BurstDur;
  905fb9:	089810        	slli	a8, a9, 24
  905fbc:	292011        	l8ui	a9, a2, 17
  905fbf:	009911        	slli	a9, a9, 16
  905fc2:	089902        	or	a9, a9, a8
  905fc5:	282012        	l8ui	a8, a2, 18
  905fc8:	088811        	slli	a8, a8, 8
  905fcb:	098902        	or	a9, a8, a9
  905fce:	282013        	l8ui	a8, a2, 19
  905fd1:	098802        	or	a8, a8, a9
  905fd4:	197247        	l32r	a9, 8e28f0 <athos_indirection_table_install+0x13a8>
  905fd7:	098801        	and	a8, a8, a9
	ads->ds_ctl2 |= SM(burstDuration, AR_BurstDur);
  905fda:	038302        	or	a3, a8, a3
  905fdd:	038857        	extui	a8, a3, 24, 8
  905fe0:	282410        	s8i	a8, a2, 16
  905fe3:	030857        	extui	a8, a3, 16, 8
  905fe6:	282411        	s8i	a8, a2, 17
  905fe9:	038847        	extui	a8, a3, 8, 8
  905fec:	282412        	s8i	a8, a2, 18
  905fef:	232413        	s8i	a3, a2, 19
  905ff2:	d10f      	retw.n

00905ff4 <ar5416Set11nVirtualMoreFrag_20>:
}

void ar5416Set11nVirtualMoreFrag_20(struct ath_tx_desc *ds,
				    a_uint32_t vmf)
{
  905ff4:	6c1004        	entry	a1, 32
  905ff7:	2b2008        	l8ui	a11, a2, 8
  905ffa:	2a2009        	l8ui	a10, a2, 9
  905ffd:	29200a        	l8ui	a9, a2, 10
  906000:	2c200b        	l8ui	a12, a2, 11
	struct ar5416_desc *ads = AR5416DESC(ds);

	if (vmf) {
  906003:	ca3d      	beqz.n	a3, 906034 <ar5416Set11nVirtualMoreFrag_20+0x40>
		ads->ds_ctl0 |= AR_VirtMoreFrag;
  906005:	08b810        	slli	a8, a11, 24
  906008:	00aa11        	slli	a10, a10, 16
  90600b:	08aa02        	or	a10, a10, a8
  90600e:	089811        	slli	a8, a9, 8
  906011:	0a8802        	or	a8, a8, a10
  906014:	1971f2        	l32r	a9, 8e27dc <athos_indirection_table_install+0x1294>
  906017:	08c802        	or	a8, a12, a8
  90601a:	098802        	or	a8, a8, a9
  90601d:	088957        	extui	a9, a8, 24, 8
  906020:	292408        	s8i	a9, a2, 8
  906023:	080957        	extui	a9, a8, 16, 8
  906026:	292409        	s8i	a9, a2, 9
  906029:	088947        	extui	a9, a8, 8, 8
  90602c:	29240a        	s8i	a9, a2, 10
  90602f:	28240b        	s8i	a8, a2, 11
  906032:	d10f      	retw.n
	} else {
		ads->ds_ctl0 &= ~AR_VirtMoreFrag;
  906034:	08bb10        	slli	a11, a11, 24
  906037:	00aa11        	slli	a10, a10, 16
  90603a:	0baa02        	or	a10, a10, a11
  90603d:	089911        	slli	a9, a9, 8
  906040:	0a9902        	or	a9, a9, a10
  906043:	1a7248        	l32r	a10, 8e2964 <athos_indirection_table_install+0x141c>
  906046:	09c902        	or	a9, a12, a9
  906049:	0a9a01        	and	a10, a9, a10
  90604c:	0a8857        	extui	a8, a10, 24, 8
  90604f:	282408        	s8i	a8, a2, 8
  906052:	0a0857        	extui	a8, a10, 16, 8
  906055:	0a8a47        	extui	a10, a10, 8, 8
  906058:	282409        	s8i	a8, a2, 9
  90605b:	2a240a        	s8i	a10, a2, 10
  90605e:	29240b        	s8i	a9, a2, 11
  906061:	d10f      	retw.n
	...

00906064 <ar5416Detach>:
{
  906064:	6c1004        	entry	a1, 32
	ath_hal_free(ah);
  906067:	da20      	mov.n	a10, a2
  906069:	5bf6dc        	call8	903bdc <ath_hal_free>
  90606c:	d10f      	retw.n
	...

00906070 <ar5416StopDmaReceive>:
{
  906070:	6c1004        	entry	a1, 32
	*(volatile uint32_t *) addr = b;
  906073:	187223        	l32r	a8, 8e2900 <athos_indirection_table_install+0x13b8>
  906076:	c290      	movi.n	a9, 32
  906078:	0c0200        	memw
  90607b:	9980      	s32i.n	a9, a8, 0
	if (!ath_hal_wait(ah, AR_CR, AR_CR_RXE, 0)) {
  90607d:	c0d0      	movi.n	a13, 0
  90607f:	c0c4      	movi.n	a12, 4
  906081:	c0b8      	movi.n	a11, 8
  906083:	da20      	mov.n	a10, a2
  906085:	5bfbf1        	call8	90504c <ath_hal_wait>
  906088:	c081      	movi.n	a8, 1
  90608a:	c020      	movi.n	a2, 0
  90608c:	0a8239        	movnez	a2, a8, a10
}
  90608f:	d10f      	retw.n
  906091:	000000        	ill

00906094 <ar5416AbortTxDma>:
{
  906094:	6c1004        	entry	a1, 32
  906097:	137249        	l32r	a3, 8e29bc <athos_indirection_table_install+0x1474>
  90609a:	243aff        	movi	a4, 0x3ff
  90609d:	0c0200        	memw
  9060a0:	9430      	s32i.n	a4, a3, 0
	return *(const volatile uint32_t *) addr;
  9060a2:	14724a        	l32r	a4, 8e29cc <athos_indirection_table_install+0x1484>
	OS_REG_SET_BIT(ah, AR_PCU_MISC, (AR_PCU_FORCE_QUIET_COLL | AR_PCU_CLEAR_VMF));
  9060a5:	15724b        	l32r	a5, 8e29d4 <athos_indirection_table_install+0x148c>
  9060a8:	0c0200        	memw
  9060ab:	8340      	l32i.n	a3, a4, 0
  9060ad:	053302        	or	a3, a3, a5
	*(volatile uint32_t *) addr = b;
  9060b0:	0c0200        	memw
  9060b3:	9340      	s32i.n	a3, a4, 0
	return *(const volatile uint32_t *) addr;
  9060b5:	147224        	l32r	a4, 8e2948 <athos_indirection_table_install+0x1400>
	OS_REG_SET_BIT(ah, AR_DIAG_SW, AR_DIAG_FORCE_CH_IDLE_HIGH);
  9060b8:	15722e        	l32r	a5, 8e2970 <athos_indirection_table_install+0x1428>
  9060bb:	0c0200        	memw
  9060be:	8340      	l32i.n	a3, a4, 0
  9060c0:	053302        	or	a3, a3, a5
	*(volatile uint32_t *) addr = b;
  9060c3:	0c0200        	memw
  9060c6:	9340      	s32i.n	a3, a4, 0
	return *(const volatile uint32_t *) addr;
  9060c8:	14724c        	l32r	a4, 8e29f8 <athos_indirection_table_install+0x14b0>
	OS_REG_SET_BIT(ah, AR_D_GBL_IFS_MISC, AR_D_GBL_IFS_MISC_IGNORE_BACKOFF);
  9060cb:	157215        	l32r	a5, 8e2920 <athos_indirection_table_install+0x13d8>
  9060ce:	0c0200        	memw
  9060d1:	8340      	l32i.n	a3, a4, 0
  9060d3:	053302        	or	a3, a3, a5
	*(volatile uint32_t *) addr = b;
  9060d6:	0c0200        	memw
  9060d9:	9340      	s32i.n	a3, a4, 0
			OS_DELAY(AR5416_ABORT_WAIT);
  9060db:	c055      	movi.n	a5, 5
	for (q = 0; q < AR_NUM_QCU; q++) {
  9060dd:	c040      	movi.n	a4, 0
  9060df:	600019        	j	9060fc <ar5416AbortTxDma+0x68>
			if (!ar5416NumTxPending(ah, q))
  9060e2:	db40      	mov.n	a11, a4
  9060e4:	da20      	mov.n	a10, a2
  9060e6:	5bfcdd        	call8	90545c <ar5416NumTxPending>
  9060e9:	64a05b        	beqz	a10, 906148 <ar5416AbortTxDma+0xb4>
			OS_DELAY(AR5416_ABORT_WAIT);
  9060ec:	da50      	mov.n	a10, a5
  9060ee:	233cff        	addi	a3, a3, -1
  9060f1:	5bf6ad        	call8	903ba8 <ath_hal_delay>
		for (i = 0; i < AR5416_ABORT_LOOPS; i++) {
  9060f4:	653fea        	bnez	a3, 9060e2 <ar5416AbortTxDma+0x4e>
			return AH_FALSE;
  9060f7:	d230      	mov.n	a2, a3
  9060f9:	d10f      	retw.n
  9060fb:	00233a        	movltz	a3, a2, a0
{
  9060fe:	e8          	.byte 0xe8
  9060ff:	63ffdf        	j	9060e2 <ar5416AbortTxDma+0x4e>
	return *(const volatile uint32_t *) addr;
  906102:	13724a        	l32r	a3, 8e2a2c <athos_indirection_table_install+0x14e4>
	OS_REG_CLR_BIT(ah, AR_PCU_MISC, (AR_PCU_FORCE_QUIET_COLL | AR_PCU_CLEAR_VMF));
  906105:	14724d        	l32r	a4, 8e2a3c <athos_indirection_table_install+0x14f4>
  906108:	0c0200        	memw
  90610b:	8230      	l32i.n	a2, a3, 0
  90610d:	042201        	and	a2, a2, a4
	*(volatile uint32_t *) addr = b;
  906110:	0c0200        	memw
  906113:	9230      	s32i.n	a2, a3, 0
	return *(const volatile uint32_t *) addr;
  906115:	137224        	l32r	a3, 8e29a8 <athos_indirection_table_install+0x1460>
	OS_REG_CLR_BIT(ah, AR_DIAG_SW, AR_DIAG_FORCE_CH_IDLE_HIGH);
  906118:	147239        	l32r	a4, 8e29fc <athos_indirection_table_install+0x14b4>
  90611b:	0c0200        	memw
  90611e:	8230      	l32i.n	a2, a3, 0
  906120:	042201        	and	a2, a2, a4
	*(volatile uint32_t *) addr = b;
  906123:	0c0200        	memw
  906126:	9230      	s32i.n	a2, a3, 0
	return *(const volatile uint32_t *) addr;
  906128:	13724c        	l32r	a3, 8e2a58 <athos_indirection_table_install+0x1510>
	OS_REG_CLR_BIT(ah, AR_D_GBL_IFS_MISC, AR_D_GBL_IFS_MISC_IGNORE_BACKOFF);
  90612b:	14724e        	l32r	a4, 8e2a64 <athos_indirection_table_install+0x151c>
  90612e:	0c0200        	memw
  906131:	8230      	l32i.n	a2, a3, 0
  906133:	042201        	and	a2, a2, a4
	*(volatile uint32_t *) addr = b;
  906136:	0c0200        	memw
  906139:	9230      	s32i.n	a2, a3, 0
  90613b:	127249        	l32r	a2, 8e2a60 <athos_indirection_table_install+0x1518>
  90613e:	0c0200        	memw
  906141:	9a20      	s32i.n	a10, a2, 0
	return AH_TRUE;
  906143:	c021      	movi.n	a2, 1
  906145:	d10f      	retw.n
  906147:	00b144        	extui	a1, a0, 11, 5
	for (q = 0; q < AR_NUM_QCU; q++) {
  90614a:	6949ae        	bnei	a4, 10, 9060fc <ar5416AbortTxDma+0x68>
  90614d:	63ffb1        	j	906102 <ar5416AbortTxDma+0x6e>

00906150 <ar5416StopTxDma>:
{
  906150:	6c1004        	entry	a1, 32
  906153:	157249        	l32r	a5, 8e2a78 <athos_indirection_table_install+0x1530>
	iowrite32_mac(AR_Q_TXD, 1 << q);
  906156:	c041      	movi.n	a4, 1
  906158:	003104        	ssl	a3
  90615b:	00441a        	sll	a4, a4
  90615e:	0c0200        	memw
  906161:	9450      	s32i.n	a4, a5, 0
        for (i = 1000; i != 0; i--) {
  906163:	243ae8        	movi	a4, 0x3e8
                OS_DELAY(100);        /* XXX get actual value */
  906166:	250a64        	movi	a5, 100
                if (ar5416NumTxPending(ah, q) == 0)
  906169:	db30      	mov.n	a11, a3
  90616b:	da20      	mov.n	a10, a2
  90616d:	5bfcbb        	call8	90545c <ar5416NumTxPending>
  906170:	c8a8      	beqz.n	a10, 90617c <ar5416StopTxDma+0x2c>
                OS_DELAY(100);        /* XXX get actual value */
  906172:	da50      	mov.n	a10, a5
        for (i = 1000; i != 0; i--) {
  906174:	b044      	addi.n	a4, a4, -1
                OS_DELAY(100);        /* XXX get actual value */
  906176:	5bf68c        	call8	903ba8 <ath_hal_delay>
        for (i = 1000; i != 0; i--) {
  906179:	654fec        	bnez	a4, 906169 <ar5416StopTxDma+0x19>
  90617c:	137249        	l32r	a3, 8e2aa0 <athos_indirection_table_install+0x1558>
  90617f:	c020      	movi.n	a2, 0
  906181:	0c0200        	memw
  906184:	9230      	s32i.n	a2, a3, 0
        return (i != 0);
  906186:	c031      	movi.n	a3, 1
  906188:	043239        	movnez	a2, a3, a4
}
  90618b:	d10f      	retw.n
  90618d:	000000        	ill

00906190 <ar5416GetPendingInterrupts>:
{
  906190:	6c1004        	entry	a1, 32
	return *(const volatile uint32_t *) addr;
  906193:	187216        	l32r	a8, 8e29ec <athos_indirection_table_install+0x14a4>
  906196:	0c0200        	memw
  906199:	8880      	l32i.n	a8, a8, 0
	if (ioread32_mac(AR_INTR_ASYNC_CAUSE)
  90619b:	7e870d        	bbci	a8, 30, 9061ac <ar5416GetPendingInterrupts+0x1c>
  90619e:	18724f        	l32r	a8, 8e2adc <athos_indirection_table_install+0x1594>
  9061a1:	0c0200        	memw
  9061a4:	8880      	l32i.n	a8, a8, 0
				& AR_RTC_STATUS_M) != AR_RTC_STATUS_ON) {
  9061a6:	080843        	extui	a8, a8, 0, 4
		if ((ioread32_mac(AR_RTC_STATUS)
  9061a9:	688208        	beqi	a8, 2, 9061b5 <ar5416GetPendingInterrupts+0x25>
			*masked = 0;
  9061ac:	c020      	movi.n	a2, 0
  9061ae:	9230      	s32i.n	a2, a3, 0
			return AH_FALSE;
  9061b0:	d10f      	retw.n
  9061b2:	000000        	ill
  9061b5:	187250        	l32r	a8, 8e2af8 <athos_indirection_table_install+0x15b0>
  9061b8:	0c0200        	memw
  9061bb:	8980      	l32i.n	a9, a8, 0
	if (isr == 0xffffffff) {
  9061bd:	6890eb        	beqi	a9, -1, 9061ac <ar5416GetPendingInterrupts+0x1c>
	*masked = isr & HAL_INT_COMMON;
  9061c0:	187218        	l32r	a8, 8e2a20 <athos_indirection_table_install+0x14d8>
	if (isr & AR_ISR_BCNMISC) {
  9061c3:	1b721a        	l32r	a11, 8e2a2c <athos_indirection_table_install+0x14e4>
	*masked = isr & HAL_INT_COMMON;
  9061c6:	089801        	and	a8, a9, a8
  9061c9:	9830      	s32i.n	a8, a3, 0
	if (isr & AR_ISR_BCNMISC) {
  9061cb:	7b901f        	bnone	a9, a11, 9061ee <ar5416GetPendingInterrupts+0x5e>
  9061ce:	1a7251        	l32r	a10, 8e2b14 <athos_indirection_table_install+0x15cc>
  9061d1:	0c0200        	memw
  9061d4:	8aa0      	l32i.n	a10, a10, 0
		if (s2_s & AR_ISR_S2_GTT) {
  9061d6:	7ba007        	bnone	a10, a11, 9061e1 <ar5416GetPendingInterrupts+0x51>
			*masked |= HAL_INT_GTT;
  9061d9:	1b722c        	l32r	a11, 8e2a8c <athos_indirection_table_install+0x1544>
  9061dc:	0b8802        	or	a8, a8, a11
  9061df:	9830      	s32i.n	a8, a3, 0
		if (s2_s & AR_ISR_S2_CST) {
  9061e1:	79a609        	bbci	a10, 9, 9061ee <ar5416GetPendingInterrupts+0x5e>
			*masked |= HAL_INT_CST;
  9061e4:	8830      	l32i.n	a8, a3, 0
  9061e6:	1a7252        	l32r	a10, 8e2b30 <athos_indirection_table_install+0x15e8>
  9061e9:	0a8802        	or	a8, a8, a10
  9061ec:	9830      	s32i.n	a8, a3, 0
	if (isr & (AR_ISR_RXOK | AR_ISR_RXERR))
  9061ee:	c085      	movi.n	a8, 5
  9061f0:	789008        	bnone	a9, a8, 9061fc <ar5416GetPendingInterrupts+0x6c>
		*masked |= HAL_INT_RX;
  9061f3:	8830      	l32i.n	a8, a3, 0
  9061f5:	c0a1      	movi.n	a10, 1
  9061f7:	0a8802        	or	a8, a8, a10
  9061fa:	9830      	s32i.n	a8, a3, 0
	if (isr & (AR_ISR_TXOK | AR_ISR_TXDESC | AR_ISR_TXERR | AR_ISR_TXEOL)) {
  9061fc:	285ac0        	movi	a8, 0x5c0
  9061ff:	789035        	bnone	a9, a8, 906238 <ar5416GetPendingInterrupts+0xa8>
		*masked |= HAL_INT_TX;
  906202:	8830      	l32i.n	a8, a3, 0
  906204:	c490      	movi.n	a9, 64
  906206:	098802        	or	a8, a8, a9
  906209:	283600        	s32i	a8, a3, 0
  90620c:	137253        	l32r	a3, 8e2b58 <_HIFusb_isr_handler>
  90620f:	0c0200        	memw
  906212:	8930      	l32i.n	a9, a3, 0
  906214:	137254        	l32r	a3, 8e2b64 <_HIFusb_isr_handler+0xc>
  906217:	0c0200        	memw
  90621a:	283200        	l32i	a8, a3, 0
		ahp->ah_intrTxqs |= MS(s1_s, AR_ISR_S1_QCU_TXEOL);
  90621d:	089302        	or	a3, a9, a8
		ahp->ah_intrTxqs |= MS(s0_s, AR_ISR_S0_QCU_TXDESC);
  906220:	09095f        	extui	a9, a9, 16, 16
		ahp->ah_intrTxqs |= MS(s1_s, AR_ISR_S1_QCU_TXEOL);
  906223:	08085f        	extui	a8, a8, 16, 16
  906226:	093302        	or	a3, a3, a9
  906229:	083302        	or	a3, a3, a8
  90622c:	282238        	l32i	a8, a2, 224
  90622f:	030349        	extui	a3, a3, 0, 10
  906232:	038302        	or	a3, a8, a3
  906235:	232638        	s32i	a3, a2, 224
  906238:	137255        	l32r	a3, 8e2b8c <_HIFusb_isr_handler+0x34>
	return AH_TRUE;
  90623b:	c021      	movi.n	a2, 1
  90623d:	0c0200        	memw
  906240:	8830      	l32i.n	a8, a3, 0
		      | AR_INTR_SYNC_HOST1_PERR))) ? AH_TRUE : AH_FALSE;
  906242:	68800f        	beqi	a8, -1, 906255 <ar5416GetPendingInterrupts+0xc5>
		     (sync_cause & (AR_INTR_SYNC_HOST1_FATAL
  906245:	290a60        	movi	a9, 96
		      | AR_INTR_SYNC_HOST1_PERR))) ? AH_TRUE : AH_FALSE;
  906248:	798009        	bnone	a8, a9, 906255 <ar5416GetPendingInterrupts+0xc5>
	*(volatile uint32_t *) addr = b;
  90624b:	0c0200        	memw
  90624e:	9830      	s32i.n	a8, a3, 0
	return *(const volatile uint32_t *) addr;
  906250:	0c0200        	memw
  906253:	8330      	l32i.n	a3, a3, 0
}
  906255:	d10f      	retw.n
	...

00906258 <ar5416SetRxFilter>:
{
  906258:	6c1004        	entry	a1, 32
	iowrite32_mac(AR_RX_FILTER, (bits & 0xff) | AR_RX_COMPR_BAR);
  90625b:	294a00        	movi	a9, 0x400
  90625e:	030847        	extui	a8, a3, 0, 8
  906261:	098802        	or	a8, a8, a9
  906264:	197256        	l32r	a9, 8e2bbc <_HIFusb_isr_handler+0x64>
	*(volatile uint32_t *) addr = b;
  906267:	0c0200        	memw
  90626a:	9890      	s32i.n	a8, a9, 0
	if (bits & HAL_RX_FILTER_PHYRADAR)
  90626c:	282a00        	movi	a8, 0x200
  90626f:	083801        	and	a8, a3, a8
		phybits |= AR_PHY_ERR_RADAR;
  906272:	c290      	movi.n	a9, 32
  906274:	089839        	movnez	a8, a9, a8
	if (bits & HAL_RX_FILTER_PHYERR)
  906277:	773705        	bbci	a3, 23, 906280 <ar5416SetRxFilter+0x28>
		phybits |= AR_PHY_ERR_OFDM_TIMING | AR_PHY_ERR_CCK_TIMING;
  90627a:	137257        	l32r	a3, 8e2bd8 <hif_module_install+0x4>
  90627d:	038802        	or	a8, a8, a3
  906280:	137258        	l32r	a3, 8e2be0 <hif_module_install+0xc>
  906283:	197259        	l32r	a9, 8e2be8 <hif_module_install+0x14>
  906286:	0c0200        	memw
  906289:	9830      	s32i.n	a8, a3, 0
	if (phybits) {
  90628b:	c88d      	beqz.n	a8, 90629c <ar5416SetRxFilter+0x44>
	return *(const volatile uint32_t *) addr;
  90628d:	0c0200        	memw
  906290:	8890      	l32i.n	a8, a9, 0
		iowrite32_mac(AR_RXCFG,
  906292:	c130      	movi.n	a3, 16
  906294:	038802        	or	a8, a8, a3
  906297:	60000b        	j	9062a6 <ar5416SetRxFilter+0x4e>
  90629a:	00000c        	sub	a0, a0, a0
  90629d:	020088        	excw
  9062a0:	90c6      	s32i.n	a0, a12, 24
		iowrite32_mac(AR_RXCFG,
  9062a2:	3f0388        	excw
  9062a5:	010c02        	or	a12, a0, a1
	*(volatile uint32_t *) addr = b;
  9062a8:	009890        	l32e	a0, a9, -32
  9062ab:	d10f      	retw.n
  9062ad:	000000        	ill

009062b0 <ar5416Attach>:
{
  9062b0:	6c1004        	entry	a1, 32
	ahp = ath_hal_malloc(sizeof (struct ath_hal_5416));
  9062b3:	2a1a30        	movi	a10, 0x130
  9062b6:	5bf640        	call8	903bb8 <ath_hal_malloc>
{
  9062b9:	d520      	mov.n	a5, a2
	ahp = ath_hal_malloc(sizeof (struct ath_hal_5416));
  9062bb:	d2a0      	mov.n	a2, a10
	if (ahp == AH_NULL) {
  9062bd:	cca4      	bnez.n	a10, 9062c5 <ar5416Attach+0x15>
		*status = HAL_ENOMEM;
  9062bf:	c032      	movi.n	a3, 2
  9062c1:	9340      	s32i.n	a3, a4, 0
		return AH_NULL;
  9062c3:	d10f      	retw.n
	OS_MEMCPY(&ahp->ah_priv, &ar5416hal_10, sizeof(struct ath_hal_private));
  9062c5:	1b725a        	l32r	a11, 8e2c30 <hif_module_install+0x5c>
  9062c8:	2c0ad0        	movi	a12, 208
  9062cb:	5bf646        	call8	903be4 <ath_hal_memcpy>
	ah->ah_set11nTxDesc        = ar5416Set11nTxDesc_20;
  9062ce:	18725b        	l32r	a8, 8e2c3c <hif_module_install+0x68>
	ah->ah_dev = dev;
  9062d1:	9322      	s32i.n	a3, a2, 8
	ah->ah_set11nTxDesc        = ar5416Set11nTxDesc_20;
  9062d3:	982f      	s32i.n	a8, a2, 60
	ah->ah_set11nRateScenario  = ar5416Set11nRateScenario_20;
  9062d5:	18725c        	l32r	a8, 8e2c48 <hif_module_install+0x74>
	ah->ah_sc = sc;
  9062d8:	9521      	s32i.n	a5, a2, 4
	ah->ah_set11nRateScenario  = ar5416Set11nRateScenario_20;
  9062da:	282610        	s32i	a8, a2, 64
	ah->ah_set11nAggrFirst     = ar5416Set11nAggrFirst_20;
  9062dd:	18725d        	l32r	a8, 8e2c54 <hif_module_install+0x80>
  9062e0:	282611        	s32i	a8, a2, 68
	ah->ah_set11nAggrMiddle    = ar5416Set11nAggrMiddle_20;
  9062e3:	18725e        	l32r	a8, 8e2c5c <hif_module_install+0x88>
  9062e6:	282612        	s32i	a8, a2, 72
	ah->ah_set11nAggrLast      = ar5416Set11nAggrLast_20;
  9062e9:	18725f        	l32r	a8, 8e2c68 <hif_module_install+0x94>
  9062ec:	282613        	s32i	a8, a2, 76
	ah->ah_clr11nAggr          = ar5416Clr11nAggr_20;
  9062ef:	187260        	l32r	a8, 8e2c70 <hif_module_install+0x9c>
  9062f2:	282614        	s32i	a8, a2, 80
	ah->ah_set11nBurstDuration = ar5416Set11nBurstDuration_20;
  9062f5:	187261        	l32r	a8, 8e2c7c <hif_module_install+0xa8>
  9062f8:	282615        	s32i	a8, a2, 84
	ah->ah_setupRxDesc         = ar5416SetupRxDesc_20;
  9062fb:	187262        	l32r	a8, 8e2c84 <hif_module_install+0xb0>
  9062fe:	282620        	s32i	a8, a2, 128
	ah->ah_procRxDescFast      = ar5416ProcRxDescFast_20;
  906301:	187263        	l32r	a8, 8e2c90 <hif_module_install+0xbc>
  906304:	282622        	s32i	a8, a2, 136
	ah->ah_setupTxDesc         = ar5416SetupTxDesc_20;
  906307:	187264        	l32r	a8, 8e2c98 <hif_module_install+0xc4>
  90630a:	282617        	s32i	a8, a2, 92
	ah->ah_fillTxDesc          = ar5416FillTxDesc_20;
  90630d:	187265        	l32r	a8, 8e2ca4 <hif_module_install+0xd0>
  906310:	282618        	s32i	a8, a2, 96
	ah->ah_fillKeyTxDesc       = ar5416FillKeyTxDesc_20;
  906313:	187266        	l32r	a8, 8e2cac <hif_module_install+0xd8>
  906316:	282619        	s32i	a8, a2, 100
	ah->ah_procTxDesc          = ar5416ProcTxDesc_20;
  906319:	187267        	l32r	a8, 8e2cb8 <hif_module_install+0xe4>
  90631c:	28261a        	s32i	a8, a2, 104
	ah->ah_set11nVirtualMoreFrag = ar5416Set11nVirtualMoreFrag_20;
  90631f:	187268        	l32r	a8, 8e2cc0 <hif_module_install+0xec>
  906322:	282616        	s32i	a8, a2, 88
}
  906325:	d10f      	retw.n
	...

00906328 <ar5416GetRateTable>:
#undef	HT
#undef	HT_HGI

const HAL_RATE_TABLE *
ar5416GetRateTable(struct ath_hal *ah, a_uint32_t mode)
{
  906328:	6c1004        	entry	a1, 32
	case HAL_MODE_11NA:
		rt = &ar5416_11na_table;
		break;
#endif
	default:
		return AH_NULL;
  90632b:	127269        	l32r	a2, 8e2cd0 <hif_module_install+0xfc>
  90632e:	233dc0        	addmi	a3, a3, 0xffffc000
  906331:	c080      	movi.n	a8, 0
  906333:	038239        	movnez	a2, a8, a3
	}

	return rt;
}
  906336:	d10f      	retw.n

00906338 <ath_pci_suspend>:
	adf_os_free_intr(sc->sc_dev);
}

static void
ath_pci_suspend(adf_drv_handle_t hdl, adf_os_pm_t pm)
{
  906338:	6c1004        	entry	a1, 32
  90633b:	d10f      	retw.n
  90633d:	000000        	ill

00906340 <ath_pci_resume>:
}

static void
ath_pci_resume(adf_drv_handle_t hdl)
{
  906340:	6c1004        	entry	a1, 32
  906343:	d10f      	retw.n
  906345:	000000        	ill

00906348 <ath_pci_remove>:
{
  906348:	6c1004        	entry	a1, 32
	ath_detach((struct ath_softc_tgt *)hdl);
  90634b:	da20      	mov.n	a10, a2
  90634d:	5807bd        	call8	908244 <ath_detach>
}

static inline void
adf_os_free_intr(adf_os_device_t osdev)
{
    __adf_os_free_intr(osdev);
  906350:	2a2246        	l32i	a10, a2, 0x118
  906353:	58002b        	call8	906400 <__adf_os_free_intr>
  906356:	d10f      	retw.n

00906358 <init_ath_pci>:

static adf_drv_info_t ath_drv_info = adf_os_pci_set_drv_info(ath_pci_tgt,&ath_pci_id_table[0], ath_pci_probe, ath_pci_remove, ath_pci_suspend, ath_pci_resume);

a_int32_t
init_ath_pci(void)
{
  906358:	6c1004        	entry	a1, 32
 * @return status of operation
 */
static inline a_status_t
adf_net_register_drv(adf_drv_info_t *drv)
{
    return(__adf_net_register_drv(drv));
  90635b:	1a726a        	l32r	a10, 8e2d04 <hif_module_install+0x130>
  90635e:	581306        	call8	90af78 <__adf_net_register_drv>
	return adf_net_register_drv( &ath_drv_info );
}
  906361:	d2a0      	mov.n	a2, a10
  906363:	d10f      	retw.n
  906365:	000000        	ill

00906368 <ath_pci_probe>:
{
  906368:	6c1004        	entry	a1, 32
}

static inline int
__adf_os_pci_config_write8(adf_os_device_t osdev, int offset, a_uint8_t val)
{
    wlan_pci_config_write(offset, val, 1);
  90636b:	c0c1      	movi.n	a12, 1
  90636d:	2b0a20        	movi	a11, 32
  906370:	2a0a0c        	movi	a10, 12
  906373:	5bf649        	call8	903c98 <wlan_pci_config_write>
  906376:	c0c1      	movi.n	a12, 1
  906378:	2b0aa8        	movi	a11, 168
  90637b:	c0ad      	movi.n	a10, 13
  90637d:	5bf646        	call8	903c98 <wlan_pci_config_write>
  906380:	16716e        	l32r	a6, 8e2938 <athos_indirection_table_install+0x13f0>
  906383:	13726b        	l32r	a3, 8e2d30 <hif_module_install+0x15c>
  906386:	226252        	l32i	a2, a6, 0x148
  906389:	db30      	mov.n	a11, a3
  90638b:	c0a0      	movi.n	a10, 0
  90638d:	0b2000        	callx8	a2
  906390:	d2a0      	mov.n	a2, a10
	if (sc == NULL) {
  906392:	ccaa      	bnez.n	a10, 9063a0 <ath_pci_probe+0x38>
		adf_os_print("ath_pci: no memory for device state\n");
  906394:	236212        	l32i	a3, a6, 72
  906397:	1a726c        	l32r	a10, 8e2d48 <hif_module_install+0x174>
  90639a:	0b3000        	callx8	a3
		goto bad2;
  90639d:	d10f      	retw.n
  90639f:	008864        	excw
	A_MEMSET(buf, b, size);
  9063a2:	dc30      	mov.n	a12, a3
  9063a4:	c0b0      	movi.n	a11, 0
  9063a6:	0b8000        	callx8	a8
	sc->aps_sc.sc_invalid = 1;
  9063a9:	232d01        	addmi	a3, a2, 0x100
  9063ac:	283024        	l8ui	a8, a3, 36
  9063af:	29fa80        	movi	a9, -128
  9063b2:	098802        	or	a8, a8, a9
  9063b5:	283424        	s8i	a8, a3, 36
	adf_os_print("ath_pci_probe %x\n",id->device);
  9063b8:	2b4201        	l32i	a11, a4, 4
  9063bb:	266212        	l32i	a6, a6, 72
  9063be:	1a726d        	l32r	a10, 8e2d74 <hif_module_install+0x1a0>
  9063c1:	0b6000        	callx8	a6
	if (ath_tgt_attach(id->device, &sc->aps_sc, osdev) != 0)
  9063c4:	8a41      	l32i.n	a10, a4, 4
  9063c6:	dc50      	mov.n	a12, a5
  9063c8:	db20      	mov.n	a11, a2
  9063ca:	580690        	call8	907e0c <ath_tgt_attach>
  9063cd:	cda1      	bnez.n	a10, 9063e2 <ath_pci_probe+0x7a>
	sc->aps_sc.sc_invalid = 0;
  9063cf:	263024        	l8ui	a6, a3, 36
    return __adf_os_setup_intr(osdev, fn);
  9063d2:	1b726e        	l32r	a11, 8e2d8c <hif_module_install+0x1b8>
  9063d5:	060646        	extui	a6, a6, 0, 7
  9063d8:	263424        	s8i	a6, a3, 36
  9063db:	da50      	mov.n	a10, a5
  9063dd:	580005        	call8	9063f4 <__adf_os_setup_intr>
  9063e0:	d10f      	retw.n
	return NULL;
  9063e2:	c020      	movi.n	a2, 0
}
  9063e4:	d10f      	retw.n
	...

009063e8 <exit_ath_pci>:

void
exit_ath_pci(void)
{
  9063e8:	6c1004        	entry	a1, 32
 * @see adf_net_register_drv()
 */
static inline void
adf_net_unregister_drv(a_uint8_t *drv_name)
{
    __adf_net_unregister_drv(drv_name);
  9063eb:	1a726f        	l32r	a10, 8e2da8 <hif_module_install+0x1d4>
  9063ee:	5812e5        	call8	90af84 <__adf_net_unregister_drv>
  9063f1:	d10f      	retw.n
	...

009063f4 <__adf_os_setup_intr>:
 * @return int
 */

int
__adf_os_setup_intr(__adf_os_device_t  osdev, adf_os_drv_intr fn)
{
  9063f4:	6c1004        	entry	a1, 32
    g_wlan_intr = fn;
  9063f7:	1871d8        	l32r	a8, 8e2b58 <_HIFusb_isr_handler>

    return 0;
}
  9063fa:	c020      	movi.n	a2, 0
    g_wlan_intr = fn;
  9063fc:	9380      	s32i.n	a3, a8, 0
}
  9063fe:	d10f      	retw.n

00906400 <__adf_os_free_intr>:
 * @param[in] dev
 * @param[in] sc
 */
void
__adf_os_free_intr(__adf_os_device_t osdev)
{
  906400:	6c1004        	entry	a1, 32
    g_wlan_intr = NULL;
  906403:	1871d8        	l32r	a8, 8e2b64 <_HIFusb_isr_handler+0xc>
  906406:	c090      	movi.n	a9, 0
  906408:	9980      	s32i.n	a9, a8, 0
  90640a:	d10f      	retw.n

0090640c <__adf_os_mem_alloc>:
{
  90640c:	6c1004        	entry	a1, 32
    return A_ALLOCRAM(size);
  90640f:	18716e        	l32r	a8, 8e29c8 <athos_indirection_table_install+0x1480>
  906412:	db20      	mov.n	a11, a2
  906414:	288252        	l32i	a8, a8, 0x148
  906417:	c0a0      	movi.n	a10, 0
  906419:	0b8000        	callx8	a8
}
  90641c:	d2a0      	mov.n	a2, a10
  90641e:	d10f      	retw.n

00906420 <__adf_os_mem_copy>:
{
  906420:	6c1004        	entry	a1, 32
    A_MEMCPY(dst,src,size);
  906423:	18716e        	l32r	a8, 8e29dc <athos_indirection_table_install+0x1494>
  906426:	dc40      	mov.n	a12, a4
  906428:	8885      	l32i.n	a8, a8, 20
  90642a:	db30      	mov.n	a11, a3
  90642c:	da20      	mov.n	a10, a2
  90642e:	0b8000        	callx8	a8
  906431:	d10f      	retw.n
	...

00906434 <__adf_os_mem_set>:
{
  906434:	6c1004        	entry	a1, 32
	A_MEMSET(buf, b, size);
  906437:	18716e        	l32r	a8, 8e29f0 <athos_indirection_table_install+0x14a8>
  90643a:	dc40      	mov.n	a12, a4
  90643c:	8884      	l32i.n	a8, a8, 16
  90643e:	db30      	mov.n	a11, a3
  906440:	da20      	mov.n	a10, a2
  906442:	0b8000        	callx8	a8
  906445:	d10f      	retw.n
	...

00906448 <tgt_HTCRecv_uapsdhandler>:
	ath_tgt_send_beacon(sc, hdr_buf, buf, EndPt);
}

static void tgt_HTCRecv_uapsdhandler(HTC_ENDPOINT_ID EndPt, adf_nbuf_t hdr_buf,
				     adf_nbuf_t buf, void *ServiceCtx)
{
  906448:	6c1004        	entry	a1, 32
  90644b:	d10f      	retw.n
  90644d:	000000        	ill

00906450 <dispatch_magpie_sys_cmds>:
	wmi_cmd_rsp(sc->tgt_wmi_handle, Command, SeqNo, NULL, 0);
}

static void dispatch_magpie_sys_cmds(void *pContext, A_UINT16 Command,
				     A_UINT16 SeqNo, A_UINT8 *buffer, a_int32_t Length)
{
  906450:	6c1004        	entry	a1, 32
  906453:	63fffc        	j	906453 <dispatch_magpie_sys_cmds+0x3>
	...

00906458 <htc_setup_comp>:
/*****************/
/* Init / Deinit */
/*****************/

static void htc_setup_comp(void)
{
  906458:	6c1004        	entry	a1, 32
  90645b:	d10f      	retw.n
  90645d:	000000        	ill

00906460 <tgt_ServiceConnect>:
				  HTC_ENDPOINT_ID eid,
				  A_UINT8 *pDataIn,
				  a_int32_t LengthIn,
				  A_UINT8 *pDataOut,
				  a_int32_t *pLengthOut)
{
  906460:	6c1004        	entry	a1, 32
	struct ath_softc_tgt *sc = (struct ath_softc_tgt *)pService->ServiceCtx;

	switch(pService->ServiceID) {
  906463:	292108        	l16ui	a9, a2, 16
	struct ath_softc_tgt *sc = (struct ath_softc_tgt *)pService->ServiceCtx;
  906466:	8826      	l32i.n	a8, a2, 24
	switch(pService->ServiceID) {
  906468:	299dff        	addmi	a9, a9, 0xffffff00
  90646b:	09094f        	extui	a9, a9, 0, 16
  90646e:	c028      	movi.n	a2, 8
  906470:	792344        	bltu	a2, a9, 9064b8 <tgt_ServiceConnect+0x58>
  906473:	1a7270        	l32r	a10, 8e2e34 <hif_module_install+0x260>
  906476:	0e9911        	slli	a9, a9, 2
  906479:	a9a9      	add.n	a9, a10, a9
  90647b:	8290      	l32i.n	a2, a9, 0
  90647d:	0a2000        	jx	a2
	case WMI_CONTROL_SVC:
		sc->wmi_command_ep= eid;
  906480:	23863c        	s32i	a3, a8, 240
		break;
  906483:	600034        	j	9064bb <tgt_ServiceConnect+0x5b>
	case WMI_BEACON_SVC:
		sc->beacon_ep= eid;
  906486:	23863d        	s32i	a3, a8, 244
		break;
  906489:	60002e        	j	9064bb <tgt_ServiceConnect+0x5b>
	case WMI_CAB_SVC:
		sc->cab_ep= eid;
  90648c:	23863e        	s32i	a3, a8, 248
		break;
  90648f:	600028        	j	9064bb <tgt_ServiceConnect+0x5b>
	case WMI_UAPSD_SVC:
		sc->uapsd_ep= eid;
  906492:	23863f        	s32i	a3, a8, 252
		break;
  906495:	600022        	j	9064bb <tgt_ServiceConnect+0x5b>
	case WMI_MGMT_SVC:
		sc->mgmt_ep= eid;
  906498:	238640        	s32i	a3, a8, 0x100
		break;
  90649b:	60001c        	j	9064bb <tgt_ServiceConnect+0x5b>
  90649e:	000023        	excw
	case WMI_DATA_VO_SVC:
		sc->data_VO_ep = eid;
  9064a1:	8641      	l32i.n	a6, a4, 4
		break;
  9064a3:	600014        	j	9064bb <tgt_ServiceConnect+0x5b>
	case WMI_DATA_VI_SVC:
		sc->data_VI_ep = eid;
  9064a6:	238642        	s32i	a3, a8, 0x108
		break;
  9064a9:	60000e        	j	9064bb <tgt_ServiceConnect+0x5b>
	case WMI_DATA_BE_SVC:
		sc->data_BE_ep = eid;
  9064ac:	238643        	s32i	a3, a8, 0x10c
		break;
  9064af:	600008        	j	9064bb <tgt_ServiceConnect+0x5b>
	case WMI_DATA_BK_SVC:
		sc->data_BK_ep = eid;
  9064b2:	238644        	s32i	a3, a8, 0x110
		break;
  9064b5:	600002        	j	9064bb <tgt_ServiceConnect+0x5b>
  9064b8:	63fffc        	j	9064b8 <tgt_ServiceConnect+0x58>
	default:
		adf_os_assert(0);
	}

	return HTC_SERVICE_SUCCESS;
}
  9064bb:	c020      	movi.n	a2, 0
  9064bd:	d10f      	retw.n
	...

009064c0 <tgt_reg_service>:

static void tgt_reg_service(struct ath_softc_tgt *sc, HTC_SERVICE *svc,
			    int svcId, HTC_SERVICE_ProcessRecvMsg recvMsg)
{
  9064c0:	6c1004        	entry	a1, 32
	svc->ProcessRecvMsg = recvMsg;
	svc->ProcessSendBufferComplete = tgt_HTCSendCompleteHandler;
  9064c3:	187271        	l32r	a8, 8e2e88 <hif_module_install+0x2b4>
	svc->ProcessConnect = tgt_ServiceConnect;
	svc->MaxSvcMsgSize = 1600;
	svc->TrailerSpcCheckLimit = 0;
	svc->ServiceID = svcId;
	svc->ServiceCtx = sc;
	HTC_RegisterService(sc->tgt_htc_handle, svc);
  9064c6:	8a22      	l32i.n	a10, a2, 8
	svc->ProcessSendBufferComplete = tgt_HTCSendCompleteHandler;
  9064c8:	9832      	s32i.n	a8, a3, 8
	svc->ProcessConnect = tgt_ServiceConnect;
  9064ca:	187272        	l32r	a8, 8e2e94 <hif_module_install+0x2c0>
{
  9064cd:	db30      	mov.n	a11, a3
	svc->ProcessConnect = tgt_ServiceConnect;
  9064cf:	9833      	s32i.n	a8, a3, 12
	svc->MaxSvcMsgSize = 1600;
  9064d1:	286a40        	movi	a8, 0x640
  9064d4:	28350a        	s16i	a8, a3, 20
	svc->TrailerSpcCheckLimit = 0;
  9064d7:	c080      	movi.n	a8, 0
  9064d9:	28350b        	s16i	a8, a3, 22
	HTC_RegisterService(sc->tgt_htc_handle, svc);
  9064dc:	18716e        	l32r	a8, 8e2a94 <athos_indirection_table_install+0x154c>
	svc->ProcessRecvMsg = recvMsg;
  9064df:	9531      	s32i.n	a5, a3, 4
	HTC_RegisterService(sc->tgt_htc_handle, svc);
  9064e1:	288285        	l32i	a8, a8, 0x214
	svc->ServiceID = svcId;
  9064e4:	243508        	s16i	a4, a3, 16
	svc->ServiceCtx = sc;
  9064e7:	9236      	s32i.n	a2, a3, 24
	HTC_RegisterService(sc->tgt_htc_handle, svc);
  9064e9:	0b8000        	callx8	a8
  9064ec:	d10f      	retw.n
	...

009064f0 <tgt_HTCRecvMessageHandler>:
{
  9064f0:	6c1006        	entry	a1, 48
    __adf_nbuf_peek_header(buf, addr, len);
  9064f3:	dc10      	mov.n	a12, a1
  9064f5:	b41b      	addi.n	a11, a1, 4
	if (!hdr_buf) {
  9064f7:	cc3d      	bnez.n	a3, 906508 <tgt_HTCRecvMessageHandler+0x18>
  9064f9:	da40      	mov.n	a10, a4
  9064fb:	5bf462        	call8	903684 <__adf_nbuf_peek_header>
    return __adf_nbuf_pull_head(buf, size);
  9064fe:	c0bc      	movi.n	a11, 12
  906500:	da40      	mov.n	a10, a4
  906502:	5bf3bb        	call8	9033f0 <__adf_nbuf_pull_head>
  906505:	600004        	j	90650d <tgt_HTCRecvMessageHandler+0x1d>
    __adf_nbuf_peek_header(buf, addr, len);
  906508:	da30      	mov.n	a10, a3
  90650a:	5bf45e        	call8	903684 <__adf_nbuf_peek_header>
	adf_os_assert(len >= sizeof(ath_data_hdr_t));
  90650d:	8310      	l32i.n	a3, a1, 0
  90650f:	c06b      	movi.n	a6, 11
  906511:	736303        	bltu	a6, a3, 906518 <tgt_HTCRecvMessageHandler+0x28>
  906514:	63fffc        	j	906514 <tgt_HTCRecvMessageHandler+0x24>
  906517:	002952        	extui	a9, a0, 18, 3
	sc->sc_tx_stats.tx_tgt++;
  90651a:	5b8311        	call8	8e7160 <memset+0x1fc4>
  90651d:	b199      	addi.n	a9, a9, 1
	an = &sc->sc_sta[dh->ni_index];
  90651f:	263001        	l8ui	a6, a3, 1
	tid = ATH_AN_2_TID(an, dh->tidno);
  906522:	273003        	l8ui	a7, a3, 3
	bf = ath_tgt_tx_prepare(sc, buf, dh);
  906525:	db40      	mov.n	a11, a4
	sc->sc_tx_stats.tx_tgt++;
  906527:	29565b        	s32i	a9, a5, 0x16c
	bf = ath_tgt_tx_prepare(sc, buf, dh);
  90652a:	dc30      	mov.n	a12, a3
  90652c:	da50      	mov.n	a10, a5
  90652e:	580d99        	call8	909b94 <ath_tgt_tx_prepare>
  906531:	dba0      	mov.n	a11, a10
	if (!bf) {
  906533:	ccaf      	bnez.n	a10, 906546 <tgt_HTCRecvMessageHandler+0x56>
		ath_free_tx_skb(sc->tgt_htc_handle,EndPt,buf);
  906535:	13716e        	l32r	a3, 8e2af0 <athos_indirection_table_install+0x15a8>
  906538:	8a52      	l32i.n	a10, a5, 8
  90653a:	233287        	l32i	a3, a3, 0x21c
  90653d:	dc40      	mov.n	a12, a4
  90653f:	db20      	mov.n	a11, a2
  906541:	0b3000        	callx8	a3
  906544:	d10f      	retw.n
	bf->bf_endpt = EndPt;
  906546:	22a623        	s32i	a2, a10, 140
	bf->bf_cookie = dh->cookie;
  906549:	22300a        	l8ui	a2, a3, 10
	if (tid->flag & TID_AGGR_ENABLED)
  90654c:	0c7811        	slli	a8, a7, 4
	bf->bf_cookie = dh->cookie;
  90654f:	22a492        	s8i	a2, a10, 146
	if (tid->flag & TID_AGGR_ENABLED)
  906552:	07820c        	sub	a2, a8, a7
  906555:	0a6811        	slli	a8, a6, 6
  906558:	a688      	add.n	a8, a8, a6
  90655a:	0f8811        	slli	a8, a8, 1
  90655d:	a688      	add.n	a8, a8, a6
  90655f:	a288      	add.n	a8, a8, a2
  906561:	0e8811        	slli	a8, a8, 2
  906564:	225a92        	movi	a2, 0x592
  906567:	a858      	add.n	a8, a5, a8
  906569:	a288      	add.n	a8, a8, a2
  90656b:	228000        	l8ui	a2, a8, 0
		ath_tgt_handle_aggr(sc, bf);
  90656e:	da50      	mov.n	a10, a5
	if (tid->flag & TID_AGGR_ENABLED)
  906570:	7e2705        	bbci	a2, 30, 906579 <tgt_HTCRecvMessageHandler+0x89>
		ath_tgt_handle_aggr(sc, bf);
  906573:	580f55        	call8	90a2c8 <ath_tgt_handle_aggr>
  906576:	d10f      	retw.n
  906578:	00580f        	subx8	a8, a5, a0
		ath_tgt_handle_normal(sc, bf);
  90657b:	33d10f        	excw
	...

00906580 <tgt_HTCRecv_mgmthandler>:
{
  906580:	6c1004        	entry	a1, 32
	ath_tgt_send_mgt(sc,hdr_buf,buf,EndPt);
  906583:	dd20      	mov.n	a13, a2
  906585:	dc40      	mov.n	a12, a4
  906587:	db30      	mov.n	a11, a3
  906589:	da50      	mov.n	a10, a5
  90658b:	580e3b        	call8	909e78 <ath_tgt_send_mgt>
  90658e:	d10f      	retw.n

00906590 <ath_descdma_cleanup>:
{
  906590:	6c1006        	entry	a1, 48
	asf_tailq_foreach(bf, head, bf_list) {
  906593:	8740      	l32i.n	a7, a4, 0
  906595:	60007d        	j	906616 <ath_descdma_cleanup+0x86>
		if (adf_nbuf_queue_len(&bf->bf_skbhead) != 0) {
  906598:	267c14        	addi	a6, a7, 20
    return __adf_nbuf_queue_len(head);
  90659b:	da60      	mov.n	a10, a6
  90659d:	5bf443        	call8	9036ac <__adf_nbuf_queue_len>
  9065a0:	d9a0      	mov.n	a9, a10
  9065a2:	cbac      	beqz.n	a10, 9065e2 <ath_descdma_cleanup+0x52>
    __adf_nbuf_unmap(osdev, bmap, dir);
  9065a4:	2b7200        	l32i	a11, a7, 0
  9065a7:	2a2246        	l32i	a10, a2, 0x118
  9065aa:	055c02        	or	a12, a5, a5
  9065ad:	5bf3ca        	call8	9034d8 <__adf_nbuf_unmap>
  9065b0:	600021        	j	9065d5 <ath_descdma_cleanup+0x45>
  9065b3:	000018        	src	a0, a0, a0
				ath_free_rx_skb(sc,
  9065b6:	716e8d        	bbsi	a6, 1, 906547 <tgt_HTCRecvMessageHandler+0x57>
  9065b9:	202982        	l16si	a0, a2, 0x104
  9065bc:	a3da      	add.n	a10, a13, a3
    return __adf_nbuf_queue_remove(head);
  9065be:	609911        	j	90fed3 <_etext+0x4e94>
  9065c1:	9d10      	s32i.n	a13, a1, 0
  9065c3:	5bf3b1        	call8	903488 <__adf_nbuf_queue_remove>
  9065c6:	8d10      	l32i.n	a13, a1, 0
  9065c8:	8911      	l32i.n	a9, a1, 4
  9065ca:	0aac02        	or	a12, a10, a10
  9065cd:	2b0a03        	movi	a11, 3
  9065d0:	dad0      	mov.n	a10, a13
  9065d2:	0b9000        	callx8	a9
    return __adf_nbuf_queue_len(head);
  9065d5:	da60      	mov.n	a10, a6
  9065d7:	5bf435        	call8	9036ac <__adf_nbuf_queue_len>
			while(adf_nbuf_queue_len(&bf->bf_skbhead) != 0) {
  9065da:	65afd7        	bnez	a10, 9065b5 <ath_descdma_cleanup+0x25>
			bf->bf_skb = NULL;
  9065dd:	9a78      	s32i.n	a10, a7, 32
  9065df:	600025        	j	906608 <ath_descdma_cleanup+0x78>
		} else if (bf->bf_skb != NULL) {
  9065e2:	8678      	l32i.n	a6, a7, 32
  9065e4:	ca60      	beqz.n	a6, 906608 <ath_descdma_cleanup+0x78>
    __adf_nbuf_unmap(osdev, bmap, dir);
  9065e6:	2b7200        	l32i	a11, a7, 0
  9065e9:	2a2246        	l32i	a10, a2, 0x118
  9065ec:	055c02        	or	a12, a5, a5
  9065ef:	291601        	s32i	a9, a1, 4
  9065f2:	5bf3b9        	call8	9034d8 <__adf_nbuf_unmap>
			ath_free_rx_skb(sc, bf->bf_skb);
  9065f5:	18716e        	l32r	a8, 8e2bb0 <_HIFusb_isr_handler+0x58>
  9065f8:	8c78      	l32i.n	a12, a7, 32
  9065fa:	8a20      	l32i.n	a10, a2, 0
  9065fc:	2682a3        	l32i	a6, a8, 0x28c
  9065ff:	c0b3      	movi.n	a11, 3
  906601:	0b6000        	callx8	a6
			bf->bf_skb = NULL;
  906604:	8911      	l32i.n	a9, a1, 4
  906606:	9978      	s32i.n	a9, a7, 32
    __adf_nbuf_dmamap_destroy(osdev, dmap);
  906608:	8b70      	l32i.n	a11, a7, 0
  90660a:	2a2246        	l32i	a10, a2, 0x118
		bf->bf_node = NULL;
  90660d:	c060      	movi.n	a6, 0
  90660f:	5bf3b5        	call8	9034e4 <__adf_nbuf_dmamap_destroy>
  906612:	9674      	s32i.n	a6, a7, 16
	asf_tailq_foreach(bf, head, bf_list) {
  906614:	8779      	l32i.n	a7, a7, 36
  906616:	657f7e        	bnez	a7, 906598 <ath_descdma_cleanup+0x8>
	asf_tailq_init(head);
  906619:	9740      	s32i.n	a7, a4, 0
  90661b:	9441      	s32i.n	a4, a4, 4
 * @param[in] size  buffer size
 */
static inline void
adf_os_mem_set(void *buf, a_uint8_t b, adf_os_size_t size)
{
    __adf_os_mem_set(buf, b, size);
  90661d:	c1c8      	movi.n	a12, 24
  90661f:	db70      	mov.n	a11, a7
  906621:	da30      	mov.n	a10, a3
  906623:	5bff84        	call8	906434 <__adf_os_mem_set>
  906626:	d10f      	retw.n

00906628 <__adf_os_init_bh$isra$5>:
									  void 				*arg)
{
	__adf_os_init_defer(work, func, arg);
}

static inline void	__adf_os_init_bh(adf_os_handle_t  hdl,
  906628:	6c1004        	entry	a1, 32
									 __adf_os_bh_t		*bh,
									 adf_os_defer_fn_t	func,
									 void				*arg)
{
	//__adf_os_init_defer(bh, func, arg);
	A_TASKLET_INIT_TASK(func, arg, bh);
  90662b:	18716e        	l32r	a8, 8e2be4 <hif_module_install+0x10>
  90662e:	dc20      	mov.n	a12, a2
  906630:	28826a        	l32i	a8, a8, 0x1a8
  906633:	db40      	mov.n	a11, a4
  906635:	da30      	mov.n	a10, a3
  906637:	0b8000        	callx8	a8
  90663a:	d10f      	retw.n

0090663c <__adf_os_sched_bh$isra$6>:
                                         __adf_os_work_t  * work)
{
    //taskqueue_drain(taskqueue_thread, &work->tsk);
}

static inline void __adf_os_sched_bh(adf_os_handle_t  hdl,
  90663c:	6c1004        	entry	a1, 32
                                       __adf_os_bh_t  * bh)
{
    A_TASKLET_SCHEDULE(bh);
  90663f:	18716e        	l32r	a8, 8e2bf8 <hif_module_install+0x24>
  906642:	da20      	mov.n	a10, a2
  906644:	28826c        	l32i	a8, a8, 0x1b0
  906647:	0b8000        	callx8	a8
  90664a:	d10f      	retw.n

0090664c <ath_tgt_rx_tasklet>:
{
  90664c:	6c1006        	entry	a1, 48
	struct ath_hal *ah = sc->sc_ah;
  90664f:	252d05        	addmi	a5, a2, 0x500
  906652:	835b      	l32i.n	a3, a5, 44
		bf->bf_skb = NULL;
  906654:	c040      	movi.n	a4, 0
	struct ath_hal *ah = sc->sc_ah;
  906656:	231600        	s32i	a3, a1, 0
		bf = asf_tailq_first(&sc->sc_rxbuf);
  906659:	2322d5        	l32i	a3, a2, 0x354
		if (bf == NULL) {
  90665c:	64308b        	beqz	a3, 9066eb <ath_tgt_rx_tasklet+0x9f>
		if (!(bf->bf_status & ATH_BUFSTATUS_DONE)) {
  90665f:	863f      	l32i.n	a6, a3, 60
  906661:	7f6f02        	bbsi	a6, 31, 906667 <ath_tgt_rx_tasklet+0x1b>
  906664:	600083        	j	9066eb <ath_tgt_rx_tasklet+0x9f>
		skb = bf->bf_skb;
  906667:	8d38      	l32i.n	a13, a3, 32
		if (skb == NULL) {
  906669:	64dfef        	beqz	a13, 90665c <ath_tgt_rx_tasklet+0x10>
		asf_tailq_remove(&sc->sc_rxbuf, bf, bf_list);
  90666c:	8639      	l32i.n	a6, a3, 36
  90666e:	873a      	l32i.n	a7, a3, 40
  906670:	c864      	beqz.n	a6, 906678 <ath_tgt_rx_tasklet+0x2c>
  906672:	976a      	s32i.n	a7, a6, 40
  906674:	600003        	j	90667b <ath_tgt_rx_tasklet+0x2f>
  906677:	002726        	excw
  90667a:	d687      	excw
  90667c:	3adad0        	excw
  90667f:	9670      	s32i.n	a6, a7, 0
		bf->bf_skb = NULL;
  906681:	9438      	s32i.n	a4, a3, 32
    return __adf_nbuf_push_head(buf, size);
  906683:	2b0a28        	movi	a11, 40
  906686:	2d1601        	s32i	a13, a1, 4
  906689:	5bf34e        	call8	9033c4 <__adf_nbuf_push_head>
    __adf_os_mem_copy(dst, src, size);
  90668c:	c2c8      	movi.n	a12, 40
  90668e:	2b3c40        	addi	a11, a3, 64
  906691:	d7a0      	mov.n	a7, a10
  906693:	5bff63        	call8	906420 <__adf_os_mem_copy>
  906696:	8a5b      	l32i.n	a10, a5, 44
		rxstats->rs_tstamp = ath_extend_tsf(sc, (u_int32_t)rxstats->rs_tstamp);
  906698:	8671      	l32i.n	a6, a7, 4
	tsf = ah->ah_getTsf64(ah);
  90669a:	28a21e        	l32i	a8, a10, 120
  90669d:	0b8000        	callx8	a8
	tsf_delta = (a_int32_t)((rstamp - tsf_low) & 0xffffffffUL);
  9066a0:	0b680c        	sub	a8, a6, a11
	return (tsf + (u_int64_t)tsf_delta);
  9066a3:	ab8b      	add.n	a11, a8, a11
  9066a5:	08fc13        	srai	a12, a8, 31
  9066a8:	c061      	movi.n	a6, 1
  9066aa:	8d11      	l32i.n	a13, a1, 4
  9066ac:	78b301        	bltu	a11, a8, 9066b1 <ath_tgt_rx_tasklet+0x65>
  9066af:	d640      	mov.n	a6, a4
  9066b1:	aaca      	add.n	a10, a12, a10
  9066b3:	aa66      	add.n	a6, a6, a10
		rxstats->rs_tstamp = ath_extend_tsf(sc, (u_int32_t)rxstats->rs_tstamp);
  9066b5:	9670      	s32i.n	a6, a7, 0
		HTC_SendMsg(sc->tgt_htc_handle, RX_ENDPOINT_ID, skb);
  9066b7:	16716e        	l32r	a6, 8e2c70 <hif_module_install+0x9c>
  9066ba:	8a22      	l32i.n	a10, a2, 8
  9066bc:	266289        	l32i	a6, a6, 0x224
		rxstats->rs_tstamp = ath_extend_tsf(sc, (u_int32_t)rxstats->rs_tstamp);
  9066bf:	9b71      	s32i.n	a11, a7, 4
		HTC_SendMsg(sc->tgt_htc_handle, RX_ENDPOINT_ID, skb);
  9066c1:	dcd0      	mov.n	a12, a13
  9066c3:	c0b3      	movi.n	a11, 3
  9066c5:	0b6000        	callx8	a6
		sc->sc_rx_stats.ast_rx_send++;
  9066c8:	26227d        	l32i	a6, a2, 0x1f4
		bf->bf_status &= ~ATH_BUFSTATUS_DONE;
  9066cb:	c77e      	movi.n	a7, -2
		sc->sc_rx_stats.ast_rx_send++;
  9066cd:	b166      	addi.n	a6, a6, 1
  9066cf:	26267d        	s32i	a6, a2, 0x1f4
		bf->bf_status &= ~ATH_BUFSTATUS_DONE;
  9066d2:	863f      	l32i.n	a6, a3, 60
		asf_tailq_insert_tail(&sc->sc_rxbuf, bf, bf_list);
  9066d4:	9439      	s32i.n	a4, a3, 36
		bf->bf_status &= ~ATH_BUFSTATUS_DONE;
  9066d6:	076601        	and	a6, a6, a7
  9066d9:	963f      	s32i.n	a6, a3, 60
		asf_tailq_insert_tail(&sc->sc_rxbuf, bf, bf_list);
  9066db:	2622d6        	l32i	a6, a2, 0x358
  9066de:	963a      	s32i.n	a6, a3, 40
  9066e0:	9360      	s32i.n	a3, a6, 0
  9066e2:	233c24        	addi	a3, a3, 36
  9066e5:	2326d6        	s32i	a3, a2, 0x358
  9066e8:	63ff6d        	j	906659 <ath_tgt_rx_tasklet+0xd>
	sc->sc_imask |= HAL_INT_RX;
  9066eb:	2322c4        	l32i	a3, a2, 0x310
  9066ee:	c0b1      	movi.n	a11, 1
  9066f0:	03bb02        	or	a11, a11, a3
	ah->ah_setInterrupts(ah, sc->sc_imask);
  9066f3:	8310      	l32i.n	a3, a1, 0
	sc->sc_imask |= HAL_INT_RX;
  9066f5:	2b26c4        	s32i	a11, a2, 0x310
	ah->ah_setInterrupts(ah, sc->sc_imask);
  9066f8:	223228        	l32i	a2, a3, 160
  9066fb:	da30      	mov.n	a10, a3
  9066fd:	0b2000        	callx8	a2
  906700:	d10f      	retw.n
	...

00906704 <ath_hal_reg_write_filter$isra$13>:
static void ath_hal_reg_write_filter(struct ath_hal *ah,
  906704:	6c1004        	entry	a1, 32
	if(reg > 0xffff) {
  906707:	187273        	l32r	a8, 8e30d4 <bSet_configuration+0x158>
  90670a:	728b32        	bgeu	a8, a2, 906740 <ath_hal_reg_write_filter$isra$13+0x3c>
  90670d:	0c0200        	memw
  906710:	9320      	s32i.n	a3, a2, 0
		if(reg == 0x50040) {
  906712:	1371fb        	l32r	a3, 8e2f00 <bGet_descriptor+0x3c>
  906715:	732977        	bne	a2, a3, 906790 <ath_hal_reg_write_filter$isra$13+0x8c>
			if(flg == 0) {
  906718:	127274        	l32r	a2, 8e30e8 <bSet_configuration+0x16c>
  90671b:	232000        	l8ui	a3, a2, 0
  90671e:	65306e        	bnez	a3, 906790 <ath_hal_reg_write_filter$isra$13+0x8c>
				A_CLOCK_INIT(117);
  906721:	13716e        	l32r	a3, 8e2cdc <hif_module_install+0x108>
  906724:	2a0a75        	movi	a10, 117
  906727:	283237        	l32i	a8, a3, 220
  90672a:	0b8000        	callx8	a8
				A_UART_HWINIT(117*1000*1000, 19200);
  90672d:	1b720a        	l32r	a11, 8e2f58 <bGet_descriptor+0x94>
  906730:	23321a        	l32i	a3, a3, 104
  906733:	1a7275        	l32r	a10, 8e3108 <bSet_configuration+0x18c>
  906736:	0b3000        	callx8	a3
				flg = 1;
  906739:	c031      	movi.n	a3, 1
  90673b:	232400        	s8i	a3, a2, 0
  90673e:	d10f      	retw.n
		if(reg == 0x7014)
  906740:	187276        	l32r	a8, 8e3118 <bSet_configuration+0x19c>
  906743:	78293e        	bne	a2, a8, 906785 <ath_hal_reg_write_filter$isra$13+0x81>
	if(reset_pll == 0) {
  906746:	1a7277        	l32r	a10, 8e3124 <bSet_configuration+0x1a8>
  906749:	28a000        	l8ui	a8, a10, 0
  90674c:	cf85      	bnez.n	a8, 906785 <ath_hal_reg_write_filter$isra$13+0x81>
  90674e:	1b71fa        	l32r	a11, 8e2f38 <bGet_descriptor+0x74>
		iowrite32_mac(0x786c,
  906751:	1c7279        	l32r	a12, 8e3138 <bSet_configuration+0x1bc>
  906754:	0c0200        	memw
  906757:	98b0      	s32i.n	a8, a11, 0
	return *(const volatile uint32_t *) addr;
  906759:	187278        	l32r	a8, 8e313c <bSet_configuration+0x1c0>
  90675c:	0c0200        	memw
  90675f:	8980      	l32i.n	a9, a8, 0
  906761:	0c9902        	or	a9, a9, a12
	*(volatile uint32_t *) addr = b;
  906764:	0c0200        	memw
  906767:	9980      	s32i.n	a9, a8, 0
	return *(const volatile uint32_t *) addr;
  906769:	0c0200        	memw
  90676c:	8980      	l32i.n	a9, a8, 0
		iowrite32_mac(0x786c,
  90676e:	1c727a        	l32r	a12, 8e3158 <bSet_configuration+0x1dc>
  906771:	0c9901        	and	a9, a9, a12
	*(volatile uint32_t *) addr = b;
  906774:	0c0200        	memw
  906777:	9980      	s32i.n	a9, a8, 0
  906779:	c280      	movi.n	a8, 32
  90677b:	0c0200        	memw
  90677e:	98b0      	s32i.n	a8, a11, 0
		reset_pll = 1;
  906780:	c081      	movi.n	a8, 1
  906782:	28a400        	s8i	a8, a10, 0
		iowrite32_mac(reg, val);
  906785:	187215        	l32r	a8, 8e2fdc <bSet_configuration+0x60>
  906788:	a822      	add.n	a2, a2, a8
  90678a:	0c0200        	memw
  90678d:	232600        	s32i	a3, a2, 0
  906790:	d10f      	retw.n
	...

00906794 <ath_reg_read_filter>:
{
  906794:	6c1004        	entry	a1, 32
	if ((addr & 0xffffe000) == 0x2000) {
  906797:	18727b        	l32r	a8, 8e3184 <bSet_configuration+0x208>
  90679a:	197225        	l32r	a9, 8e3030 <bSet_configuration+0xb4>
  90679d:	083801        	and	a8, a3, a8
  9067a0:	798935        	bne	a8, a9, 9067d9 <ath_reg_read_filter+0x45>
		ioread32_mac(addr);
  9067a3:	187215        	l32r	a8, 8e2ff8 <bSet_configuration+0x7c>
		if (!ath_hal_wait(ah, 0x407c, 0x00030000, 0))
  9067a6:	1c727c        	l32r	a12, 8e3198 <bSet_configuration+0x21c>
		ioread32_mac(addr);
  9067a9:	a838      	add.n	a8, a3, a8
		if (!ath_hal_wait(ah, 0x407c, 0x00030000, 0))
  9067ab:	1b727d        	l32r	a11, 8e31a0 <bSet_configuration+0x224>
	return *(const volatile uint32_t *) addr;
  9067ae:	0c0200        	memw
  9067b1:	8880      	l32i.n	a8, a8, 0
  9067b3:	2d0a00        	movi	a13, 0
  9067b6:	022a02        	or	a10, a2, a2
  9067b9:	5bfa24        	call8	90504c <ath_hal_wait>
  9067bc:	ccac      	bnez.n	a10, 9067cc <ath_reg_read_filter+0x38>
			adf_os_print("SEEPROM Read fail: 0x%08x\n", addr);
  9067be:	12716e        	l32r	a2, 8e2d78 <hif_module_install+0x1a4>
  9067c1:	1a727e        	l32r	a10, 8e31bc <bSet_configuration+0x240>
  9067c4:	222212        	l32i	a2, a2, 72
  9067c7:	db30      	mov.n	a11, a3
  9067c9:	0b2000        	callx8	a2
  9067cc:	12727f        	l32r	a2, 8e31c8 <bSet_configuration+0x24c>
  9067cf:	0c0200        	memw
  9067d2:	8220      	l32i.n	a2, a2, 0
		return ioread32_mac(0x407c) & 0x0000ffff;
  9067d4:	02024f        	extui	a2, a2, 0, 16
  9067d7:	d10f      	retw.n
	} else if (addr > 0xffff)
  9067d9:	127273        	l32r	a2, 8e31a8 <bSet_configuration+0x22c>
  9067dc:	732a04        	bge	a2, a3, 9067e4 <ath_reg_read_filter+0x50>
  9067df:	600006        	j	9067e9 <ath_reg_read_filter+0x55>
  9067e2:	000012        	srai	a0, a0, 0
		return ioread32_mac(addr);
  9067e5:	7215a2        	bbc	a1, a2, 90678b <ath_hal_reg_write_filter$isra$13+0x87>
  9067e8:	330c02        	excw
  9067eb:	008230        	excw
}
  9067ee:	d10f      	retw.n

009067f0 <tgt_HTCRecv_cabhandler>:
{
  9067f0:	6c1004        	entry	a1, 32
	struct ath_hal *ah = sc->sc_ah;
  9067f3:	285d05        	addmi	a8, a5, 0x500
  9067f6:	8a8b      	l32i.n	a10, a8, 44
	tsf = ah->ah_getTsf64(ah);
  9067f8:	28a21e        	l32i	a8, a10, 120
  9067fb:	0b8000        	callx8	a8
	tmp = tsf - sc->sc_swba_tsf;
  9067fe:	285d16        	addmi	a8, a5, 0x1600
  906801:	888d      	l32i.n	a8, a8, 52
  906803:	08bb0c        	sub	a11, a11, a8
	if ( tmp > ATH_CABQ_HANDLING_THRESHOLD ) {
  906806:	187280        	l32r	a8, 8e3208 <bSet_configuration+0x28c>
  906809:	7b8b11        	bgeu	a8, a11, 90681e <tgt_HTCRecv_cabhandler+0x2e>
		HTC_ReturnBuffers(sc->tgt_htc_handle, EndPt, buf);
  90680c:	13716e        	l32r	a3, 8e2dc4 <hif_module_install+0x1f0>
  90680f:	8a52      	l32i.n	a10, a5, 8
  906811:	233287        	l32i	a3, a3, 0x21c
  906814:	dc40      	mov.n	a12, a4
  906816:	022b02        	or	a11, a2, a2
  906819:	0b3000        	callx8	a3
  90681c:	d10f      	retw.n
	tgt_HTCRecvMessageHandler(EndPt, hdr_buf, buf, ServiceCtx);
  90681e:	dd50      	mov.n	a13, a5
  906820:	dc40      	mov.n	a12, a4
  906822:	db30      	mov.n	a11, a3
  906824:	da20      	mov.n	a10, a2
  906826:	5bff32        	call8	9064f0 <tgt_HTCRecvMessageHandler>
  906829:	d10f      	retw.n
	...

0090682c <ath_desc_free>:
{
  90682c:	6c1004        	entry	a1, 32
	asf_tailq_insert_tail(&sc->sc_txbuf, sc->sc_txbuf_held, bf_list);
  90682f:	2822dc        	l32i	a8, a2, 0x370
  906832:	2922f1        	l32i	a9, a2, 0x3c4
  906835:	c0d0      	movi.n	a13, 0
  906837:	9d89      	s32i.n	a13, a8, 36
  906839:	998a      	s32i.n	a9, a8, 40
  90683b:	9890      	s32i.n	a8, a9, 0
  90683d:	2822dc        	l32i	a8, a2, 0x370
	sc->sc_txbuf_held = NULL;
  906840:	2d26dc        	s32i	a13, a2, 0x370
	asf_tailq_insert_tail(&sc->sc_txbuf, sc->sc_txbuf_held, bf_list);
  906843:	288c24        	addi	a8, a8, 36
  906846:	2826f1        	s32i	a8, a2, 0x3c4
	if (sc->sc_txdma.dd_desc_len != 0)
  906849:	2822e7        	l32i	a8, a2, 0x39c
  90684c:	7d8110        	beq	a8, a13, 906860 <ath_desc_free+0x34>
		ath_descdma_cleanup(sc, &sc->sc_txdma, (ath_bufhead *)&sc->sc_txbuf,
  90684f:	2c3ac0        	movi	a12, 0x3c0
  906852:	2b3a8c        	movi	a11, 0x38c
  906855:	ac2c      	add.n	a12, a2, a12
  906857:	0b2b08        	add	a11, a2, a11
  90685a:	022a02        	or	a10, a2, a2
  90685d:	5bff4c        	call8	906590 <ath_descdma_cleanup>
	if (sc->sc_rxdma.dd_desc_len != 0)
  906860:	2822e1        	l32i	a8, a2, 0x384
  906863:	c88f      	beqz.n	a8, 906876 <ath_desc_free+0x4a>
		ath_descdma_cleanup(sc, &sc->sc_rxdma, (ath_bufhead *)&sc->sc_rxbuf,
  906865:	2c3a54        	movi	a12, 0x354
  906868:	2b3a74        	movi	a11, 0x374
  90686b:	c0d1      	movi.n	a13, 1
  90686d:	ac2c      	add.n	a12, a2, a12
  90686f:	ab2b      	add.n	a11, a2, a11
  906871:	da20      	mov.n	a10, a2
  906873:	5bff47        	call8	906590 <ath_descdma_cleanup>
  906876:	d10f      	retw.n

00906878 <ath_descdma_setup$isra$21$constprop$26>:
static a_int32_t ath_descdma_setup(struct ath_softc_tgt *sc,
  906878:	6c1006        	entry	a1, 48
	dd->dd_name = name;
  90687b:	9530      	s32i.n	a5, a3, 0
	dd->dd_desc_len = descSize * nbuf * ndesc;
  90687d:	851c      	l32i.n	a5, a1, 48
adf_os_dmamem_alloc(adf_os_device_t     osdev,
                    adf_os_size_t       size,
                    a_bool_t            coherent,
                    adf_os_dma_map_t   *dmap)
{
    return __adf_os_dmamem_alloc(osdev, size, coherent, dmap);
  90687f:	8a20      	l32i.n	a10, a2, 0
  906881:	056b28        	mull	a11, a6, a5
  906884:	b83d      	addi.n	a13, a3, 8
  906886:	9b34      	s32i.n	a11, a3, 16
  906888:	c0c1      	movi.n	a12, 1
  90688a:	580678        	call8	90826c <__adf_os_dmamem_alloc>
 * @return the (bus) address
 */
static inline adf_os_dma_addr_t
adf_os_dmamem_map2addr(adf_os_dma_map_t dmap)
{
    return(__adf_os_dmamem_map2addr(dmap));
  90688d:	8532      	l32i.n	a5, a3, 8
	dd->dd_desc = adf_os_dmamem_alloc(sc->sc_dev,
  90688f:	9a31      	s32i.n	a10, a3, 4
	dd->dd_desc_paddr = adf_os_dmamem_map2addr(dd->dd_desc_dmamap);
  906891:	8551      	l32i.n	a5, a5, 4
  906893:	9533      	s32i.n	a5, a3, 12
    return __adf_os_dmamem_alloc(osdev, size, coherent, dmap);
  906895:	d8a0      	mov.n	a8, a10
	if (dd->dd_desc == NULL) {
  906897:	64a06c        	beqz	a10, 906907 <ath_descdma_setup$isra$21$constprop$26+0x8f>
	bsize = bfSize * nbuf;
  90689a:	076c28        	mull	a12, a6, a7
    return __adf_os_mem_alloc(size);
  90689d:	9812      	s32i.n	a8, a1, 8
  90689f:	dac0      	mov.n	a10, a12
  9068a1:	9c10      	s32i.n	a12, a1, 0
  9068a3:	5bfeda        	call8	90640c <__adf_os_mem_alloc>
  9068a6:	d5a0      	mov.n	a5, a10
	if (bf == NULL) {
  9068a8:	8c10      	l32i.n	a12, a1, 0
  9068aa:	64a059        	beqz	a10, 906907 <ath_descdma_setup$isra$21$constprop$26+0x8f>
    __adf_os_mem_set(buf, b, size);
  9068ad:	c0b0      	movi.n	a11, 0
  9068af:	5bfee1        	call8	906434 <__adf_os_mem_set>
	asf_tailq_init(head);
  9068b2:	c090      	movi.n	a9, 0
	dd->dd_bufptr = bf;
  9068b4:	9535      	s32i.n	a5, a3, 20
	asf_tailq_init(head);
  9068b6:	9940      	s32i.n	a9, a4, 0
  9068b8:	9441      	s32i.n	a4, a4, 4
  9068ba:	8812      	l32i.n	a8, a1, 8
  9068bc:	600041        	j	906901 <ath_descdma_setup$isra$21$constprop$26+0x89>
  9068bf:	00008a        	excw
    return (__adf_nbuf_dmamap_create(osdev, dmap));
  9068c2:	20db50        	l32ai	a0, a13, 0x140
  9068c5:	9812      	s32i.n	a8, a1, 8
  9068c7:	9911      	s32i.n	a9, a1, 4
  9068c9:	5bf2f9        	call8	9034b0 <__adf_nbuf_dmamap_create>
  9068cc:	dba0      	mov.n	a11, a10
		if (adf_nbuf_dmamap_create( sc->sc_dev, &bf->bf_dmamap) != A_STATUS_OK) {
  9068ce:	8812      	l32i.n	a8, a1, 8
  9068d0:	8911      	l32i.n	a9, a1, 4
  9068d2:	cfa1      	bnez.n	a10, 906907 <ath_descdma_setup$isra$21$constprop$26+0x8f>
		bf->bf_desc = bf->bf_descarr = bf->bf_lastds = ds;
  9068d4:	985c      	s32i.n	a8, a5, 48
  9068d6:	985e      	s32i.n	a8, a5, 56
  9068d8:	985d      	s32i.n	a8, a5, 52
    __adf_nbuf_queue_init(head);
  9068da:	2a5c14        	addi	a10, a5, 20
  9068dd:	9812      	s32i.n	a8, a1, 8
  9068df:	9911      	s32i.n	a9, a1, 4
  9068e1:	9b10      	s32i.n	a11, a1, 0
  9068e3:	5bf36e        	call8	90369c <__adf_nbuf_queue_init>
		asf_tailq_insert_tail(head, bf, bf_list);
  9068e6:	8a41      	l32i.n	a10, a4, 4
  9068e8:	8b10      	l32i.n	a11, a1, 0
  9068ea:	9a5a      	s32i.n	a10, a5, 40
  9068ec:	9b59      	s32i.n	a11, a5, 36
  9068ee:	95a0      	s32i.n	a5, a10, 0
  9068f0:	2a5c24        	addi	a10, a5, 36
  9068f3:	9a41      	s32i.n	a10, a4, 4
	for (i = 0; i < nbuf; i++) {
  9068f5:	8911      	l32i.n	a9, a1, 4
		ds = (struct ath_desc *)ds_addr;
  9068f7:	8812      	l32i.n	a8, a1, 8
  9068f9:	8a1c      	l32i.n	a10, a1, 48
	for (i = 0; i < nbuf; i++) {
  9068fb:	b199      	addi.n	a9, a9, 1
		ds = (struct ath_desc *)ds_addr;
  9068fd:	aa88      	add.n	a8, a8, a10
		bf = (struct ath_buf *)bf_addr;
  9068ff:	a755      	add.n	a5, a5, a7
	for (i = 0; i < nbuf; i++) {
  906901:	7692bc        	blt	a9, a6, 9068c1 <ath_descdma_setup$isra$21$constprop$26+0x49>
  906904:	60000b        	j	906913 <ath_descdma_setup$isra$21$constprop$26+0x9b>
  906907:	c1c8      	movi.n	a12, 24
  906909:	c0b0      	movi.n	a11, 0
  90690b:	da30      	mov.n	a10, a3
  90690d:	5bfec9        	call8	906434 <__adf_os_mem_set>
  906910:	63fffc        	j	906910 <ath_descdma_setup$isra$21$constprop$26+0x98>
}
  906913:	c020      	movi.n	a2, 0
  906915:	d10f      	retw.n
	...

00906918 <ath_rxdesc_init>:
{
  906918:	6c1006        	entry	a1, 48
	struct ath_hal *ah = sc->sc_ah;
  90691b:	242d05        	addmi	a4, a2, 0x500
  90691e:	854b      	l32i.n	a5, a4, 44
	if (!sc->sc_rxdesc_held) {
  906920:	2422db        	l32i	a4, a2, 0x36c
		sc->sc_rxdesc_held = ds;
  906923:	2326db        	s32i	a3, a2, 0x36c
	if (!sc->sc_rxdesc_held) {
  906926:	cc43      	bnez.n	a4, 90692d <ath_rxdesc_init+0x15>
  906928:	600180        	j	906aac <ath_rxdesc_init+0x194>
  90692b:	000028        	mull	a0, a0, a0
	if (ds->ds_nbuf == ADF_NBUF_NULL) {
  90692e:	403423        	excw
  906931:	403508        	excw
  906934:	8810      	l32i.n	a8, a1, 0
  906936:	003311        	slli	a3, a3, 16
  906939:	083802        	or	a8, a3, a8
  90693c:	234036        	l8ui	a3, a4, 54
  90693f:	264037        	l8ui	a6, a4, 55
  906942:	083311        	slli	a3, a3, 8
  906945:	083302        	or	a3, a3, a8
  906948:	036302        	or	a3, a6, a3
  90694b:	6530b9        	bnez	a3, 906a08 <ath_rxdesc_init+0xf0>
	skb = BUF_Pool_alloc_buf_align(sc->pool_handle, POOL_ID_WLAN_RX_BUF,
  90694e:	13716e        	l32r	a3, 8e2f08 <bGet_descriptor+0x44>
  906951:	2d2196        	l16ui	a13, a2, 0x12c
  906954:	2332a2        	l32i	a3, a3, 0x288
  906957:	8a20      	l32i.n	a10, a2, 0
  906959:	c3c0      	movi.n	a12, 48
  90695b:	c0b3      	movi.n	a11, 3
  90695d:	0b3000        	callx8	a3
		ds->ds_nbuf = ath_alloc_skb_align(sc, sc->sc_rxbufsize, sc->sc_cachelsz);
  906960:	0a8357        	extui	a3, a10, 24, 8
  906963:	234434        	s8i	a3, a4, 52
  906966:	0a0357        	extui	a3, a10, 16, 8
  906969:	234435        	s8i	a3, a4, 53
  90696c:	0a8347        	extui	a3, a10, 8, 8
  90696f:	234436        	s8i	a3, a4, 54
  906972:	2a4437        	s8i	a10, a4, 55
		if (ds->ds_nbuf == ADF_NBUF_NULL) {
  906975:	cda0      	bnez.n	a10, 906989 <ath_rxdesc_init+0x71>
			sc->sc_rx_stats.ast_rx_nobuf++;
  906977:	23227c        	l32i	a3, a2, 0x1f0
			sc->sc_rxdesc_held = ds;
  90697a:	2426db        	s32i	a4, a2, 0x36c
			sc->sc_rx_stats.ast_rx_nobuf++;
  90697d:	b133      	addi.n	a3, a3, 1
  90697f:	23267c        	s32i	a3, a2, 0x1f0
			return ENOMEM;
  906982:	c72f      	movi.n	a2, -1
  906984:	d10f      	retw.n
  906986:	000000        	ill
		adf_nbuf_map(sc->sc_dev, ds->ds_dmap, ds->ds_nbuf, ADF_OS_DMA_FROM_DEVICE);
  906989:	234038        	l8ui	a3, a4, 56
  90698c:	2b4039        	l8ui	a11, a4, 57
  90698f:	083310        	slli	a3, a3, 24
  906992:	00bb11        	slli	a11, a11, 16
  906995:	03bb02        	or	a11, a11, a3
  906998:	23403a        	l8ui	a3, a4, 58
    return __adf_nbuf_map(osdev, bmap, buf, dir);
  90699b:	dca0      	mov.n	a12, a10
  90699d:	083311        	slli	a3, a3, 8
  9069a0:	0b3302        	or	a3, a3, a11
  9069a3:	2b403b        	l8ui	a11, a4, 59
  9069a6:	2a2246        	l32i	a10, a2, 0x118
  9069a9:	03bb02        	or	a11, a11, a3
  9069ac:	c0d1      	movi.n	a13, 1
  9069ae:	5bf2c7        	call8	9034cc <__adf_nbuf_map>
		adf_nbuf_dmamap_info(ds->ds_dmap, &ds->ds_dmap_info);
  9069b1:	2a4039        	l8ui	a10, a4, 57
  9069b4:	234038        	l8ui	a3, a4, 56
  9069b7:	00aa11        	slli	a10, a10, 16
  9069ba:	083310        	slli	a3, a3, 24
  9069bd:	03aa02        	or	a10, a10, a3
  9069c0:	23403a        	l8ui	a3, a4, 58
    __adf_nbuf_dmamap_info(bmap, sg);
  9069c3:	2b4c3c        	addi	a11, a4, 60
  9069c6:	083311        	slli	a3, a3, 8
  9069c9:	0a3302        	or	a3, a3, a10
  9069cc:	2a403b        	l8ui	a10, a4, 59
  9069cf:	03aa02        	or	a10, a10, a3
  9069d2:	5bf2c6        	call8	9034ec <__adf_nbuf_dmamap_info>
		ds->ds_data = ds->ds_dmap_info.dma_segs[0].paddr;
  9069d5:	234040        	l8ui	a3, a4, 64
  9069d8:	083810        	slli	a8, a3, 24
  9069db:	234041        	l8ui	a3, a4, 65
  9069de:	003311        	slli	a3, a3, 16
  9069e1:	083302        	or	a3, a3, a8
  9069e4:	284042        	l8ui	a8, a4, 66
  9069e7:	088811        	slli	a8, a8, 8
  9069ea:	038302        	or	a3, a8, a3
  9069ed:	284043        	l8ui	a8, a4, 67
  9069f0:	038802        	or	a8, a8, a3
  9069f3:	088357        	extui	a3, a8, 24, 8
  9069f6:	234404        	s8i	a3, a4, 4
  9069f9:	080357        	extui	a3, a8, 16, 8
  9069fc:	234405        	s8i	a3, a4, 5
  9069ff:	088347        	extui	a3, a8, 8, 8
  906a02:	234406        	s8i	a3, a4, 6
  906a05:	284407        	s8i	a8, a4, 7
	adf_nbuf_peek_header(ds->ds_nbuf, &anbdata, &anblen);
  906a08:	284034        	l8ui	a8, a4, 52
  906a0b:	2a4035        	l8ui	a10, a4, 53
  906a0e:	088810        	slli	a8, a8, 24
  906a11:	00aa11        	slli	a10, a10, 16
  906a14:	08aa02        	or	a10, a10, a8
  906a17:	284036        	l8ui	a8, a4, 54
	ds->ds_link = 0;
  906a1a:	c030      	movi.n	a3, 0
	adf_nbuf_peek_header(ds->ds_nbuf, &anbdata, &anblen);
  906a1c:	088811        	slli	a8, a8, 8
  906a1f:	0a8802        	or	a8, a8, a10
  906a22:	2a4037        	l8ui	a10, a4, 55
    __adf_nbuf_peek_header(buf, addr, len);
  906a25:	dc10      	mov.n	a12, a1
  906a27:	2b1c04        	addi	a11, a1, 4
  906a2a:	08aa02        	or	a10, a10, a8
	ds->ds_link = 0;
  906a2d:	234400        	s8i	a3, a4, 0
  906a30:	234401        	s8i	a3, a4, 1
  906a33:	234402        	s8i	a3, a4, 2
  906a36:	234403        	s8i	a3, a4, 3
  906a39:	5bf312        	call8	903684 <__adf_nbuf_peek_header>
	ah->ah_setupRxDesc(ds, adf_nbuf_tailroom(ds->ds_nbuf), 0);
  906a3c:	284034        	l8ui	a8, a4, 52
  906a3f:	2a4035        	l8ui	a10, a4, 53
  906a42:	088810        	slli	a8, a8, 24
  906a45:	00aa11        	slli	a10, a10, 16
  906a48:	08aa02        	or	a10, a10, a8
  906a4b:	284036        	l8ui	a8, a4, 54
  906a4e:	265220        	l32i	a6, a5, 128
  906a51:	088811        	slli	a8, a8, 8
  906a54:	0a8802        	or	a8, a8, a10
  906a57:	2a4037        	l8ui	a10, a4, 55
    return (__adf_nbuf_tailroom(buf));
  906a5a:	08aa02        	or	a10, a10, a8
  906a5d:	5bf2fa        	call8	903648 <__adf_nbuf_tailroom>
  906a60:	dba0      	mov.n	a11, a10
  906a62:	dc30      	mov.n	a12, a3
  906a64:	da40      	mov.n	a10, a4
  906a66:	0b6000        	callx8	a6
  906a69:	2b4048        	l8ui	a11, a4, 72
  906a6c:	294049        	l8ui	a9, a4, 73
  906a6f:	28404a        	l8ui	a8, a4, 74
	if (sc->sc_rxlink == NULL) {
  906a72:	2322ef        	l32i	a3, a2, 0x3bc
		ah->ah_setRxDP(ah, ds->ds_daddr);
  906a75:	08bb10        	slli	a11, a11, 24
  906a78:	009911        	slli	a9, a9, 16
  906a7b:	2a404b        	l8ui	a10, a4, 75
  906a7e:	0b9902        	or	a9, a9, a11
  906a81:	088811        	slli	a8, a8, 8
	if (sc->sc_rxlink == NULL) {
  906a84:	cd31      	bnez.n	a3, 906a99 <ath_rxdesc_init+0x181>
		ah->ah_setRxDP(ah, ds->ds_daddr);
  906a86:	098b02        	or	a11, a8, a9
  906a89:	23521f        	l32i	a3, a5, 124
  906a8c:	0bab02        	or	a11, a10, a11
  906a8f:	da50      	mov.n	a10, a5
  906a91:	0b3000        	callx8	a3
  906a94:	600009        	j	906aa1 <ath_rxdesc_init+0x189>
  906a97:	000009        	addx2	a0, a0, a0
		*sc->sc_rxlink = ds->ds_daddr;
  906a9a:	8802      	l32i.n	a8, a0, 8
  906a9c:	08a802        	or	a8, a10, a8
  906a9f:	9830      	s32i.n	a8, a3, 0
	sc->sc_rxlink = &ds->ds_link;
  906aa1:	2426ef        	s32i	a4, a2, 0x3bc
	ah->ah_enableReceive(ah);
  906aa4:	225225        	l32i	a2, a5, 148
  906aa7:	da50      	mov.n	a10, a5
  906aa9:	0b2000        	callx8	a2
	return 0;
  906aac:	c020      	movi.n	a2, 0
}
  906aae:	d10f      	retw.n

00906ab0 <tgt_HTCSendCompleteHandler>:
{
  906ab0:	6c1006        	entry	a1, 48
	if (Endpt == RX_ENDPOINT_ID) {
  906ab3:	682302        	beqi	a2, 3, 906ab9 <tgt_HTCSendCompleteHandler+0x9>
  906ab6:	600100        	j	906bba <tgt_HTCSendCompleteHandler+0x10a>
		sc->sc_rx_stats.ast_rx_done++;
  906ab9:	22427e        	l32i	a2, a4, 0x1f8
}

static inline void
adf_nbuf_split_to_frag(adf_nbuf_t buf, adf_nbuf_queue_t *qhead)
{
    return __adf_nbuf_split_to_frag(buf, qhead);
  906abc:	da30      	mov.n	a10, a3
  906abe:	b122      	addi.n	a2, a2, 1
  906ac0:	22467e        	s32i	a2, a4, 0x1f8
  906ac3:	db10      	mov.n	a11, a1
  906ac5:	5bf2b2        	call8	903590 <__adf_nbuf_split_to_frag>
	ds = asf_tailq_first(&sc->sc_rxdesc_idle);
  906ac8:	2242d7        	l32i	a2, a4, 0x35c
		BUF_Pool_free_buf(sc->pool_handle, POOL_ID_WLAN_RX_BUF, buf_tmp);
  906acb:	13716e        	l32r	a3, 8e3084 <bSet_configuration+0x108>
  906ace:	6000e5        	j	906bb7 <tgt_HTCSendCompleteHandler+0x107>
    return __adf_nbuf_queue_remove(head);
  906ad1:	da10      	mov.n	a10, a1
  906ad3:	5bf26d        	call8	903488 <__adf_nbuf_queue_remove>
		if (buf_tmp == NULL) {
  906ad6:	64a0e0        	beqz	a10, 906bba <tgt_HTCSendCompleteHandler+0x10a>
		BUF_Pool_free_buf(sc->pool_handle, POOL_ID_WLAN_RX_BUF, buf_tmp);
  906ad9:	dca0      	mov.n	a12, a10
  906adb:	2532a3        	l32i	a5, a3, 0x28c
  906ade:	8a40      	l32i.n	a10, a4, 0
  906ae0:	c0b3      	movi.n	a11, 3
  906ae2:	0b5000        	callx8	a5
		ds = asf_tailq_next(ds, ds_list);
  906ae5:	28204c        	l8ui	a8, a2, 76
  906ae8:	25204d        	l8ui	a5, a2, 77
  906aeb:	088810        	slli	a8, a8, 24
  906aee:	005511        	slli	a5, a5, 16
  906af1:	085802        	or	a8, a5, a8
  906af4:	25204e        	l8ui	a5, a2, 78
		ath_rxdesc_init(sc, ds_tmp);
  906af7:	022b02        	or	a11, a2, a2
		ds = asf_tailq_next(ds, ds_list);
  906afa:	085511        	slli	a5, a5, 8
  906afd:	085502        	or	a5, a5, a8
  906b00:	28204f        	l8ui	a8, a2, 79
		ath_rxdesc_init(sc, ds_tmp);
  906b03:	044a02        	or	a10, a4, a4
		ds = asf_tailq_next(ds, ds_list);
  906b06:	058502        	or	a5, a8, a5
		ath_rxdesc_init(sc, ds_tmp);
  906b09:	5bff83        	call8	906918 <ath_rxdesc_init>
		asf_tailq_remove(&sc->sc_rxdesc_idle, ds_tmp, ds_list);
  906b0c:	28204c        	l8ui	a8, a2, 76
  906b0f:	2c2050        	l8ui	a12, a2, 80
  906b12:	088a10        	slli	a10, a8, 24
  906b15:	28204d        	l8ui	a8, a2, 77
  906b18:	292052        	l8ui	a9, a2, 82
  906b1b:	008811        	slli	a8, a8, 16
  906b1e:	0a8802        	or	a8, a8, a10
  906b21:	2a204e        	l8ui	a10, a2, 78
  906b24:	08cc10        	slli	a12, a12, 24
  906b27:	08aa11        	slli	a10, a10, 8
  906b2a:	08a802        	or	a8, a10, a8
  906b2d:	2a204f        	l8ui	a10, a2, 79
  906b30:	2b2053        	l8ui	a11, a2, 83
  906b33:	08aa02        	or	a10, a10, a8
  906b36:	282051        	l8ui	a8, a2, 81
  906b39:	089911        	slli	a9, a9, 8
  906b3c:	008811        	slli	a8, a8, 16
  906b3f:	0c8802        	or	a8, a8, a12
  906b42:	089802        	or	a8, a9, a8
  906b45:	08b802        	or	a8, a11, a8
  906b48:	c9a8      	beqz.n	a10, 906b64 <tgt_HTCSendCompleteHandler+0xb4>
  906b4a:	088957        	extui	a9, a8, 24, 8
  906b4d:	29a450        	s8i	a9, a10, 80
  906b50:	080957        	extui	a9, a8, 16, 8
  906b53:	29a451        	s8i	a9, a10, 81
  906b56:	088947        	extui	a9, a8, 8, 8
  906b59:	29a452        	s8i	a9, a10, 82
  906b5c:	28a453        	s8i	a8, a10, 83
  906b5f:	600004        	j	906b67 <tgt_HTCSendCompleteHandler+0xb7>
  906b62:	000028        	mull	a0, a0, a0
  906b65:	46d829        	excw
  906b68:	205028        	l8ui	a0, a5, 40
  906b6b:	205108        	l16ui	a0, a5, 16
  906b6e:	9910      	s32i.n	a9, a1, 0
  906b70:	008811        	slli	a8, a8, 16
  906b73:	098902        	or	a9, a8, a9
  906b76:	282052        	l8ui	a8, a2, 82
  906b79:	088811        	slli	a8, a8, 8
  906b7c:	098802        	or	a8, a8, a9
  906b7f:	292053        	l8ui	a9, a2, 83
  906b82:	089802        	or	a8, a9, a8
  906b85:	9a80      	s32i.n	a10, a8, 0
		asf_tailq_insert_tail(&sc->sc_rxdesc, ds_tmp, ds_list);
  906b87:	c080      	movi.n	a8, 0
  906b89:	28244c        	s8i	a8, a2, 76
  906b8c:	28244d        	s8i	a8, a2, 77
  906b8f:	28244e        	s8i	a8, a2, 78
  906b92:	28244f        	s8i	a8, a2, 79
  906b95:	2842da        	l32i	a8, a4, 0x368
  906b98:	088957        	extui	a9, a8, 24, 8
  906b9b:	292450        	s8i	a9, a2, 80
  906b9e:	080957        	extui	a9, a8, 16, 8
  906ba1:	292451        	s8i	a9, a2, 81
  906ba4:	088947        	extui	a9, a8, 8, 8
  906ba7:	292452        	s8i	a9, a2, 82
  906baa:	282453        	s8i	a8, a2, 83
  906bad:	9280      	s32i.n	a2, a8, 0
  906baf:	222c4c        	addi	a2, a2, 76
  906bb2:	2246da        	s32i	a2, a4, 0x368
		ds = asf_tailq_next(ds, ds_list);
  906bb5:	d250      	mov.n	a2, a5
	while (ds) {
  906bb7:	652f16        	bnez	a2, 906ad1 <tgt_HTCSendCompleteHandler+0x21>
  906bba:	d10f      	retw.n

00906bbc <wmi_event>:
{
  906bbc:	6c1004        	entry	a1, 32
	netbuf = WMI_AllocEvent(handle, WMI_EVT_CLASS_CMD_EVENT,
  906bbf:	16716e        	l32r	a6, 8e3178 <bSet_configuration+0x1fc>
  906bc2:	b45c      	addi.n	a12, a5, 4
  906bc4:	276292        	l32i	a7, a6, 0x248
  906bc7:	c0b0      	movi.n	a11, 0
  906bc9:	da20      	mov.n	a10, a2
  906bcb:	0b7000        	callx8	a7
  906bce:	d7a0      	mov.n	a7, a10
	if (netbuf == ADF_NBUF_NULL) {
  906bd0:	65a00a        	bnez	a10, 906bde <wmi_event+0x22>
		adf_os_print("Buf null\n");
  906bd3:	226212        	l32i	a2, a6, 72
  906bd6:	1a7281        	l32r	a10, 8e35dc <bStandardCommand+0x350>
  906bd9:	0b2000        	callx8	a2
  906bdc:	d10f      	retw.n
	if (buffer != NULL && Length != 0 && Length < WMI_SVC_MAX_BUFFERED_EVENT_SIZE) {
  906bde:	c090      	movi.n	a9, 0
  906be0:	c081      	movi.n	a8, 1
  906be2:	da90      	mov.n	a10, a9
  906be4:	2b0a63        	movi	a11, 99
  906be7:	058a39        	movnez	a10, a8, a5
  906bea:	75ba02        	bge	a11, a5, 906bf0 <wmi_event+0x34>
  906bed:	099802        	or	a8, a9, a9
  906bf0:	78a010        	bnone	a10, a8, 906c04 <wmi_event+0x48>
  906bf3:	c84d      	beqz.n	a4, 906c04 <wmi_event+0x48>
    return __adf_nbuf_put_tail(buf, size);
  906bf5:	db50      	mov.n	a11, a5
  906bf7:	077a02        	or	a10, a7, a7
  906bfa:	5bf27d        	call8	9035f0 <__adf_nbuf_put_tail>
    __adf_os_mem_copy(dst, src, size);
  906bfd:	dc50      	mov.n	a12, a5
  906bff:	db40      	mov.n	a11, a4
  906c01:	5bfe07        	call8	906420 <__adf_os_mem_copy>
	WMI_SendEvent(handle, netbuf, evt_id, 0, Length);
  906c04:	246293        	l32i	a4, a6, 0x24c
  906c07:	de50      	mov.n	a14, a5
  906c09:	c0d0      	movi.n	a13, 0
  906c0b:	030c4f        	extui	a12, a3, 0, 16
  906c0e:	db70      	mov.n	a11, a7
  906c10:	da20      	mov.n	a10, a2
  906c12:	0b4000        	callx8	a4
  906c15:	d10f      	retw.n
	...

00906c18 <ath_intr>:
{
  906c18:	6c100a        	entry	a1, 80
	if (sc->sc_invalid)
  906c1b:	232249        	l32i	a3, a2, 0x124
  906c1e:	673006        	bgez	a3, 906c28 <ath_intr+0x10>
		return ADF_OS_IRQ_NONE;
  906c21:	c030      	movi.n	a3, 0
  906c23:	600611        	j	907238 <ath_intr+0x620>
  906c26:	000024        	excw
	struct ath_hal *ah = sc->sc_ah;
  906c29:	2d0585        	s16i	a13, a0, 0x10a
  906c2c:	4b2352        	excw
	if (!ah->ah_isInterruptPending(ah))
  906c2f:	26da50        	movi	a6, 0xfffffd50
  906c32:	0b3000        	callx8	a3
  906c35:	64afe8        	beqz	a10, 906c21 <ath_intr+0x9>
	ah->ah_getPendingInterrupts(ah, &status);
  906c38:	235227        	l32i	a3, a5, 156
  906c3b:	bc1b      	addi.n	a11, a1, 12
  906c3d:	da50      	mov.n	a10, a5
  906c3f:	0b3000        	callx8	a3
	status &= sc->sc_imask;
  906c42:	8613      	l32i.n	a6, a1, 12
  906c44:	2322c4        	l32i	a3, a2, 0x310
  906c47:	063301        	and	a3, a3, a6
  906c4a:	9313      	s32i.n	a3, a1, 12
	if (status & HAL_INT_FATAL) {
  906c4c:	713619        	bbci	a3, 1, 906c69 <ath_intr+0x51>
		ah->ah_setInterrupts(ah, 0);
  906c4f:	235228        	l32i	a3, a5, 160
  906c52:	c0b0      	movi.n	a11, 0
  906c54:	da50      	mov.n	a10, a5
  906c56:	0b3000        	callx8	a3
 * @param[in] bh    bottom instance
 */
static inline void
adf_os_sched_bh(adf_os_handle_t hdl, adf_os_bh_t *bh)
{
    __adf_os_sched_bh(hdl, bh);
  906c59:	2a3a44        	movi	a10, 0x344
  906c5c:	aa2a      	add.n	a10, a2, a10
  906c5e:	5bfe77        	call8	90663c <__adf_os_sched_bh$isra$6>
	return ADF_OS_IRQ_HANDLED;
  906c61:	c031      	movi.n	a3, 1
  906c63:	6005d1        	j	907238 <ath_intr+0x620>
  906c66:	000000        	ill
		if (status & HAL_INT_SWBA) {
  906c69:	7f3643        	bbci	a3, 15, 906cb0 <ath_intr+0x98>
			swbaEvt.tsf = ah->ah_getTsf64(ah);
  906c6c:	23521e        	l32i	a3, a5, 120
  906c6f:	da50      	mov.n	a10, a5
  906c71:	0b3000        	callx8	a3
			swbaEvt.beaconPendingCount = ah->ah_numTxPending(ah, sc->sc_bhalq);
  906c74:	232d01        	addmi	a3, a2, 0x100
			swbaEvt.tsf = ah->ah_getTsf64(ah);
  906c77:	9b11      	s32i.n	a11, a1, 4
			swbaEvt.beaconPendingCount = ah->ah_numTxPending(ah, sc->sc_bhalq);
  906c79:	865b      	l32i.n	a6, a5, 44
  906c7b:	2b301c        	l8ui	a11, a3, 28
			swbaEvt.tsf = ah->ah_getTsf64(ah);
  906c7e:	9a10      	s32i.n	a10, a1, 0
			swbaEvt.beaconPendingCount = ah->ah_numTxPending(ah, sc->sc_bhalq);
  906c80:	da50      	mov.n	a10, a5
  906c82:	0b6000        	callx8	a6
  906c85:	2a1408        	s8i	a10, a1, 8
			sc->sc_swba_tsf = ah->ah_getTsf64(ah);
  906c88:	23521e        	l32i	a3, a5, 120
  906c8b:	055a02        	or	a10, a5, a5
  906c8e:	0b3000        	callx8	a3
  906c91:	232d16        	addmi	a3, a2, 0x1600
  906c94:	9a3c      	s32i.n	a10, a3, 48
  906c96:	9b3d      	s32i.n	a11, a3, 52
			wmi_event(sc->tgt_wmi_handle,
  906c98:	8a23      	l32i.n	a10, a2, 12
  906c9a:	1b7282        	l32r	a11, 8e36a4 <bStandardCommand+0x418>
  906c9d:	dc10      	mov.n	a12, a1
  906c9f:	c0d9      	movi.n	a13, 9
  906ca1:	5bffc6        	call8	906bbc <wmi_event>
	owltgt_tx_processq(sc, txq, OWL_TXQ_STOPPED);
  906ca4:	2b4acc        	movi	a11, 0x4cc
  906ca7:	c0c1      	movi.n	a12, 1
  906ca9:	ab2b      	add.n	a11, a2, a11
  906cab:	da20      	mov.n	a10, a2
  906cad:	580ebd        	call8	90a7a4 <owltgt_tx_processq>
		if (status & HAL_INT_RXORN)
  906cb0:	8313      	l32i.n	a3, a1, 12
  906cb2:	7a3707        	bbci	a3, 26, 906cbd <ath_intr+0xa5>
			sc->sc_int_stats.ast_rxorn++;
  906cb5:	26224d        	l32i	a6, a2, 0x134
  906cb8:	b166      	addi.n	a6, a6, 1
  906cba:	26264d        	s32i	a6, a2, 0x134
		if (status & HAL_INT_RXEOL)
  906cbd:	7b3708        	bbci	a3, 27, 906cc9 <ath_intr+0xb1>
			sc->sc_int_stats.ast_rxeol++;
  906cc0:	26224e        	l32i	a6, a2, 0x138
  906cc3:	266c01        	addi	a6, a6, 1
  906cc6:	26264e        	s32i	a6, a2, 0x138
		if (status & (HAL_INT_RX | HAL_INT_RXEOL | HAL_INT_RXORN)) {
  906cc9:	c361      	movi.n	a6, 49
  906ccb:	763802        	bany	a3, a6, 906cd1 <ath_intr+0xb9>
  906cce:	600520        	j	9071f2 <ath_intr+0x5da>
			if (status & HAL_INT_RX)
  906cd1:	7f3707        	bbci	a3, 31, 906cdc <ath_intr+0xc4>
				sc->sc_int_stats.ast_rx++;
  906cd4:	23224c        	l32i	a3, a2, 0x130
  906cd7:	b133      	addi.n	a3, a3, 1
  906cd9:	23264c        	s32i	a3, a2, 0x130
	struct ath_hal *ah = sc->sc_ah;
  906cdc:	844b      	l32i.n	a4, a4, 44
	bf = asf_tailq_first(&sc->sc_rxbuf);
  906cde:	2622d5        	l32i	a6, a2, 0x354
	struct ath_hal *ah = sc->sc_ah;
  906ce1:	9415      	s32i.n	a4, a1, 20
	ds = asf_tailq_first(&sc->sc_rxdesc);
  906ce3:	2322d9        	l32i	a3, a2, 0x364
  906ce6:	6004cf        	j	9071b9 <ath_intr+0x5a1>
		if (cnt == ath_numrxbufs - 1) {
  906ce9:	1a7283        	l32r	a10, 8e36f8 <bStandardCommand+0x46c>
		++cnt;
  906cec:	b177      	addi.n	a7, a7, 1
		if (cnt == ath_numrxbufs - 1) {
  906cee:	89a0      	l32i.n	a9, a10, 0
  906cf0:	b099      	addi.n	a9, a9, -1
  906cf2:	797102        	beq	a7, a9, 906cf8 <ath_intr+0xe0>
  906cf5:	6001ef        	j	906ee8 <ath_intr+0x2d0>
			adf_os_print("VERY LONG PACKET!!!!!\n");
  906cf8:	16716e        	l32r	a6, 8e32b0 <bStandardCommand+0x24>
  906cfb:	1a7284        	l32r	a10, 8e370c <bStandardCommand+0x480>
  906cfe:	276212        	l32i	a7, a6, 72
  906d01:	0b7000        	callx8	a7
				ds_rmv->ds_nbuf = ADF_NBUF_NULL;
  906d04:	c070      	movi.n	a7, 0
  906d06:	6001d8        	j	906ee2 <ath_intr+0x2ca>
				adf_nbuf_unmap(sc->sc_dev, ds_tmp->ds_dmap, ADF_OS_DMA_FROM_DEVICE);
  906d09:	283038        	l8ui	a8, a3, 56
  906d0c:	2b3039        	l8ui	a11, a3, 57
  906d0f:	088810        	slli	a8, a8, 24
  906d12:	00bb11        	slli	a11, a11, 16
  906d15:	08bb02        	or	a11, a11, a8
  906d18:	28303a        	l8ui	a8, a3, 58
    __adf_nbuf_unmap(osdev, bmap, dir);
  906d1b:	2a2246        	l32i	a10, a2, 0x118
  906d1e:	088811        	slli	a8, a8, 8
  906d21:	0b8802        	or	a8, a8, a11
  906d24:	2b303b        	l8ui	a11, a3, 59
  906d27:	2c0a01        	movi	a12, 1
  906d2a:	08bb02        	or	a11, a11, a8
  906d2d:	5bf1ea        	call8	9034d8 <__adf_nbuf_unmap>
				ds_tmp = asf_tailq_next(ds_tmp, ds_list);
  906d30:	29304c        	l8ui	a9, a3, 76
  906d33:	28304d        	l8ui	a8, a3, 77
  906d36:	089910        	slli	a9, a9, 24
  906d39:	008811        	slli	a8, a8, 16
  906d3c:	098902        	or	a9, a8, a9
  906d3f:	28304e        	l8ui	a8, a3, 78
  906d42:	088811        	slli	a8, a8, 8
  906d45:	098802        	or	a8, a8, a9
  906d48:	29304f        	l8ui	a9, a3, 79
  906d4b:	089902        	or	a9, a9, a8
  906d4e:	9914      	s32i.n	a9, a1, 16
				if (ds_tmp == NULL) {
  906d50:	65900d        	bnez	a9, 906d61 <ath_intr+0x149>
					adf_os_print("ds_tmp is NULL\n");
  906d53:	226212        	l32i	a2, a6, 72
  906d56:	1a7285        	l32r	a10, 8e376c <bStandardCommand+0x4e0>
  906d59:	0b2000        	callx8	a2
  906d5c:	63fffc        	j	906d5c <ath_intr+0x144>
  906d5f:	000028        	mull	a0, a0, a0
				BUF_Pool_free_buf(sc->pool_handle, POOL_ID_WLAN_RX_BUF, ds_rmv->ds_nbuf);
  906d62:	30342c        	excw
  906d65:	303508        	excw
  906d68:	8810      	l32i.n	a8, a1, 0
  906d6a:	00cc11        	slli	a12, a12, 16
  906d6d:	08cc02        	or	a12, a12, a8
  906d70:	283036        	l8ui	a8, a3, 54
  906d73:	2962a3        	l32i	a9, a6, 0x28c
  906d76:	088811        	slli	a8, a8, 8
  906d79:	0c8802        	or	a8, a8, a12
  906d7c:	2c3037        	l8ui	a12, a3, 55
  906d7f:	8a20      	l32i.n	a10, a2, 0
  906d81:	08cc02        	or	a12, a12, a8
  906d84:	c0b3      	movi.n	a11, 3
  906d86:	0b9000        	callx8	a9
				if (ath_rxdesc_init(sc, ds_rmv) == 0) {
  906d89:	db30      	mov.n	a11, a3
				ds_rmv->ds_nbuf = ADF_NBUF_NULL;
  906d8b:	273434        	s8i	a7, a3, 52
  906d8e:	273435        	s8i	a7, a3, 53
  906d91:	273436        	s8i	a7, a3, 54
  906d94:	273437        	s8i	a7, a3, 55
				if (ath_rxdesc_init(sc, ds_rmv) == 0) {
  906d97:	da20      	mov.n	a10, a2
  906d99:	5bfedf        	call8	906918 <ath_rxdesc_init>
  906d9c:	28304f        	l8ui	a8, a3, 79
  906d9f:	2f304c        	l8ui	a15, a3, 76
  906da2:	2d304d        	l8ui	a13, a3, 77
  906da5:	29304e        	l8ui	a9, a3, 78
  906da8:	9815      	s32i.n	a8, a1, 20
  906daa:	2c3050        	l8ui	a12, a3, 80
  906dad:	2b3051        	l8ui	a11, a3, 81
					asf_tailq_remove(&sc->sc_rxdesc, ds_rmv, ds_list);
  906db0:	08ff10        	slli	a15, a15, 24
  906db3:	00dd11        	slli	a13, a13, 16
  906db6:	089911        	slli	a9, a9, 8
  906db9:	283052        	l8ui	a8, a3, 82
  906dbc:	0fdf02        	or	a15, a13, a15
  906dbf:	0f9f02        	or	a15, a9, a15
  906dc2:	08cc10        	slli	a12, a12, 24
  906dc5:	8915      	l32i.n	a9, a1, 20
  906dc7:	00bb11        	slli	a11, a11, 16
  906dca:	0cbb02        	or	a11, a11, a12
  906dcd:	088811        	slli	a8, a8, 8
  906dd0:	2e3053        	l8ui	a14, a3, 83
  906dd3:	0f9f02        	or	a15, a9, a15
  906dd6:	0b8802        	or	a8, a8, a11
				if (ath_rxdesc_init(sc, ds_rmv) == 0) {
  906dd9:	65a06f        	bnez	a10, 906e4c <ath_intr+0x234>
					asf_tailq_remove(&sc->sc_rxdesc, ds_rmv, ds_list);
  906ddc:	08ee02        	or	a14, a14, a8
  906ddf:	c9f6      	beqz.n	a15, 906df9 <ath_intr+0x1e1>
  906de1:	0e8857        	extui	a8, a14, 24, 8
  906de4:	28f450        	s8i	a8, a15, 80
  906de7:	0e0857        	extui	a8, a14, 16, 8
  906dea:	28f451        	s8i	a8, a15, 81
  906ded:	0e8847        	extui	a8, a14, 8, 8
  906df0:	28f452        	s8i	a8, a15, 82
  906df3:	2ef453        	s8i	a14, a15, 83
  906df6:	600002        	j	906dfc <ath_intr+0x1e4>
  906df9:	2e26da        	s32i	a14, a2, 0x368
  906dfc:	293050        	l8ui	a9, a3, 80
  906dff:	283051        	l8ui	a8, a3, 81
  906e02:	089910        	slli	a9, a9, 24
  906e05:	008811        	slli	a8, a8, 16
  906e08:	098902        	or	a9, a8, a9
  906e0b:	283052        	l8ui	a8, a3, 82
  906e0e:	088811        	slli	a8, a8, 8
  906e11:	098802        	or	a8, a8, a9
  906e14:	293053        	l8ui	a9, a3, 83
  906e17:	089802        	or	a8, a9, a8
  906e1a:	9f80      	s32i.n	a15, a8, 0
					asf_tailq_insert_tail(&sc->sc_rxdesc, ds_rmv, ds_list);
  906e1c:	2822da        	l32i	a8, a2, 0x368
  906e1f:	27344c        	s8i	a7, a3, 76
  906e22:	088957        	extui	a9, a8, 24, 8
  906e25:	293450        	s8i	a9, a3, 80
  906e28:	080957        	extui	a9, a8, 16, 8
  906e2b:	293451        	s8i	a9, a3, 81
  906e2e:	088947        	extui	a9, a8, 8, 8
  906e31:	283453        	s8i	a8, a3, 83
  906e34:	27344d        	s8i	a7, a3, 77
  906e37:	27344e        	s8i	a7, a3, 78
  906e3a:	27344f        	s8i	a7, a3, 79
  906e3d:	293452        	s8i	a9, a3, 82
  906e40:	9380      	s32i.n	a3, a8, 0
  906e42:	283c4c        	addi	a8, a3, 76
  906e45:	2826da        	s32i	a8, a2, 0x368
  906e48:	600071        	j	906ebd <ath_intr+0x2a5>
  906e4b:	00c9f9        	excw
					asf_tailq_remove(&sc->sc_rxdesc, ds_rmv, ds_list);
  906e4e:	08ee02        	or	a14, a14, a8
  906e51:	0e8857        	extui	a8, a14, 24, 8
  906e54:	28f450        	s8i	a8, a15, 80
  906e57:	0e0857        	extui	a8, a14, 16, 8
  906e5a:	28f451        	s8i	a8, a15, 81
  906e5d:	0e8847        	extui	a8, a14, 8, 8
  906e60:	28f452        	s8i	a8, a15, 82
  906e63:	2ef453        	s8i	a14, a15, 83
  906e66:	600005        	j	906e6f <ath_intr+0x257>
  906e69:	08e802        	or	a8, a14, a8
  906e6c:	2826da        	s32i	a8, a2, 0x368
  906e6f:	293050        	l8ui	a9, a3, 80
  906e72:	283051        	l8ui	a8, a3, 81
  906e75:	089910        	slli	a9, a9, 24
  906e78:	008811        	slli	a8, a8, 16
  906e7b:	098902        	or	a9, a8, a9
  906e7e:	283052        	l8ui	a8, a3, 82
  906e81:	088811        	slli	a8, a8, 8
  906e84:	098802        	or	a8, a8, a9
  906e87:	293053        	l8ui	a9, a3, 83
  906e8a:	089802        	or	a8, a9, a8
  906e8d:	2f8600        	s32i	a15, a8, 0
					asf_tailq_insert_tail(&sc->sc_rxdesc_idle, ds_rmv, ds_list);
  906e90:	2822d8        	l32i	a8, a2, 0x360
  906e93:	27344c        	s8i	a7, a3, 76
  906e96:	088957        	extui	a9, a8, 24, 8
  906e99:	293450        	s8i	a9, a3, 80
  906e9c:	080957        	extui	a9, a8, 16, 8
  906e9f:	293451        	s8i	a9, a3, 81
  906ea2:	088947        	extui	a9, a8, 8, 8
  906ea5:	283453        	s8i	a8, a3, 83
  906ea8:	27344d        	s8i	a7, a3, 77
  906eab:	27344e        	s8i	a7, a3, 78
  906eae:	27344f        	s8i	a7, a3, 79
  906eb1:	293452        	s8i	a9, a3, 82
  906eb4:	238600        	s32i	a3, a8, 0
  906eb7:	283c4c        	addi	a8, a3, 76
  906eba:	2826d8        	s32i	a8, a2, 0x360
				if (ds_rmv == ds_tail) {
  906ebd:	74391f        	bne	a3, a4, 906ee0 <ath_intr+0x2c8>
			sc->sc_imask &= ~HAL_INT_RX;
  906ec0:	2322c4        	l32i	a3, a2, 0x310
  906ec3:	c7be      	movi.n	a11, -2
  906ec5:	03bb01        	and	a11, a11, a3
			ah->ah_setInterrupts(ah, sc->sc_imask);
  906ec8:	235228        	l32i	a3, a5, 160
			sc->sc_imask &= ~HAL_INT_RX;
  906ecb:	2b26c4        	s32i	a11, a2, 0x310
			ah->ah_setInterrupts(ah, sc->sc_imask);
  906ece:	055a02        	or	a10, a5, a5
  906ed1:	0b3000        	callx8	a3
  906ed4:	2a3a14        	movi	a10, 0x314
  906ed7:	aa2a      	add.n	a10, a2, a10
  906ed9:	5bfdd8        	call8	90663c <__adf_os_sched_bh$isra$6>
  906edc:	600312        	j	9071f2 <ath_intr+0x5da>
  906edf:	008314        	srli	a3, a0, 8
			while (ds_tmp) {
  906ee2:	653e23        	bnez	a3, 906d09 <ath_intr+0xf1>
  906ee5:	63ffd7        	j	906ec0 <ath_intr+0x2a8>
		if (ds->ds_link == 0) {
  906ee8:	2d4000        	l8ui	a13, a4, 0
  906eeb:	2b4001        	l8ui	a11, a4, 1
  906eee:	08dd10        	slli	a13, a13, 24
  906ef1:	00bb11        	slli	a11, a11, 16
  906ef4:	0dbb02        	or	a11, a11, a13
  906ef7:	2d4002        	l8ui	a13, a4, 2
  906efa:	08dd11        	slli	a13, a13, 8
  906efd:	0bdd02        	or	a13, a13, a11
  906f00:	2b4003        	l8ui	a11, a4, 3
  906f03:	0dbb02        	or	a11, a11, a13
  906f06:	64bfb6        	beqz	a11, 906ec0 <ath_intr+0x2a8>
		if (bf->bf_status & ATH_BUFSTATUS_DONE) {
  906f09:	896f      	l32i.n	a9, a6, 60
  906f0b:	7f9702        	bbci	a9, 31, 906f11 <ath_intr+0x2f9>
  906f0e:	6002d8        	j	9071ea <ath_intr+0x5d2>
		retval = ah->ah_procRxDescFast(ah, ds, ds->ds_daddr,
  906f11:	2a4048        	l8ui	a10, a4, 72
  906f14:	2c4049        	l8ui	a12, a4, 73
  906f17:	08aa10        	slli	a10, a10, 24
  906f1a:	00cc11        	slli	a12, a12, 16
  906f1d:	0acc02        	or	a12, a12, a10
  906f20:	2a404a        	l8ui	a10, a4, 74
						PA2DESC(sc, ds->ds_link), &bf->bf_rx_status);
  906f23:	2922de        	l32i	a9, a2, 0x378
		retval = ah->ah_procRxDescFast(ah, ds, ds->ds_daddr,
  906f26:	8815      	l32i.n	a8, a1, 20
						PA2DESC(sc, ds->ds_link), &bf->bf_rx_status);
  906f28:	2d22e0        	l32i	a13, a2, 0x380
		retval = ah->ah_procRxDescFast(ah, ds, ds->ds_daddr,
  906f2b:	08aa11        	slli	a10, a10, 8
  906f2e:	0caa02        	or	a10, a10, a12
  906f31:	2c404b        	l8ui	a12, a4, 75
						PA2DESC(sc, ds->ds_link), &bf->bf_rx_status);
  906f34:	0d9d0c        	sub	a13, a9, a13
		retval = ah->ah_procRxDescFast(ah, ds, ds->ds_daddr,
  906f37:	298222        	l32i	a9, a8, 136
  906f3a:	abdd      	add.n	a13, a13, a11
  906f3c:	0acc02        	or	a12, a12, a10
  906f3f:	2e6c40        	addi	a14, a6, 64
  906f42:	db40      	mov.n	a11, a4
  906f44:	da80      	mov.n	a10, a8
  906f46:	0b9000        	callx8	a9
		if (HAL_EINPROGRESS == retval) {
  906f49:	c09f      	movi.n	a9, 15
  906f4b:	79a902        	bne	a10, a9, 906f51 <ath_intr+0x339>
  906f4e:	63ff6e        	j	906ec0 <ath_intr+0x2a8>
		if (adf_nbuf_len(ds->ds_nbuf) == 0) {
  906f51:	294034        	l8ui	a9, a4, 52
  906f54:	2a4035        	l8ui	a10, a4, 53
  906f57:	089910        	slli	a9, a9, 24
  906f5a:	00aa11        	slli	a10, a10, 16
  906f5d:	09aa02        	or	a10, a10, a9
  906f60:	294036        	l8ui	a9, a4, 54
  906f63:	089911        	slli	a9, a9, 8
  906f66:	0a9902        	or	a9, a9, a10
  906f69:	2a4037        	l8ui	a10, a4, 55
    return (__adf_nbuf_len(buf));
  906f6c:	09aa02        	or	a10, a10, a9
  906f6f:	5bf1bd        	call8	903664 <__adf_nbuf_len>
  906f72:	cea2      	bnez.n	a10, 906f98 <ath_intr+0x380>
			adf_nbuf_put_tail(ds->ds_nbuf, bf->bf_rx_status.rs_datalen);
  906f74:	294034        	l8ui	a9, a4, 52
  906f77:	2a4035        	l8ui	a10, a4, 53
  906f7a:	089910        	slli	a9, a9, 24
  906f7d:	00aa11        	slli	a10, a10, 16
  906f80:	09aa02        	or	a10, a10, a9
  906f83:	294036        	l8ui	a9, a4, 54
    return __adf_nbuf_put_tail(buf, size);
  906f86:	2b6124        	l16ui	a11, a6, 72
  906f89:	089911        	slli	a9, a9, 8
  906f8c:	0a9902        	or	a9, a9, a10
  906f8f:	2a4037        	l8ui	a10, a4, 55
  906f92:	09aa02        	or	a10, a10, a9
  906f95:	5bf196        	call8	9035f0 <__adf_nbuf_put_tail>
		frame_len += bf->bf_rx_status.rs_datalen;
  906f98:	8a14      	l32i.n	a10, a1, 16
  906f9a:	296124        	l16ui	a9, a6, 72
		if (bf->bf_rx_status.rs_more == 0) {
  906f9d:	2d6056        	l8ui	a13, a6, 86
		frame_len += bf->bf_rx_status.rs_datalen;
  906fa0:	a9a8      	add.n	a8, a10, a9
  906fa2:	08084f        	extui	a8, a8, 0, 16
  906fa5:	9814      	s32i.n	a8, a1, 16
		if (bf->bf_rx_status.rs_more == 0) {
  906fa7:	65d221        	bnez	a13, 9071cc <ath_intr+0x5b4>
    __adf_nbuf_queue_init(head);
  906faa:	da10      	mov.n	a10, a1
  906fac:	9d18      	s32i.n	a13, a1, 32
  906fae:	5bf1bb        	call8	90369c <__adf_nbuf_queue_init>
			ds = asf_tailq_next(ds, ds_list);
  906fb1:	29404c        	l8ui	a9, a4, 76
  906fb4:	27404d        	l8ui	a7, a4, 77
  906fb7:	089910        	slli	a9, a9, 24
  906fba:	007711        	slli	a7, a7, 16
  906fbd:	097902        	or	a9, a7, a9
  906fc0:	27404e        	l8ui	a7, a4, 78
				ds_tmp->ds_nbuf = ADF_NBUF_NULL;
  906fc3:	8d18      	l32i.n	a13, a1, 32
			ds = asf_tailq_next(ds, ds_list);
  906fc5:	087711        	slli	a7, a7, 8
  906fc8:	097702        	or	a7, a7, a9
  906fcb:	29404f        	l8ui	a9, a4, 79
  906fce:	079902        	or	a9, a9, a7
  906fd1:	9916      	s32i.n	a9, a1, 24
  906fd3:	6001ef        	j	9071c6 <ath_intr+0x5ae>
				adf_nbuf_unmap(sc->sc_dev, ds_tmp->ds_dmap, ADF_OS_DMA_FROM_DEVICE);
  906fd6:	273038        	l8ui	a7, a3, 56
  906fd9:	2b3039        	l8ui	a11, a3, 57
  906fdc:	087710        	slli	a7, a7, 24
  906fdf:	00bb11        	slli	a11, a11, 16
  906fe2:	07bb02        	or	a11, a11, a7
  906fe5:	27303a        	l8ui	a7, a3, 58
    __adf_nbuf_unmap(osdev, bmap, dir);
  906fe8:	2a2246        	l32i	a10, a2, 0x118
  906feb:	087711        	slli	a7, a7, 8
  906fee:	0b7702        	or	a7, a7, a11
  906ff1:	2b303b        	l8ui	a11, a3, 59
  906ff4:	2c0a01        	movi	a12, 1
  906ff7:	07bb02        	or	a11, a11, a7
  906ffa:	2d1608        	s32i	a13, a1, 32
  906ffd:	5bf136        	call8	9034d8 <__adf_nbuf_unmap>
				adf_nbuf_queue_add(&nbuf_head, ds_tmp->ds_nbuf);
  907000:	2b3035        	l8ui	a11, a3, 53
  907003:	273034        	l8ui	a7, a3, 52
  907006:	00bb11        	slli	a11, a11, 16
  907009:	087710        	slli	a7, a7, 24
  90700c:	07bb02        	or	a11, a11, a7
  90700f:	273036        	l8ui	a7, a3, 54
    __adf_nbuf_queue_add(head, buf);
  907012:	011a02        	or	a10, a1, a1
  907015:	087711        	slli	a7, a7, 8
  907018:	0b7702        	or	a7, a7, a11
  90701b:	2b3037        	l8ui	a11, a3, 55
  90701e:	07bb02        	or	a11, a11, a7
  907021:	5bf111        	call8	903468 <__adf_nbuf_queue_add>
				ds_tmp = asf_tailq_next(ds_tmp, ds_list);
  907024:	2f304d        	l8ui	a15, a3, 77
  907027:	27304c        	l8ui	a7, a3, 76
  90702a:	00ff11        	slli	a15, a15, 16
  90702d:	087710        	slli	a7, a7, 24
  907030:	07f702        	or	a7, a15, a7
  907033:	2f304e        	l8ui	a15, a3, 78
				ds_tmp->ds_nbuf = ADF_NBUF_NULL;
  907036:	8d18      	l32i.n	a13, a1, 32
				ds_tmp = asf_tailq_next(ds_tmp, ds_list);
  907038:	08ff11        	slli	a15, a15, 8
  90703b:	07ff02        	or	a15, a15, a7
  90703e:	27304f        	l8ui	a7, a3, 79
				ds_tmp->ds_nbuf = ADF_NBUF_NULL;
  907041:	2d3434        	s8i	a13, a3, 52
  907044:	2d3435        	s8i	a13, a3, 53
  907047:	2d3436        	s8i	a13, a3, 54
  90704a:	2d3437        	s8i	a13, a3, 55
				ds_tmp = asf_tailq_next(ds_tmp, ds_list);
  90704d:	0f7f02        	or	a15, a7, a15
				if (ds_tmp == NULL) {
  907050:	ccf1      	bnez.n	a15, 907055 <ath_intr+0x43d>
  907052:	63fffc        	j	907052 <ath_intr+0x43a>
				if (ath_rxdesc_init(sc, ds_rmv) == 0) {
  907055:	db30      	mov.n	a11, a3
  907057:	da20      	mov.n	a10, a2
  907059:	9d18      	s32i.n	a13, a1, 32
  90705b:	9f17      	s32i.n	a15, a1, 28
  90705d:	5bfe2e        	call8	906918 <ath_rxdesc_init>
  907060:	2e304c        	l8ui	a14, a3, 76
  907063:	2c304d        	l8ui	a12, a3, 77
  907066:	27304e        	l8ui	a7, a3, 78
					asf_tailq_remove(&sc->sc_rxdesc, ds_rmv, ds_list);
  907069:	00cc11        	slli	a12, a12, 16
  90706c:	08ee10        	slli	a14, a14, 24
  90706f:	0ece02        	or	a14, a12, a14
  907072:	2b3050        	l8ui	a11, a3, 80
  907075:	293051        	l8ui	a9, a3, 81
  907078:	087711        	slli	a7, a7, 8
  90707b:	2c304f        	l8ui	a12, a3, 79
  90707e:	0e7e02        	or	a14, a7, a14
				if (ath_rxdesc_init(sc, ds_rmv) == 0) {
  907081:	8d18      	l32i.n	a13, a1, 32
  907083:	8f17      	l32i.n	a15, a1, 28
					asf_tailq_remove(&sc->sc_rxdesc, ds_rmv, ds_list);
  907085:	0ece02        	or	a14, a12, a14
  907088:	08bb10        	slli	a11, a11, 24
  90708b:	009911        	slli	a9, a9, 16
				if (ath_rxdesc_init(sc, ds_rmv) == 0) {
  90708e:	65a07e        	bnez	a10, 907110 <ath_intr+0x4f8>
					asf_tailq_remove(&sc->sc_rxdesc, ds_rmv, ds_list);
  907091:	0b9b02        	or	a11, a9, a11
  907094:	293052        	l8ui	a9, a3, 82
  907097:	089911        	slli	a9, a9, 8
  90709a:	0b9902        	or	a9, a9, a11
  90709d:	2b3053        	l8ui	a11, a3, 83
  9070a0:	09b902        	or	a9, a11, a9
  9070a3:	c9e6      	beqz.n	a14, 9070bd <ath_intr+0x4a5>
  9070a5:	098757        	extui	a7, a9, 24, 8
  9070a8:	27e450        	s8i	a7, a14, 80
  9070ab:	090757        	extui	a7, a9, 16, 8
  9070ae:	27e451        	s8i	a7, a14, 81
  9070b1:	098747        	extui	a7, a9, 8, 8
  9070b4:	27e452        	s8i	a7, a14, 82
  9070b7:	29e453        	s8i	a9, a14, 83
  9070ba:	600002        	j	9070c0 <ath_intr+0x4a8>
  9070bd:	2926da        	s32i	a9, a2, 0x368
  9070c0:	293050        	l8ui	a9, a3, 80
  9070c3:	273051        	l8ui	a7, a3, 81
  9070c6:	089a10        	slli	a10, a9, 24
  9070c9:	007711        	slli	a7, a7, 16
  9070cc:	0a7902        	or	a9, a7, a10
  9070cf:	273052        	l8ui	a7, a3, 82
  9070d2:	087711        	slli	a7, a7, 8
  9070d5:	097702        	or	a7, a7, a9
  9070d8:	293053        	l8ui	a9, a3, 83
  9070db:	079702        	or	a7, a9, a7
  9070de:	9e70      	s32i.n	a14, a7, 0
					asf_tailq_insert_tail(&sc->sc_rxdesc, ds_rmv, ds_list);
  9070e0:	2722da        	l32i	a7, a2, 0x368
  9070e3:	2d344c        	s8i	a13, a3, 76
  9070e6:	078957        	extui	a9, a7, 24, 8
  9070e9:	293450        	s8i	a9, a3, 80
  9070ec:	070957        	extui	a9, a7, 16, 8
  9070ef:	293451        	s8i	a9, a3, 81
  9070f2:	078947        	extui	a9, a7, 8, 8
  9070f5:	273453        	s8i	a7, a3, 83
  9070f8:	2d344d        	s8i	a13, a3, 77
  9070fb:	2d344e        	s8i	a13, a3, 78
  9070fe:	2d344f        	s8i	a13, a3, 79
  907101:	293452        	s8i	a9, a3, 82
  907104:	9370      	s32i.n	a3, a7, 0
  907106:	273c4c        	addi	a7, a3, 76
  907109:	2726da        	s32i	a7, a2, 0x368
  90710c:	60008d        	j	90719d <ath_intr+0x585>
  90710f:	00cae8        	excw
					asf_tailq_remove(&sc->sc_rxdesc, ds_rmv, ds_list);
  907112:	0b9b02        	or	a11, a9, a11
  907115:	293052        	l8ui	a9, a3, 82
  907118:	089911        	slli	a9, a9, 8
  90711b:	0b9902        	or	a9, a9, a11
  90711e:	2b3053        	l8ui	a11, a3, 83
  907121:	09b902        	or	a9, a11, a9
  907124:	098757        	extui	a7, a9, 24, 8
  907127:	27e450        	s8i	a7, a14, 80
  90712a:	090757        	extui	a7, a9, 16, 8
  90712d:	27e451        	s8i	a7, a14, 81
  907130:	098747        	extui	a7, a9, 8, 8
  907133:	27e452        	s8i	a7, a14, 82
  907136:	29e453        	s8i	a9, a14, 83
  907139:	600014        	j	907151 <ath_intr+0x539>
  90713c:	0b9902        	or	a9, a9, a11
  90713f:	2b3052        	l8ui	a11, a3, 82
  907142:	08bb11        	slli	a11, a11, 8
  907145:	09b902        	or	a9, a11, a9
  907148:	2b3053        	l8ui	a11, a3, 83
  90714b:	09b902        	or	a9, a11, a9
  90714e:	2926da        	s32i	a9, a2, 0x368
  907151:	293050        	l8ui	a9, a3, 80
  907154:	273051        	l8ui	a7, a3, 81
  907157:	089a10        	slli	a10, a9, 24
  90715a:	007711        	slli	a7, a7, 16
  90715d:	0a7902        	or	a9, a7, a10
  907160:	273052        	l8ui	a7, a3, 82
  907163:	087711        	slli	a7, a7, 8
  907166:	097702        	or	a7, a7, a9
  907169:	293053        	l8ui	a9, a3, 83
  90716c:	079702        	or	a7, a9, a7
  90716f:	9e70      	s32i.n	a14, a7, 0
					asf_tailq_insert_tail(&sc->sc_rxdesc_idle, ds_rmv, ds_list);
  907171:	2722d8        	l32i	a7, a2, 0x360
  907174:	2d344c        	s8i	a13, a3, 76
  907177:	078957        	extui	a9, a7, 24, 8
  90717a:	293450        	s8i	a9, a3, 80
  90717d:	070957        	extui	a9, a7, 16, 8
  907180:	293451        	s8i	a9, a3, 81
  907183:	078947        	extui	a9, a7, 8, 8
  907186:	273453        	s8i	a7, a3, 83
  907189:	2d344d        	s8i	a13, a3, 77
  90718c:	2d344e        	s8i	a13, a3, 78
  90718f:	2d344f        	s8i	a13, a3, 79
  907192:	293452        	s8i	a9, a3, 82
  907195:	9370      	s32i.n	a3, a7, 0
  907197:	273c4c        	addi	a7, a3, 76
  90719a:	2726d8        	s32i	a7, a2, 0x360
				if (ds_rmv == ds_tail) {
  90719d:	734923        	bne	a4, a3, 9071c4 <ath_intr+0x5ac>
			bf->bf_rx_status.rs_datalen = frame_len;
  9071a0:	8314      	l32i.n	a3, a1, 16
    return __adf_nbuf_create_frm_frag(head);
  9071a2:	da10      	mov.n	a10, a1
  9071a4:	236524        	s16i	a3, a6, 72
  9071a7:	5bf0e0        	call8	903528 <__adf_nbuf_create_frm_frag>
			bf->bf_status |= ATH_BUFSTATUS_DONE;
  9071aa:	836f      	l32i.n	a3, a6, 60
  9071ac:	c041      	movi.n	a4, 1
  9071ae:	043302        	or	a3, a3, a4
  9071b1:	936f      	s32i.n	a3, a6, 60
			bf->bf_skb = adf_nbuf_create_frm_frag(&nbuf_head);
  9071b3:	9a68      	s32i.n	a10, a6, 32
			ds_head = asf_tailq_next(ds_tail, ds_list);
  9071b5:	8316      	l32i.n	a3, a1, 24
			bf = (struct ath_rx_buf *)asf_tailq_next(bf, bf_list);
  9071b7:	8669      	l32i.n	a6, a6, 36
			frame_len = 0;
  9071b9:	c080      	movi.n	a8, 0
			ds = asf_tailq_next(ds, ds_list);
  9071bb:	d430      	mov.n	a4, a3
			frame_len = 0;
  9071bd:	9814      	s32i.n	a8, a1, 16
			cnt = 0;
  9071bf:	d780      	mov.n	a7, a8
  9071c1:	600025        	j	9071ea <ath_intr+0x5d2>
				if (ds_rmv == ds_tail) {
  9071c4:	d3f0      	mov.n	a3, a15
			while (ds_tmp) {
  9071c6:	653e0c        	bnez	a3, 906fd6 <ath_intr+0x3be>
  9071c9:	63ffd3        	j	9071a0 <ath_intr+0x588>
			ds = asf_tailq_next(ds, ds_list);
  9071cc:	2a404c        	l8ui	a10, a4, 76
  9071cf:	29404d        	l8ui	a9, a4, 77
  9071d2:	08aa10        	slli	a10, a10, 24
  9071d5:	009911        	slli	a9, a9, 16
  9071d8:	0a9a02        	or	a10, a9, a10
  9071db:	29404e        	l8ui	a9, a4, 78
  9071de:	24404f        	l8ui	a4, a4, 79
  9071e1:	089911        	slli	a9, a9, 8
  9071e4:	0a9902        	or	a9, a9, a10
  9071e7:	094402        	or	a4, a4, a9
	while(ds) {
  9071ea:	654afb        	bnez	a4, 906ce9 <ath_intr+0xd1>
  9071ed:	63fccf        	j	906ec0 <ath_intr+0x2a8>
  9071f0:	000083        	excw
		if (status & HAL_INT_TXURN) {
  9071f3:	137437        	l32r	a3, 8e42d0 <vdesc_module_install+0x194>
  9071f6:	102322        	l32r	a0, 8cfe80 <_bss_end+0x3c2678>
			sc->sc_int_stats.ast_txurn++;
  9071f9:	4fc0b1        	excw
  9071fc:	b133      	addi.n	a3, a3, 1
  9071fe:	23264f        	s32i	a3, a2, 0x13c
			ah->ah_updateTxTrigLevel(ah, AH_TRUE);
  907201:	8357      	l32i.n	a3, a5, 28
  907203:	da50      	mov.n	a10, a5
  907205:	0b3000        	callx8	a3
  907208:	2a5a1c        	movi	a10, 0x51c
  90720b:	aa2a      	add.n	a10, a2, a10
  90720d:	5bfd0b        	call8	90663c <__adf_os_sched_bh$isra$6>
		if (status & HAL_INT_BMISS) {
  907210:	8313      	l32i.n	a3, a1, 12
  907212:	7d3607        	bbci	a3, 13, 90721d <ath_intr+0x605>
  907215:	2a3a24        	movi	a10, 0x324
  907218:	aa2a      	add.n	a10, a2, a10
  90721a:	5bfd08        	call8	90663c <__adf_os_sched_bh$isra$6>
		if (status & HAL_INT_GTT)
  90721d:	8413      	l32i.n	a4, a1, 12
  90721f:	724607        	bbci	a4, 2, 90722a <ath_intr+0x612>
			sc->sc_int_stats.ast_txto++;
  907222:	232250        	l32i	a3, a2, 0x140
  907225:	b133      	addi.n	a3, a3, 1
  907227:	232650        	s32i	a3, a2, 0x140
	return ADF_OS_IRQ_HANDLED;
  90722a:	c031      	movi.n	a3, 1
		if (status & HAL_INT_CST)
  90722c:	764608        	bbci	a4, 6, 907238 <ath_intr+0x620>
			sc->sc_int_stats.ast_cst++;
  90722f:	242251        	l32i	a4, a2, 0x144
  907232:	034408        	add	a4, a4, a3
  907235:	242651        	s32i	a4, a2, 0x144
}
  907238:	d230      	mov.n	a2, a3
  90723a:	d10f      	retw.n

0090723c <ath_fatal_tasklet>:
{
  90723c:	6c1004        	entry	a1, 32
	wmi_event(sc->tgt_wmi_handle, WMI_FATAL_EVENTID, NULL, 0);
  90723f:	c0d0      	movi.n	a13, 0
  907241:	1b7286        	l32r	a11, 8e3c5c <bStandardCommand+0x9d0>
  907244:	8a23      	l32i.n	a10, a2, 12
  907246:	0ddc02        	or	a12, a13, a13
  907249:	5bfe5c        	call8	906bbc <wmi_event>
  90724c:	d10f      	retw.n
	...

00907250 <ath_bmiss_tasklet>:
{
  907250:	6c1004        	entry	a1, 32
	wmi_event(sc->tgt_wmi_handle, WMI_BMISS_EVENTID, NULL, 0);
  907253:	c0d0      	movi.n	a13, 0
  907255:	1b7287        	l32r	a11, 8e3c74 <mUsbEPMap+0xc>
  907258:	8a23      	l32i.n	a10, a2, 12
  90725a:	0ddc02        	or	a12, a13, a13
  90725d:	5bfe57        	call8	906bbc <wmi_event>
  907260:	d10f      	retw.n
	...

00907264 <wmi_cmd_rsp>:
{
  907264:	6c1006        	entry	a1, 48
	netbuf = WMI_AllocEvent(pContext, WMI_EVT_CLASS_CMD_REPLY,
  907267:	17716e        	l32r	a7, 8e3820 <bStandardCommand+0x594>
  90726a:	b46c      	addi.n	a12, a6, 4
  90726c:	287292        	l32i	a8, a7, 0x248
  90726f:	2b0a01        	movi	a11, 1
  907272:	022a02        	or	a10, a2, a2
  907275:	0b8000        	callx8	a8
{
  907278:	04044f        	extui	a4, a4, 0, 16
	netbuf = WMI_AllocEvent(pContext, WMI_EVT_CLASS_CMD_REPLY,
  90727b:	d8a0      	mov.n	a8, a10
	if (netbuf == ADF_NBUF_NULL) {
  90727d:	cca1      	bnez.n	a10, 907282 <wmi_cmd_rsp+0x1e>
  90727f:	63fffc        	j	90727f <wmi_cmd_rsp+0x1b>
	if (Length != 0 && buffer != NULL) {
  907282:	c962      	beqz.n	a6, 907298 <wmi_cmd_rsp+0x34>
  907284:	c950      	beqz.n	a5, 907298 <wmi_cmd_rsp+0x34>
    return __adf_nbuf_put_tail(buf, size);
  907286:	db60      	mov.n	a11, a6
  907288:	2a1600        	s32i	a10, a1, 0
  90728b:	5bf0d9        	call8	9035f0 <__adf_nbuf_put_tail>
  90728e:	dc60      	mov.n	a12, a6
  907290:	055b02        	or	a11, a5, a5
  907293:	5bfc63        	call8	906420 <__adf_os_mem_copy>
  907296:	8810      	l32i.n	a8, a1, 0
	WMI_SendEvent(pContext, netbuf, cmd_id, SeqNo, Length);
  907298:	257293        	l32i	a5, a7, 0x24c
  90729b:	de60      	mov.n	a14, a6
  90729d:	dd40      	mov.n	a13, a4
  90729f:	030c4f        	extui	a12, a3, 0, 16
  9072a2:	db80      	mov.n	a11, a8
  9072a4:	da20      	mov.n	a10, a2
  9072a6:	0b5000        	callx8	a5
  9072a9:	d10f      	retw.n
	...

009072ac <ath_hal_reg_rmw_tgt>:
{
  9072ac:	6c1006        	entry	a1, 48
  9072af:	03084f        	extui	a8, a3, 0, 16
	struct ath_hal *ah = sc->sc_ah;
  9072b2:	232d05        	addmi	a3, a2, 0x500
  9072b5:	8c3b      	l32i.n	a12, a3, 44
{
  9072b7:	04044f        	extui	a4, a4, 0, 16
	for (i = 0; i < datalen;
  9072ba:	d750      	mov.n	a7, a5
		val &= ~buf->clr;
  9072bc:	c73f      	movi.n	a3, -1
	for (i = 0; i < datalen;
  9072be:	600023        	j	9072e5 <ath_hal_reg_rmw_tgt+0x39>
  9072c1:	008b70        	excw
		val = ath_reg_read_filter(ah, buf->reg);
  9072c4:	dac0      	mov.n	a10, a12
  9072c6:	9811      	s32i.n	a8, a1, 4
  9072c8:	9c10      	s32i.n	a12, a1, 0
  9072ca:	5bfd32        	call8	906794 <ath_reg_read_filter>
		val &= ~buf->clr;
  9072cd:	8b72      	l32i.n	a11, a7, 8
  9072cf:	0b3b03        	xor	a11, a3, a11
  9072d2:	0aba01        	and	a10, a11, a10
		val |= buf->set;
  9072d5:	8b71      	l32i.n	a11, a7, 4
		ath_hal_reg_write_filter(ah, buf->reg, val);
  9072d7:	0bab02        	or	a11, a10, a11
  9072da:	8a70      	l32i.n	a10, a7, 0
  9072dc:	bc77      	addi.n	a7, a7, 12
  9072de:	5bfd09        	call8	906704 <ath_hal_reg_write_filter$isra$13>
  9072e1:	8c10      	l32i.n	a12, a1, 0
  9072e3:	8811      	l32i.n	a8, a1, 4
	for (i = 0; i < datalen;
  9072e5:	05790c        	sub	a9, a7, a5
  9072e8:	7692d6        	blt	a9, a6, 9072c2 <ath_hal_reg_rmw_tgt+0x16>
	wmi_cmd_rsp(sc->tgt_wmi_handle, Command, SeqNo, NULL, 0);
  9072eb:	c0e0      	movi.n	a14, 0
  9072ed:	8a23      	l32i.n	a10, a2, 12
  9072ef:	dde0      	mov.n	a13, a14
  9072f1:	dc40      	mov.n	a12, a4
  9072f3:	db80      	mov.n	a11, a8
  9072f5:	5bffdb        	call8	907264 <wmi_cmd_rsp>
  9072f8:	d10f      	retw.n
	...

009072fc <ath_rc_mask_tgt>:
{
  9072fc:	6c1004        	entry	a1, 32
	sc->sc_vap[idx].av_rate_mask[band] = adf_os_ntohl(wmi_data->mask);
  9072ff:	2a5002        	l8ui	a10, a5, 2
	idx = wmi_data->vap_index;
  907302:	2f5000        	l8ui	a15, a5, 0
	sc->sc_vap[idx].av_rate_mask[band] = adf_os_ntohl(wmi_data->mask);
  907305:	08ae10        	slli	a14, a10, 24
  907308:	2a5003        	l8ui	a10, a5, 3
	band = wmi_data->band;
  90730b:	2d5001        	l8ui	a13, a5, 1
	sc->sc_vap[idx].av_rate_mask[band] = adf_os_ntohl(wmi_data->mask);
  90730e:	00aa11        	slli	a10, a10, 16
  907311:	0eaa02        	or	a10, a10, a14
  907314:	2e5004        	l8ui	a14, a5, 4
  907317:	0cf811        	slli	a8, a15, 4
  90731a:	08ee11        	slli	a14, a14, 8
  90731d:	0aea02        	or	a10, a14, a10
  907320:	2e5005        	l8ui	a14, a5, 5
  907323:	af89      	add.n	a9, a8, a15
  907325:	0aee02        	or	a14, a14, a10
{
  907328:	030b4f        	extui	a11, a3, 0, 16
	sc->sc_vap[idx].av_rate_mask[band] = adf_os_ntohl(wmi_data->mask);
  90732b:	ad9a      	add.n	a10, a9, a13
  90732d:	235a70        	movi	a3, 0x570
  907330:	a3aa      	add.n	a10, a10, a3
  907332:	0eaa11        	slli	a10, a10, 2
  907335:	aa2a      	add.n	a10, a2, a10
  907337:	9ea4      	s32i.n	a14, a10, 16
{
  907339:	040c4f        	extui	a12, a4, 0, 16
	if (sc->sc_vap[idx].av_rate_mask[band]) {
  90733c:	caec      	beqz.n	a14, 90736c <ath_rc_mask_tgt+0x70>
  90733e:	c050      	movi.n	a5, 0
			if ((1 << i) & sc->sc_vap[idx].av_rate_mask[band]) {
  907340:	c0a1      	movi.n	a10, 1
  907342:	290a20        	movi	a9, 32
  907345:	6d981e        	loop	a9, 907367 <ath_rc_mask_tgt+0x6b>
  907348:	005104        	ssl	a5
  90734b:	00a31a        	sll	a3, a10
  90734e:	7e3013        	bnone	a3, a14, 907365 <ath_rc_mask_tgt+0x69>
				sc->sc_vap[idx].av_minrateidx[band] = i;
  907351:	af89      	add.n	a9, a8, a15
  907353:	0e9911        	slli	a9, a9, 2
  907356:	a929      	add.n	a9, a2, a9
  907358:	187288        	l32r	a8, 8e3d78 <mUsbEPinHighBandSet+0x68>
  90735b:	ad99      	add.n	a9, a9, a13
  90735d:	a899      	add.n	a9, a9, a8
  90735f:	259400        	s8i	a5, a9, 0
				break;
  907362:	600015        	j	90737b <ath_rc_mask_tgt+0x7f>
		for (i = 0; i < RATE_TABLE_SIZE; i++) {
  907365:	b155      	addi.n	a5, a5, 1
  907367:	600010        	j	90737b <ath_rc_mask_tgt+0x7f>
  90736a:	00000e        	subx4	a0, a0, a0
		sc->sc_vap[idx].av_minrateidx[band] = 0;
  90736d:	9911      	s32i.n	a9, a1, 4
  90736f:	a929      	add.n	a9, a2, a9
  907371:	157288        	l32r	a5, 8e3d94 <mUsbEPinHighBandSet+0x84>
  907374:	ad99      	add.n	a9, a9, a13
  907376:	a599      	add.n	a9, a9, a5
  907378:	2e9400        	s8i	a14, a9, 0
	wmi_cmd_rsp(sc->tgt_wmi_handle, Command, SeqNo, NULL, 0);
  90737b:	c0e0      	movi.n	a14, 0
  90737d:	8a23      	l32i.n	a10, a2, 12
  90737f:	dde0      	mov.n	a13, a14
  907381:	5bffb8        	call8	907264 <wmi_cmd_rsp>
  907384:	d10f      	retw.n
	...

00907388 <ath_rx_stats_tgt>:
{
  907388:	6c1006        	entry	a1, 48
	stats.ast_rx_nobuf = sc->sc_rx_stats.ast_rx_nobuf;
  90738b:	28227c        	l32i	a8, a2, 0x1f0
	wmi_cmd_rsp(sc->tgt_wmi_handle, Command, SeqNo, &stats, sizeof(stats));
  90738e:	8a23      	l32i.n	a10, a2, 12
	stats.ast_rx_nobuf = sc->sc_rx_stats.ast_rx_nobuf;
  907390:	9810      	s32i.n	a8, a1, 0
	stats.ast_rx_send = sc->sc_rx_stats.ast_rx_send;
  907392:	28227d        	l32i	a8, a2, 0x1f4
	wmi_cmd_rsp(sc->tgt_wmi_handle, Command, SeqNo, &stats, sizeof(stats));
  907395:	c0ec      	movi.n	a14, 12
	stats.ast_rx_send = sc->sc_rx_stats.ast_rx_send;
  907397:	9811      	s32i.n	a8, a1, 4
	stats.ast_rx_done = sc->sc_rx_stats.ast_rx_done;
  907399:	28227e        	l32i	a8, a2, 0x1f8
	wmi_cmd_rsp(sc->tgt_wmi_handle, Command, SeqNo, &stats, sizeof(stats));
  90739c:	dd10      	mov.n	a13, a1
  90739e:	040c4f        	extui	a12, a4, 0, 16
  9073a1:	030b4f        	extui	a11, a3, 0, 16
	stats.ast_rx_done = sc->sc_rx_stats.ast_rx_done;
  9073a4:	9812      	s32i.n	a8, a1, 8
	wmi_cmd_rsp(sc->tgt_wmi_handle, Command, SeqNo, &stats, sizeof(stats));
  9073a6:	5bffaf        	call8	907264 <wmi_cmd_rsp>
  9073a9:	d10f      	retw.n
	...

009073ac <ath_tx_stats_tgt>:
{
  9073ac:	6c100a        	entry	a1, 80
	stats.ast_tx_xretries = sc->sc_tx_stats.ast_tx_xretries;
  9073af:	282252        	l32i	a8, a2, 0x148
	wmi_cmd_rsp(sc->tgt_wmi_handle, Command, SeqNo, &stats, sizeof(stats));
  9073b2:	8a23      	l32i.n	a10, a2, 12
	stats.ast_tx_xretries = sc->sc_tx_stats.ast_tx_xretries;
  9073b4:	9810      	s32i.n	a8, a1, 0
	stats.ast_tx_fifoerr = sc->sc_tx_stats.ast_tx_fifoerr;
  9073b6:	282253        	l32i	a8, a2, 0x14c
	wmi_cmd_rsp(sc->tgt_wmi_handle, Command, SeqNo, &stats, sizeof(stats));
  9073b9:	c2e4      	movi.n	a14, 36
	stats.ast_tx_fifoerr = sc->sc_tx_stats.ast_tx_fifoerr;
  9073bb:	9811      	s32i.n	a8, a1, 4
	stats.ast_tx_filtered = sc->sc_tx_stats.ast_tx_filtered;
  9073bd:	282254        	l32i	a8, a2, 0x150
	wmi_cmd_rsp(sc->tgt_wmi_handle, Command, SeqNo, &stats, sizeof(stats));
  9073c0:	dd10      	mov.n	a13, a1
	stats.ast_tx_filtered = sc->sc_tx_stats.ast_tx_filtered;
  9073c2:	9812      	s32i.n	a8, a1, 8
	stats.ast_tx_timer_exp = sc->sc_tx_stats.ast_tx_timer_exp;
  9073c4:	282255        	l32i	a8, a2, 0x154
	wmi_cmd_rsp(sc->tgt_wmi_handle, Command, SeqNo, &stats, sizeof(stats));
  9073c7:	040c4f        	extui	a12, a4, 0, 16
	stats.ast_tx_timer_exp = sc->sc_tx_stats.ast_tx_timer_exp;
  9073ca:	9813      	s32i.n	a8, a1, 12
	stats.ast_tx_shortretry = sc->sc_tx_stats.ast_tx_shortretry;
  9073cc:	282256        	l32i	a8, a2, 0x158
	wmi_cmd_rsp(sc->tgt_wmi_handle, Command, SeqNo, &stats, sizeof(stats));
  9073cf:	030b4f        	extui	a11, a3, 0, 16
	stats.ast_tx_shortretry = sc->sc_tx_stats.ast_tx_shortretry;
  9073d2:	9814      	s32i.n	a8, a1, 16
	stats.ast_tx_longretry = sc->sc_tx_stats.ast_tx_longretry;
  9073d4:	282257        	l32i	a8, a2, 0x15c
  9073d7:	9815      	s32i.n	a8, a1, 20
	stats.tx_qnull = sc->sc_tx_stats.tx_qnull;
  9073d9:	28225c        	l32i	a8, a2, 0x170
  9073dc:	9816      	s32i.n	a8, a1, 24
	stats.tx_noskbs = sc->sc_tx_stats.tx_noskbs;
  9073de:	282276        	l32i	a8, a2, 0x1d8
  9073e1:	9817      	s32i.n	a8, a1, 28
	stats.tx_nobufs = sc->sc_tx_stats.tx_nobufs;
  9073e3:	282277        	l32i	a8, a2, 0x1dc
  9073e6:	281608        	s32i	a8, a1, 32
	wmi_cmd_rsp(sc->tgt_wmi_handle, Command, SeqNo, &stats, sizeof(stats));
  9073e9:	5bff9e        	call8	907264 <wmi_cmd_rsp>
  9073ec:	d10f      	retw.n
	...

009073f0 <ath_int_stats_tgt>:
{
  9073f0:	6c1008        	entry	a1, 64
	stats.ast_rx = sc->sc_int_stats.ast_rx;
  9073f3:	28224c        	l32i	a8, a2, 0x130
	wmi_cmd_rsp(sc->tgt_wmi_handle, Command, SeqNo, &stats, sizeof(stats));
  9073f6:	8a23      	l32i.n	a10, a2, 12
	stats.ast_rx = sc->sc_int_stats.ast_rx;
  9073f8:	9810      	s32i.n	a8, a1, 0
	stats.ast_rxorn = sc->sc_int_stats.ast_rxorn;
  9073fa:	28224d        	l32i	a8, a2, 0x134
	wmi_cmd_rsp(sc->tgt_wmi_handle, Command, SeqNo, &stats, sizeof(stats));
  9073fd:	c1e8      	movi.n	a14, 24
	stats.ast_rxorn = sc->sc_int_stats.ast_rxorn;
  9073ff:	9811      	s32i.n	a8, a1, 4
	stats.ast_rxeol = sc->sc_int_stats.ast_rxeol;
  907401:	28224e        	l32i	a8, a2, 0x138
	wmi_cmd_rsp(sc->tgt_wmi_handle, Command, SeqNo, &stats, sizeof(stats));
  907404:	dd10      	mov.n	a13, a1
	stats.ast_rxeol = sc->sc_int_stats.ast_rxeol;
  907406:	9812      	s32i.n	a8, a1, 8
	stats.ast_txurn = sc->sc_int_stats.ast_txurn;
  907408:	28224f        	l32i	a8, a2, 0x13c
	wmi_cmd_rsp(sc->tgt_wmi_handle, Command, SeqNo, &stats, sizeof(stats));
  90740b:	040c4f        	extui	a12, a4, 0, 16
	stats.ast_txurn = sc->sc_int_stats.ast_txurn;
  90740e:	9813      	s32i.n	a8, a1, 12
	stats.ast_txto = sc->sc_int_stats.ast_txto;
  907410:	282250        	l32i	a8, a2, 0x140
	wmi_cmd_rsp(sc->tgt_wmi_handle, Command, SeqNo, &stats, sizeof(stats));
  907413:	030b4f        	extui	a11, a3, 0, 16
	stats.ast_txto = sc->sc_int_stats.ast_txto;
  907416:	9814      	s32i.n	a8, a1, 16
	stats.ast_cst = sc->sc_int_stats.ast_cst;
  907418:	282251        	l32i	a8, a2, 0x144
  90741b:	9815      	s32i.n	a8, a1, 20
	wmi_cmd_rsp(sc->tgt_wmi_handle, Command, SeqNo, &stats, sizeof(stats));
  90741d:	5bff91        	call8	907264 <wmi_cmd_rsp>
  907420:	d10f      	retw.n
	...

00907424 <ath_node_update_tgt>:
{
  907424:	6c1004        	entry	a1, 32
	node_index = node->ni_nodeindex;
  907427:	26500c        	l8ui	a6, a5, 12
	adf_os_mem_copy(&(sc->sc_sta[node_index].ni), node,
  90742a:	2a5a38        	movi	a10, 0x538
  90742d:	0a6811        	slli	a8, a6, 6
  907430:	a688      	add.n	a8, a8, a6
  907432:	0f8811        	slli	a8, a8, 1
  907435:	a688      	add.n	a8, a8, a6
  907437:	0e8611        	slli	a6, a8, 2
  90743a:	aa6a      	add.n	a10, a6, a10
{
  90743c:	db50      	mov.n	a11, a5
  90743e:	aa2a      	add.n	a10, a2, a10
  907440:	c1c6      	movi.n	a12, 22
  907442:	5bfbf7        	call8	906420 <__adf_os_mem_copy>
	sc->sc_sta[node_index].ni.ni_vap = &(sc->sc_vap[vap_index].av_vap);
  907445:	a628      	add.n	a8, a2, a6
	vap_index = sc->sc_sta[node_index].ni.ni_vapindex;
  907447:	265a45        	movi	a6, 0x545
  90744a:	a686      	add.n	a6, a8, a6
	sc->sc_sta[node_index].ni.ni_vap = &(sc->sc_vap[vap_index].av_vap);
  90744c:	2a6000        	l8ui	a10, a6, 0
  90744f:	295a58        	movi	a9, 0x558
  907452:	0ca611        	slli	a6, a10, 4
  907455:	aa66      	add.n	a6, a6, a10
  907457:	1a7289        	l32r	a10, 8e3e7c <mUsbEPinHighBandSet+0x16c>
  90745a:	0e6611        	slli	a6, a6, 2
  90745d:	aa66      	add.n	a6, a6, a10
  90745f:	a989      	add.n	a9, a8, a9
  907461:	a626      	add.n	a6, a2, a6
  907463:	9690      	s32i.n	a6, a9, 0
	sc->sc_sta[node_index].ni.ni_txseqmgmt = 0;
  907465:	265a50        	movi	a6, 0x550
  907468:	a686      	add.n	a6, a8, a6
  90746a:	c090      	movi.n	a9, 0
  90746c:	296500        	s16i	a9, a6, 0
	sc->sc_sta[node_index].ni.ni_iv16 = 0;
  90746f:	265a52        	movi	a6, 0x552
  907472:	a686      	add.n	a6, a8, a6
  907474:	296500        	s16i	a9, a6, 0
	sc->sc_sta[node_index].ni.ni_iv32 = 0;
  907477:	265a54        	movi	a6, 0x554
  90747a:	c0d0      	movi.n	a13, 0
{
  90747c:	03034f        	extui	a3, a3, 0, 16
  90747f:	04044f        	extui	a4, a4, 0, 16
	sc->sc_sta[node_index].ni.ni_iv32 = 0;
  907482:	a688      	add.n	a8, a8, a6
	wmi_cmd_rsp(sc->tgt_wmi_handle, Command, SeqNo, NULL, 0);
  907484:	8a23      	l32i.n	a10, a2, 12
	sc->sc_sta[node_index].ni.ni_iv32 = 0;
  907486:	9d80      	s32i.n	a13, a8, 0
	wmi_cmd_rsp(sc->tgt_wmi_handle, Command, SeqNo, NULL, 0);
  907488:	ded0      	mov.n	a14, a13
  90748a:	dc40      	mov.n	a12, a4
  90748c:	db30      	mov.n	a11, a3
  90748e:	5bff75        	call8	907264 <wmi_cmd_rsp>
  907491:	d10f      	retw.n
	...

00907494 <ath_detach_tgt>:
{
  907494:	6c1004        	entry	a1, 32
	struct ath_hal *ah = sc->sc_ah;
  907497:	252d05        	addmi	a5, a2, 0x500
  90749a:	855b      	l32i.n	a5, a5, 44
	ath_desc_free(sc);
  90749c:	022a02        	or	a10, a2, a2
  90749f:	5bfce3        	call8	90682c <ath_desc_free>
	ah->ah_detach(ah);
  9074a2:	8856      	l32i.n	a8, a5, 24
  9074a4:	da50      	mov.n	a10, a5
  9074a6:	0b8000        	callx8	a8
{
  9074a9:	03034f        	extui	a3, a3, 0, 16
  9074ac:	04044f        	extui	a4, a4, 0, 16
	wmi_cmd_rsp(sc->tgt_wmi_handle, Command, SeqNo, NULL, 0);
  9074af:	c0e0      	movi.n	a14, 0
  9074b1:	8a23      	l32i.n	a10, a2, 12
  9074b3:	dde0      	mov.n	a13, a14
  9074b5:	dc40      	mov.n	a12, a4
  9074b7:	db30      	mov.n	a11, a3
  9074b9:	5bff6a        	call8	907264 <wmi_cmd_rsp>
  9074bc:	d10f      	retw.n
	...

009074c0 <ath_enable_aggr_tgt>:
{
  9074c0:	6c1004        	entry	a1, 32
	a_uint8_t nodeindex = aggr->nodeindex;
  9074c3:	2d5000        	l8ui	a13, a5, 0
{
  9074c6:	03034f        	extui	a3, a3, 0, 16
  9074c9:	04044f        	extui	a4, a4, 0, 16
	if (nodeindex >= TARGET_NODE_MAX) {
  9074cc:	6ed802        	bltui	a13, 8, 9074d2 <ath_enable_aggr_tgt+0x12>
  9074cf:	600089        	j	90755c <ath_enable_aggr_tgt+0x9c>
	if (!an->an_valid) {
  9074d2:	0ad811        	slli	a8, a13, 6
  9074d5:	ad88      	add.n	a8, a8, a13
  9074d7:	0f8811        	slli	a8, a8, 1
  9074da:	ad88      	add.n	a8, a8, a13
  9074dc:	0e8b11        	slli	a11, a8, 2
  9074df:	ab28      	add.n	a8, a2, a11
  9074e1:	297a3c        	movi	a9, 0x73c
  9074e4:	a988      	add.n	a8, a8, a9
  9074e6:	288000        	l8ui	a8, a8, 0
  9074e9:	64806f        	beqz	a8, 90755c <ath_enable_aggr_tgt+0x9c>
	a_uint8_t tidno = aggr->tidno;
  9074ec:	2c5001        	l8ui	a12, a5, 1
	if (tidno >= WME_NUM_TID) {
  9074ef:	6ec811        	bltui	a12, 8, 907504 <ath_enable_aggr_tgt+0x44>
		adf_os_print("[%s] enable_aggr with invalid tid %d(node = %d)\n",
  9074f2:	15716e        	l32r	a5, 8e3aac <bStandardCommand+0x820>
  9074f5:	1b728a        	l32r	a11, 8e3f20 <mUsbEPinHighBandSet+0x210>
  9074f8:	255212        	l32i	a5, a5, 72
  9074fb:	1a728b        	l32r	a10, 8e3f28 <mUsbEPinHighBandSet+0x218>
  9074fe:	0b5000        	callx8	a5
		goto done;
  907501:	600057        	j	90755c <ath_enable_aggr_tgt+0x9c>
  907504:	0cc811        	slli	a8, a12, 4
		tid->flag |= TID_AGGR_ENABLED;
  907507:	0c880c        	sub	a8, a8, a12
  90750a:	0e8811        	slli	a8, a8, 2
	if (aggr->aggr_enable) {
  90750d:	255002        	l8ui	a5, a5, 2
		tid->flag |= TID_AGGR_ENABLED;
  907510:	ab88      	add.n	a8, a8, a11
  907512:	a828      	add.n	a8, a2, a8
	if (aggr->aggr_enable) {
  907514:	c951      	beqz.n	a5, 907529 <ath_enable_aggr_tgt+0x69>
		tid->flag |= TID_AGGR_ENABLED;
  907516:	255a92        	movi	a5, 0x592
  907519:	a588      	add.n	a8, a8, a5
  90751b:	298000        	l8ui	a9, a8, 0
  90751e:	c052      	movi.n	a5, 2
  907520:	059902        	or	a9, a9, a5
  907523:	298400        	s8i	a9, a8, 0
  907526:	600032        	j	90755c <ath_enable_aggr_tgt+0x9c>
	} else if ( tid->flag & TID_AGGR_ENABLED ) {
  907529:	255a92        	movi	a5, 0x592
  90752c:	a588      	add.n	a8, a8, a5
  90752e:	298000        	l8ui	a9, a8, 0
  907531:	7e9727        	bbci	a9, 30, 90755c <ath_enable_aggr_tgt+0x9c>
		tid->flag &= ~TID_AGGR_ENABLED;
  907534:	c75d      	movi.n	a5, -3
  907536:	059901        	and	a9, a9, a5
  907539:	298400        	s8i	a9, a8, 0
	tid = ATH_AN_2_TID(an, tidno);
  90753c:	0cc911        	slli	a9, a12, 4
  90753f:	0c9c0c        	sub	a12, a9, a12
  907542:	0ecc11        	slli	a12, a12, 2
  907545:	abcc      	add.n	a12, a12, a11
  907547:	255a5c        	movi	a5, 0x55c
	an = &sc->sc_sta[nodeindex];
  90754a:	285a38        	movi	a8, 0x538
	tid = ATH_AN_2_TID(an, tidno);
  90754d:	a5cc      	add.n	a12, a12, a5
	an = &sc->sc_sta[nodeindex];
  90754f:	a8bb      	add.n	a11, a11, a8
		ath_tgt_tx_cleanup(sc, an, tid, 1);
  907551:	c0d1      	movi.n	a13, 1
  907553:	ac2c      	add.n	a12, a2, a12
  907555:	ab2b      	add.n	a11, a2, a11
  907557:	da20      	mov.n	a10, a2
  907559:	580e09        	call8	90ad80 <ath_tgt_tx_cleanup>
	wmi_cmd_rsp(sc->tgt_wmi_handle, Command, SeqNo, NULL, 0);
  90755c:	c0e0      	movi.n	a14, 0
  90755e:	8a23      	l32i.n	a10, a2, 12
  907560:	dde0      	mov.n	a13, a14
  907562:	dc40      	mov.n	a12, a4
  907564:	db30      	mov.n	a11, a3
  907566:	5bff3f        	call8	907264 <wmi_cmd_rsp>
  907569:	d10f      	retw.n
	...

0090756c <ath_ic_update_tgt>:
{
  90756c:	6c1004        	entry	a1, 32
  90756f:	1a728c        	l32r	a10, 8e3fa0 <mUsbEPinHighBandSet+0x290>
  907572:	db50      	mov.n	a11, a5
  907574:	0a2a08        	add	a10, a2, a10
  907577:	c0c8      	movi.n	a12, 8
  907579:	5bfba9        	call8	906420 <__adf_os_mem_copy>
	ictgt->ic_ampdu_limit         = adf_os_ntohl(ic->ic_ampdu_limit);
  90757c:	8850      	l32i.n	a8, a5, 0
{
  90757e:	03034f        	extui	a3, a3, 0, 16
  907581:	04044f        	extui	a4, a4, 0, 16
	ictgt->ic_ampdu_limit         = adf_os_ntohl(ic->ic_ampdu_limit);
  907584:	252d16        	addmi	a5, a2, 0x1600
	wmi_cmd_rsp(sc->tgt_wmi_handle, Command, SeqNo, NULL, 0);
  907587:	c0e0      	movi.n	a14, 0
  907589:	8a23      	l32i.n	a10, a2, 12
	ictgt->ic_ampdu_limit         = adf_os_ntohl(ic->ic_ampdu_limit);
  90758b:	9858      	s32i.n	a8, a5, 32
	wmi_cmd_rsp(sc->tgt_wmi_handle, Command, SeqNo, NULL, 0);
  90758d:	dde0      	mov.n	a13, a14
  90758f:	dc40      	mov.n	a12, a4
  907591:	db30      	mov.n	a11, a3
  907593:	5bff34        	call8	907264 <wmi_cmd_rsp>
  907596:	d10f      	retw.n

00907598 <handle_rc_rate_update_cmd>:
{
  907598:	6c1004        	entry	a1, 32
	ath_rate_node_update(sc, &sc->sc_sta[wmi_data->node_index],
  90759b:	295000        	l8ui	a9, a5, 0
	a_uint32_t capflag = adf_os_ntohl(wmi_data->capflag);
  90759e:	285004        	l8ui	a8, a5, 4
  9075a1:	2d5005        	l8ui	a13, a5, 5
  9075a4:	088810        	slli	a8, a8, 24
	ath_rate_node_update(sc, &sc->sc_sta[wmi_data->node_index],
  9075a7:	0a9b11        	slli	a11, a9, 6
	a_uint32_t capflag = adf_os_ntohl(wmi_data->capflag);
  9075aa:	00dd11        	slli	a13, a13, 16
  9075ad:	08dd02        	or	a13, a13, a8
	ath_rate_node_update(sc, &sc->sc_sta[wmi_data->node_index],
  9075b0:	a9bb      	add.n	a11, a11, a9
	a_uint32_t capflag = adf_os_ntohl(wmi_data->capflag);
  9075b2:	285006        	l8ui	a8, a5, 6
	ath_rate_node_update(sc, &sc->sc_sta[wmi_data->node_index],
  9075b5:	0fbb11        	slli	a11, a11, 1
  9075b8:	a9bb      	add.n	a11, a11, a9
	a_uint32_t capflag = adf_os_ntohl(wmi_data->capflag);
  9075ba:	088811        	slli	a8, a8, 8
  9075bd:	0d8802        	or	a8, a8, a13
	ath_rate_node_update(sc, &sc->sc_sta[wmi_data->node_index],
  9075c0:	295a38        	movi	a9, 0x538
	a_uint32_t capflag = adf_os_ntohl(wmi_data->capflag);
  9075c3:	2d5007        	l8ui	a13, a5, 7
	ath_rate_node_update(sc, &sc->sc_sta[wmi_data->node_index],
  9075c6:	0ebb11        	slli	a11, a11, 2
  9075c9:	a9bb      	add.n	a11, a11, a9
  9075cb:	2c5001        	l8ui	a12, a5, 1
  9075ce:	b85e      	addi.n	a14, a5, 8
  9075d0:	08dd02        	or	a13, a13, a8
  9075d3:	0b2b08        	add	a11, a2, a11
  9075d6:	022a02        	or	a10, a2, a2
  9075d9:	58062c        	call8	908e8c <ath_rate_node_update>
{
  9075dc:	03034f        	extui	a3, a3, 0, 16
  9075df:	04044f        	extui	a4, a4, 0, 16
	wmi_cmd_rsp(sc->tgt_wmi_handle, Command, SeqNo, NULL, 0);
  9075e2:	c0e0      	movi.n	a14, 0
  9075e4:	8a23      	l32i.n	a10, a2, 12
  9075e6:	dde0      	mov.n	a13, a14
  9075e8:	dc40      	mov.n	a12, a4
  9075ea:	033b02        	or	a11, a3, a3
  9075ed:	5bff1d        	call8	907264 <wmi_cmd_rsp>
  9075f0:	d10f      	retw.n
	...

009075f4 <handle_rc_state_change_cmd>:
{
  9075f4:	6c1004        	entry	a1, 32
	a_uint32_t capflag = adf_os_ntohl(wmi_data->capflag);
  9075f7:	285004        	l8ui	a8, a5, 4
  9075fa:	2d5005        	l8ui	a13, a5, 5
	ath_rate_newstate(sc, &sc->sc_vap[wmi_data->vap_index].av_vap,
  9075fd:	295000        	l8ui	a9, a5, 0
	a_uint32_t capflag = adf_os_ntohl(wmi_data->capflag);
  907600:	088810        	slli	a8, a8, 24
  907603:	00dd11        	slli	a13, a13, 16
  907606:	08dd02        	or	a13, a13, a8
  907609:	285006        	l8ui	a8, a5, 6
	ath_rate_newstate(sc, &sc->sc_vap[wmi_data->vap_index].av_vap,
  90760c:	0c9b11        	slli	a11, a9, 4
  90760f:	a9bb      	add.n	a11, a11, a9
	a_uint32_t capflag = adf_os_ntohl(wmi_data->capflag);
  907611:	088811        	slli	a8, a8, 8
	ath_rate_newstate(sc, &sc->sc_vap[wmi_data->vap_index].av_vap,
  907614:	197289        	l32r	a9, 8e4038 <mUsbEPinHighBandSet+0x328>
	a_uint32_t capflag = adf_os_ntohl(wmi_data->capflag);
  907617:	0d8802        	or	a8, a8, a13
	ath_rate_newstate(sc, &sc->sc_vap[wmi_data->vap_index].av_vap,
  90761a:	0ebb11        	slli	a11, a11, 2
	a_uint32_t capflag = adf_os_ntohl(wmi_data->capflag);
  90761d:	2d5007        	l8ui	a13, a5, 7
	ath_rate_newstate(sc, &sc->sc_vap[wmi_data->vap_index].av_vap,
  907620:	a9bb      	add.n	a11, a11, a9
  907622:	2c5001        	l8ui	a12, a5, 1
  907625:	b85e      	addi.n	a14, a5, 8
  907627:	08dd02        	or	a13, a13, a8
  90762a:	ab2b      	add.n	a11, a2, a11
  90762c:	da20      	mov.n	a10, a2
  90762e:	58061c        	call8	908ea0 <ath_rate_newstate>
{
  907631:	03034f        	extui	a3, a3, 0, 16
  907634:	04044f        	extui	a4, a4, 0, 16
	wmi_cmd_rsp(sc->tgt_wmi_handle, Command, SeqNo, NULL, 0);
  907637:	c0e0      	movi.n	a14, 0
  907639:	8a23      	l32i.n	a10, a2, 12
  90763b:	dde0      	mov.n	a13, a14
  90763d:	dc40      	mov.n	a12, a4
  90763f:	db30      	mov.n	a11, a3
  907641:	5bff08        	call8	907264 <wmi_cmd_rsp>
  907644:	d10f      	retw.n
	...

00907648 <ath_hal_reg_write_tgt>:
{
  907648:	6c1004        	entry	a1, 32
  90764b:	03034f        	extui	a3, a3, 0, 16
  90764e:	04044f        	extui	a4, a4, 0, 16
	for (i = 0; i < datalen; i += sizeof(struct registerWrite)) {
  907651:	d750      	mov.n	a7, a5
  907653:	600009        	j	907660 <ath_hal_reg_write_tgt+0x18>
		ath_hal_reg_write_filter(ah, t->reg, t->val);
  907656:	8b71      	l32i.n	a11, a7, 4
  907658:	8a70      	l32i.n	a10, a7, 0
  90765a:	277c08        	addi	a7, a7, 8
  90765d:	5bfc29        	call8	906704 <ath_hal_reg_write_filter$isra$13>
	for (i = 0; i < datalen; i += sizeof(struct registerWrite)) {
  907660:	05780c        	sub	a8, a7, a5
  907663:	7682ef        	blt	a8, a6, 907656 <ath_hal_reg_write_tgt+0xe>
	wmi_cmd_rsp(sc->tgt_wmi_handle, Command, SeqNo, NULL, 0);
  907666:	c0e0      	movi.n	a14, 0
  907668:	8a23      	l32i.n	a10, a2, 12
  90766a:	dde0      	mov.n	a13, a14
  90766c:	dc40      	mov.n	a12, a4
  90766e:	033b02        	or	a11, a3, a3
  907671:	5bfefc        	call8	907264 <wmi_cmd_rsp>
  907674:	d10f      	retw.n
	...

00907678 <ath_hal_reg_read_tgt>:
{
  907678:	6c1016        	entry	a1, 176
	struct ath_hal *ah = sc->sc_ah;
  90767b:	272d05        	addmi	a7, a2, 0x500
  90767e:	897b      	l32i.n	a9, a7, 44
{
  907680:	03034f        	extui	a3, a3, 0, 16
  907683:	04044f        	extui	a4, a4, 0, 16
	for (i = 0; i < datalen; i += sizeof(a_int32_t)) {
  907686:	c070      	movi.n	a7, 0
  907688:	60001c        	j	9076a8 <ath_hal_reg_read_tgt+0x30>
  90768b:	0000a7        	excw
		addr = *(a_uint32_t *)(data + i);
  90768e:	588b80        	call8	92a490 <_etext+0x1f451>
			adf_os_ntohl(ath_reg_read_filter(ah, addr));
  907691:	da90      	mov.n	a10, a9
  907693:	291620        	s32i	a9, a1, 128
  907696:	5bfc3f        	call8	906794 <ath_reg_read_filter>
		val[i/sizeof(a_int32_t)] =
  907699:	072814        	srli	a8, a7, 2
  90769c:	0e8811        	slli	a8, a8, 2
  90769f:	a818      	add.n	a8, a1, a8
	for (i = 0; i < datalen; i += sizeof(a_int32_t)) {
  9076a1:	291220        	l32i	a9, a1, 128
		val[i/sizeof(a_int32_t)] =
  9076a4:	9a80      	s32i.n	a10, a8, 0
	for (i = 0; i < datalen; i += sizeof(a_int32_t)) {
  9076a6:	b477      	addi.n	a7, a7, 4
  9076a8:	7672e1        	blt	a7, a6, 90768d <ath_hal_reg_read_tgt+0x15>
	wmi_cmd_rsp(sc->tgt_wmi_handle, Command, SeqNo, &val[0], datalen);
  9076ab:	8a23      	l32i.n	a10, a2, 12
  9076ad:	de60      	mov.n	a14, a6
  9076af:	dd10      	mov.n	a13, a1
  9076b1:	dc40      	mov.n	a12, a4
  9076b3:	db30      	mov.n	a11, a3
  9076b5:	5bfeeb        	call8	907264 <wmi_cmd_rsp>
  9076b8:	d10f      	retw.n
	...

009076bc <ath_vap_create_tgt>:
{
  9076bc:	6c1004        	entry	a1, 32
	vap_index = vap->iv_vapindex;
  9076bf:	285000        	l8ui	a8, a5, 0
	adf_os_assert(sc->sc_vap[vap_index].av_valid == 0);
  9076c2:	17728d        	l32r	a7, 8e40f8 <vbuf_module_install+0x6c>
  9076c5:	0c8611        	slli	a6, a8, 4
  9076c8:	a866      	add.n	a6, a6, a8
  9076ca:	0e6611        	slli	a6, a6, 2
  9076cd:	a626      	add.n	a6, a2, a6
  9076cf:	a767      	add.n	a7, a6, a7
{
  9076d1:	db50      	mov.n	a11, a5
	adf_os_assert(sc->sc_vap[vap_index].av_valid == 0);
  9076d3:	257000        	l8ui	a5, a7, 0
{
  9076d6:	03034f        	extui	a3, a3, 0, 16
	adf_os_assert(sc->sc_vap[vap_index].av_valid == 0);
  9076d9:	005532        	sext	a5, a5, 7
{
  9076dc:	04044f        	extui	a4, a4, 0, 16
	adf_os_assert(sc->sc_vap[vap_index].av_valid == 0);
  9076df:	c851      	beqz.n	a5, 9076e4 <ath_vap_create_tgt+0x28>
  9076e1:	63fffc        	j	9076e1 <ath_vap_create_tgt+0x25>
	adf_os_mem_copy(&(sc->sc_vap[vap_index].av_vap), vap,
  9076e4:	0c8a11        	slli	a10, a8, 4
  9076e7:	a8aa      	add.n	a10, a10, a8
  9076e9:	187289        	l32r	a8, 8e4110 <vbuf_module_install+0x84>
  9076ec:	0eaa11        	slli	a10, a10, 2
  9076ef:	a8aa      	add.n	a10, a10, a8
  9076f1:	aa2a      	add.n	a10, a2, a10
  9076f3:	c0cc      	movi.n	a12, 12
  9076f5:	5bfb4a        	call8	906420 <__adf_os_mem_copy>
	sc->sc_vap[vap_index].av_bcbuf = asf_tailq_first(&(sc->sc_bbuf));
  9076f8:	18728e        	l32r	a8, 8e4130 <vbuf_module_install+0xa4>
	wmi_cmd_rsp(sc->tgt_wmi_handle, Command, SeqNo, NULL, 0);
  9076fb:	de50      	mov.n	a14, a5
	sc->sc_vap[vap_index].av_bcbuf = asf_tailq_first(&(sc->sc_bbuf));
  9076fd:	a866      	add.n	a6, a6, a8
  9076ff:	282d16        	addmi	a8, a2, 0x1600
  907702:	888a      	l32i.n	a8, a8, 40
	wmi_cmd_rsp(sc->tgt_wmi_handle, Command, SeqNo, NULL, 0);
  907704:	dd50      	mov.n	a13, a5
	sc->sc_vap[vap_index].av_bcbuf = asf_tailq_first(&(sc->sc_bbuf));
  907706:	9860      	s32i.n	a8, a6, 0
	sc->sc_vap[vap_index].av_valid = 1;
  907708:	c061      	movi.n	a6, 1
  90770a:	267400        	s8i	a6, a7, 0
	wmi_cmd_rsp(sc->tgt_wmi_handle, Command, SeqNo, NULL, 0);
  90770d:	8a23      	l32i.n	a10, a2, 12
  90770f:	dc40      	mov.n	a12, a4
  907711:	db30      	mov.n	a11, a3
  907713:	5bfed4        	call8	907264 <wmi_cmd_rsp>
  907716:	d10f      	retw.n

00907718 <ath_vap_delete_tgt>:
{
  907718:	6c1004        	entry	a1, 32
	vap_index = *(a_uint8_t *)data;
  90771b:	2d5000        	l8ui	a13, a5, 0
	sc->sc_vap[vap_index].av_valid = 0;
  90771e:	19728d        	l32r	a9, 8e4154 <vdesc_module_install+0x18>
  907721:	0cd811        	slli	a8, a13, 4
  907724:	ad88      	add.n	a8, a8, a13
  907726:	0e8811        	slli	a8, a8, 2
  907729:	a828      	add.n	a8, a2, a8
  90772b:	a989      	add.n	a9, a8, a9
{
  90772d:	030b4f        	extui	a11, a3, 0, 16
	sc->sc_vap[vap_index].av_valid = 0;
  907730:	c030      	movi.n	a3, 0
  907732:	239400        	s8i	a3, a9, 0
	sc->sc_vap[vap_index].av_bcbuf = NULL;
  907735:	13728e        	l32r	a3, 8e4170 <vdesc_module_install+0x34>
  907738:	c090      	movi.n	a9, 0
  90773a:	a388      	add.n	a8, a8, a3
  90773c:	9980      	s32i.n	a9, a8, 0
  90773e:	285a45        	movi	a8, 0x545
{
  907741:	040c4f        	extui	a12, a4, 0, 16
  907744:	a828      	add.n	a8, a2, a8
			sc->sc_sta[i].an_valid = 0;
  907746:	2f1af7        	movi	a15, 0x1f7
  907749:	2e2a0c        	movi	a14, 0x20c
  90774c:	c0a8      	movi.n	a10, 8
  90774e:	6da80c        	loop	a10, 90775e <ath_vap_delete_tgt+0x46>
		if(sc->sc_sta[i].ni.ni_vapindex == vap_index)
  907751:	238000        	l8ui	a3, a8, 0
  907754:	7d3904        	bne	a3, a13, 90775c <ath_vap_delete_tgt+0x44>
			sc->sc_sta[i].an_valid = 0;
  907757:	af83      	add.n	a3, a8, a15
  907759:	293400        	s8i	a9, a3, 0
  90775c:	ae88      	add.n	a8, a8, a14
	wmi_cmd_rsp(sc->tgt_wmi_handle, Command, SeqNo, NULL, 0);
  90775e:	c0e0      	movi.n	a14, 0
  907760:	8a23      	l32i.n	a10, a2, 12
  907762:	0eed02        	or	a13, a14, a14
  907765:	5bfebf        	call8	907264 <wmi_cmd_rsp>
  907768:	d10f      	retw.n
	...

0090776c <ath_node_cleanup_tgt>:
{
  90776c:	6c1004        	entry	a1, 32
	sc->sc_sta[node_index].an_valid = 0;
  90776f:	295000        	l8ui	a9, a5, 0
	wmi_cmd_rsp(sc->tgt_wmi_handle, Command, SeqNo, NULL, 0);
  907772:	c0e0      	movi.n	a14, 0
	sc->sc_sta[node_index].an_valid = 0;
  907774:	0a9811        	slli	a8, a9, 6
  907777:	a988      	add.n	a8, a8, a9
  907779:	0f8811        	slli	a8, a8, 1
  90777c:	a988      	add.n	a8, a8, a9
  90777e:	0e8811        	slli	a8, a8, 2
  907781:	a828      	add.n	a8, a2, a8
  907783:	297a3c        	movi	a9, 0x73c
  907786:	a988      	add.n	a8, a8, a9
  907788:	c090      	movi.n	a9, 0
  90778a:	298400        	s8i	a9, a8, 0
	wmi_cmd_rsp(sc->tgt_wmi_handle, Command, SeqNo, NULL, 0);
  90778d:	8a23      	l32i.n	a10, a2, 12
  90778f:	dde0      	mov.n	a13, a14
  907791:	040c4f        	extui	a12, a4, 0, 16
  907794:	030b4f        	extui	a11, a3, 0, 16
  907797:	5bfeb3        	call8	907264 <wmi_cmd_rsp>
  90779a:	d10f      	retw.n

0090779c <ath_node_create_tgt>:
{
  90779c:	6c1006        	entry	a1, 48
  90779f:	db50      	mov.n	a11, a5
	node_index = node->ni_nodeindex;
  9077a1:	25500c        	l8ui	a5, a5, 12
	adf_os_mem_copy(&(sc->sc_sta[node_index].ni), node,
  9077a4:	275a38        	movi	a7, 0x538
  9077a7:	0a5611        	slli	a6, a5, 6
  9077aa:	a569      	add.n	a9, a6, a5
  9077ac:	0f9911        	slli	a9, a9, 1
  9077af:	a599      	add.n	a9, a9, a5
  9077b1:	0e9911        	slli	a9, a9, 2
  9077b4:	a797      	add.n	a7, a9, a7
  9077b6:	a727      	add.n	a7, a2, a7
  9077b8:	c1c6      	movi.n	a12, 22
  9077ba:	da70      	mov.n	a10, a7
  9077bc:	9910      	s32i.n	a9, a1, 0
  9077be:	5bfb18        	call8	906420 <__adf_os_mem_copy>
    	vap_index = sc->sc_sta[node_index].ni.ni_vapindex;
  9077c1:	8910      	l32i.n	a9, a1, 0
  9077c3:	285a45        	movi	a8, 0x545
  9077c6:	a929      	add.n	a9, a2, a9
  9077c8:	a898      	add.n	a8, a9, a8
  9077ca:	2a8000        	l8ui	a10, a8, 0
	sc->sc_sta[node_index].ni.ni_vap = &(sc->sc_vap[vap_index].av_vap);
  9077cd:	1c7289        	l32r	a12, 8e41f4 <vdesc_module_install+0xb8>
  9077d0:	0ca811        	slli	a8, a10, 4
  9077d3:	aa88      	add.n	a8, a8, a10
  9077d5:	0e8811        	slli	a8, a8, 2
  9077d8:	2b5a58        	movi	a11, 0x558
  9077db:	ac88      	add.n	a8, a8, a12
  9077dd:	ab9b      	add.n	a11, a9, a11
  9077df:	a828      	add.n	a8, a2, a8
  9077e1:	98b0      	s32i.n	a8, a11, 0
	if(sc->sc_sta[node_index].ni.ni_is_vapnode == 1)
  9077e3:	285a46        	movi	a8, 0x546
  9077e6:	a899      	add.n	a9, a9, a8
  9077e8:	289000        	l8ui	a8, a9, 0
{
  9077eb:	03034f        	extui	a3, a3, 0, 16
  9077ee:	04044f        	extui	a4, a4, 0, 16
	if(sc->sc_sta[node_index].ni.ni_is_vapnode == 1)
  9077f1:	698111        	bnei	a8, 1, 907806 <ath_node_create_tgt+0x6a>
		sc->sc_vap[vap_index].av_vap.iv_nodeindex = node_index;
  9077f4:	0ca911        	slli	a9, a10, 4
  9077f7:	aa99      	add.n	a9, a9, a10
  9077f9:	0e9911        	slli	a9, a9, 2
  9077fc:	18728f        	l32r	a8, 8e4238 <vdesc_module_install+0xfc>
  9077ff:	a929      	add.n	a9, a2, a9
  907801:	a899      	add.n	a9, a9, a8
  907803:	259400        	s8i	a5, a9, 0
	sc->sc_sta[node_index].an_valid = 1;
  907806:	a568      	add.n	a8, a6, a5
  907808:	0f8811        	slli	a8, a8, 1
  90780b:	a588      	add.n	a8, a8, a5
  90780d:	0e8811        	slli	a8, a8, 2
  907810:	a828      	add.n	a8, a2, a8
  907812:	257a3c        	movi	a5, 0x73c
  907815:	a585      	add.n	a5, a8, a5
  907817:	c061      	movi.n	a6, 1
  907819:	265400        	s8i	a6, a5, 0
	sc->sc_sta[node_index].ni.ni_txseqmgmt = 0;
  90781c:	255a50        	movi	a5, 0x550
  90781f:	a585      	add.n	a5, a8, a5
  907821:	c060      	movi.n	a6, 0
  907823:	265500        	s16i	a6, a5, 0
	sc->sc_sta[node_index].ni.ni_iv16 = 0;
  907826:	255a52        	movi	a5, 0x552
  907829:	a585      	add.n	a5, a8, a5
  90782b:	265500        	s16i	a6, a5, 0
	sc->sc_sta[node_index].ni.ni_iv32 = 0;
  90782e:	255a54        	movi	a5, 0x554
  907831:	a588      	add.n	a8, a8, a5
  907833:	c050      	movi.n	a5, 0
	owl_tgt_node_init(&sc->sc_sta[node_index]);
  907835:	da70      	mov.n	a10, a7
	sc->sc_sta[node_index].ni.ni_iv32 = 0;
  907837:	9580      	s32i.n	a5, a8, 0
	owl_tgt_node_init(&sc->sc_sta[node_index]);
  907839:	5807d2        	call8	909784 <owl_tgt_node_init>
	wmi_cmd_rsp(sc->tgt_wmi_handle, Command, SeqNo, NULL, 0);
  90783c:	8a23      	l32i.n	a10, a2, 12
  90783e:	de50      	mov.n	a14, a5
  907840:	dd50      	mov.n	a13, a5
  907842:	dc40      	mov.n	a12, a4
  907844:	db30      	mov.n	a11, a3
  907846:	5bfe87        	call8	907264 <wmi_cmd_rsp>
  907849:	d10f      	retw.n
	...

0090784c <ath_setcurmode_tgt>:
{
  90784c:	6c1004        	entry	a1, 32
	adf_os_mem_set(sc->sc_rixmap, 0xff, sizeof(sc->sc_rixmap));
  90784f:	262a08        	movi	a6, 0x208
	ath_setcurmode(sc, mode);
  907852:	255100        	l16ui	a5, a5, 0
    __adf_os_mem_set(buf, b, size);
  907855:	2c1a00        	movi	a12, 0x100
  907858:	2b0aff        	movi	a11, 255
  90785b:	a62a      	add.n	a10, a2, a6
  90785d:	5bfaf5        	call8	906434 <__adf_os_mem_set>
	rt = sc->sc_rates[mode];
  907860:	285c7c        	addi	a8, a5, 124
  907863:	0e8811        	slli	a8, a8, 2
  907866:	a828      	add.n	a8, a2, a8
  907868:	8983      	l32i.n	a9, a8, 12
{
  90786a:	03034f        	extui	a3, a3, 0, 16
  90786d:	04044f        	extui	a4, a4, 0, 16
	adf_os_assert(rt != NULL);
  907870:	c898      	beqz.n	a9, 90787c <ath_setcurmode_tgt+0x30>
	for (i = 0; i < rt->rateCount; i++) {
  907872:	8c90      	l32i.n	a12, a9, 0
  907874:	2b9c30        	addi	a11, a9, 48
  907877:	c0a0      	movi.n	a10, 0
  907879:	600012        	j	90788f <ath_setcurmode_tgt+0x43>
  90787c:	63fffc        	j	90787c <ath_setcurmode_tgt+0x30>
  90787f:	0028b0        	excw
		sc->sc_rixmap[rt->info[i].rateCode] = i;
  907882:	002bbc        	excw
  907885:	10a828        	l32r	a0, 8f1928 <memset+0xc78c>
  907888:	a688      	add.n	a8, a8, a6
  90788a:	2a8400        	s8i	a10, a8, 0
	for (i = 0; i < rt->rateCount; i++) {
  90788d:	b1aa      	addi.n	a10, a10, 1
  90788f:	7ca2ed        	blt	a10, a12, 907880 <ath_setcurmode_tgt+0x34>
	sc->sc_curmode = mode;
  907892:	2526c2        	s32i	a5, a2, 0x308
	sc->sc_protrix = ((mode == IEEE80211_MODE_11NG) ? 3 : 0);
  907895:	c0d0      	movi.n	a13, 0
  907897:	b055      	addi.n	a5, a5, -1
  907899:	c063      	movi.n	a6, 3
  90789b:	05d639        	movnez	a6, a13, a5
  90789e:	d560      	mov.n	a5, a6
	sc->sc_currates = rt;
  9078a0:	292681        	s32i	a9, a2, 0x204
	sc->sc_protrix = ((mode == IEEE80211_MODE_11NG) ? 3 : 0);
  9078a3:	262d03        	addmi	a6, a2, 0x300
  9078a6:	25640c        	s8i	a5, a6, 12
	wmi_cmd_rsp(sc->tgt_wmi_handle, Command, SeqNo, NULL, 0);
  9078a9:	8a23      	l32i.n	a10, a2, 12
  9078ab:	ded0      	mov.n	a14, a13
  9078ad:	dc40      	mov.n	a12, a4
  9078af:	db30      	mov.n	a11, a3
  9078b1:	5bfe6c        	call8	907264 <wmi_cmd_rsp>
  9078b4:	d10f      	retw.n
	...

009078b8 <ath_flushrecv_tgt>:
{
  9078b8:	6c1004        	entry	a1, 32
  9078bb:	03034f        	extui	a3, a3, 0, 16
  9078be:	04044f        	extui	a4, a4, 0, 16
	asf_tailq_foreach(bf, &sc->sc_rxbuf, bf_list)
  9078c1:	2522d5        	l32i	a5, a2, 0x354
  9078c4:	60002e        	j	9078f6 <ath_flushrecv_tgt+0x3e>
  9078c7:	000000        	ill
		if (bf->bf_skb != NULL) {
  9078ca:	8658      	l32i.n	a6, a5, 32
  9078cc:	ca64      	beqz.n	a6, 9078f4 <ath_flushrecv_tgt+0x3c>
    __adf_nbuf_unmap(osdev, bmap, dir);
  9078ce:	8b50      	l32i.n	a11, a5, 0
  9078d0:	2a2246        	l32i	a10, a2, 0x118
  9078d3:	c0c1      	movi.n	a12, 1
  9078d5:	5bef00        	call8	9034d8 <__adf_nbuf_unmap>
			ath_free_rx_skb(sc, adf_nbuf_queue_remove(&bf->bf_skbhead));
  9078d8:	18716e        	l32r	a8, 8e3e90 <mUsbEPinHighBandSet+0x180>
  9078db:	8720      	l32i.n	a7, a2, 0
    return __adf_nbuf_queue_remove(head);
  9078dd:	2a5c14        	addi	a10, a5, 20
  9078e0:	2682a3        	l32i	a6, a8, 0x28c
  9078e3:	5beee9        	call8	903488 <__adf_nbuf_queue_remove>
  9078e6:	dca0      	mov.n	a12, a10
  9078e8:	2b0a03        	movi	a11, 3
  9078eb:	da70      	mov.n	a10, a7
  9078ed:	0b6000        	callx8	a6
			bf->bf_skb = NULL;
  9078f0:	c080      	movi.n	a8, 0
  9078f2:	9858      	s32i.n	a8, a5, 32
	asf_tailq_foreach(bf, &sc->sc_rxbuf, bf_list)
  9078f4:	8559      	l32i.n	a5, a5, 36
  9078f6:	655fd0        	bnez	a5, 9078ca <ath_flushrecv_tgt+0x12>
	wmi_cmd_rsp(sc->tgt_wmi_handle, Command, SeqNo, NULL, 0);
  9078f9:	8a23      	l32i.n	a10, a2, 12
  9078fb:	de50      	mov.n	a14, a5
  9078fd:	dd50      	mov.n	a13, a5
  9078ff:	dc40      	mov.n	a12, a4
  907901:	db30      	mov.n	a11, a3
  907903:	5bfe58        	call8	907264 <wmi_cmd_rsp>
  907906:	d10f      	retw.n

00907908 <ath_stoprecv_tgt>:
{
  907908:	6c1004        	entry	a1, 32
	struct ath_hal *ah = sc->sc_ah;
  90790b:	252d05        	addmi	a5, a2, 0x500
  90790e:	855b      	l32i.n	a5, a5, 44
{
  907910:	03034f        	extui	a3, a3, 0, 16
	ah->ah_stopPcuReceive(ah);
  907913:	285224        	l32i	a8, a5, 144
  907916:	055a02        	or	a10, a5, a5
  907919:	0b8000        	callx8	a8
	ah->ah_setRxFilter(ah, 0);
  90791c:	8859      	l32i.n	a8, a5, 36
  90791e:	c0b0      	movi.n	a11, 0
  907920:	da50      	mov.n	a10, a5
  907922:	0b8000        	callx8	a8
	ah->ah_stopDmaReceive(ah);
  907925:	285223        	l32i	a8, a5, 140
  907928:	da50      	mov.n	a10, a5
  90792a:	0b8000        	callx8	a8
	sc->sc_rxlink = NULL;
  90792d:	c0d0      	movi.n	a13, 0
{
  90792f:	04044f        	extui	a4, a4, 0, 16
	wmi_cmd_rsp(sc->tgt_wmi_handle, Command, SeqNo, NULL, 0);
  907932:	8a23      	l32i.n	a10, a2, 12
	sc->sc_rxlink = NULL;
  907934:	2d26ef        	s32i	a13, a2, 0x3bc
	wmi_cmd_rsp(sc->tgt_wmi_handle, Command, SeqNo, NULL, 0);
  907937:	ded0      	mov.n	a14, a13
  907939:	dc40      	mov.n	a12, a4
  90793b:	db30      	mov.n	a11, a3
  90793d:	5bfe49        	call8	907264 <wmi_cmd_rsp>
  907940:	d10f      	retw.n
	...

00907944 <ath_startrecv_tgt>:
{
  907944:	6c1004        	entry	a1, 32
	struct ath_hal *ah = sc->sc_ah;
  907947:	252d05        	addmi	a5, a2, 0x500
  90794a:	865b      	l32i.n	a6, a5, 44
	sc->sc_rxbufsize = 1024+512+128;
  90794c:	256a80        	movi	a5, 0x680
  90794f:	25264a        	s32i	a5, a2, 0x128
	sc->sc_rxlink = NULL;
  907952:	c050      	movi.n	a5, 0
  907954:	2526ef        	s32i	a5, a2, 0x3bc
	sc->sc_rxdesc_held = NULL;
  907957:	2526db        	s32i	a5, a2, 0x36c
{
  90795a:	03034f        	extui	a3, a3, 0, 16
  90795d:	04044f        	extui	a4, a4, 0, 16
	asf_tailq_foreach(ds, &sc->sc_rxdesc, ds_list) {
  907960:	2522d9        	l32i	a5, a2, 0x364
  907963:	600027        	j	90798e <ath_startrecv_tgt+0x4a>
		a_int32_t error = ath_rxdesc_init(sc, ds);
  907966:	db50      	mov.n	a11, a5
  907968:	da20      	mov.n	a10, a2
  90796a:	5bfbeb        	call8	906918 <ath_rxdesc_init>
		if (error != 0) {
  90796d:	65a049        	bnez	a10, 9079ba <ath_startrecv_tgt+0x76>
	asf_tailq_foreach(ds, &sc->sc_rxdesc, ds_list) {
  907970:	29504c        	l8ui	a9, a5, 76
  907973:	28504d        	l8ui	a8, a5, 77
  907976:	089910        	slli	a9, a9, 24
  907979:	008811        	slli	a8, a8, 16
  90797c:	098902        	or	a9, a8, a9
  90797f:	28504e        	l8ui	a8, a5, 78
  907982:	25504f        	l8ui	a5, a5, 79
  907985:	088811        	slli	a8, a8, 8
  907988:	098802        	or	a8, a8, a9
  90798b:	085502        	or	a5, a5, a8
  90798e:	655fd4        	bnez	a5, 907966 <ath_startrecv_tgt+0x22>
	ah->ah_setRxDP(ah, ds->ds_daddr);
  907991:	2822d9        	l32i	a8, a2, 0x364
  907994:	da60      	mov.n	a10, a6
  907996:	258048        	l8ui	a5, a8, 72
  907999:	2b8049        	l8ui	a11, a8, 73
  90799c:	085510        	slli	a5, a5, 24
  90799f:	00bb11        	slli	a11, a11, 16
  9079a2:	05bb02        	or	a11, a11, a5
  9079a5:	25804a        	l8ui	a5, a8, 74
  9079a8:	085511        	slli	a5, a5, 8
  9079ab:	0b5502        	or	a5, a5, a11
  9079ae:	2b804b        	l8ui	a11, a8, 75
  9079b1:	28621f        	l32i	a8, a6, 124
  9079b4:	05bb02        	or	a11, a11, a5
  9079b7:	0b8000        	callx8	a8
	wmi_cmd_rsp(sc->tgt_wmi_handle, Command, SeqNo, NULL, 0);
  9079ba:	c0e0      	movi.n	a14, 0
  9079bc:	8a23      	l32i.n	a10, a2, 12
  9079be:	dde0      	mov.n	a13, a14
  9079c0:	dc40      	mov.n	a12, a4
  9079c2:	033b02        	or	a11, a3, a3
  9079c5:	5bfe27        	call8	907264 <wmi_cmd_rsp>
  9079c8:	d10f      	retw.n
	...

009079cc <ath_draintxq_tgt>:
{
  9079cc:	6c1006        	entry	a1, 48
  9079cf:	04044f        	extui	a4, a4, 0, 16
	sc->sc_tx_draining = 1;
  9079d2:	252d01        	addmi	a5, a2, 0x100
{
  9079d5:	03034f        	extui	a3, a3, 0, 16
  9079d8:	9411      	s32i.n	a4, a1, 4
	ath_tx_status_clear(sc);
  9079da:	022a02        	or	a10, a2, a2
	struct ath_hal *ah = sc->sc_ah;
  9079dd:	242d05        	addmi	a4, a2, 0x500
  9079e0:	27420b        	l32i	a7, a4, 44
{
  9079e3:	9310      	s32i.n	a3, a1, 0
	ath_tx_status_clear(sc);
  9079e5:	580778        	call8	9097c8 <ath_tx_status_clear>
	sc->sc_tx_draining = 1;
  9079e8:	265024        	l8ui	a6, a5, 36
  9079eb:	c480      	movi.n	a8, 64
  9079ed:	086602        	or	a6, a6, a8
  9079f0:	265424        	s8i	a6, a5, 36
	ah->ah_stopTxDma(ah, sc->sc_bhalq);
  9079f3:	867d      	l32i.n	a6, a7, 52
  9079f5:	2b501c        	l8ui	a11, a5, 28
  9079f8:	da70      	mov.n	a10, a7
  9079fa:	0b6000        	callx8	a6
  9079fd:	283acc        	movi	a8, 0x3cc
  907a00:	a823      	add.n	a3, a2, a8
  907a02:	d930      	mov.n	a9, a3
  907a04:	c070      	movi.n	a7, 0
		if (ATH_TXQ_SETUP(sc, i))
  907a06:	262d03        	addmi	a6, a2, 0x300
  907a09:	2a60c8        	l8ui	a10, a6, 200
  907a0c:	007004        	ssr	a7
  907a0f:	0a0a1b        	sra	a10, a10
  907a12:	7fa70c        	bbci	a10, 31, 907a22 <ath_draintxq_tgt+0x56>
  907a15:	8a4b      	l32i.n	a10, a4, 44
	ah->ah_stopTxDma(ah, txq->axq_qnum);
  907a17:	8b90      	l32i.n	a11, a9, 0
  907a19:	8dad      	l32i.n	a13, a10, 52
  907a1b:	9912      	s32i.n	a9, a1, 8
  907a1d:	0bd000        	callx8	a13
  907a20:	8912      	l32i.n	a9, a1, 8
  907a22:	b177      	addi.n	a7, a7, 1
  907a24:	299c20        	addi	a9, a9, 32
	for (i = 0; i < HAL_NUM_TX_QUEUES; i++)
  907a27:	6979de        	bnei	a7, 10, 907a09 <ath_draintxq_tgt+0x3d>
  907a2a:	270a00        	movi	a7, 0
				tid->sched = AH_FALSE;
  907a2d:	077402        	or	a4, a7, a7
		if (ATH_TXQ_SETUP(sc, i)) {
  907a30:	2a60c8        	l8ui	a10, a6, 200
  907a33:	007004        	ssr	a7
  907a36:	0a0a1b        	sra	a10, a10
  907a39:	7faf0b        	bbsi	a10, 31, 907a48 <ath_draintxq_tgt+0x7c>
  907a3c:	b177      	addi.n	a7, a7, 1
  907a3e:	233c20        	addi	a3, a3, 32
	for (i = 0; i < HAL_NUM_TX_QUEUES; i++)
  907a41:	6979eb        	bnei	a7, 10, 907a30 <ath_draintxq_tgt+0x64>
  907a44:	60002e        	j	907a76 <ath_draintxq_tgt+0xaa>
  907a47:	00c0c1        	excw
			owltgt_tx_processq(sc, ATH_TXQ(sc,i), OWL_TXQ_STOPPED);
  907a4a:	db30      	mov.n	a11, a3
  907a4c:	da20      	mov.n	a10, a2
  907a4e:	580b55        	call8	90a7a4 <owltgt_tx_processq>
  907a51:	600019        	j	907a6e <ath_draintxq_tgt+0xa2>
				TAILQ_DEQ(&txq->axq_tidq, tid, tid_qelem);
  907a54:	8ab9      	l32i.n	a10, a11, 36
  907a56:	8cba      	l32i.n	a12, a11, 40
  907a58:	c8a4      	beqz.n	a10, 907a60 <ath_draintxq_tgt+0x94>
  907a5a:	9caa      	s32i.n	a12, a10, 40
  907a5c:	600002        	j	907a62 <ath_draintxq_tgt+0x96>
  907a5f:	009c37        	maxu	a12, a9, a0
  907a62:	8cba      	l32i.n	a12, a11, 40
  907a64:	9ac0      	s32i.n	a10, a12, 0
				tid->sched = AH_FALSE;
  907a66:	24b435        	s8i	a4, a11, 53
				ath_tgt_tid_drain(sc,tid);
  907a69:	da20      	mov.n	a10, a2
  907a6b:	58083e        	call8	909b64 <ath_tgt_tid_drain>
			while (!asf_tailq_empty(&txq->axq_tidq)){
  907a6e:	8b36      	l32i.n	a11, a3, 24
  907a70:	65bfe0        	bnez	a11, 907a54 <ath_draintxq_tgt+0x88>
  907a73:	63ffc5        	j	907a3c <ath_draintxq_tgt+0x70>
	sc->sc_tx_draining = 0;
  907a76:	265024        	l8ui	a6, a5, 36
  907a79:	27fabf        	movi	a7, -65
  907a7c:	076601        	and	a6, a6, a7
  907a7f:	265424        	s8i	a6, a5, 36
	wmi_cmd_rsp(sc->tgt_wmi_handle, Command, SeqNo, NULL, 0);
  907a82:	c0e0      	movi.n	a14, 0
  907a84:	8c11      	l32i.n	a12, a1, 4
  907a86:	8b10      	l32i.n	a11, a1, 0
  907a88:	8a23      	l32i.n	a10, a2, 12
  907a8a:	0eed02        	or	a13, a14, a14
  907a8d:	5bfdf5        	call8	907264 <wmi_cmd_rsp>
  907a90:	d10f      	retw.n
	...

00907a94 <ath_tx_draintxq_tgt>:
{
  907a94:	6c1004        	entry	a1, 32
	txq = ATH_TXQ(sc, q);
  907a97:	8b50      	l32i.n	a11, a5, 0
	owltgt_tx_processq(sc, txq, OWL_TXQ_STOPPED);
  907a99:	da20      	mov.n	a10, a2
	txq = ATH_TXQ(sc, q);
  907a9b:	2bbc1e        	addi	a11, a11, 30
  907a9e:	0bbb11        	slli	a11, a11, 5
  907aa1:	bcbb      	addi.n	a11, a11, 12
	owltgt_tx_processq(sc, txq, OWL_TXQ_STOPPED);
  907aa3:	0b2b08        	add	a11, a2, a11
  907aa6:	2c0a01        	movi	a12, 1
  907aa9:	580b3e        	call8	90a7a4 <owltgt_tx_processq>
{
  907aac:	03034f        	extui	a3, a3, 0, 16
  907aaf:	04044f        	extui	a4, a4, 0, 16
	wmi_cmd_rsp(sc->tgt_wmi_handle, Command, SeqNo, NULL, 0);
  907ab2:	c0e0      	movi.n	a14, 0
  907ab4:	8a23      	l32i.n	a10, a2, 12
  907ab6:	dde0      	mov.n	a13, a14
  907ab8:	dc40      	mov.n	a12, a4
  907aba:	033b02        	or	a11, a3, a3
  907abd:	5bfde9        	call8	907264 <wmi_cmd_rsp>
  907ac0:	d10f      	retw.n
	...

00907ac4 <ath_aborttx_dma_tgt>:
{
  907ac4:	6c1004        	entry	a1, 32
	struct ath_hal *ah = sc->sc_ah;
  907ac7:	282d05        	addmi	a8, a2, 0x500
  907aca:	8a8b      	l32i.n	a10, a8, 44
{
  907acc:	03034f        	extui	a3, a3, 0, 16
	ah->ah_abortTxDma(sc->sc_ah);
  907acf:	28a20e        	l32i	a8, a10, 56
{
  907ad2:	04044f        	extui	a4, a4, 0, 16
	ah->ah_abortTxDma(sc->sc_ah);
  907ad5:	0b8000        	callx8	a8
	wmi_cmd_rsp(sc->tgt_wmi_handle, Command, SeqNo, NULL, 0);
  907ad8:	c0e0      	movi.n	a14, 0
  907ada:	8a23      	l32i.n	a10, a2, 12
  907adc:	dde0      	mov.n	a13, a14
  907ade:	dc40      	mov.n	a12, a4
  907ae0:	db30      	mov.n	a11, a3
  907ae2:	5bfde0        	call8	907264 <wmi_cmd_rsp>
  907ae5:	d10f      	retw.n
	...

00907ae8 <ath_stop_tx_dma_tgt>:
{
  907ae8:	6c1004        	entry	a1, 32
	struct ath_hal *ah = sc->sc_ah;
  907aeb:	282d05        	addmi	a8, a2, 0x500
{
  907aee:	03034f        	extui	a3, a3, 0, 16
  907af1:	04044f        	extui	a4, a4, 0, 16
	struct ath_hal *ah = sc->sc_ah;
  907af4:	8a8b      	l32i.n	a10, a8, 44
	if (data)
  907af6:	c850      	beqz.n	a5, 907afa <ath_stop_tx_dma_tgt+0x12>
		q = *(a_uint32_t *)data;
  907af8:	8b50      	l32i.n	a11, a5, 0
	ah->ah_stopTxDma(ah, q);
  907afa:	85ad      	l32i.n	a5, a10, 52
  907afc:	0b5000        	callx8	a5
	wmi_cmd_rsp(sc->tgt_wmi_handle, Command, SeqNo, NULL, 0);
  907aff:	c0e0      	movi.n	a14, 0
  907b01:	8a23      	l32i.n	a10, a2, 12
  907b03:	dde0      	mov.n	a13, a14
  907b05:	dc40      	mov.n	a12, a4
  907b07:	db30      	mov.n	a11, a3
  907b09:	5bfdd6        	call8	907264 <wmi_cmd_rsp>
  907b0c:	d10f      	retw.n
	...

00907b10 <ath_aborttxq_tgt>:
{
  907b10:	6c1004        	entry	a1, 32
  907b13:	253acc        	movi	a5, 0x3cc
  907b16:	03034f        	extui	a3, a3, 0, 16
  907b19:	04044f        	extui	a4, a4, 0, 16
  907b1c:	a525      	add.n	a5, a2, a5
  907b1e:	260a00        	movi	a6, 0
		if (ATH_TXQ_SETUP(sc, i))
  907b21:	272d03        	addmi	a7, a2, 0x300
  907b24:	2870c8        	l8ui	a8, a7, 200
  907b27:	006004        	ssr	a6
  907b2a:	08081b        	sra	a8, a8
  907b2d:	7f8708        	bbci	a8, 31, 907b39 <ath_aborttxq_tgt+0x29>
	owltgt_tx_processq(sc, txq, OWL_TXQ_STOPPED);
  907b30:	c0c1      	movi.n	a12, 1
  907b32:	db50      	mov.n	a11, a5
  907b34:	da20      	mov.n	a10, a2
  907b36:	580b1b        	call8	90a7a4 <owltgt_tx_processq>
  907b39:	b166      	addi.n	a6, a6, 1
  907b3b:	255c20        	addi	a5, a5, 32
	for (i = 0; i < HAL_NUM_TX_QUEUES; i++) {
  907b3e:	6969e2        	bnei	a6, 10, 907b24 <ath_aborttxq_tgt+0x14>
	wmi_cmd_rsp(sc->tgt_wmi_handle, Command, SeqNo, NULL, 0);
  907b41:	c0e0      	movi.n	a14, 0
  907b43:	8a23      	l32i.n	a10, a2, 12
  907b45:	dde0      	mov.n	a13, a14
  907b47:	dc40      	mov.n	a12, a4
  907b49:	db30      	mov.n	a11, a3
  907b4b:	5bfdc6        	call8	907264 <wmi_cmd_rsp>
  907b4e:	d10f      	retw.n

00907b50 <ath_init_tgt>:
{
  907b50:	6c1004        	entry	a1, 32
	struct ath_hal *ah = sc->sc_ah;
  907b53:	252d05        	addmi	a5, a2, 0x500
  907b56:	855b      	l32i.n	a5, a5, 44
	sc->sc_imask |= HAL_INT_GTT;
  907b58:	187290        	l32r	a8, 8e4598 <vdesc_module_install+0x45c>
	if (ath_hal_getcapability(ah, HAL_CAP_HT))
  907b5b:	2b0a05        	movi	a11, 5
	sc->sc_imask |= HAL_INT_GTT;
  907b5e:	2826c4        	s32i	a8, a2, 0x310
	if (ath_hal_getcapability(ah, HAL_CAP_HT))
  907b61:	da50      	mov.n	a10, a5
{
  907b63:	03034f        	extui	a3, a3, 0, 16
  907b66:	04044f        	extui	a4, a4, 0, 16
	if (ath_hal_getcapability(ah, HAL_CAP_HT))
  907b69:	5bf50e        	call8	904fa4 <ath_hal_getcapability>
  907b6c:	c8aa      	beqz.n	a10, 907b7a <ath_init_tgt+0x2a>
		sc->sc_imask |= HAL_INT_CST;
  907b6e:	2822c4        	l32i	a8, a2, 0x310
  907b71:	197252        	l32r	a9, 8e44bc <vdesc_module_install+0x380>
  907b74:	098802        	or	a8, a8, a9
  907b77:	2826c4        	s32i	a8, a2, 0x310
  907b7a:	1b726e        	l32r	a11, 8e4534 <vdesc_module_install+0x3f8>
  907b7d:	2a2246        	l32i	a10, a2, 0x118
  907b80:	5bfa1c        	call8	9063f4 <__adf_os_setup_intr>
	ah->ah_setInterrupts(ah, sc->sc_imask);
  907b83:	2b22c4        	l32i	a11, a2, 0x310
  907b86:	285228        	l32i	a8, a5, 160
  907b89:	da50      	mov.n	a10, a5
  907b8b:	0b8000        	callx8	a8
	wmi_cmd_rsp(sc->tgt_wmi_handle, Command, SeqNo, NULL, 0);
  907b8e:	c0e0      	movi.n	a14, 0
  907b90:	8a23      	l32i.n	a10, a2, 12
  907b92:	dde0      	mov.n	a13, a14
  907b94:	dc40      	mov.n	a12, a4
  907b96:	033b02        	or	a11, a3, a3
  907b99:	5bfdb2        	call8	907264 <wmi_cmd_rsp>
  907b9c:	d10f      	retw.n
	...

00907ba0 <ath_enable_intr_tgt>:
{
  907ba0:	6c1004        	entry	a1, 32
	struct ath_hal *ah = sc->sc_ah;
  907ba3:	282d05        	addmi	a8, a2, 0x500
{
  907ba6:	03034f        	extui	a3, a3, 0, 16
  907ba9:	04044f        	extui	a4, a4, 0, 16
	struct ath_hal *ah = sc->sc_ah;
  907bac:	8a8b      	l32i.n	a10, a8, 44
	if (data)
  907bae:	645002        	beqz	a5, 907bb4 <ath_enable_intr_tgt+0x14>
		intr = (*(a_uint32_t *)data);
  907bb1:	2b5200        	l32i	a11, a5, 0
	if (intr & HAL_INT_SWBA) {
  907bb4:	1971f7        	l32r	a9, 8e4390 <vdesc_module_install+0x254>
  907bb7:	2822c4        	l32i	a8, a2, 0x310
  907bba:	79b006        	bnone	a11, a9, 907bc4 <ath_enable_intr_tgt+0x24>
		sc->sc_imask |= HAL_INT_SWBA;
  907bbd:	098802        	or	a8, a8, a9
  907bc0:	600006        	j	907bca <ath_enable_intr_tgt+0x2a>
  907bc3:	001572        	excw
		sc->sc_imask &= ~HAL_INT_SWBA;
  907bc6:	9105      	s32i.n	a1, a0, 20
  907bc8:	8801      	l32i.n	a8, a0, 4
	if (intr & HAL_INT_BMISS) {
  907bca:	197292        	l32r	a9, 8e4614 <vdesc_module_install+0x4d8>
		sc->sc_imask &= ~HAL_INT_SWBA;
  907bcd:	2826c4        	s32i	a8, a2, 0x310
	if (intr & HAL_INT_BMISS) {
  907bd0:	79b008        	bnone	a11, a9, 907bdc <ath_enable_intr_tgt+0x3c>
		sc->sc_imask |= HAL_INT_BMISS;
  907bd3:	2822c4        	l32i	a8, a2, 0x310
  907bd6:	098802        	or	a8, a8, a9
  907bd9:	2826c4        	s32i	a8, a2, 0x310
	ah->ah_setInterrupts(ah, sc->sc_imask);
  907bdc:	2b22c4        	l32i	a11, a2, 0x310
  907bdf:	25a228        	l32i	a5, a10, 160
  907be2:	0b5000        	callx8	a5
	wmi_cmd_rsp(sc->tgt_wmi_handle, Command, SeqNo,NULL, 0);
  907be5:	c0e0      	movi.n	a14, 0
  907be7:	8a23      	l32i.n	a10, a2, 12
  907be9:	dde0      	mov.n	a13, a14
  907beb:	dc40      	mov.n	a12, a4
  907bed:	db30      	mov.n	a11, a3
  907bef:	5bfd9d        	call8	907264 <wmi_cmd_rsp>
  907bf2:	d10f      	retw.n

00907bf4 <ath_disable_intr_tgt>:
{
  907bf4:	6c1004        	entry	a1, 32
	struct ath_hal *ah = sc->sc_ah;
  907bf7:	282d05        	addmi	a8, a2, 0x500
  907bfa:	8a8b      	l32i.n	a10, a8, 44
	ah->ah_setInterrupts(ah, 0);
  907bfc:	2b0a00        	movi	a11, 0
  907bff:	28a228        	l32i	a8, a10, 160
{
  907c02:	03034f        	extui	a3, a3, 0, 16
	ah->ah_setInterrupts(ah, 0);
  907c05:	0b8000        	callx8	a8
{
  907c08:	04044f        	extui	a4, a4, 0, 16
	wmi_cmd_rsp(sc->tgt_wmi_handle, Command, SeqNo,NULL, 0);
  907c0b:	c0e0      	movi.n	a14, 0
  907c0d:	8a23      	l32i.n	a10, a2, 12
  907c0f:	dde0      	mov.n	a13, a14
  907c11:	dc40      	mov.n	a12, a4
  907c13:	db30      	mov.n	a11, a3
  907c15:	5bfd93        	call8	907264 <wmi_cmd_rsp>
  907c18:	d10f      	retw.n
	...

00907c1c <ath_get_tgt_version>:
{
  907c1c:	6c1006        	entry	a1, 48
	ver.major = ATH_VERSION_MAJOR;
  907c1f:	c081      	movi.n	a8, 1
	wmi_cmd_rsp(sc->tgt_wmi_handle, Command, SeqNo, &ver, sizeof(ver));
  907c21:	8a23      	l32i.n	a10, a2, 12
	ver.major = ATH_VERSION_MAJOR;
  907c23:	281500        	s16i	a8, a1, 0
	wmi_cmd_rsp(sc->tgt_wmi_handle, Command, SeqNo, &ver, sizeof(ver));
  907c26:	c0e4      	movi.n	a14, 4
	ver.minor = ATH_VERSION_MINOR;
  907c28:	c084      	movi.n	a8, 4
	wmi_cmd_rsp(sc->tgt_wmi_handle, Command, SeqNo, &ver, sizeof(ver));
  907c2a:	dd10      	mov.n	a13, a1
  907c2c:	040c4f        	extui	a12, a4, 0, 16
  907c2f:	030b4f        	extui	a11, a3, 0, 16
	ver.minor = ATH_VERSION_MINOR;
  907c32:	281501        	s16i	a8, a1, 2
	wmi_cmd_rsp(sc->tgt_wmi_handle, Command, SeqNo, &ver, sizeof(ver));
  907c35:	5bfd8b        	call8	907264 <wmi_cmd_rsp>
  907c38:	d10f      	retw.n
	...

00907c3c <handle_echo_command>:
{
  907c3c:	6c1004        	entry	a1, 32
	wmi_cmd_rsp(pContext, WMI_ECHO_CMDID, SeqNo, buffer, Length);
  907c3f:	de60      	mov.n	a14, a6
  907c41:	dd50      	mov.n	a13, a5
  907c43:	040c4f        	extui	a12, a4, 0, 16
  907c46:	c0b1      	movi.n	a11, 1
  907c48:	da20      	mov.n	a10, a2
  907c4a:	5bfd86        	call8	907264 <wmi_cmd_rsp>
  907c4d:	d10f      	retw.n
	...

00907c50 <ath_get_minrateidx>:
{
  907c50:	6c1004        	entry	a1, 32
	if (sc->sc_curmode == IEEE80211_MODE_11NG)
  907c53:	2822c2        	l32i	a8, a2, 0x308
  907c56:	698104        	bnei	a8, 1, 907c5e <ath_get_minrateidx+0xe>
		return avp->av_minrateidx[0];
  907c59:	223040        	l8ui	a2, a3, 64
  907c5c:	d10f      	retw.n
	return 0;
  907c5e:	c020      	movi.n	a2, 0
	else if (sc->sc_curmode == IEEE80211_MODE_11NA)
  907c60:	728902        	bne	a8, a2, 907c66 <ath_get_minrateidx+0x16>
		return avp->av_minrateidx[1];
  907c63:	223041        	l8ui	a2, a3, 65
}
  907c66:	d10f      	retw.n

00907c68 <tgt_HTCRecv_beaconhandler>:
{
  907c68:	6c1018        	entry	a1, 192
	struct ath_hal *ah = sc->sc_ah;
  907c6b:	265d05        	addmi	a6, a5, 0x500
  907c6e:	866b      	l32i.n	a6, a6, 44
	if (!bc_hdr) {
  907c70:	cd30      	bnez.n	a3, 907c84 <tgt_HTCRecv_beaconhandler+0x1c>
    __adf_nbuf_peek_header(buf, addr, len);
  907c72:	2c1c70        	addi	a12, a1, 112
  907c75:	2b1c74        	addi	a11, a1, 116
  907c78:	da40      	mov.n	a10, a4
  907c7a:	5bee82        	call8	903684 <__adf_nbuf_peek_header>
		bhdr = (ath_beacon_hdr_t *)anbdata;
  907c7d:	27121d        	l32i	a7, a1, 116
  907c80:	60000e        	j	907c92 <tgt_HTCRecv_beaconhandler+0x2a>
  907c83:	001871        	excw
		adf_os_print("found bc_hdr! 0x%x\n", bc_hdr);
  907c86:	6e1a72        	bltui	a1, 12, 907cfc <tgt_HTCRecv_beaconhandler+0x94>
  907c89:	9328      	s32i.n	a3, a2, 32
  907c8b:	8212      	l32i.n	a2, a1, 8
  907c8d:	db30      	mov.n	a11, a3
  907c8f:	0b8000        	callx8	a8
	vap_index = bhdr->vap_index;
  907c92:	277000        	l8ui	a7, a7, 0
	adf_os_assert(vap_index < TARGET_VAP_MAX);
  907c95:	6e7203        	bltui	a7, 2, 907c9c <tgt_HTCRecv_beaconhandler+0x34>
  907c98:	63fffc        	j	907c98 <tgt_HTCRecv_beaconhandler+0x30>
  907c9b:	00c0b4        	excw
    return __adf_nbuf_pull_head(buf, size);
  907c9e:	da40      	mov.n	a10, a4
	bf = sc->sc_vap[vap_index].av_bcbuf;
  907ca0:	0c7311        	slli	a3, a7, 4
  907ca3:	5bedd3        	call8	9033f0 <__adf_nbuf_pull_head>
  907ca6:	a733      	add.n	a3, a3, a7
  907ca8:	0e3311        	slli	a3, a3, 2
  907cab:	18728e        	l32r	a8, 8e46e4 <vdesc_module_install+0x5a8>
  907cae:	a353      	add.n	a3, a5, a3
  907cb0:	a833      	add.n	a3, a3, a8
  907cb2:	8330      	l32i.n	a3, a3, 0
	adf_os_assert(bf);
  907cb4:	cc31      	bnez.n	a3, 907cb9 <tgt_HTCRecv_beaconhandler+0x51>
  907cb6:	63fffc        	j	907cb6 <tgt_HTCRecv_beaconhandler+0x4e>
	bf->bf_endpt = EndPt;
  907cb9:	223623        	s32i	a2, a3, 140
	if (bf->bf_skb) {
  907cbc:	8238      	l32i.n	a2, a3, 32
  907cbe:	c92f      	beqz.n	a2, 907ce1 <tgt_HTCRecv_beaconhandler+0x79>
    __adf_nbuf_unmap(osdev, bmap, dir);
  907cc0:	8b30      	l32i.n	a11, a3, 0
  907cc2:	2a5246        	l32i	a10, a5, 0x118
  907cc5:	c0c0      	movi.n	a12, 0
  907cc7:	5bee04        	call8	9034d8 <__adf_nbuf_unmap>
    return __adf_nbuf_push_head(buf, size);
  907cca:	8a38      	l32i.n	a10, a3, 32
  907ccc:	c0b4      	movi.n	a11, 4
  907cce:	5bedbd        	call8	9033c4 <__adf_nbuf_push_head>
		ath_free_tx_skb(sc->tgt_htc_handle, bf->bf_endpt, bf->bf_skb);
  907cd1:	12716e        	l32r	a2, 8e428c <vdesc_module_install+0x150>
  907cd4:	8c38      	l32i.n	a12, a3, 32
  907cd6:	222287        	l32i	a2, a2, 0x21c
  907cd9:	2b3223        	l32i	a11, a3, 140
  907cdc:	8a52      	l32i.n	a10, a5, 8
  907cde:	0b2000        	callx8	a2
    return __adf_nbuf_map(osdev, bmap, buf, dir);
  907ce1:	2a5246        	l32i	a10, a5, 0x118
  907ce4:	8b30      	l32i.n	a11, a3, 0
  907ce6:	c0d0      	movi.n	a13, 0
  907ce8:	dc40      	mov.n	a12, a4
	bf->bf_skb = nbuf;
  907cea:	243608        	s32i	a4, a3, 32
  907ced:	5bedf7        	call8	9034cc <__adf_nbuf_map>
    __adf_nbuf_dmamap_info(bmap, sg);
  907cf0:	8a30      	l32i.n	a10, a3, 0
  907cf2:	2b3c04        	addi	a11, a3, 4
  907cf5:	5bedfd        	call8	9034ec <__adf_nbuf_dmamap_info>
	adf_nbuf_t skb = bf->bf_skb;
  907cf8:	8238      	l32i.n	a2, a3, 32
	HAL_11N_RATE_SERIES series[4] = {{ 0 }};
  907cfa:	c5c0      	movi.n	a12, 80
	adf_nbuf_t skb = bf->bf_skb;
  907cfc:	221620        	s32i	a2, a1, 128
	struct ath_hal *ah = sc->sc_ah;
  907cff:	225d05        	addmi	a2, a5, 0x500
  907d02:	822b      	l32i.n	a2, a2, 44
	HAL_11N_RATE_SERIES series[4] = {{ 0 }};
  907d04:	2b0a00        	movi	a11, 0
  907d07:	2a1c20        	addi	a10, a1, 32
	struct ath_hal *ah = sc->sc_ah;
  907d0a:	221626        	s32i	a2, a1, 152
	HAL_11N_RATE_SERIES series[4] = {{ 0 }};
  907d0d:	5b7523        	call8	8e519c <memset>
	ds->ds_data = bf->bf_dmamap_info.dma_segs[0].paddr;
  907d10:	2a3008        	l8ui	a10, a3, 8
	ds = bf->bf_desc;
  907d13:	823c      	l32i.n	a2, a3, 48
	ath_beacon_setup(sc, bf, &sc->sc_vap[vap_index]);
  907d15:	0c7b11        	slli	a11, a7, 4
	ds->ds_data = bf->bf_dmamap_info.dma_segs[0].paddr;
  907d18:	2a2404        	s8i	a10, a2, 4
  907d1b:	2a3009        	l8ui	a10, a3, 9
	ath_beacon_setup(sc, bf, &sc->sc_vap[vap_index]);
  907d1e:	197289        	l32r	a9, 8e4744 <vdesc_module_install+0x608>
	ds->ds_data = bf->bf_dmamap_info.dma_segs[0].paddr;
  907d21:	2a2405        	s8i	a10, a2, 5
  907d24:	2a300a        	l8ui	a10, a3, 10
	ath_beacon_setup(sc, bf, &sc->sc_vap[vap_index]);
  907d27:	a7bb      	add.n	a11, a11, a7
	ds->ds_data = bf->bf_dmamap_info.dma_segs[0].paddr;
  907d29:	2a2406        	s8i	a10, a2, 6
	ath_beacon_setup(sc, bf, &sc->sc_vap[vap_index]);
  907d2c:	0ebb11        	slli	a11, a11, 2
	ds->ds_data = bf->bf_dmamap_info.dma_segs[0].paddr;
  907d2f:	2a300b        	l8ui	a10, a3, 11
	ds->ds_link = 0;
  907d32:	c080      	movi.n	a8, 0
	ath_beacon_setup(sc, bf, &sc->sc_vap[vap_index]);
  907d34:	a9bb      	add.n	a11, a11, a9
	ds->ds_link = 0;
  907d36:	282400        	s8i	a8, a2, 0
  907d39:	282401        	s8i	a8, a2, 1
  907d3c:	282402        	s8i	a8, a2, 2
  907d3f:	282403        	s8i	a8, a2, 3
	ds->ds_data = bf->bf_dmamap_info.dma_segs[0].paddr;
  907d42:	2a2407        	s8i	a10, a2, 7
	rix = ath_get_minrateidx(sc, avp);
  907d45:	ab5b      	add.n	a11, a5, a11
  907d47:	055a02        	or	a10, a5, a5
  907d4a:	281625        	s32i	a8, a1, 148
  907d4d:	5bffc0        	call8	907c50 <ath_get_minrateidx>
	rate = rt->info[rix].rateCode;
  907d50:	295281        	l32i	a9, a5, 0x204
  907d53:	b2aa      	addi.n	a10, a10, 2
  907d55:	0caa11        	slli	a10, a10, 4
  907d58:	0a9908        	add	a9, a9, a10
	ah->ah_setupTxDesc(ds
  907d5b:	241226        	l32i	a4, a1, 152
    return (__adf_nbuf_len(buf));
  907d5e:	2a1220        	l32i	a10, a1, 128
	rate = rt->info[rix].rateCode;
  907d61:	279010        	l8ui	a7, a9, 16
	ah->ah_setupTxDesc(ds
  907d64:	244217        	l32i	a4, a4, 92
  907d67:	5bee3f        	call8	903664 <__adf_nbuf_len>
  907d6a:	c092      	movi.n	a9, 2
  907d6c:	281225        	l32i	a8, a1, 148
  907d6f:	9912      	s32i.n	a9, a1, 8
  907d71:	290aff        	movi	a9, 255
  907d74:	9911      	s32i.n	a9, a1, 4
  907d76:	c091      	movi.n	a9, 1
  907d78:	9814      	s32i.n	a8, a1, 16
  907d7a:	9813      	s32i.n	a8, a1, 12
  907d7c:	9910      	s32i.n	a9, a1, 0
  907d7e:	b4ab      	addi.n	a11, a10, 4
  907d80:	291624        	s32i	a9, a1, 144
  907d83:	df70      	mov.n	a15, a7
  907d85:	c3ef      	movi.n	a14, 63
  907d87:	c0d3      	movi.n	a13, 3
  907d89:	c1c8      	movi.n	a12, 24
  907d8b:	022a02        	or	a10, a2, a2
  907d8e:	0b4000        	callx8	a4
	ah->ah_fillTxDesc(ds
  907d91:	241226        	l32i	a4, a1, 152
  907d94:	2a1220        	l32i	a10, a1, 128
  907d97:	2f4218        	l32i	a15, a4, 96
  907d9a:	2f1623        	s32i	a15, a1, 140
  907d9d:	5bee31        	call8	903664 <__adf_nbuf_len>
  907da0:	291224        	l32i	a9, a1, 144
  907da3:	2f1223        	l32i	a15, a1, 140
			   , asf_roundup(adf_nbuf_len(skb), 4)
  907da6:	b3aa      	addi.n	a10, a10, 3
	ah->ah_fillTxDesc(ds
  907da8:	c7bc      	movi.n	a11, -4
  907daa:	de20      	mov.n	a14, a2
  907dac:	dd90      	mov.n	a13, a9
  907dae:	dc90      	mov.n	a12, a9
  907db0:	0bab01        	and	a11, a10, a11
  907db3:	da20      	mov.n	a10, a2
  907db5:	0bf000        	callx8	a15
	series[0].Tries = 1;
  907db8:	291224        	l32i	a9, a1, 144
	series[0].Rate = rate;
  907dbb:	9719      	s32i.n	a7, a1, 36
	series[0].Tries = 1;
  907dbd:	9918      	s32i.n	a9, a1, 32
	series[0].ChSel = sc->sc_ic.ic_tx_chainmask;
  907dbf:	275d16        	addmi	a7, a5, 0x1600
	ah->ah_set11nRateScenario(ds, 0, 0, series, 4, 0);
  907dc2:	291226        	l32i	a9, a1, 152
	series[0].RateFlags = 0;
  907dc5:	281225        	l32i	a8, a1, 148
	series[0].ChSel = sc->sc_ic.ic_tx_chainmask;
  907dc8:	277026        	l8ui	a7, a7, 38
	ah->ah_set11nRateScenario(ds, 0, 0, series, 4, 0);
  907dcb:	249210        	l32i	a4, a9, 64
  907dce:	dc80      	mov.n	a12, a8
  907dd0:	db80      	mov.n	a11, a8
	series[0].RateFlags = 0;
  907dd2:	981c      	s32i.n	a8, a1, 48
	ah->ah_set11nRateScenario(ds, 0, 0, series, 4, 0);
  907dd4:	df80      	mov.n	a15, a8
  907dd6:	2e0a04        	movi	a14, 4
  907dd9:	2d1c20        	addi	a13, a1, 32
  907ddc:	da20      	mov.n	a10, a2
	series[0].ChSel = sc->sc_ic.ic_tx_chainmask;
  907dde:	27160b        	s32i	a7, a1, 44
	ah->ah_set11nRateScenario(ds, 0, 0, series, 4, 0);
  907de1:	0b4000        	callx8	a4
	ah->ah_stopTxDma(ah, sc->sc_bhalq);
  907de4:	255d01        	addmi	a5, a5, 0x100
  907de7:	826d      	l32i.n	a2, a6, 52
  907de9:	2b501c        	l8ui	a11, a5, 28
  907dec:	da60      	mov.n	a10, a6
  907dee:	0b2000        	callx8	a2
	ah->ah_setTxDP(ah, sc->sc_bhalq, ATH_BUF_GET_DESC_PHY_ADDR(bf));
  907df1:	2b501c        	l8ui	a11, a5, 28
  907df4:	826a      	l32i.n	a2, a6, 40
  907df6:	8c3c      	l32i.n	a12, a3, 48
  907df8:	da60      	mov.n	a10, a6
  907dfa:	0b2000        	callx8	a2
	ah->ah_startTxDma(ah, sc->sc_bhalq);
  907dfd:	2b501c        	l8ui	a11, a5, 28
  907e00:	826c      	l32i.n	a2, a6, 48
  907e02:	066a02        	or	a10, a6, a6
  907e05:	0b2000        	callx8	a2
  907e08:	d10f      	retw.n
	...

00907e0c <ath_tgt_attach>:
	/* Start HTC messages exchange */
	HTC_Ready(sc->tgt_htc_handle);
}

a_int32_t ath_tgt_attach(a_uint32_t devid, struct ath_softc_tgt *sc, adf_os_device_t osdev)
{
  907e0c:	6c1010        	entry	a1, 128
    (*val) = wlan_pci_config_read(offset, 1);
  907e0f:	2b0a01        	movi	a11, 1
  907e12:	2a0a0c        	movi	a10, 12
  907e15:	5befa2        	call8	903ca0 <wlan_pci_config_read>
  907e18:	0a0a47        	extui	a10, a10, 0, 8
	a_uint8_t csz;

	adf_os_pci_config_read8(osdev, ATH_PCI_CACHE_LINE_SIZE, &csz);

	if (csz == 0)
		csz = 16;
  907e1b:	c160      	movi.n	a6, 16
  907e1d:	0a6a38        	moveqz	a10, a6, a10
	sc->sc_cachelsz = csz << 2;
  907e20:	0eaa11        	slli	a10, a10, 2
  907e23:	2a3596        	s16i	a10, a3, 0x12c
    __adf_os_init_bh(hdl, bh, func, arg);
  907e26:	1b7294        	l32r	a11, 8e4878 <vdesc_module_install+0x73c>
  907e29:	2a3a14        	movi	a10, 0x314

	sc->sc_dev = osdev;
  907e2c:	243646        	s32i	a4, a3, 0x118
	sc->sc_hdl = osdev;
  907e2f:	243645        	s32i	a4, a3, 0x114
  907e32:	dc30      	mov.n	a12, a3
  907e34:	aa3a      	add.n	a10, a3, a10
  907e36:	5bf9fc        	call8	906628 <__adf_os_init_bh$isra$5>
  907e39:	1b7295        	l32r	a11, 8e4890 <vdesc_module_install+0x754>
  907e3c:	2a5a1c        	movi	a10, 0x51c
  907e3f:	033c02        	or	a12, a3, a3
  907e42:	0a3a08        	add	a10, a3, a10
  907e45:	5bf9f8        	call8	906628 <__adf_os_init_bh$isra$5>
  907e48:	1b7296        	l32r	a11, 8e48a0 <vdesc_module_install+0x764>
  907e4b:	2a3a24        	movi	a10, 0x324
  907e4e:	dc30      	mov.n	a12, a3
  907e50:	aa3a      	add.n	a10, a3, a10
  907e52:	5bf9f5        	call8	906628 <__adf_os_init_bh$isra$5>
  907e55:	1b7297        	l32r	a11, 8e48b4 <vdesc_module_install+0x778>
  907e58:	2a3a44        	movi	a10, 0x344
  907e5b:	033c02        	or	a12, a3, a3
  907e5e:	0a3a08        	add	a10, a3, a10
  907e61:	5bf9f1        	call8	906628 <__adf_os_init_bh$isra$5>
	ATH_INIT_TQUEUE(sc->sc_dev, &sc->sc_txtq, owl_tgt_tx_tasklet, sc);
	ATH_INIT_TQUEUE(sc->sc_dev, &sc->sc_bmisstq, ath_bmiss_tasklet, sc);
	ATH_INIT_TQUEUE(sc->sc_dev, &sc->sc_fataltq, ath_fatal_tasklet, sc);

	flags |= AH_USE_EEPROM;
	ah = _ath_hal_attach_tgt(devid, sc, sc->sc_dev, flags, &status);
  907e64:	2c3246        	l32i	a12, a3, 0x118
  907e67:	2e1c34        	addi	a14, a1, 52
  907e6a:	c0d1      	movi.n	a13, 1
  907e6c:	033b02        	or	a11, a3, a3
  907e6f:	da20      	mov.n	a10, a2
  907e71:	5bef43        	call8	903b80 <_ath_hal_attach_tgt>
  907e74:	0aa402        	or	a4, a10, a10
	if (ah == NULL) {
  907e77:	64a3c1        	beqz	a10, 90823c <ath_tgt_attach+0x430>
	sc->pool_handle = BUF_Pool_init(sc->sc_hdl);
  907e7a:	15716e        	l32r	a5, 8e4434 <vdesc_module_install+0x2f8>
		error = ENXIO;
		goto bad;
	}
	sc->sc_ah = ah;
  907e7d:	223d05        	addmi	a2, a3, 0x500
	sc->pool_handle = BUF_Pool_init(sc->sc_hdl);
  907e80:	27529e        	l32i	a7, a5, 0x278
	sc->sc_ah = ah;
  907e83:	2a260b        	s32i	a10, a2, 44
	sc->pool_handle = BUF_Pool_init(sc->sc_hdl);
  907e86:	2a3245        	l32i	a10, a3, 0x114
  907e89:	0b7000        	callx8	a7
	sc->tgt_hif_handle = HIF_init(0);
  907e8c:	275275        	l32i	a7, a5, 0x1d4
	sc->pool_handle = BUF_Pool_init(sc->sc_hdl);
  907e8f:	2a3600        	s32i	a10, a3, 0
	sc->tgt_hif_handle = HIF_init(0);
  907e92:	2a0a00        	movi	a10, 0
  907e95:	0b7000        	callx8	a7
	htc_conf.CreditSize = 320;
  907e98:	271a40        	movi	a7, 0x140
  907e9b:	9714      	s32i.n	a7, a1, 16
	htc_conf.CreditNumber = ATH_TXBUF;
  907e9d:	c271      	movi.n	a7, 33
  907e9f:	9715      	s32i.n	a7, a1, 20
	htc_conf.OSHandle = sc->sc_hdl;
  907ea1:	273245        	l32i	a7, a3, 0x114
	sc->tgt_hif_handle = HIF_init(0);
  907ea4:	9a31      	s32i.n	a10, a3, 4
	htc_conf.OSHandle = sc->sc_hdl;
  907ea6:	9716      	s32i.n	a7, a1, 24
	htc_conf.PoolHandle = sc->pool_handle;
  907ea8:	8730      	l32i.n	a7, a3, 0
	htc_conf.HIFHandle = sc->tgt_hif_handle;
  907eaa:	9a17      	s32i.n	a10, a1, 28
	htc_conf.PoolHandle = sc->pool_handle;
  907eac:	9718      	s32i.n	a7, a1, 32
	sc->tgt_htc_handle = HTC_init(htc_setup_comp, &htc_conf);
  907eae:	1a7298        	l32r	a10, 8e4910 <vdesc_module_install+0x7d4>
  907eb1:	275283        	l32i	a7, a5, 0x20c
  907eb4:	a61b      	add.n	a11, a1, a6
  907eb6:	0b7000        	callx8	a7
	tgt_reg_service(sc, &sc->htc_beacon_service, WMI_BEACON_SVC, tgt_HTCRecv_beaconhandler);
  907eb9:	1d7299        	l32r	a13, 8e4920 <vdesc_module_install+0x7e4>
  907ebc:	a63b      	add.n	a11, a3, a6
	sc->tgt_htc_handle = HTC_init(htc_setup_comp, &htc_conf);
  907ebe:	9a32      	s32i.n	a10, a3, 8
	tgt_reg_service(sc, &sc->htc_beacon_service, WMI_BEACON_SVC, tgt_HTCRecv_beaconhandler);
  907ec0:	2c1a01        	movi	a12, 0x101
  907ec3:	da30      	mov.n	a10, a3
  907ec5:	5bf97e        	call8	9064c0 <tgt_reg_service>
	tgt_reg_service(sc, &sc->htc_cab_service, WMI_CAB_SVC, tgt_HTCRecv_cabhandler);
  907ec8:	1d729a        	l32r	a13, 8e4930 <vdesc_module_install+0x7f4>
  907ecb:	2c1a02        	movi	a12, 0x102
  907ece:	2b3c2c        	addi	a11, a3, 44
  907ed1:	da30      	mov.n	a10, a3
  907ed3:	5bf97b        	call8	9064c0 <tgt_reg_service>
	tgt_reg_service(sc, &sc->htc_uapsd_service, WMI_UAPSD_SVC, tgt_HTCRecv_uapsdhandler);
  907ed6:	1d729b        	l32r	a13, 8e4944 <vdesc_module_install+0x808>
  907ed9:	2c1a03        	movi	a12, 0x103
  907edc:	2b3c48        	addi	a11, a3, 72
  907edf:	da30      	mov.n	a10, a3
  907ee1:	5bf977        	call8	9064c0 <tgt_reg_service>
	tgt_reg_service(sc, &sc->htc_mgmt_service, WMI_MGMT_SVC, tgt_HTCRecv_mgmthandler);
  907ee4:	1d729c        	l32r	a13, 8e4954 <vdesc_module_install+0x818>
  907ee7:	2c1a04        	movi	a12, 0x104
  907eea:	2b3c64        	addi	a11, a3, 100
  907eed:	da30      	mov.n	a10, a3
  907eef:	5bf974        	call8	9064c0 <tgt_reg_service>
	tgt_reg_service(sc, &sc->htc_data_BE_service, WMI_DATA_BE_SVC, tgt_HTCRecvMessageHandler);
  907ef2:	17729d        	l32r	a7, 8e4968 <vdesc_module_install+0x82c>
  907ef5:	2b0ab8        	movi	a11, 184
  907ef8:	dd70      	mov.n	a13, a7
  907efa:	2c1a07        	movi	a12, 0x107
  907efd:	ab3b      	add.n	a11, a3, a11
  907eff:	033a02        	or	a10, a3, a3
  907f02:	5bf96f        	call8	9064c0 <tgt_reg_service>
	tgt_reg_service(sc, &sc->htc_data_BK_service, WMI_DATA_BK_SVC, tgt_HTCRecvMessageHandler);
  907f05:	2b0ad4        	movi	a11, 212
  907f08:	dd70      	mov.n	a13, a7
  907f0a:	2c1a08        	movi	a12, 0x108
  907f0d:	ab3b      	add.n	a11, a3, a11
  907f0f:	033a02        	or	a10, a3, a3
  907f12:	5bf96b        	call8	9064c0 <tgt_reg_service>
	tgt_reg_service(sc, &sc->htc_data_VI_service, WMI_DATA_VI_SVC, tgt_HTCRecvMessageHandler);
  907f15:	2b0a9c        	movi	a11, 156
  907f18:	dd70      	mov.n	a13, a7
  907f1a:	2c1a06        	movi	a12, 0x106
  907f1d:	ab3b      	add.n	a11, a3, a11
  907f1f:	033a02        	or	a10, a3, a3
  907f22:	5bf967        	call8	9064c0 <tgt_reg_service>
	tgt_reg_service(sc, &sc->htc_data_VO_service, WMI_DATA_VO_SVC, tgt_HTCRecvMessageHandler);
  907f25:	2b0a80        	movi	a11, 128
  907f28:	dd70      	mov.n	a13, a7
  907f2a:	2c1a05        	movi	a12, 0x105
  907f2d:	ab3b      	add.n	a11, a3, a11
  907f2f:	da30      	mov.n	a10, a3
  907f31:	5bf963        	call8	9064c0 <tgt_reg_service>
    return __adf_os_mem_alloc(size);
  907f34:	da60      	mov.n	a10, a6
  907f36:	5bf935        	call8	90640c <__adf_os_mem_alloc>
    A_MEMZERO(buf,size);
  907f39:	8854      	l32i.n	a8, a5, 16
  907f3b:	dc60      	mov.n	a12, a6
  907f3d:	c0b0      	movi.n	a11, 0
  907f3f:	d7a0      	mov.n	a7, a10
  907f41:	0b8000        	callx8	a8
	Magpie_Sys_Commands_Tbl->NumberOfEntries = WMI_DISPATCH_ENTRY_COUNT(Magpie_Sys_DispatchEntries);
  907f44:	c280      	movi.n	a8, 32
  907f46:	9872      	s32i.n	a8, a7, 8
	Magpie_Sys_Commands_Tbl->pTable = Magpie_Sys_DispatchEntries;
  907f48:	18729e        	l32r	a8, 8e49c0 <vdesc_module_install+0x884>
  907f4b:	dc60      	mov.n	a12, a6
  907f4d:	9873      	s32i.n	a8, a7, 12
  907f4f:	8854      	l32i.n	a8, a5, 16
  907f51:	c0b0      	movi.n	a11, 0
  907f53:	2a1c24        	addi	a10, a1, 36
  907f56:	0b8000        	callx8	a8
	wmiConfig.HtcHandle = sc->tgt_htc_handle;
  907f59:	8632      	l32i.n	a6, a3, 8
	sc->tgt_wmi_handle = WMI_Init(&wmiConfig);
  907f5b:	2a1c24        	addi	a10, a1, 36
	wmiConfig.HtcHandle = sc->tgt_htc_handle;
  907f5e:	9619      	s32i.n	a6, a1, 36
	wmiConfig.PoolHandle = sc->pool_handle;
  907f60:	8630      	l32i.n	a6, a3, 0
  907f62:	961a      	s32i.n	a6, a1, 40
	wmiConfig.MaxCmdReplyEvts = ATH_WMI_MAX_CMD_REPLY;
  907f64:	c062      	movi.n	a6, 2
  907f66:	961b      	s32i.n	a6, a1, 44
	wmiConfig.MaxEventEvts = ATH_WMI_MAX_EVENTS;
  907f68:	c068      	movi.n	a6, 8
  907f6a:	961c      	s32i.n	a6, a1, 48
	sc->tgt_wmi_handle = WMI_Init(&wmiConfig);
  907f6c:	265290        	l32i	a6, a5, 0x240
  907f6f:	0b6000        	callx8	a6
  907f72:	9a33      	s32i.n	a10, a3, 12
	WMI_RegisterDispatchTable(sc->tgt_wmi_handle, Magpie_Sys_Commands_Tbl);
  907f74:	265291        	l32i	a6, a5, 0x244
  907f77:	db70      	mov.n	a11, a7
	Magpie_Sys_Commands_Tbl->pContext = sc;
  907f79:	9371      	s32i.n	a3, a7, 4
	WMI_RegisterDispatchTable(sc->tgt_wmi_handle, Magpie_Sys_Commands_Tbl);
  907f7b:	0b6000        	callx8	a6
	HTC_Ready(sc->tgt_htc_handle);
  907f7e:	8a32      	l32i.n	a10, a3, 8
  907f80:	255286        	l32i	a5, a5, 0x218

	tgt_hif_htc_wmi_init(sc);

	sc->sc_bhalq = HAL_NUM_TX_QUEUES - 1;
  907f83:	c069      	movi.n	a6, 9
	HTC_Ready(sc->tgt_htc_handle);
  907f85:	0b5000        	callx8	a5
	sc->sc_bhalq = HAL_NUM_TX_QUEUES - 1;
  907f88:	253d01        	addmi	a5, a3, 0x100
  907f8b:	26541c        	s8i	a6, a5, 28
	struct ath_hal *ah = sc->sc_ah;
  907f8e:	8a2b      	l32i.n	a10, a2, 44
		sc->sc_rates[mode] = ah->ah_getRateTable(ah, HAL_MODE_11NA);
  907f90:	1b7237        	l32r	a11, 8e486c <vdesc_module_install+0x730>
  907f93:	85a5      	l32i.n	a5, a10, 20
  907f95:	0b5000        	callx8	a5
  907f98:	2a367f        	s32i	a10, a3, 0x1fc
	struct ath_hal *ah = sc->sc_ah;
  907f9b:	8a2b      	l32i.n	a10, a2, 44
		sc->sc_rates[mode] = ah->ah_getRateTable(ah, HAL_MODE_11NG);
  907f9d:	1b7213        	l32r	a11, 8e47ec <vdesc_module_install+0x6b0>
  907fa0:	85a5      	l32i.n	a5, a10, 20
  907fa2:	0b5000        	callx8	a5
  907fa5:	2a3680        	s32i	a10, a3, 0x200

	ath_rate_setup(sc, IEEE80211_MODE_11NA);
	ath_rate_setup(sc, IEEE80211_MODE_11NG);

	sc->sc_rc = ath_rate_attach(sc);
  907fa8:	da30      	mov.n	a10, a3
  907faa:	58038d        	call8	908de0 <ath_rate_attach>
  907fad:	2a3648        	s32i	a10, a3, 0x120
	if (sc->sc_rc == NULL) {
  907fb0:	64a279        	beqz	a10, 90822d <ath_tgt_attach+0x421>
  907fb3:	16729f        	l32r	a6, 8e4a30 <vdesc_module_install+0x8f4>
  907fb6:	257a40        	movi	a5, 0x740
  907fb9:	a535      	add.n	a5, a3, a5
  907fbb:	063608        	add	a6, a3, a6
  907fbe:	272a0c        	movi	a7, 0x20c
		error = EIO;
		goto bad2;
	}

	for (i=0; i < TARGET_NODE_MAX; i++) {
		sc->sc_sta[i].an_rcnode = adf_os_mem_alloc(sc->sc_rc->arc_space);
  907fc1:	283248        	l32i	a8, a3, 0x120
  907fc4:	8a80      	l32i.n	a10, a8, 0
  907fc6:	5bf911        	call8	90640c <__adf_os_mem_alloc>
  907fc9:	9a50      	s32i.n	a10, a5, 0
  907fcb:	a755      	add.n	a5, a5, a7
	for (i=0; i < TARGET_NODE_MAX; i++) {
  907fcd:	7659f0        	bne	a5, a6, 907fc1 <ath_tgt_attach+0x1b5>
	if(ath_numrxbufs == -1)
  907fd0:	157283        	l32r	a5, 8e49dc <vdesc_module_install+0x8a0>
  907fd3:	8650      	l32i.n	a6, a5, 0
  907fd5:	696003        	bnei	a6, -1, 907fdc <ath_tgt_attach+0x1d0>
		ath_numrxbufs = ATH_RXBUF;
  907fd8:	c06b      	movi.n	a6, 11
  907fda:	9650      	s32i.n	a6, a5, 0
	if (ath_numrxdescs == -1)
  907fdc:	1872a0        	l32r	a8, 8e4a5c <vdesc_module_install+0x920>
  907fdf:	8580      	l32i.n	a5, a8, 0
  907fe1:	695003        	bnei	a5, -1, 907fe8 <ath_tgt_attach+0x1dc>
		ath_numrxdescs = ATH_RXDESC;
  907fe4:	c05b      	movi.n	a5, 11
  907fe6:	9580      	s32i.n	a5, a8, 0
	error = ath_descdma_setup(sc, &sc->sc_rxdma, (ath_bufhead *)&sc->sc_rxbuf,
  907fe8:	c594      	movi.n	a9, 84
  907fea:	253a74        	movi	a5, 0x374
  907fed:	263a54        	movi	a6, 0x354
  907ff0:	271a18        	movi	a7, 0x118
  907ff3:	9910      	s32i.n	a9, a1, 0
  907ff5:	a535      	add.n	a5, a3, a5
  907ff7:	a636      	add.n	a6, a3, a6
  907ff9:	a737      	add.n	a7, a3, a7
  907ffb:	8e80      	l32i.n	a14, a8, 0
  907ffd:	1d72a1        	l32r	a13, 8e4a84 <vdesc_module_install+0x948>
  908000:	2f0a68        	movi	a15, 104
  908003:	dc60      	mov.n	a12, a6
  908005:	db50      	mov.n	a11, a5
  908007:	da70      	mov.n	a10, a7
  908009:	5bfa1b        	call8	906878 <ath_descdma_setup$isra$21$constprop$26>
	if (error != 0)
  90800c:	65a21d        	bnez	a10, 90822d <ath_tgt_attach+0x421>
	asf_tailq_init(&sc->sc_rxdesc);
  90800f:	293a64        	movi	a9, 0x364
  908012:	a939      	add.n	a9, a3, a9
  908014:	2936da        	s32i	a9, a3, 0x368
	asf_tailq_init(&sc->sc_rxdesc_idle);
  908017:	293a5c        	movi	a9, 0x35c
  90801a:	a939      	add.n	a9, a3, a9
  90801c:	2936d8        	s32i	a9, a3, 0x360
	struct ath_rx_desc *ds = (struct ath_rx_desc *)dd->dd_desc;
  90801f:	2832de        	l32i	a8, a3, 0x378
	asf_tailq_init(&sc->sc_rxdesc);
  908022:	2a36d9        	s32i	a10, a3, 0x364
	asf_tailq_init(&sc->sc_rxdesc_idle);
  908025:	2a36d7        	s32i	a10, a3, 0x35c
	struct ath_rx_desc *ds_prev = NULL;
  908028:	d9a0      	mov.n	a9, a10
	for (i = 0; i < ath_numrxdescs; i++, ds++) {
  90802a:	dca0      	mov.n	a12, a10
  90802c:	6000c3        	j	9080f3 <ath_tgt_attach+0x2e7>
  90802f:	002b80        	excw
		if (ds->ds_nbuf != ADF_NBUF_NULL) {
  908032:	342a80        	excw
  908035:	3508bb        	excw
  908038:	1000aa        	l32r	a0, 8c82e0 <_bss_end+0x3baad8>
  90803b:	110bab        	l32r	a1, 8caee8 <_bss_end+0x3bd6e0>
  90803e:	022a80        	excw
  908041:	3608aa        	excw
  908044:	110baa        	l32r	a1, 8caeec <_bss_end+0x3bd6e4>
  908047:	022b80        	excw
  90804a:	370aba        	excw
  90804d:	0264a0        	excw
  908050:	0e2a0a        	addx4	a10, a2, a14
			ds->ds_nbuf = ADF_NBUF_NULL;
  908053:	002a84        	excw
  908056:	342a84        	excw
  908059:	352a84        	excw
  90805c:	362a84        	excw
  90805f:	372a32        	excw
    return (__adf_nbuf_dmamap_create(osdev, dmap));
  908062:	462b8c        	excw
  908065:	382816        	excw
  908068:	132916        	l32r	a3, 8d24c0 <_bss_end+0x3c4cb8>
  90806b:	142c16        	l32r	a4, 8d30c4 <_bss_end+0x3c58bc>
  90806e:	125bed        	l32r	a2, 8df024 <_bss_end+0x3d181c>
  908071:	102812        	l32r	a0, 8d20bc <_bss_end+0x3c48b4>
		if (adf_nbuf_dmamap_create(sc->sc_dev, &ds->ds_dmap) != A_STATUS_OK) {
  908074:	132912        	l32r	a3, 8d24bc <_bss_end+0x3c4cb4>
  908077:	142c12        	l32r	a4, 8d30c0 <_bss_end+0x3c58b8>
  90807a:	12c8a2        	l32r	a2, 8fa304 <memset+0x15168>
  90807d:	63fffc        	j	90807d <ath_tgt_attach+0x271>
  908080:	002a32        	sext	a10, a2, 7
		ds->ds_daddr = DS2PHYS(&sc->sc_rxdma, ds);
  908083:	de2b      	excw
  908085:	32e00a        	excw
  908088:	8a0c      	l32i.n	a10, a0, 48
  90808a:	abaa      	add.n	a10, a10, a11
  90808c:	0a8e57        	extui	a14, a10, 24, 8
  90808f:	0a0d57        	extui	a13, a10, 16, 8
  908092:	0a8b47        	extui	a11, a10, 8, 8
  908095:	0a0a47        	extui	a10, a10, 0, 8
  908098:	2e8448        	s8i	a14, a8, 72
  90809b:	2d8449        	s8i	a13, a8, 73
  90809e:	2b844a        	s8i	a11, a8, 74
  9080a1:	2a844b        	s8i	a10, a8, 75
		if (ds_prev) {
  9080a4:	c89a      	beqz.n	a9, 9080b2 <ath_tgt_attach+0x2a6>
			ds_prev->ds_link = ds->ds_daddr;
  9080a6:	2e9400        	s8i	a14, a9, 0
  9080a9:	2d9401        	s8i	a13, a9, 1
  9080ac:	2b9402        	s8i	a11, a9, 2
  9080af:	2a9403        	s8i	a10, a9, 3
		ds->ds_link = 0;
  9080b2:	c090      	movi.n	a9, 0
  9080b4:	298400        	s8i	a9, a8, 0
  9080b7:	298401        	s8i	a9, a8, 1
  9080ba:	298402        	s8i	a9, a8, 2
  9080bd:	298403        	s8i	a9, a8, 3
		asf_tailq_insert_tail(&sc->sc_rxdesc, ds, ds_list);
  9080c0:	29844c        	s8i	a9, a8, 76
  9080c3:	29844d        	s8i	a9, a8, 77
  9080c6:	29844e        	s8i	a9, a8, 78
  9080c9:	29844f        	s8i	a9, a8, 79
  9080cc:	2932da        	l32i	a9, a3, 0x368
	for (i = 0; i < ath_numrxdescs; i++, ds++) {
  9080cf:	b1cc      	addi.n	a12, a12, 1
		asf_tailq_insert_tail(&sc->sc_rxdesc, ds, ds_list);
  9080d1:	098a57        	extui	a10, a9, 24, 8
  9080d4:	2a8450        	s8i	a10, a8, 80
  9080d7:	090a57        	extui	a10, a9, 16, 8
  9080da:	2a8451        	s8i	a10, a8, 81
  9080dd:	098a47        	extui	a10, a9, 8, 8
  9080e0:	298453        	s8i	a9, a8, 83
  9080e3:	2a8452        	s8i	a10, a8, 82
  9080e6:	9890      	s32i.n	a8, a9, 0
  9080e8:	298c4c        	addi	a9, a8, 76
  9080eb:	2936da        	s32i	a9, a3, 0x368
	for (i = 0; i < ath_numrxdescs; i++, ds++) {
  9080ee:	d980      	mov.n	a9, a8
  9080f0:	288c54        	addi	a8, a8, 84
  9080f3:	1b72a0        	l32r	a11, 8e4b74 <vdesc_module_install+0xa38>
  9080f6:	8ab0      	l32i.n	a10, a11, 0
  9080f8:	7acb02        	bgeu	a12, a10, 9080fe <ath_tgt_attach+0x2f2>
  9080fb:	63ff31        	j	908030 <ath_tgt_attach+0x224>
	error = ath_descdma_setup(sc, &sc->sc_txdma, (ath_bufhead *)&sc->sc_txbuf,
  9080fe:	283a8c        	movi	a8, 0x38c
  908101:	a838      	add.n	a8, a3, a8
  908103:	281610        	s32i	a8, a1, 64
  908106:	283ac0        	movi	a8, 0x3c0
  908109:	a838      	add.n	a8, a3, a8
  90810b:	290a88        	movi	a9, 136
  90810e:	1d72a2        	l32r	a13, 8e4b98 <vdesc_module_install+0xa5c>
  908111:	2b1210        	l32i	a11, a1, 64
  908114:	9910      	s32i.n	a9, a1, 0
  908116:	dc80      	mov.n	a12, a8
  908118:	2f0a94        	movi	a15, 148
  90811b:	c2e2      	movi.n	a14, 34
  90811d:	da70      	mov.n	a10, a7
  90811f:	281611        	s32i	a8, a1, 68
  908122:	291614        	s32i	a9, a1, 80
  908125:	5bf9d4        	call8	906878 <ath_descdma_setup$isra$21$constprop$26>
  908128:	d8a0      	mov.n	a8, a10
	if (error != 0) {
  90812a:	291214        	l32i	a9, a1, 80
  90812d:	c8a3      	beqz.n	a10, 908134 <ath_tgt_attach+0x328>
  90812f:	60002f        	j	908162 <ath_tgt_attach+0x356>
  908132:	00001c        	mul16u	a0, a0, a0
	error = ath_descdma_setup(sc, &sc->sc_bdma, (ath_bufhead *)&sc->sc_bbuf,
  908135:	72a41d        	ball	a10, a2, 908156 <ath_tgt_attach+0x34a>
  908138:	72a32b        	bltu	a10, a2, 908167 <ath_tgt_attach+0x35b>
  90813b:	3aa499        	excw
  90813e:	102f0a        	l32r	a0, 8d3d68 <_bss_end+0x3c6560>
  908141:	94c0      	s32i.n	a4, a12, 0
  908143:	e1          	.byte 0xe1
  908144:	ac3c      	add.n	a12, a3, a12
  908146:	ab3b      	add.n	a11, a3, a11
  908148:	da70      	mov.n	a10, a7
  90814a:	281613        	s32i	a8, a1, 76
  90814d:	5bf9ca        	call8	906878 <ath_descdma_setup$isra$21$constprop$26>
	if (error != 0) {
  908150:	281213        	l32i	a8, a1, 76
  908153:	c9a9      	beqz.n	a10, 908170 <ath_tgt_attach+0x364>
		ath_descdma_cleanup(sc, &sc->sc_txdma, (ath_bufhead *)&sc->sc_txbuf,
  908155:	2c1211        	l32i	a12, a1, 68
  908158:	2b1210        	l32i	a11, a1, 64
  90815b:	dd80      	mov.n	a13, a8
  90815d:	da30      	mov.n	a10, a3
  90815f:	5bf90c        	call8	906590 <ath_descdma_cleanup>
		ath_descdma_cleanup(sc, &sc->sc_rxdma, (ath_bufhead *)&sc->sc_rxbuf,
  908162:	c0d1      	movi.n	a13, 1
  908164:	dc60      	mov.n	a12, a6
  908166:	db50      	mov.n	a11, a5
  908168:	da30      	mov.n	a10, a3
  90816a:	5bf909        	call8	906590 <ath_descdma_cleanup>
  90816d:	6000bc        	j	90822d <ath_tgt_attach+0x421>
	bf = asf_tailq_first(&sc->sc_txbuf);
  908170:	2532f0        	l32i	a5, a3, 0x3c0
	bf->bf_isaggr = bf->bf_isretried = bf->bf_retries = 0;
  908173:	c67f      	movi.n	a7, -17
  908175:	265087        	l8ui	a6, a5, 135
  908178:	2a5486        	s8i	a10, a5, 134
  90817b:	076601        	and	a6, a6, a7
  90817e:	27fadf        	movi	a7, -33
  908181:	076601        	and	a6, a6, a7
  908184:	265487        	s8i	a6, a5, 135
	asf_tailq_remove(&sc->sc_txbuf, bf, bf_list);
  908187:	8659      	l32i.n	a6, a5, 36
  908189:	875a      	l32i.n	a7, a5, 40
  90818b:	c866      	beqz.n	a6, 908195 <ath_tgt_attach+0x389>
  90818d:	976a      	s32i.n	a7, a6, 40
  90818f:	600005        	j	908198 <ath_tgt_attach+0x38c>
  908192:	000000        	ill
  908195:	2736f1        	s32i	a7, a3, 0x3c4
  908198:	875a      	l32i.n	a7, a5, 40
	error = ath_desc_alloc(sc);
	if (error != 0) {
		goto bad;
	}

	BUF_Pool_create_pool(sc->pool_handle, POOL_ID_WLAN_RX_BUF, ath_numrxdescs, 1664);
  90819a:	c0b3      	movi.n	a11, 3
	asf_tailq_remove(&sc->sc_txbuf, bf, bf_list);
  90819c:	9670      	s32i.n	a6, a7, 0
	sc->sc_txbuf_held = bf;
  90819e:	2536dc        	s32i	a5, a3, 0x370
	BUF_Pool_create_pool(sc->pool_handle, POOL_ID_WLAN_RX_BUF, ath_numrxdescs, 1664);
  9081a1:	1672a0        	l32r	a6, 8e4c24 <vdesc_module_install+0xae8>
  9081a4:	15716e        	l32r	a5, 8e475c <vdesc_module_install+0x620>
  9081a7:	8c60      	l32i.n	a12, a6, 0
  9081a9:	2552a0        	l32i	a5, a5, 0x280
  9081ac:	8a30      	l32i.n	a10, a3, 0
  9081ae:	2d6a80        	movi	a13, 0x680
  9081b1:	0b5000        	callx8	a5
  9081b4:	c060      	movi.n	a6, 0
  9081b6:	253acc        	movi	a5, 0x3cc
  9081b9:	a535      	add.n	a5, a3, a5
	for (qnum=0;qnum<HAL_NUM_TX_QUEUES;qnum++) {
  9081bb:	d860      	mov.n	a8, a6
		txq->axq_link = NULL;
  9081bd:	d760      	mov.n	a7, a6
		sc->sc_txqsetup |= 1<<qnum;
  9081bf:	c0b1      	movi.n	a11, 1
  9081c1:	c09a      	movi.n	a9, 10
  9081c3:	6d9825        	loop	a9, 9081ec <ath_tgt_attach+0x3e0>
		asf_tailq_init(&txq->axq_q);
  9081c6:	b85a      	addi.n	a10, a5, 8
  9081c8:	9a53      	s32i.n	a10, a5, 12
		asf_tailq_init(&txq->axq_tidq);
  9081ca:	2a5c18        	addi	a10, a5, 24
  9081cd:	9a57      	s32i.n	a10, a5, 28
		sc->sc_txqsetup |= 1<<qnum;
  9081cf:	008104        	ssl	a8
  9081d2:	00ba1a        	sll	a10, a11
		txq->axq_qnum = qnum;
  9081d5:	9850      	s32i.n	a8, a5, 0
		txq->axq_link = NULL;
  9081d7:	9751      	s32i.n	a7, a5, 4
		asf_tailq_init(&txq->axq_q);
  9081d9:	9752      	s32i.n	a7, a5, 8
		txq->axq_depth = 0;
  9081db:	9754      	s32i.n	a7, a5, 16
		txq->axq_linkbuf = NULL;
  9081dd:	9755      	s32i.n	a7, a5, 20
		asf_tailq_init(&txq->axq_tidq);
  9081df:	9756      	s32i.n	a7, a5, 24
		sc->sc_txqsetup |= 1<<qnum;
  9081e1:	06a602        	or	a6, a10, a6
  9081e4:	060647        	extui	a6, a6, 0, 8
	for (qnum=0;qnum<HAL_NUM_TX_QUEUES;qnum++) {
  9081e7:	b188      	addi.n	a8, a8, 1
  9081e9:	255c20        	addi	a5, a5, 32
  9081ec:	253d03        	addmi	a5, a3, 0x300
  9081ef:	2654c8        	s8i	a6, a5, 200
	sc->sc_uapsdq  = &sc->sc_txq[UAPSDQ_NUM];
  9081f2:	254aec        	movi	a5, 0x4ec
  9081f5:	a535      	add.n	a5, a3, a5
  9081f7:	952d      	s32i.n	a5, a2, 52
	sc->sc_cabq    = &sc->sc_txq[CABQ_NUM];
  9081f9:	254acc        	movi	a5, 0x4cc
  9081fc:	a535      	add.n	a5, a3, a5
  9081fe:	952c      	s32i.n	a5, a2, 48
	sc->sc_ac2q[WME_AC_BE]  = &sc->sc_txq[0];
  908200:	253acc        	movi	a5, 0x3cc
  908203:	a535      	add.n	a5, a3, a5
  908205:	9523      	s32i.n	a5, a2, 12
	sc->sc_ac2q[WME_AC_BK]  = &sc->sc_txq[1];
  908207:	253aec        	movi	a5, 0x3ec
  90820a:	a535      	add.n	a5, a3, a5
  90820c:	9524      	s32i.n	a5, a2, 16
	sc->sc_ac2q[WME_AC_VI]  = &sc->sc_txq[2];
  90820e:	254a0c        	movi	a5, 0x40c
  908211:	a535      	add.n	a5, a3, a5
  908213:	9525      	s32i.n	a5, a2, 20
	sc->sc_ac2q[WME_AC_VO]  = &sc->sc_txq[3];
  908215:	254a2c        	movi	a5, 0x42c
  908218:	a535      	add.n	a5, a3, a5
  90821a:	9526      	s32i.n	a5, a2, 24

	ath_tgt_txq_setup(sc);
	sc->sc_imask =0;
	ah->ah_setInterrupts(ah, 0);
  90821c:	224228        	l32i	a2, a4, 160
	sc->sc_imask =0;
  90821f:	2736c4        	s32i	a7, a3, 0x310
	ah->ah_setInterrupts(ah, 0);
  908222:	c0b0      	movi.n	a11, 0
  908224:	da40      	mov.n	a10, a4
  908226:	0b2000        	callx8	a2

	return 0;
  908229:	c020      	movi.n	a2, 0
  90822b:	d10f      	retw.n
bad:
bad2:
	ath_desc_free(sc);
  90822d:	da30      	mov.n	a10, a3
  90822f:	5bf97f        	call8	90682c <ath_desc_free>
	if (ah)
		ah->ah_detach(ah);
  908232:	8246      	l32i.n	a2, a4, 24
  908234:	da40      	mov.n	a10, a4
  908236:	0b2000        	callx8	a2
}
  908239:	d10f      	retw.n
  90823b:	00da30        	excw
	ath_desc_free(sc);
  90823e:	5bf97b        	call8	90682c <ath_desc_free>
  908241:	63fff4        	j	908239 <ath_tgt_attach+0x42d>

00908244 <ath_detach>:
	HIF_shutdown(sc->tgt_hif_handle);
	BUF_Pool_shutdown(sc->pool_handle);
}

a_int32_t ath_detach(struct ath_softc_tgt *sc)
{
  908244:	6c1004        	entry	a1, 32
	WMI_Shutdown(sc->tgt_wmi_handle);
  908247:	13716e        	l32r	a3, 8e4800 <vdesc_module_install+0x6c4>
  90824a:	8a23      	l32i.n	a10, a2, 12
  90824c:	283297        	l32i	a8, a3, 0x25c
  90824f:	0b8000        	callx8	a8
	HTC_Shutdown(sc->tgt_htc_handle);
  908252:	8a22      	l32i.n	a10, a2, 8
  908254:	283284        	l32i	a8, a3, 0x210
  908257:	0b8000        	callx8	a8
	HIF_shutdown(sc->tgt_hif_handle);
  90825a:	8a21      	l32i.n	a10, a2, 4
  90825c:	283276        	l32i	a8, a3, 0x1d8
  90825f:	0b8000        	callx8	a8
	BUF_Pool_shutdown(sc->pool_handle);
  908262:	8a20      	l32i.n	a10, a2, 0
  908264:	23329f        	l32i	a3, a3, 0x27c
  908267:	0b3000        	callx8	a3
	tgt_hif_htc_wmi_shutdown(sc);
}
  90826a:	d10f      	retw.n

0090826c <__adf_os_dmamem_alloc>:
 * @return void* (Virtual address)
 */
inline void*
__adf_os_dmamem_alloc(__adf_os_device_t osdev, adf_os_size_t size,
                      a_bool_t coherent, __adf_os_dma_map_t *dmap)
{
  90826c:	6c1004        	entry	a1, 32
    (*dmap) = A_ALLOCRAM(sizeof(struct __adf_dma_map));
  90826f:	16716e        	l32r	a6, 8e4828 <vdesc_module_install+0x6ec>
  908272:	c0bc      	movi.n	a11, 12
  908274:	226252        	l32i	a2, a6, 0x148
  908277:	c0a0      	movi.n	a10, 0
  908279:	0b2000        	callx8	a2
  90827c:	9a50      	s32i.n	a10, a5, 0
  90827e:	d4a0      	mov.n	a4, a10
    (*dmap)->ds_len = size;

    return (*dmap)->ds_addr;

fail_malloc:
    return NULL;
  908280:	d2a0      	mov.n	a2, a10
	if((*dmap) == NULL){
  908282:	c9a2      	beqz.n	a10, 908298 <__adf_os_dmamem_alloc+0x2c>
    (*dmap)->ds_addr = A_ALLOCRAM(size);
  908284:	226252        	l32i	a2, a6, 0x148
  908287:	db30      	mov.n	a11, a3
  908289:	c0a0      	movi.n	a10, 0
  90828b:	0b2000        	callx8	a2
    (*dmap)->ds_len = size;
  90828e:	8250      	l32i.n	a2, a5, 0
    (*dmap)->ds_addr = A_ALLOCRAM(size);
  908290:	9a41      	s32i.n	a10, a4, 4
    (*dmap)->ds_len = size;
  908292:	232504        	s16i	a3, a2, 8
    return (*dmap)->ds_addr;
  908295:	222201        	l32i	a2, a2, 4
}
  908298:	d10f      	retw.n
	...

0090829c <rcIsValidPhyRate>:

/* Return true only for single stream */

static A_BOOL
rcIsValidPhyRate(A_UINT32 phy, A_UINT32 capflag, A_BOOL ignoreCW)
{
  90829c:	6c1004        	entry	a1, 32
	if (WLAN_RC_PHY_HT(phy) && !(capflag & WLAN_RC_HT_FLAG)) {
  90829f:	6e2405        	bltui	a2, 4, 9082a8 <rcIsValidPhyRate+0xc>
		return FALSE;
  9082a2:	280a00        	movi	a8, 0
	if (WLAN_RC_PHY_HT(phy) && !(capflag & WLAN_RC_HT_FLAG)) {
  9082a5:	7c3747        	bbci	a3, 28, 9082f0 <rcIsValidPhyRate+0x54>
	}

	if (WLAN_RC_PHY_DS(phy) && !(capflag & WLAN_RC_DS_FLAG))  {
  9082a8:	c78d      	movi.n	a8, -3
  9082aa:	082801        	and	a8, a2, a8
  9082ad:	288cfb        	addi	a8, a8, -5
  9082b0:	29fafb        	movi	a9, -5
  9082b3:	098801        	and	a8, a8, a9
  9082b6:	658002        	bnez	a8, 9082bc <rcIsValidPhyRate+0x20>
  9082b9:	7f3733        	bbci	a3, 31, 9082f0 <rcIsValidPhyRate+0x54>
		return FALSE;
	}
	if (WLAN_RC_PHY_SGI(phy) && !(capflag & WLAN_RC_HT40_SGI_FLAG)) {
  9082bc:	282cf8        	addi	a8, a2, -8
  9082bf:	6f8405        	bgeui	a8, 4, 9082c8 <rcIsValidPhyRate+0x2c>
		return FALSE;
  9082c2:	280a00        	movi	a8, 0
	if (WLAN_RC_PHY_SGI(phy) && !(capflag & WLAN_RC_HT40_SGI_FLAG)) {
  9082c5:	7d3727        	bbci	a3, 29, 9082f0 <rcIsValidPhyRate+0x54>
		return FALSE;
	}

	if (!ignoreCW && WLAN_RC_PHY_HT(phy)) {
  9082c8:	c091      	movi.n	a9, 1
  9082ca:	ce40      	bnez.n	a4, 9082ee <rcIsValidPhyRate+0x52>
  9082cc:	6e241e        	bltui	a2, 4, 9082ee <rcIsValidPhyRate+0x52>
		if (WLAN_RC_PHY_40(phy) && !(capflag & WLAN_RC_40_FLAG)) {
  9082cf:	c78b      	movi.n	a8, -5
  9082d1:	222cfa        	addi	a2, a2, -6
  9082d4:	082201        	and	a2, a2, a8
			return FALSE;
		}

		if (!WLAN_RC_PHY_40(phy) && (capflag & WLAN_RC_40_FLAG)) {
  9082d7:	031840        	extui	a8, a3, 1, 1
  9082da:	098803        	xor	a8, a8, a9
		if (WLAN_RC_PHY_40(phy) && !(capflag & WLAN_RC_40_FLAG)) {
  9082dd:	6f220f        	bgeui	a2, 2, 9082f0 <rcIsValidPhyRate+0x54>
  9082e0:	c082      	movi.n	a8, 2
  9082e2:	083301        	and	a3, a3, a8
			return FALSE;
		}
	}

	return TRUE;
  9082e5:	c080      	movi.n	a8, 0
  9082e7:	039839        	movnez	a8, a9, a3
  9082ea:	600002        	j	9082f0 <rcIsValidPhyRate+0x54>
  9082ed:	00c081        	excw
}
  9082f0:	d280      	mov.n	a2, a8
  9082f2:	d10f      	retw.n

009082f4 <rcUpdate_ht$constprop$6>:
		}
	}
}

static void
rcUpdate_ht(struct ath_softc_tgt *sc, struct ath_node_target *an, int txRate,
  9082f4:	6c1006        	entry	a1, 48
  9082f7:	2c1119        	l16ui	a12, a1, 50
  9082fa:	07084f        	extui	a8, a7, 0, 16
            A_BOOL Xretries, int retries, A_UINT8 curTxAnt,
            A_UINT16 nFrames, A_UINT16 nBad)
{
	TX_RATE_CTRL *pRc;
	A_UINT32 nowMsec = A_MS_TICKGET();
  9082fd:	c0a0      	movi.n	a10, 0
  9082ff:	9811      	s32i.n	a8, a1, 4
  908301:	9c12      	s32i.n	a12, a1, 8
  908303:	9510      	s32i.n	a5, a1, 0
  908305:	5bee1a        	call8	903b70 <ath_hal_getuptime>
	A_UINT8 lastPer;
	int rate,count;
	struct atheros_node *pSib = ATH_NODE_ATHEROS(an);
  908308:	233282        	l32i	a3, a3, 0x208
	A_UINT32 nowMsec = A_MS_TICKGET();
  90830b:	d9a0      	mov.n	a9, a10
	pRc = (TX_RATE_CTRL *)(pSib);

	ASSERT(retries >= 0 && retries < MAX_TX_RETRIES);
	ASSERT(txRate >= 0);

	if (txRate < 0) {
  90830d:	8811      	l32i.n	a8, a1, 4
  90830f:	8b10      	l32i.n	a11, a1, 0
  908311:	8c12      	l32i.n	a12, a1, 8
  908313:	6431d5        	beqz	a3, 9084ec <rcUpdate_ht$constprop$6+0x1f8>
  908316:	6641d2        	bltz	a4, 9084ec <rcUpdate_ht$constprop$6+0x1f8>
	RATE_TABLE_11N *pRateTable = (RATE_TABLE_11N *)asc->hwRateTable[sc->sc_curmode];
  908319:	272248        	l32i	a7, a2, 0x120
  90831c:	2222c2        	l32i	a2, a2, 0x308
  90831f:	0e2211        	slli	a2, a2, 2
  908322:	a272      	add.n	a2, a7, a2
  908324:	8521      	l32i.n	a5, a2, 4
		return;
	}

	lastPer = pRc->state[txRate].per;
  908326:	a432      	add.n	a2, a3, a4
  908328:	272000        	l8ui	a7, a2, 0

	if (Xretries) {
  90832b:	cbb3      	beqz.n	a11, 908362 <rcUpdate_ht$constprop$6+0x6e>
		/* Update the PER. */
		if (Xretries == 1) {
  90832d:	69b115        	bnei	a11, 1, 908346 <rcUpdate_ht$constprop$6+0x52>
			pRc->state[txRate].per += 30;
  908330:	267c1e        	addi	a6, a7, 30
  908333:	060647        	extui	a6, a6, 0, 8
			if (pRc->state[txRate].per > 100) {
  908336:	280a64        	movi	a8, 100
  908339:	768303        	bltu	a8, a6, 908340 <rcUpdate_ht$constprop$6+0x4c>
  90833c:	60000e        	j	90834e <rcUpdate_ht$constprop$6+0x5a>
  90833f:	002824        	excw
				pRc->state[txRate].per = 100;
  908342:	006000        	excw
  908345:	0abc76        	excw
			if (retries >= count) {
				retries = count - 1;
			}

			/* new_PER = 7/8*old_PER + 1/8*(currentPER) */
			pRc->state[txRate].per = (A_UINT8)(pRc->state[txRate].per -
  908348:	073814        	srli	a8, a7, 3
  90834b:	08660c        	sub	a6, a6, a8
  90834e:	262400        	s8i	a6, a2, 0
						   (pRc->state[txRate].per / 8) + ((100) / 8));
		}

		/* Xretries == 1 or 2 */

		if (pRc->probeRate == txRate)
  908351:	263037        	l8ui	a6, a3, 55
  908354:	764102        	beq	a4, a6, 90835a <rcUpdate_ht$constprop$6+0x66>
  908357:	6000bd        	j	908418 <rcUpdate_ht$constprop$6+0x124>
			pRc->probeRate = 0;
  90835a:	c060      	movi.n	a6, 0
  90835c:	263437        	s8i	a6, a3, 55
  90835f:	6000b5        	j	908418 <rcUpdate_ht$constprop$6+0x124>
  908362:	c0a9      	movi.n	a10, 9
  908364:	0a6634        	min	a6, a6, a10
		count = sizeof(nRetry2PerLookup) / sizeof(nRetry2PerLookup[0]);
		if (retries >= count) {
			retries = count - 1;
		}

		if (nBad) {
  908367:	cbca      	beqz.n	a12, 9083a5 <rcUpdate_ht$constprop$6+0xb1>
			 * that part is 100 * nBad / nFrames, and it contributes
			 * 100 * nBad / (nFrames * (retries+1)) to the above
			 * PER.  The expression below is a simplified version
			 * of the sum of these two terms.
			 */
			if (nFrames > 0)
  908369:	648050        	beqz	a8, 9083bd <rcUpdate_ht$constprop$6+0xc9>
				pRc->state[txRate].per = (A_UINT8)(pRc->state[txRate].per -
					   (pRc->state[txRate].per / 8) +
					   ((100*(retries*nFrames + nBad)/(nFrames*(retries+1))) / 8));
  90836c:	068b28        	mull	a11, a8, a6
  90836f:	9811      	s32i.n	a8, a1, 4
  908371:	abcd      	add.n	a13, a12, a11
  908373:	0eda11        	slli	a10, a13, 2
  908376:	adaa      	add.n	a10, a10, a13
  908378:	0ead11        	slli	a13, a10, 2
  90837b:	adaa      	add.n	a10, a10, a13
  90837d:	ab8b      	add.n	a11, a8, a11
  90837f:	0eaa11        	slli	a10, a10, 2
  908382:	9910      	s32i.n	a9, a1, 0
  908384:	9c12      	s32i.n	a12, a1, 8
  908386:	5b7259        	call8	8e4cec <__divsi3>
  908389:	b7ab      	addi.n	a11, a10, 7
  90838b:	0aba3a        	movltz	a10, a11, a10
  90838e:	0a3a12        	srai	a10, a10, 3
				pRc->state[txRate].per = (A_UINT8)(pRc->state[txRate].per -
  908391:	aa7a      	add.n	a10, a7, a10
  908393:	073b14        	srli	a11, a7, 3
  908396:	0baa0c        	sub	a10, a10, a11
  908399:	2a2400        	s8i	a10, a2, 0
  90839c:	8811      	l32i.n	a8, a1, 4
  90839e:	8910      	l32i.n	a9, a1, 0
  9083a0:	8c12      	l32i.n	a12, a1, 8
  9083a2:	600017        	j	9083bd <rcUpdate_ht$constprop$6+0xc9>
		} else {
			/* new_PER = 7/8*old_PER + 1/8*(currentPER) */

			pRc->state[txRate].per = (A_UINT8)(pRc->state[txRate].per -
				   (pRc->state[txRate].per / 8) + (nRetry2PerLookup[retries] / 8));
  9083a5:	1a72a5        	l32r	a10, 8e4e3c <__umodsi3+0x4c>
  9083a8:	0e6b11        	slli	a11, a6, 2
  9083ab:	abaa      	add.n	a10, a10, a11
  9083ad:	8aa0      	l32i.n	a10, a10, 0
			pRc->state[txRate].per = (A_UINT8)(pRc->state[txRate].per -
  9083af:	073b14        	srli	a11, a7, 3
				   (pRc->state[txRate].per / 8) + (nRetry2PerLookup[retries] / 8));
  9083b2:	0a3a14        	srli	a10, a10, 3
			pRc->state[txRate].per = (A_UINT8)(pRc->state[txRate].per -
  9083b5:	aa7a      	add.n	a10, a7, a10
  9083b7:	0baa0c        	sub	a10, a10, a11
  9083ba:	2a2400        	s8i	a10, a2, 0
		/*
		 * If we got at most one retry then increase the max rate if
		 * this was a probe.  Otherwise, ignore the probe.
		 */

		if (pRc->probeRate && pRc->probeRate == txRate) {
  9083bd:	2a3037        	l8ui	a10, a3, 55
  9083c0:	cba8      	beqz.n	a10, 9083fc <rcUpdate_ht$constprop$6+0x108>
  9083c2:	7a4936        	bne	a4, a10, 9083fc <rcUpdate_ht$constprop$6+0x108>
			if (retries > 0 || 2 * nBad > nFrames) {
  9083c5:	6b6105        	bgei	a6, 1, 9083ce <rcUpdate_ht$constprop$6+0xda>
  9083c8:	0fcc11        	slli	a12, a12, 1
  9083cb:	7c8a09        	bge	a8, a12, 9083d8 <rcUpdate_ht$constprop$6+0xe4>
				 * any retries means the probe failed.  Also,
				 * if the attempt worked, but more than half
				 * the subframes were bad then also consider
				 * the probe a failure.
				 */
				pRc->probeRate = 0;
  9083ce:	c080      	movi.n	a8, 0
  9083d0:	283437        	s8i	a8, a3, 55
  9083d3:	600025        	j	9083fc <rcUpdate_ht$constprop$6+0x108>
  9083d6:	000024        	excw
			} else {
				pRc->rateMaxPhy = pRc->probeRate;
  9083d9:	347d26        	excw

				if (pRc->state[pRc->probeRate].per > 30) {
  9083dc:	2000c1        	l8ui	a0, a0, 193
  9083df:	8e76      	l32i.n	a14, a7, 24
  9083e1:	8b04      	l32i.n	a11, a0, 16
					pRc->state[pRc->probeRate].per = 20;
  9083e3:	c164      	movi.n	a6, 20
  9083e5:	262400        	s8i	a6, a2, 0
				}

				pRc->probeRate = 0;
  9083e8:	c060      	movi.n	a6, 0
  9083ea:	263437        	s8i	a6, a3, 55
				/*
				 * Since this probe succeeded, we allow the next probe
				 * twice as soon.  This allows the maxRate to move up
				 * faster if the probes are succesful.
				 */
				pRc->probeTime = nowMsec - pRateTable->probeInterval / 2;
  9083ed:	265001        	l8ui	a6, a5, 1
  9083f0:	061614        	srli	a6, a6, 1
  9083f3:	06960c        	sub	a6, a9, a6
  9083f6:	963f      	s32i.n	a6, a3, 60
  9083f8:	600008        	j	908404 <rcUpdate_ht$constprop$6+0x110>
  9083fb:	006a61        	excw
			}
		}

		if (retries > 0) {
  9083fe:	04c060        	excw
			 *
			 * Later: if rssiAck is close to pRc->state[txRate].rssiThres
			 * and we see lots of retries, then we could increase
			 * pRc->state[txRate].rssiThres.
			 */
			pRc->hwMaxRetryPktCnt = 0;
  908401:	600010        	j	908415 <rcUpdate_ht$constprop$6+0x121>
		} else {
			/*
			 * It worked with no retries.  First ignore bogus (small)
			 * rssiAck values.
			 */
			if (txRate == pRc->rateMaxPhy && pRc->hwMaxRetryPktCnt < 255) {
  908404:	26307d        	l8ui	a6, a3, 125
  908407:	76490d        	bne	a4, a6, 908418 <rcUpdate_ht$constprop$6+0x124>
  90840a:	263040        	l8ui	a6, a3, 64
  90840d:	280aff        	movi	a8, 255
  908410:	786104        	beq	a6, a8, 908418 <rcUpdate_ht$constprop$6+0x124>
				pRc->hwMaxRetryPktCnt++;
  908413:	b166      	addi.n	a6, a6, 1
  908415:	263440        	s8i	a6, a3, 64

	/*
	 * If this rate looks bad (high PER) then stop using it for
	 * a while (except if we are probing).
	 */
	if (pRc->state[txRate].per >= 55 && txRate > 0 &&
  908418:	2a2000        	l8ui	a10, a2, 0
  90841b:	64404b        	beqz	a4, 90846a <rcUpdate_ht$constprop$6+0x176>
  90841e:	c366      	movi.n	a6, 54
  908420:	7a6b46        	bgeu	a6, a10, 90846a <rcUpdate_ht$constprop$6+0x176>
	    pRateTable->info[txRate].rateKbps <=
            pRateTable->info[pRc->rateMaxPhy].rateKbps)
  908423:	2b307d        	l8ui	a11, a3, 125
	    pRateTable->info[txRate].rateKbps <=
  908426:	0e4811        	slli	a8, a4, 2
            pRateTable->info[pRc->rateMaxPhy].rateKbps)
  908429:	0eb611        	slli	a6, a11, 2
	    pRateTable->info[txRate].rateKbps <=
  90842c:	a488      	add.n	a8, a8, a4
            pRateTable->info[pRc->rateMaxPhy].rateKbps)
  90842e:	ab66      	add.n	a6, a6, a11
	    pRateTable->info[txRate].rateKbps <=
  908430:	0d8811        	slli	a8, a8, 3
            pRateTable->info[pRc->rateMaxPhy].rateKbps)
  908433:	0d6611        	slli	a6, a6, 3
	    pRateTable->info[txRate].rateKbps <=
  908436:	a858      	add.n	a8, a5, a8
            pRateTable->info[pRc->rateMaxPhy].rateKbps)
  908438:	a656      	add.n	a6, a5, a6
	if (pRc->state[txRate].per >= 55 && txRate > 0 &&
  90843a:	8884      	l32i.n	a8, a8, 16
  90843c:	8664      	l32i.n	a6, a6, 16
  90843e:	786328        	bltu	a6, a8, 90846a <rcUpdate_ht$constprop$6+0x176>
  908441:	040c47        	extui	a12, a4, 0, 8
	for (i = 1; i < pRc->maxValidRate ; i++) {
  908444:	2b3041        	l8ui	a11, a3, 65
  908447:	c081      	movi.n	a8, 1
  908449:	600015        	j	908462 <rcUpdate_ht$constprop$6+0x16e>
		if (pRc->validRateIndex[i] == curValidTxRate) {
  90844c:	a636      	add.n	a6, a3, a6
  90844e:	2d6042        	l8ui	a13, a6, 66
  908451:	7cd908        	bne	a13, a12, 90845d <rcUpdate_ht$constprop$6+0x169>
			*pNextIndex = pRc->validRateIndex[i-1];
  908454:	266041        	l8ui	a6, a6, 65
  908457:	26347d        	s8i	a6, a3, 125
  90845a:	60000a        	j	908468 <rcUpdate_ht$constprop$6+0x174>
  90845d:	b188      	addi.n	a8, a8, 1
	for (i = 1; i < pRc->maxValidRate ; i++) {
  90845f:	080847        	extui	a8, a8, 0, 8
  908462:	008632        	sext	a6, a8, 7
  908465:	7b62e3        	blt	a6, a11, 90844c <rcUpdate_ht$constprop$6+0x158>
	{
		rcGetNextLowerValidTxRate(pRateTable, pRc, (A_UINT8) txRate,
					  &pRc->rateMaxPhy);

		/* Don't probe for a little while. */
		pRc->probeTime = nowMsec;
  908468:	993f      	s32i.n	a9, a3, 60
	}

	/* Make sure the rates below this have lower PER */
	/* Monotonicity is kept only for rates below the current rate. */
	if (pRc->state[txRate].per < lastPer) {
  90846a:	77a307        	bltu	a10, a7, 908475 <rcUpdate_ht$constprop$6+0x181>
			}
		}
	}

	/* Maintain monotonicity for rates above the current rate*/
	for (rate = txRate; rate < pRc->rateTableSize - 1; rate++) {
  90846d:	263036        	l8ui	a6, a3, 54
  908470:	b067      	addi.n	a7, a6, -1
  908472:	600044        	j	9084ba <rcUpdate_ht$constprop$6+0x1c6>
  908475:	0e4611        	slli	a6, a4, 2
  908478:	a464      	add.n	a4, a6, a4
  90847a:	0d4411        	slli	a4, a4, 3
  90847d:	264ce4        	addi	a6, a4, -28
  908480:	d720      	mov.n	a7, a2
  908482:	a656      	add.n	a6, a5, a6
			if (pRateTable->info[rate].phy != pRateTable->info[txRate].phy) {
  908484:	a454      	add.n	a4, a5, a4
  908486:	60001b        	j	9084a5 <rcUpdate_ht$constprop$6+0x1b1>
  908489:	2a6000        	l8ui	a10, a6, 0
  90848c:	28400c        	l8ui	a8, a4, 12
  90848f:	78a9da        	bne	a10, a8, 90846d <rcUpdate_ht$constprop$6+0x179>
  908492:	b078      	addi.n	a8, a7, -1
			if (pRc->state[rate].per > pRc->state[rate+1].per) {
  908494:	2a8000        	l8ui	a10, a8, 0
  908497:	277000        	l8ui	a7, a7, 0
  90849a:	7a7b02        	bgeu	a7, a10, 9084a0 <rcUpdate_ht$constprop$6+0x1ac>
				pRc->state[rate].per = pRc->state[rate+1].per;
  90849d:	278400        	s8i	a7, a8, 0
  9084a0:	d780      	mov.n	a7, a8
  9084a2:	266cd8        	addi	a6, a6, -40
		for (rate = txRate - 1; rate >= 0; rate--) {
  9084a5:	7739e0        	bne	a3, a7, 908489 <rcUpdate_ht$constprop$6+0x195>
  9084a8:	63ffc1        	j	90846d <rcUpdate_ht$constprop$6+0x179>
  9084ab:	002420        	excw
		if (pRc->state[rate+1].per < pRc->state[rate].per) {
  9084ae:	002820        	excw
  9084b1:	01748b        	excw
  9084b4:	022424        	excw
			pRc->state[rate+1].per = pRc->state[rate].per;
  9084b7:	01b122        	excw
	for (rate = txRate; rate < pRc->rateTableSize - 1; rate++) {
  9084ba:	03240c        	sub	a4, a2, a3
  9084bd:	7742eb        	blt	a4, a7, 9084ac <rcUpdate_ht$constprop$6+0x1b8>
		}
	}

	/* Every so often, we reduce the thresholds and PER (different for CCK and OFDM). */
	if (nowMsec - pRc->perDownTime >= pRateTable->rssiReduceInterval) {
  9084c0:	22321e        	l32i	a2, a3, 120
  9084c3:	245002        	l8ui	a4, a5, 2
  9084c6:	02920c        	sub	a2, a9, a2
  9084c9:	74231f        	bltu	a2, a4, 9084ec <rcUpdate_ht$constprop$6+0x1f8>
  9084cc:	d230      	mov.n	a2, a3
  9084ce:	600011        	j	9084e3 <rcUpdate_ht$constprop$6+0x1ef>
		for (rate = 0; rate < pRc->rateTableSize; rate++) {
			pRc->state[rate].per = 7*pRc->state[rate].per/8;
  9084d1:	252000        	l8ui	a5, a2, 0
  9084d4:	0d5411        	slli	a4, a5, 3
  9084d7:	05440c        	sub	a4, a4, a5
  9084da:	043412        	srai	a4, a4, 3
  9084dd:	242400        	s8i	a4, a2, 0
  9084e0:	222c01        	addi	a2, a2, 1
		for (rate = 0; rate < pRc->rateTableSize; rate++) {
  9084e3:	03240c        	sub	a4, a2, a3
  9084e6:	7642e7        	blt	a4, a6, 9084d1 <rcUpdate_ht$constprop$6+0x1dd>
		}

		pRc->perDownTime = nowMsec;
  9084e9:	29361e        	s32i	a9, a3, 120
  9084ec:	d10f      	retw.n
	...

009084f0 <rcRateSetseries$constprop$11>:
rcRateSetseries(const RATE_TABLE_11N *pRateTable ,
  9084f0:	6c1004        	entry	a1, 32
  9084f3:	0e5911        	slli	a9, a5, 2
  9084f6:	a599      	add.n	a9, a9, a5
  9084f8:	0d9911        	slli	a9, a9, 3
	series->tries = tries;
  9084fb:	243401        	s8i	a4, a3, 1
  9084fe:	a929      	add.n	a9, a2, a9
		(WLAN_RC_PHY_DS(pRateTable->info[rix].phy) ? ATH_RC_DS_FLAG : 0) |
  908500:	2a900c        	l8ui	a10, a9, 12
  908503:	c78d      	movi.n	a8, -3
  908505:	08a801        	and	a8, a10, a8
	series->flags = (rtsctsenable? ATH_RC_RTSCTS_FLAG : 0) |
  908508:	c0c0      	movi.n	a12, 0
		(WLAN_RC_PHY_DS(pRateTable->info[rix].phy) ? ATH_RC_DS_FLAG : 0) |
  90850a:	c7db      	movi.n	a13, -5
  90850c:	288cfb        	addi	a8, a8, -5
	series->flags = (rtsctsenable? ATH_RC_RTSCTS_FLAG : 0) |
  90850f:	c0b1      	movi.n	a11, 1
  908511:	d4c0      	mov.n	a4, a12
		(WLAN_RC_PHY_DS(pRateTable->info[rix].phy) ? ATH_RC_DS_FLAG : 0) |
  908513:	0d8801        	and	a8, a8, a13
	series->flags = (rtsctsenable? ATH_RC_RTSCTS_FLAG : 0) |
  908516:	06b439        	movnez	a4, a11, a6
		(WLAN_RC_PHY_DS(pRateTable->info[rix].phy) ? ATH_RC_DS_FLAG : 0) |
  908519:	080847        	extui	a8, a8, 0, 8
	series->flags = (rtsctsenable? ATH_RC_RTSCTS_FLAG : 0) |
  90851c:	0c4611        	slli	a6, a4, 4
		(WLAN_RC_PHY_DS(pRateTable->info[rix].phy) ? ATH_RC_DS_FLAG : 0) |
  90851f:	08cb39        	movnez	a11, a12, a8
	series->flags = (rtsctsenable? ATH_RC_RTSCTS_FLAG : 0) |
  908522:	06b802        	or	a8, a11, a6
		(WLAN_RC_PHY_40(pRateTable->info[rix].phy) ? ATH_RC_CW40_FLAG : 0) |
  908525:	2bacfa        	addi	a11, a10, -6
  908528:	0dbb01        	and	a11, a11, a13
  90852b:	0b0b47        	extui	a11, a11, 0, 8
		(WLAN_RC_PHY_DS(pRateTable->info[rix].phy) ? ATH_RC_DS_FLAG : 0) |
  90852e:	c062      	movi.n	a6, 2
		(WLAN_RC_PHY_40(pRateTable->info[rix].phy) ? ATH_RC_CW40_FLAG : 0) |
  908530:	76b301        	bltu	a11, a6, 908535 <rcRateSetseries$constprop$11+0x45>
		(WLAN_RC_PHY_DS(pRateTable->info[rix].phy) ? ATH_RC_DS_FLAG : 0) |
  908533:	d6c0      	mov.n	a6, a12
		(WLAN_RC_PHY_SGI(pRateTable->info[rix].phy) ? ATH_RC_HT40_SGI_FLAG : 0);
  908535:	2aacf8        	addi	a10, a10, -8
		(WLAN_RC_PHY_40(pRateTable->info[rix].phy) ? ATH_RC_CW40_FLAG : 0) |
  908538:	0a0a47        	extui	a10, a10, 0, 8
		(WLAN_RC_PHY_DS(pRateTable->info[rix].phy) ? ATH_RC_DS_FLAG : 0) |
  90853b:	068802        	or	a8, a8, a6
		(WLAN_RC_PHY_40(pRateTable->info[rix].phy) ? ATH_RC_CW40_FLAG : 0) |
  90853e:	c060      	movi.n	a6, 0
  908540:	6fa401        	bgeui	a10, 4, 908545 <rcRateSetseries$constprop$11+0x55>
  908543:	c064      	movi.n	a6, 4
  908545:	068802        	or	a8, a8, a6
	series->flags = (rtsctsenable? ATH_RC_RTSCTS_FLAG : 0) |
  908548:	283403        	s8i	a8, a3, 3
	series->rix = pRateTable->info[rix].baseIndex;
  90854b:	0e5811        	slli	a8, a5, 2
  90854e:	a585      	add.n	a5, a8, a5
  908550:	0d5511        	slli	a5, a5, 3
  908553:	a522      	add.n	a2, a2, a5
  908555:	25201e        	l8ui	a5, a2, 30
  908558:	253400        	s8i	a5, a3, 0
	series->max4msframelen = pRateTable->info[rix].max4msframelen;
  90855b:	8229      	l32i.n	a2, a2, 36
  90855d:	9231      	s32i.n	a2, a3, 4
	series->txrateKbps = pRateTable->info[rix].rateKbps;
  90855f:	8294      	l32i.n	a2, a9, 16
  908561:	9232      	s32i.n	a2, a3, 8
	series->tx_chainmask = 1;
  908563:	c021      	movi.n	a2, 1
  908565:	223402        	s8i	a2, a3, 2
  908568:	d10f      	retw.n
	...

0090856c <rcSibUpdate_ht$isra$3$constprop$13>:
rcSibUpdate_ht(struct ath_softc_tgt *sc, struct ath_node_target *an,
  90856c:	6c105e        	entry	a1, 0x2f0
	pRateTable = (RATE_TABLE_11N*)asc->hwRateTable[sc->sc_curmode];
  90856f:	262248        	l32i	a6, a2, 0x120
  908572:	2222c2        	l32i	a2, a2, 0x308
	pRc->rateTableSize = MAX_TX_RATE_TBL;
  908575:	d730      	mov.n	a7, a3
	pRateTable = (RATE_TABLE_11N*)asc->hwRateTable[sc->sc_curmode];
  908577:	0e2211        	slli	a2, a2, 2
  90857a:	a262      	add.n	a2, a6, a2
	pRc->rateTableSize = MAX_TX_RATE_TBL;
  90857c:	c366      	movi.n	a6, 54
	pRateTable = (RATE_TABLE_11N*)asc->hwRateTable[sc->sc_curmode];
  90857e:	8221      	l32i.n	a2, a2, 4
		pRc->state[i].per       = 0;
  908580:	280a00        	movi	a8, 0
	pRc->rateTableSize = MAX_TX_RATE_TBL;
  908583:	263436        	s8i	a6, a3, 54
		pRc->state[i].per       = 0;
  908586:	260a36        	movi	a6, 54
  908589:	6d6804        	loop	a6, 908591 <rcSibUpdate_ht$isra$3$constprop$13+0x25>
  90858c:	287400        	s8i	a8, a7, 0
  90858f:	b177      	addi.n	a7, a7, 1
  908591:	273c42        	addi	a7, a3, 66
		pRc->validRateIndex[i] = FALSE;
  908594:	c080      	movi.n	a8, 0
  908596:	260a36        	movi	a6, 54
  908599:	6d6804        	loop	a6, 9085a1 <rcSibUpdate_ht$isra$3$constprop$13+0x35>
  90859c:	287400        	s8i	a8, a7, 0
  90859f:	b177      	addi.n	a7, a7, 1
	for (i = 0; i < pRc->rateTableSize; i++) {
  9085a1:	c070      	movi.n	a7, 0
  9085a3:	d910      	mov.n	a9, a1
			mPhyCtrlState.validPhyRateIndex[i][j] = 0;
  9085a5:	da70      	mov.n	a10, a7
	for (i = 0; i < WLAN_RC_PHY_MAX; i++) {
  9085a7:	2b2a88        	movi	a11, 0x288
  9085aa:	600014        	j	9085c2 <rcSibUpdate_ht$isra$3$constprop$13+0x56>
			mPhyCtrlState.validPhyRateIndex[i][j] = 0;
  9085ad:	2a6400        	s8i	a10, a6, 0
  9085b0:	b166      	addi.n	a6, a6, 1
  9085b2:	b088      	addi.n	a8, a8, -1
  9085b4:	658ff5        	bnez	a8, 9085ad <rcSibUpdate_ht$isra$3$constprop$13+0x41>
		mPhyCtrlState.validPhyRateCount[i] = 0;
  9085b7:	2a9400        	s8i	a10, a9, 0
  9085ba:	277c36        	addi	a7, a7, 54
  9085bd:	b199      	addi.n	a9, a9, 1
	for (i = 0; i < WLAN_RC_PHY_MAX; i++) {
  9085bf:	7b710b        	beq	a7, a11, 9085ce <rcSibUpdate_ht$isra$3$constprop$13+0x62>
  9085c2:	bc76      	addi.n	a6, a7, 12
  9085c4:	a616      	add.n	a6, a1, a6
	pRc->rateTableSize = MAX_TX_RATE_TBL;
  9085c6:	c386      	movi.n	a8, 54
  9085c8:	63ffe1        	j	9085ad <rcSibUpdate_ht$isra$3$constprop$13+0x41>
  9085cb:	000000        	ill
	pRc->rcPhyMode = (capflag & WLAN_RC_40_FLAG);
  9085ce:	c062      	movi.n	a6, 2
  9085d0:	064601        	and	a6, a4, a6
  9085d3:	040840        	extui	a8, a4, 0, 1
  9085d6:	26347c        	s8i	a6, a3, 124
  9085d9:	2816aa        	s32i	a8, a1, 0x2a8
	if (pRateSet == NULL || !pRateSet->rates.rs_nrates) {
  9085dc:	c854      	beqz.n	a5, 9085e4 <rcSibUpdate_ht$isra$3$constprop$13+0x78>
  9085de:	275000        	l8ui	a7, a5, 0
  9085e1:	657084        	bnez	a7, 908669 <rcSibUpdate_ht$isra$3$constprop$13+0xfd>
  9085e4:	292000        	l8ui	a9, a2, 0
	A_UINT8 i, hi = 0;
  9085e7:	c060      	movi.n	a6, 0
  9085e9:	b427      	addi.n	a7, a2, 4
  9085eb:	a939      	add.n	a9, a3, a9
	for (i = 0; i < pRateTable->rateCount; i++) {
  9085ed:	d530      	mov.n	a5, a3
			if (!rcIsValidPhyRate(phy, capflag, FALSE))
  9085ef:	de60      	mov.n	a14, a6
  9085f1:	600068        	j	90865d <rcSibUpdate_ht$isra$3$constprop$13+0xf1>
		if (singleStream) {
  9085f4:	2f12aa        	l32i	a15, a1, 0x2a8
  9085f7:	ccf5      	bnez.n	a15, 908600 <rcSibUpdate_ht$isra$3$constprop$13+0x94>
			valid = pRateTable->info[i].validSingleStream;
  9085f9:	2d7007        	l8ui	a13, a7, 7
  9085fc:	600003        	j	908603 <rcSibUpdate_ht$isra$3$constprop$13+0x97>
  9085ff:	002d70        	excw
			valid = pRateTable->info[i].valid;
  908602:	0369d1        	excw
		if (valid == TRUE) {
  908605:	512f70        	call0	9543c8 <_etext+0x49389>
			A_UINT32 phy = pRateTable->info[i].phy;
  908608:	08dce0        	excw
			if (!rcIsValidPhyRate(phy, capflag, FALSE))
  90860b:	daf0      	mov.n	a10, a15
  90860d:	db40      	mov.n	a11, a4
  90860f:	2816b0        	s32i	a8, a1, 0x2c0
  908612:	2916b1        	s32i	a9, a1, 0x2c4
  908615:	2d16b2        	s32i	a13, a1, 0x2c8
  908618:	2e16b3        	s32i	a14, a1, 0x2cc
  90861b:	2f16af        	s32i	a15, a1, 0x2bc
  90861e:	5bff1f        	call8	90829c <rcIsValidPhyRate>
  908621:	2812b0        	l32i	a8, a1, 0x2c0
  908624:	2912b1        	l32i	a9, a1, 0x2c4
  908627:	2d12b2        	l32i	a13, a1, 0x2c8
  90862a:	2e12b3        	l32i	a14, a1, 0x2cc
  90862d:	2f12af        	l32i	a15, a1, 0x2bc
  908630:	caa4      	beqz.n	a10, 908658 <rcSibUpdate_ht$isra$3$constprop$13+0xec>
			pPhyStateCtrl->validPhyRateIndex[phy][pPhyStateCtrl->validPhyRateCount[phy]] = i;
  908632:	0ffa11        	slli	a10, a15, 1
  908635:	afaa      	add.n	a10, a10, a15
  908637:	af1c      	add.n	a12, a1, a15
  908639:	0daf11        	slli	a15, a10, 3
  90863c:	afaa      	add.n	a10, a10, a15
  90863e:	2bc000        	l8ui	a11, a12, 0
  908641:	0faa11        	slli	a10, a10, 1
  908644:	aa1a      	add.n	a10, a1, a10
  908646:	0baa08        	add	a10, a10, a11
			pPhyStateCtrl->validPhyRateCount[phy] += 1;
  908649:	2bbc01        	addi	a11, a11, 1
			pPhyStateCtrl->validPhyRateIndex[phy][pPhyStateCtrl->validPhyRateCount[phy]] = i;
  90864c:	28a40c        	s8i	a8, a10, 12
			pPhyStateCtrl->validPhyRateCount[phy] += 1;
  90864f:	2bc400        	s8i	a11, a12, 0
	pRc->validRateIndex[index] = validTxRate ? TRUE : FALSE;
  908652:	2d5442        	s8i	a13, a5, 66
			hi = A_MAX(hi, i);
  908655:	068637        	maxu	a6, a8, a6
  908658:	277c28        	addi	a7, a7, 40
  90865b:	b155      	addi.n	a5, a5, 1
  90865d:	03580c        	sub	a8, a5, a3
  908660:	080847        	extui	a8, a8, 0, 8
	for (i = 0; i < pRateTable->rateCount; i++) {
  908663:	75998d        	bne	a9, a5, 9085f4 <rcSibUpdate_ht$isra$3$constprop$13+0x88>
  908666:	6001d0        	j	90883a <rcSibUpdate_ht$isra$3$constprop$13+0x2ce>
  908669:	a758      	add.n	a8, a5, a7
	A_UINT8 i, j, hi = 0;
  90866b:	c090      	movi.n	a9, 0
			    && ((valid & WLAN_RC_CAP_MODE(capflag)) ==
  90866d:	c078      	movi.n	a7, 8
  90866f:	074f01        	and	a15, a4, a7
	A_UINT8 i, j, hi = 0;
  908672:	2916a9        	s32i	a9, a1, 0x2a4
			    && ((valid & WLAN_RC_CAP_MODE(capflag)) ==
  908675:	c072      	movi.n	a7, 2
  908677:	c094      	movi.n	a9, 4
  908679:	067938        	moveqz	a9, a7, a6
  90867c:	2816ac        	s32i	a8, a1, 0x2b0
  90867f:	2516a8        	s32i	a5, a1, 0x2a0
	A_UINT8 singleStream = (capflag & WLAN_RC_DS_FLAG) ? 0 : 1;
  908682:	d850      	mov.n	a8, a5
			    && ((valid & WLAN_RC_CAP_MODE(capflag)) ==
  908684:	2f16ad        	s32i	a15, a1, 0x2b4
  908687:	c0d1      	movi.n	a13, 1
  908689:	2916ae        	s32i	a9, a1, 0x2b8
  90868c:	6000a7        	j	908737 <rcSibUpdate_ht$isra$3$constprop$13+0x1cb>
  90868f:	002f12        	srai	a15, a0, 2
			if (singleStream) {
  908692:	aacc      	add.n	a12, a12, a10
  908694:	f3          	.byte 0xf3
				valid = pRateTable->info[j].validSingleStream;
  908695:	8a61      	l32i.n	a10, a6, 4
  908697:	600001        	j	90869c <rcSibUpdate_ht$isra$3$constprop$13+0x130>
				valid = pRateTable->info[j].valid;
  90869a:	8a60      	l32i.n	a10, a6, 0
			if (((pRateSet->rs_rates[i] & 0x7F) ==
  90869c:	2b8001        	l8ui	a11, a8, 1
  90869f:	2c6016        	l8ui	a12, a6, 22
  9086a2:	0cbb03        	xor	a11, a11, a12
  9086a5:	0b0b46        	extui	a11, a11, 0, 7
  9086a8:	65b075        	bnez	a11, 908721 <rcSibUpdate_ht$isra$3$constprop$13+0x1b5>
			    && ((valid & WLAN_RC_CAP_MODE(capflag)) ==
  9086ab:	2f12ad        	l32i	a15, a1, 0x2b4
  9086ae:	2b12ae        	l32i	a11, a1, 0x2b8
  9086b1:	0fdb38        	moveqz	a11, a13, a15
  9086b4:	0baa01        	and	a10, a10, a11
  9086b7:	0baa0c        	sub	a10, a10, a11
  9086ba:	dbe0      	mov.n	a11, a14
  9086bc:	0adb38        	moveqz	a11, a13, a10
				WLAN_RC_CAP_MODE(capflag)) && !WLAN_RC_PHY_HT(phy)) {
  9086bf:	0b0a47        	extui	a10, a11, 0, 8
			A_UINT32 phy = pRateTable->info[j].phy;
  9086c2:	2f6008        	l8ui	a15, a6, 8
				WLAN_RC_CAP_MODE(capflag)) && !WLAN_RC_PHY_HT(phy)) {
  9086c5:	64a058        	beqz	a10, 908721 <rcSibUpdate_ht$isra$3$constprop$13+0x1b5>
  9086c8:	6ff455        	bgeui	a15, 4, 908721 <rcSibUpdate_ht$isra$3$constprop$13+0x1b5>
				if (!rcIsValidPhyRate(phy, capflag, FALSE))
  9086cb:	dce0      	mov.n	a12, a14
  9086cd:	daf0      	mov.n	a10, a15
  9086cf:	044b02        	or	a11, a4, a4
  9086d2:	2816b0        	s32i	a8, a1, 0x2c0
  9086d5:	2916b1        	s32i	a9, a1, 0x2c4
  9086d8:	2d16b2        	s32i	a13, a1, 0x2c8
  9086db:	2e16b3        	s32i	a14, a1, 0x2cc
  9086de:	2f16af        	s32i	a15, a1, 0x2bc
  9086e1:	5bfeee        	call8	90829c <rcIsValidPhyRate>
  9086e4:	2812b0        	l32i	a8, a1, 0x2c0
  9086e7:	2912b1        	l32i	a9, a1, 0x2c4
  9086ea:	2d12b2        	l32i	a13, a1, 0x2c8
  9086ed:	2e12b3        	l32i	a14, a1, 0x2cc
  9086f0:	2f12af        	l32i	a15, a1, 0x2bc
  9086f3:	caaa      	beqz.n	a10, 908721 <rcSibUpdate_ht$isra$3$constprop$13+0x1b5>
				pPhyStateCtrl->validPhyRateIndex[phy][pPhyStateCtrl->validPhyRateCount[phy]] = j;
  9086f5:	0ffa11        	slli	a10, a15, 1
  9086f8:	afaa      	add.n	a10, a10, a15
  9086fa:	af1c      	add.n	a12, a1, a15
  9086fc:	0daf11        	slli	a15, a10, 3
  9086ff:	afaa      	add.n	a10, a10, a15
  908701:	2bc000        	l8ui	a11, a12, 0
  908704:	0faa11        	slli	a10, a10, 1
				hi = A_MAX(hi, j);
  908707:	2f12a9        	l32i	a15, a1, 0x2a4
				pPhyStateCtrl->validPhyRateIndex[phy][pPhyStateCtrl->validPhyRateCount[phy]] = j;
  90870a:	aa1a      	add.n	a10, a1, a10
  90870c:	abaa      	add.n	a10, a10, a11
				pPhyStateCtrl->validPhyRateCount[phy] += 1;
  90870e:	b1bb      	addi.n	a11, a11, 1
  908710:	2bc400        	s8i	a11, a12, 0
				hi = A_MAX(hi, j);
  908713:	09ff37        	maxu	a15, a15, a9
	pRc->validRateIndex[index] = validTxRate ? TRUE : FALSE;
  908716:	c0c1      	movi.n	a12, 1
				pPhyStateCtrl->validPhyRateIndex[phy][pPhyStateCtrl->validPhyRateCount[phy]] = j;
  908718:	29a40c        	s8i	a9, a10, 12
	pRc->validRateIndex[index] = validTxRate ? TRUE : FALSE;
  90871b:	2c7442        	s8i	a12, a7, 66
				hi = A_MAX(hi, j);
  90871e:	2f16a9        	s32i	a15, a1, 0x2a4
  908721:	266c28        	addi	a6, a6, 40
  908724:	b177      	addi.n	a7, a7, 1
		for (j = 0; j < pRateTable->rateCount; j++) {
  908726:	2f12ab        	l32i	a15, a1, 0x2ac
  908729:	03790c        	sub	a9, a7, a3
  90872c:	090947        	extui	a9, a9, 0, 8
  90872f:	77f102        	beq	a15, a7, 908735 <rcSibUpdate_ht$isra$3$constprop$13+0x1c9>
  908732:	63ff5a        	j	908690 <rcSibUpdate_ht$isra$3$constprop$13+0x124>
  908735:	b188      	addi.n	a8, a8, 1
	for (i = 0; i < pRateSet->rs_nrates; i++) {
  908737:	2612ac        	l32i	a6, a1, 0x2b0
  90873a:	768110        	beq	a8, a6, 90874e <rcSibUpdate_ht$isra$3$constprop$13+0x1e2>
  90873d:	272000        	l8ui	a7, a2, 0
  908740:	b426      	addi.n	a6, a2, 4
  908742:	a739      	add.n	a9, a3, a7
  908744:	2916ab        	s32i	a9, a1, 0x2ac
		for (j = 0; j < pRateTable->rateCount; j++) {
  908747:	d730      	mov.n	a7, a3
			    && ((valid & WLAN_RC_CAP_MODE(capflag)) ==
  908749:	c0e0      	movi.n	a14, 0
  90874b:	63ffd7        	j	908726 <rcSibUpdate_ht$isra$3$constprop$13+0x1ba>
	A_UINT8 i, j, k, hi = 0, htHi = 0;
  90874e:	c060      	movi.n	a6, 0
		if (capflag & WLAN_RC_HT_FLAG) {
  908750:	7c4f02        	bbsi	a4, 28, 908756 <rcSibUpdate_ht$isra$3$constprop$13+0x1ea>
  908753:	6000dd        	j	908834 <rcSibUpdate_ht$isra$3$constprop$13+0x2c8>
  908756:	27501f        	l8ui	a7, a5, 31
			    || !WLAN_RC_PHY_HT_VALID(valid, capflag)
  908759:	c082      	movi.n	a8, 2
  90875b:	a755      	add.n	a5, a5, a7
  90875d:	2516ab        	s32i	a5, a1, 0x2ac
				(capflag & WLAN_RC_WEP_TKIP_FLAG)) )
  908760:	251a00        	movi	a5, 0x100
  908763:	054501        	and	a5, a4, a5
  908766:	2516ad        	s32i	a5, a1, 0x2b4
			    || !WLAN_RC_PHY_HT_VALID(valid, capflag)
  908769:	084801        	and	a8, a4, a8
  90876c:	6000a9        	j	908819 <rcSibUpdate_ht$isra$3$constprop$13+0x2ad>
  90876f:	002f12        	srai	a15, a0, 2
			if (singleStream) {
  908772:	aa2d      	add.n	a13, a2, a10
			A_UINT32 phy = pRateTable->info[j].phy;
  908774:	5008cc        	call0	90aaa8 <ath_tgt_tx_comp_aggr+0x110>
			if (singleStream) {
  908777:	f6          	.byte 0xf6
				valid = pRateTable->info[j].validSingleStream;
  908778:	2c5007        	l8ui	a12, a5, 7
  90877b:	600004        	j	908783 <rcSibUpdate_ht$isra$3$constprop$13+0x217>
  90877e:	00002c        	excw
				valid = pRateTable->info[j].valid;
  908781:	50032f        	call0	909440 <ath_buf_set_rate+0x1bc>
			     != (pRateTable->info[j].dot11Rate & 0x7F))
  908784:	12a82b        	l32r	a2, 8f2830 <memset+0xd694>
  908787:	50162a        	call0	90e030 <_etext+0x2ff1>
  90878a:	f0          	.byte 0xf0
  90878b:	200aba        	movi	a0, 186
  90878e:	030a0a        	addx4	a10, a0, a3
			if (((((struct ieee80211_rateset *)pMcsSet)->rs_rates[i] & 0x7F)
  908791:	4665a0        	excw
			    || !WLAN_RC_PHY_HT(phy)
  908794:	676ed4        	bgez	a6, 90866c <rcSibUpdate_ht$isra$3$constprop$13+0x100>
  908797:	64c0f2        	beqz	a12, 90888d <rcSibUpdate_ht$isra$3$constprop$13+0x321>
  90879a:	0fca01        	and	a10, a12, a15
			    || !WLAN_RC_PHY_HT_VALID(valid, capflag)
  90879d:	c8a0      	beqz.n	a10, 9087a1 <rcSibUpdate_ht$isra$3$constprop$13+0x235>
  90879f:	c884      	beqz.n	a8, 9087a7 <rcSibUpdate_ht$isra$3$constprop$13+0x23b>
  9087a1:	7ec058        	bnone	a12, a14, 9087fd <rcSibUpdate_ht$isra$3$constprop$13+0x291>
  9087a4:	648055        	beqz	a8, 9087fd <rcSibUpdate_ht$isra$3$constprop$13+0x291>
			    || ((pRateTable->info[j].dot11Rate == 15) &&
  9087a7:	2bbcf1        	addi	a11, a11, -15
  9087aa:	ccb6      	bnez.n	a11, 9087b4 <rcSibUpdate_ht$isra$3$constprop$13+0x248>
  9087ac:	c8a4      	beqz.n	a10, 9087b4 <rcSibUpdate_ht$isra$3$constprop$13+0x248>
				(valid & TRUE_20) &&
  9087ae:	2f12ad        	l32i	a15, a1, 0x2b4
  9087b1:	65f048        	bnez	a15, 9087fd <rcSibUpdate_ht$isra$3$constprop$13+0x291>
			if (!rcIsValidPhyRate(phy, capflag, FALSE))
  9087b4:	dad0      	mov.n	a10, a13
  9087b6:	c0c0      	movi.n	a12, 0
  9087b8:	db40      	mov.n	a11, a4
  9087ba:	2816b0        	s32i	a8, a1, 0x2c0
  9087bd:	2916b1        	s32i	a9, a1, 0x2c4
  9087c0:	2d16b2        	s32i	a13, a1, 0x2c8
  9087c3:	2e16b3        	s32i	a14, a1, 0x2cc
  9087c6:	5bfeb5        	call8	90829c <rcIsValidPhyRate>
  9087c9:	2812b0        	l32i	a8, a1, 0x2c0
  9087cc:	2912b1        	l32i	a9, a1, 0x2c4
  9087cf:	2d12b2        	l32i	a13, a1, 0x2c8
  9087d2:	2e12b3        	l32i	a14, a1, 0x2cc
  9087d5:	caa4      	beqz.n	a10, 9087fd <rcSibUpdate_ht$isra$3$constprop$13+0x291>
			pPhyStateCtrl->validPhyRateIndex[phy][pPhyStateCtrl->validPhyRateCount[phy]] = j;
  9087d7:	0fda11        	slli	a10, a13, 1
  9087da:	adaa      	add.n	a10, a10, a13
  9087dc:	ad1c      	add.n	a12, a1, a13
  9087de:	0dad11        	slli	a13, a10, 3
  9087e1:	adaa      	add.n	a10, a10, a13
  9087e3:	2bc000        	l8ui	a11, a12, 0
  9087e6:	0faa11        	slli	a10, a10, 1
  9087e9:	aa1a      	add.n	a10, a1, a10
  9087eb:	abaa      	add.n	a10, a10, a11
  9087ed:	29a40c        	s8i	a9, a10, 12
			pPhyStateCtrl->validPhyRateCount[phy] += 1;
  9087f0:	b1bb      	addi.n	a11, a11, 1
	pRc->validRateIndex[index] = validTxRate ? TRUE : FALSE;
  9087f2:	c0a1      	movi.n	a10, 1
			pPhyStateCtrl->validPhyRateCount[phy] += 1;
  9087f4:	2bc400        	s8i	a11, a12, 0
	pRc->validRateIndex[index] = validTxRate ? TRUE : FALSE;
  9087f7:	2a7442        	s8i	a10, a7, 66
			hi = A_MAX(hi, j);
  9087fa:	096637        	maxu	a6, a6, a9
  9087fd:	255c28        	addi	a5, a5, 40
  908800:	b177      	addi.n	a7, a7, 1
		for (j = 0; j < pRateTable->rateCount; j++) {
  908802:	2f12ac        	l32i	a15, a1, 0x2b0
  908805:	03790c        	sub	a9, a7, a3
  908808:	090947        	extui	a9, a9, 0, 8
  90880b:	7f7102        	beq	a7, a15, 908811 <rcSibUpdate_ht$isra$3$constprop$13+0x2a5>
  90880e:	63ff5e        	j	908770 <rcSibUpdate_ht$isra$3$constprop$13+0x204>
  908811:	2512a8        	l32i	a5, a1, 0x2a0
  908814:	b155      	addi.n	a5, a5, 1
  908816:	2516a8        	s32i	a5, a1, 0x2a0
	for (i = 0; i <  ((struct ieee80211_rateset *)pMcsSet)->rs_nrates; i++) {
  908819:	2912a8        	l32i	a9, a1, 0x2a0
  90881c:	2f12ab        	l32i	a15, a1, 0x2ac
  90881f:	7f9111        	beq	a9, a15, 908834 <rcSibUpdate_ht$isra$3$constprop$13+0x2c8>
  908822:	272000        	l8ui	a7, a2, 0
  908825:	b425      	addi.n	a5, a2, 4
  908827:	a739      	add.n	a9, a3, a7
  908829:	2916ac        	s32i	a9, a1, 0x2b0
		for (j = 0; j < pRateTable->rateCount; j++) {
  90882c:	d730      	mov.n	a7, a3
			    || !WLAN_RC_PHY_HT_VALID(valid, capflag)
  90882e:	c0e4      	movi.n	a14, 4
  908830:	63ffce        	j	908802 <rcSibUpdate_ht$isra$3$constprop$13+0x296>
  908833:	002f12        	srai	a15, a0, 2
		hi = A_MAX(hi, htHi);
  908836:	a90f      	add.n	a15, a0, a9
  908838:	6637b1        	bltz	a3, 908fed <ath_tx_update_baw+0x5>
	pRc->rateTableSize = hi + 1;
  90883b:	66c040        	bltz	a12, 90887f <rcSibUpdate_ht$isra$3$constprop$13+0x313>
  90883e:	263436        	s8i	a6, a3, 54
	pRc->rateMaxPhy    = 0;
  908841:	24347d        	s8i	a4, a3, 125
		if (!rcIsValidPhyRate(i, pRateTable->initialRateMax, TRUE) ||
  908844:	c060      	movi.n	a6, 0
  908846:	2d2003        	l8ui	a13, a2, 3
  908849:	bc18      	addi.n	a8, a1, 12
	for (i = 0, k = 0; i < WLAN_RC_PHY_MAX; i++) {
  90884b:	d560      	mov.n	a5, a6
		if (!rcIsValidPhyRate(i, pRateTable->initialRateMax, TRUE) ||
  90884d:	c091      	movi.n	a9, 1
  90884f:	de60      	mov.n	a14, a6
  908851:	60006a        	j	9088bf <rcSibUpdate_ht$isra$3$constprop$13+0x353>
			pRc->validRateIndex[k++] = mPhyCtrlState.validPhyRateIndex[i][j];
  908854:	2ba000        	l8ui	a11, a10, 0
  908857:	b145      	addi.n	a5, a4, 1
  908859:	a434      	add.n	a4, a3, a4
  90885b:	2b4442        	s8i	a11, a4, 66
  90885e:	b1aa      	addi.n	a10, a10, 1
  908860:	050447        	extui	a4, a5, 0, 8
		for (j = 0; j < mPhyCtrlState.validPhyRateCount[i]; j++) {
  908863:	7749ed        	bne	a4, a7, 908854 <rcSibUpdate_ht$isra$3$constprop$13+0x2e8>
		if (!rcIsValidPhyRate(i, pRateTable->initialRateMax, TRUE) ||
  908866:	099c02        	or	a12, a9, a9
  908869:	dbd0      	mov.n	a11, a13
  90886b:	066a02        	or	a10, a6, a6
  90886e:	2816b0        	s32i	a8, a1, 0x2c0
  908871:	2916b1        	s32i	a9, a1, 0x2c4
  908874:	2d16b2        	s32i	a13, a1, 0x2c8
  908877:	2e16b3        	s32i	a14, a1, 0x2cc
  90887a:	2f16af        	s32i	a15, a1, 0x2bc
  90887d:	5bfe87        	call8	90829c <rcIsValidPhyRate>
  908880:	2e12b3        	l32i	a14, a1, 0x2cc
  908883:	2912b1        	l32i	a9, a1, 0x2c4
  908886:	2f12af        	l32i	a15, a1, 0x2bc
  908889:	d5e0      	mov.n	a5, a14
  90888b:	0f9538        	moveqz	a5, a9, a15
  90888e:	050547        	extui	a5, a5, 0, 8
  908891:	2812b0        	l32i	a8, a1, 0x2c0
  908894:	2d12b2        	l32i	a13, a1, 0x2c8
  908897:	cd5a      	bnez.n	a5, 9088b5 <rcSibUpdate_ht$isra$3$constprop$13+0x349>
  908899:	0a9538        	moveqz	a5, a9, a10
  90889c:	cd55      	bnez.n	a5, 9088b5 <rcSibUpdate_ht$isra$3$constprop$13+0x349>
		pRc->rateMaxPhy = mPhyCtrlState.validPhyRateIndex[i][j-1];
  90889e:	0f6511        	slli	a5, a6, 1
  9088a1:	a655      	add.n	a5, a5, a6
  9088a3:	0d5a11        	slli	a10, a5, 3
  9088a6:	aa55      	add.n	a5, a5, a10
  9088a8:	0f5511        	slli	a5, a5, 1
  9088ab:	a515      	add.n	a5, a1, a5
  9088ad:	af55      	add.n	a5, a5, a15
  9088af:	25500b        	l8ui	a5, a5, 11
  9088b2:	25347d        	s8i	a5, a3, 125
  9088b5:	b166      	addi.n	a6, a6, 1
  9088b7:	288c36        	addi	a8, a8, 54
  9088ba:	d570      	mov.n	a5, a7
	for (i = 0, k = 0; i < WLAN_RC_PHY_MAX; i++) {
  9088bc:	686a10        	beqi	a6, 12, 9088d0 <rcSibUpdate_ht$isra$3$constprop$13+0x364>
		for (j = 0; j < mPhyCtrlState.validPhyRateCount[i]; j++) {
  9088bf:	a614      	add.n	a4, a1, a6
  9088c1:	2f4000        	l8ui	a15, a4, 0
  9088c4:	da80      	mov.n	a10, a8
  9088c6:	a5f7      	add.n	a7, a15, a5
  9088c8:	070747        	extui	a7, a7, 0, 8
  9088cb:	d450      	mov.n	a4, a5
  9088cd:	63ff92        	j	908863 <rcSibUpdate_ht$isra$3$constprop$13+0x2f7>
	pRc->rateMaxPhy = pRc->validRateIndex[k-4];
  9088d0:	a435      	add.n	a5, a3, a4
  9088d2:	25503e        	l8ui	a5, a5, 62
	pRc->maxValidRate = k;
  9088d5:	243441        	s8i	a4, a3, 65
	for (i=pRc->maxValidRate-1; i > 0; i--) {
  9088d8:	b044      	addi.n	a4, a4, -1
	pRc->rateMaxPhy = pRc->validRateIndex[k-4];
  9088da:	25347d        	s8i	a5, a3, 125
	for (i=pRc->maxValidRate-1; i > 0; i--) {
  9088dd:	040447        	extui	a4, a4, 0, 8
  9088e0:	c0b0      	movi.n	a11, 0
  9088e2:	600039        	j	90891f <rcSibUpdate_ht$isra$3$constprop$13+0x3b3>
				if (pRateTable->info[pRc->validRateIndex[j]].userRateKbps >
  9088e5:	a53a      	add.n	a10, a3, a5
				    pRateTable->info[pRc->validRateIndex[j+1]].userRateKbps)
  9088e7:	b155      	addi.n	a5, a5, 1
  9088e9:	a53c      	add.n	a12, a3, a5
				if (pRateTable->info[pRc->validRateIndex[j]].userRateKbps >
  9088eb:	28a042        	l8ui	a8, a10, 66
				    pRateTable->info[pRc->validRateIndex[j+1]].userRateKbps)
  9088ee:	29c042        	l8ui	a9, a12, 66
				if (pRateTable->info[pRc->validRateIndex[j]].userRateKbps >
  9088f1:	0e8711        	slli	a7, a8, 2
				    pRateTable->info[pRc->validRateIndex[j+1]].userRateKbps)
  9088f4:	0e9611        	slli	a6, a9, 2
				if (pRateTable->info[pRc->validRateIndex[j]].userRateKbps >
  9088f7:	a877      	add.n	a7, a7, a8
				    pRateTable->info[pRc->validRateIndex[j+1]].userRateKbps)
  9088f9:	a966      	add.n	a6, a6, a9
				if (pRateTable->info[pRc->validRateIndex[j]].userRateKbps >
  9088fb:	0d7711        	slli	a7, a7, 3
				    pRateTable->info[pRc->validRateIndex[j+1]].userRateKbps)
  9088fe:	0d6611        	slli	a6, a6, 3
				if (pRateTable->info[pRc->validRateIndex[j]].userRateKbps >
  908901:	a727      	add.n	a7, a2, a7
				    pRateTable->info[pRc->validRateIndex[j+1]].userRateKbps)
  908903:	a626      	add.n	a6, a2, a6
				if (pRateTable->info[pRc->validRateIndex[j]].userRateKbps >
  908905:	277205        	l32i	a7, a7, 20
  908908:	266205        	l32i	a6, a6, 20
  90890b:	776b05        	bgeu	a6, a7, 908914 <rcSibUpdate_ht$isra$3$constprop$13+0x3a8>
					pRc->validRateIndex[j] = pRc->validRateIndex[j+1];
  90890e:	29a442        	s8i	a9, a10, 66
					pRc->validRateIndex[j+1] = tmp;
  908911:	28c442        	s8i	a8, a12, 66
		for (j=0; j <= i-1; j++) {
  908914:	050547        	extui	a5, a5, 0, 8
  908917:	7452ca        	blt	a5, a4, 9088e5 <rcSibUpdate_ht$isra$3$constprop$13+0x379>
	for (i=pRc->maxValidRate-1; i > 0; i--) {
  90891a:	b044      	addi.n	a4, a4, -1
  90891c:	040447        	extui	a4, a4, 0, 8
  90891f:	c843      	beqz.n	a4, 908926 <rcSibUpdate_ht$isra$3$constprop$13+0x3ba>
  908921:	d5b0      	mov.n	a5, a11
  908923:	63fff0        	j	908917 <rcSibUpdate_ht$isra$3$constprop$13+0x3ab>
  908926:	d10f      	retw.n

00908928 <rcRateGetIndex$constprop$9>:
rcRateGetIndex(struct ath_softc_tgt *sc, struct ath_node_target *an,
  908928:	6c1004        	entry	a1, 32
	struct atheros_node     *pSib = ATH_NODE_ATHEROS(an);
  90892b:	2a2282        	l32i	a10, a2, 0x208
	if (minRate) {
  90892e:	64604a        	beqz	a6, 90897c <rcRateGetIndex$constprop$9+0x54>
	for (i = 1; i < pRc->maxValidRate ; i++) {
  908931:	2ba041        	l8ui	a11, a10, 65
  908934:	c396      	movi.n	a9, 54
  908936:	c081      	movi.n	a8, 1
  908938:	600019        	j	908955 <rcRateGetIndex$constprop$9+0x2d>
  90893b:	00a5a5        	excw
		if (pRc->validRateIndex[i] == curValidTxRate) {
  90893e:	2c5042        	l8ui	a12, a5, 66
  908941:	74c90b        	bne	a12, a4, 908950 <rcRateGetIndex$constprop$9+0x28>
  908944:	b099      	addi.n	a9, a9, -1
			*pNextIndex = pRc->validRateIndex[i-1];
  908946:	245041        	l8ui	a4, a5, 65
		for (j = RATE_TABLE_11N_SIZE; j > 0; j-- ) {
  908949:	659fe9        	bnez	a9, 908936 <rcRateGetIndex$constprop$9+0xe>
  90894c:	600036        	j	908986 <rcRateGetIndex$constprop$9+0x5e>
  90894f:	00b188        	excw
	for (i = 1; i < pRc->maxValidRate ; i++) {
  908952:	080847        	extui	a8, a8, 0, 8
  908955:	008532        	sext	a5, a8, 7
  908958:	7b52e0        	blt	a5, a11, 90893c <rcRateGetIndex$constprop$9+0x14>
  90895b:	600027        	j	908986 <rcRateGetIndex$constprop$9+0x5e>
		if (pRc->validRateIndex[i] == curValidTxRate) {
  90895e:	a9a9      	add.n	a9, a10, a9
  908960:	2c9042        	l8ui	a12, a9, 66
  908963:	74c907        	bne	a12, a4, 90896e <rcRateGetIndex$constprop$9+0x46>
		for (j = stepDown; j > 0; j-- ) {
  908966:	b055      	addi.n	a5, a5, -1
			*pNextIndex = pRc->validRateIndex[i-1];
  908968:	249041        	l8ui	a4, a9, 65
  90896b:	60000d        	j	90897c <rcRateGetIndex$constprop$9+0x54>
  90896e:	b188      	addi.n	a8, a8, 1
	for (i = 1; i < pRc->maxValidRate ; i++) {
  908970:	080847        	extui	a8, a8, 0, 8
  908973:	008932        	sext	a9, a8, 7
  908976:	7b92e4        	blt	a9, a11, 90895e <rcRateGetIndex$constprop$9+0x36>
  908979:	600009        	j	908986 <rcRateGetIndex$constprop$9+0x5e>
		for (j = stepDown; j > 0; j-- ) {
  90897c:	c856      	beqz.n	a5, 908986 <rcRateGetIndex$constprop$9+0x5e>
	for (i = 1; i < pRc->maxValidRate ; i++) {
  90897e:	2ba041        	l8ui	a11, a10, 65
  908981:	c081      	movi.n	a8, 1
  908983:	63ffec        	j	908973 <rcRateGetIndex$constprop$9+0x4b>
}
  908986:	d240      	mov.n	a2, a4
  908988:	d10f      	retw.n
	...

0090898c <rcRateFind_11n>:
{
  90898c:	6c1008        	entry	a1, 64
  90898f:	9414      	s32i.n	a4, a1, 16
	RATE_TABLE_11N *pRateTable = (RATE_TABLE_11N *)asc->hwRateTable[sc->sc_curmode];
  908991:	2422c2        	l32i	a4, a2, 0x308
{
  908994:	9313      	s32i.n	a3, a1, 12
	RATE_TABLE_11N *pRateTable = (RATE_TABLE_11N *)asc->hwRateTable[sc->sc_curmode];
  908996:	232248        	l32i	a3, a2, 0x120
  908999:	0e4411        	slli	a4, a4, 2
{
  90899c:	9711      	s32i.n	a7, a1, 4
	RATE_TABLE_11N *pRateTable = (RATE_TABLE_11N *)asc->hwRateTable[sc->sc_curmode];
  90899e:	a433      	add.n	a3, a3, a4
	rix = rcRateFind_ht(sc, asn, pRateTable, (rcflag & ATH_RC_PROBE_ALLOWED) ? 1 : 0,
  9089a0:	8811      	l32i.n	a8, a1, 4
	*isProbing = FALSE;
  9089a2:	2c1211        	l32i	a12, a1, 68
{
  9089a5:	9615      	s32i.n	a6, a1, 20
	RATE_TABLE_11N *pRateTable = (RATE_TABLE_11N *)asc->hwRateTable[sc->sc_curmode];
  9089a7:	8631      	l32i.n	a6, a3, 4
	struct atheros_node *asn = ATH_NODE_ATHEROS(an);
  9089a9:	8313      	l32i.n	a3, a1, 12
	*isProbing = FALSE;
  9089ab:	c070      	movi.n	a7, 0
	struct atheros_node *asn = ATH_NODE_ATHEROS(an);
  9089ad:	243282        	l32i	a4, a3, 0x208
	rix = rcRateFind_ht(sc, asn, pRateTable, (rcflag & ATH_RC_PROBE_ALLOWED) ? 1 : 0,
  9089b0:	080b40        	extui	a11, a8, 0, 1
	*isProbing = FALSE;
  9089b3:	97c0      	s32i.n	a7, a12, 0
	nowMsec = A_MS_TICKGET();
  9089b5:	da70      	mov.n	a10, a7
{
  9089b7:	9512      	s32i.n	a5, a1, 8
	nowMsec = A_MS_TICKGET();
  9089b9:	9b16      	s32i.n	a11, a1, 24
{
  9089bb:	251210        	l32i	a5, a1, 64
	nowMsec = A_MS_TICKGET();
  9089be:	5bec6c        	call8	903b70 <ath_hal_getuptime>
	maxIndex = pRc->maxValidRate-1;
  9089c1:	2c4041        	l8ui	a12, a4, 65
  9089c4:	b0c8      	addi.n	a8, a12, -1
	for (index = maxIndex; index >= minIndex ; index--) {
  9089c6:	080847        	extui	a8, a8, 0, 8
	bestThruput = 0;
  9089c9:	dd70      	mov.n	a13, a7
  9089cb:	8b16      	l32i.n	a11, a1, 24
  9089cd:	60004a        	j	908a1b <rcRateFind_11n+0x8f>
		rate = pRc->validRateIndex[index];
  9089d0:	a343      	add.n	a3, a4, a3
  9089d2:	293042        	l8ui	a9, a3, 66
		if (rate > pRc->rateMaxPhy) {
  9089d5:	23407d        	l8ui	a3, a4, 125
  9089d8:	79333a        	bltu	a3, a9, 908a16 <rcRateFind_11n+0x8a>
		if( bestThruput >= pRateTable->info[rate].userRateKbps)
  9089db:	0e9311        	slli	a3, a9, 2
  9089de:	a933      	add.n	a3, a3, a9
  9089e0:	0d3311        	slli	a3, a3, 3
  9089e3:	a363      	add.n	a3, a6, a3
  9089e5:	8e35      	l32i.n	a14, a3, 20
  9089e7:	7ed311        	bltu	a13, a14, 9089fc <rcRateFind_11n+0x70>
	if (rate >= pRc->rateMaxPhy && probeAllowed) {
  9089ea:	23407d        	l8ui	a3, a4, 125
  9089ed:	737371        	bltu	a7, a3, 908a62 <rcRateFind_11n+0xd6>
  9089f0:	8f11      	l32i.n	a15, a1, 4
  9089f2:	7ff76c        	bbci	a15, 31, 908a62 <rcRateFind_11n+0xd6>
  9089f5:	c070      	movi.n	a7, 0
	for (i = 0; i < pRc->maxValidRate-1; i++) {
  9089f7:	b0cc      	addi.n	a12, a12, -1
  9089f9:	600042        	j	908a3f <rcRateFind_11n+0xb3>
		perThres = pRc->state[rate].per;
  9089fc:	a943      	add.n	a3, a4, a9
  9089fe:	233000        	l8ui	a3, a3, 0
		thisThruput = pRateTable->info[rate].userRateKbps * (100 - perThres);
  908a01:	c0fc      	movi.n	a15, 12
  908a03:	0f3337        	maxu	a3, a3, a15
  908a06:	2f0a64        	movi	a15, 100
  908a09:	03f30c        	sub	a3, a15, a3
  908a0c:	0e3328        	mull	a3, a3, a14
		if (bestThruput <= thisThruput) {
  908a0f:	7d3303        	bltu	a3, a13, 908a16 <rcRateFind_11n+0x8a>
  908a12:	d790      	mov.n	a7, a9
  908a14:	dd30      	mov.n	a13, a3
  908a16:	b088      	addi.n	a8, a8, -1
	for (index = maxIndex; index >= minIndex ; index--) {
  908a18:	080847        	extui	a8, a8, 0, 8
  908a1b:	008332        	sext	a3, a8, 7
  908a1e:	673fae        	bgez	a3, 9089d0 <rcRateFind_11n+0x44>
  908a21:	63ffc5        	j	9089ea <rcRateFind_11n+0x5e>
		if (pRc->validRateIndex[i] == curValidTxRate) {
  908a24:	a748      	add.n	a8, a4, a7
  908a26:	298042        	l8ui	a9, a8, 66
  908a29:	73990d        	bne	a9, a3, 908a3a <rcRateFind_11n+0xae>
		    (nowMsec - pRc->probeTime > pRateTable->probeInterval) &&
  908a2c:	874f      	l32i.n	a7, a4, 60
  908a2e:	296001        	l8ui	a9, a6, 1
  908a31:	07a70c        	sub	a7, a10, a7
		if (rcGetNextValidTxRate( pRateTable, pRc, rate, &nextRate) &&
  908a34:	77930d        	bltu	a9, a7, 908a45 <rcRateFind_11n+0xb9>
  908a37:	600029        	j	908a64 <rcRateFind_11n+0xd8>
	for (i = 0; i < pRc->maxValidRate-1; i++) {
  908a3a:	b177      	addi.n	a7, a7, 1
  908a3c:	070747        	extui	a7, a7, 0, 8
  908a3f:	7c72e1        	blt	a7, a12, 908a24 <rcRateFind_11n+0x98>
  908a42:	60001e        	j	908a64 <rcRateFind_11n+0xd8>
		    (nowMsec - pRc->probeTime > pRateTable->probeInterval) &&
  908a45:	274040        	l8ui	a7, a4, 64
  908a48:	c978      	beqz.n	a7, 908a64 <rcRateFind_11n+0xd8>
			*pNextIndex = pRc->validRateIndex[i+1];
  908a4a:	238043        	l8ui	a3, a8, 67
			pRc->hwMaxRetryPktCnt = 0;
  908a4d:	c070      	movi.n	a7, 0
			*isProbing            = TRUE;
  908a4f:	281211        	l32i	a8, a1, 68
			pRc->hwMaxRetryPktCnt = 0;
  908a52:	274440        	s8i	a7, a4, 64
			pRc->probeRate        = rate;
  908a55:	234437        	s8i	a3, a4, 55
			pRc->probeTime        = nowMsec;
  908a58:	9a4f      	s32i.n	a10, a4, 60
			*isProbing            = TRUE;
  908a5a:	c071      	movi.n	a7, 1
  908a5c:	9780      	s32i.n	a7, a8, 0
  908a5e:	600002        	j	908a64 <rcRateFind_11n+0xd8>
  908a61:	00d370        	excw
	if (rate > (pRc->rateTableSize - 1)) {
  908a64:	274036        	l8ui	a7, a4, 54
  908a67:	773205        	blt	a3, a7, 908a70 <rcRateFind_11n+0xe4>
		rate = pRc->rateTableSize - 1;
  908a6a:	237cff        	addi	a3, a7, -1
  908a6d:	030347        	extui	a3, a3, 0, 8
	if (!(*isProbing) && pSib) {
  908a70:	2c1211        	l32i	a12, a1, 68
  908a73:	87c0      	l32i.n	a7, a12, 0
  908a75:	657148        	bnez	a7, 908bc1 <rcRateFind_11n+0x235>
		pSib->lastRateKbps = pRateTable->info[rate].rateKbps;
  908a78:	0e3811        	slli	a8, a3, 2
  908a7b:	a388      	add.n	a8, a8, a3
  908a7d:	0d8811        	slli	a8, a8, 3
  908a80:	a868      	add.n	a8, a6, a8
  908a82:	8884      	l32i.n	a8, a8, 16
  908a84:	284620        	s32i	a8, a4, 128
		((struct atheros_softc*)sc->sc_rc)->currentTxRateKbps = pSib->lastRateKbps;
  908a87:	242248        	l32i	a4, a2, 0x120
  908a8a:	9844      	s32i.n	a8, a4, 16
		((struct atheros_softc*)sc->sc_rc)->currentTxRateIndex = rate;
  908a8c:	9345      	s32i.n	a3, a4, 20
	nrix = rix;
  908a8e:	d830      	mov.n	a8, a3
	A_UINT8 i = 0;
  908a90:	d4b0      	mov.n	a4, a11
	if ((rcflag & ATH_RC_PROBE_ALLOWED) && (*isProbe)) {
  908a92:	cab4      	beqz.n	a11, 908aba <rcRateFind_11n+0x12e>
  908a94:	89c0      	l32i.n	a9, a12, 0
	A_UINT8 i = 0;
  908a96:	d470      	mov.n	a4, a7
	if ((rcflag & ATH_RC_PROBE_ALLOWED) && (*isProbe)) {
  908a98:	c99e      	beqz.n	a9, 908aba <rcRateFind_11n+0x12e>
		rcRateSetseries(pRateTable, &series[i++], 1, nrix,
  908a9a:	c0e0      	movi.n	a14, 0
  908a9c:	dd30      	mov.n	a13, a3
  908a9e:	c0c1      	movi.n	a12, 1
  908aa0:	db50      	mov.n	a11, a5
  908aa2:	066a02        	or	a10, a6, a6
  908aa5:	5bfe92        	call8	9084f0 <rcRateSetseries$constprop$11>
		nrix = rcRateGetIndex( sc, an, pRateTable, nrix, 1, FALSE);
  908aa8:	8a13      	l32i.n	a10, a1, 12
  908aaa:	c0e0      	movi.n	a14, 0
  908aac:	c0d1      	movi.n	a13, 1
  908aae:	dc30      	mov.n	a12, a3
  908ab0:	066b02        	or	a11, a6, a6
  908ab3:	5bff9d        	call8	908928 <rcRateGetIndex$constprop$9>
  908ab6:	d8a0      	mov.n	a8, a10
		rcRateSetseries(pRateTable, &series[i++], 1, nrix,
  908ab8:	c041      	movi.n	a4, 1
	tryPerRate = (numTries/numRates);
  908aba:	8b12      	l32i.n	a11, a1, 8
  908abc:	8a14      	l32i.n	a10, a1, 16
  908abe:	9816      	s32i.n	a8, a1, 24
	rcRateSetseries(pRateTable, &series[i++], tryPerRate,
  908ac0:	b147      	addi.n	a7, a4, 1
	tryPerRate = (numTries/numRates);
  908ac2:	5b708a        	call8	8e4cec <__divsi3>
	rcRateSetseries(pRateTable, &series[i++], tryPerRate,
  908ac5:	04044f        	extui	a4, a4, 0, 16
  908ac8:	0f4b11        	slli	a11, a4, 1
  908acb:	a4bb      	add.n	a11, a11, a4
  908acd:	8816      	l32i.n	a8, a1, 24
	tryPerRate = (numTries/numRates);
  908acf:	0a0947        	extui	a9, a10, 0, 8
	rcRateSetseries(pRateTable, &series[i++], tryPerRate,
  908ad2:	0ebb11        	slli	a11, a11, 2
  908ad5:	dc90      	mov.n	a12, a9
  908ad7:	c0e0      	movi.n	a14, 0
  908ad9:	dd80      	mov.n	a13, a8
  908adb:	ab5b      	add.n	a11, a5, a11
  908add:	da60      	mov.n	a10, a6
  908adf:	9917      	s32i.n	a9, a1, 28
  908ae1:	5bfe83        	call8	9084f0 <rcRateSetseries$constprop$11>
  908ae4:	8917      	l32i.n	a9, a1, 28
  908ae6:	8f14      	l32i.n	a15, a1, 16
  908ae8:	07941c        	mul16u	a4, a9, a7
  908aeb:	04f40c        	sub	a4, a15, a4
		minRate = (((i + 1) == numRates) && (rcflag & ATH_RC_MINRATE_LASTRATE)) ? 1 : 0;
  908aee:	8f11      	l32i.n	a15, a1, 4
  908af0:	040447        	extui	a4, a4, 0, 8
  908af3:	0f1f40        	extui	a15, a15, 1, 1
  908af6:	9f10      	s32i.n	a15, a1, 0
		nrix = rcRateGetIndex(sc, an, pRateTable, nrix, stepDnInc, minRate);
  908af8:	8f15      	l32i.n	a15, a1, 20
  908afa:	0f0f4f        	extui	a15, a15, 0, 16
  908afd:	9f11      	s32i.n	a15, a1, 4
  908aff:	600053        	j	908b56 <rcRateFind_11n+0x1ca>
		tryNum  = ((i + 1) == numRates) ? numTries - (tryPerRate * i) : tryPerRate ;
  908b02:	8c12      	l32i.n	a12, a1, 8
  908b04:	b17a      	addi.n	a10, a7, 1
  908b06:	0acb0c        	sub	a11, a12, a10
  908b09:	8c10      	l32i.n	a12, a1, 0
		minRate = (((i + 1) == numRates) && (rcflag & ATH_RC_MINRATE_LASTRATE)) ? 1 : 0;
  908b0b:	c0e0      	movi.n	a14, 0
		tryNum  = ((i + 1) == numRates) ? numTries - (tryPerRate * i) : tryPerRate ;
  908b0d:	0bce38        	moveqz	a14, a12, a11
  908b10:	8b12      	l32i.n	a11, a1, 8
  908b12:	df90      	mov.n	a15, a9
  908b14:	0aba0c        	sub	a10, a11, a10
  908b17:	0a4f38        	moveqz	a15, a4, a10
		nrix = rcRateGetIndex(sc, an, pRateTable, nrix, stepDnInc, minRate);
  908b1a:	8d11      	l32i.n	a13, a1, 4
  908b1c:	8a13      	l32i.n	a10, a1, 12
  908b1e:	dc80      	mov.n	a12, a8
  908b20:	db60      	mov.n	a11, a6
  908b22:	9917      	s32i.n	a9, a1, 28
  908b24:	2f1606        	s32i	a15, a1, 24
  908b27:	5bff80        	call8	908928 <rcRateGetIndex$constprop$9>
  908b2a:	d8a0      	mov.n	a8, a10
		rcRateSetseries(pRateTable, &series[i], tryNum,
  908b2c:	070a4f        	extui	a10, a7, 0, 16
  908b2f:	0fab11        	slli	a11, a10, 1
  908b32:	8f16      	l32i.n	a15, a1, 24
  908b34:	aabb      	add.n	a11, a11, a10
  908b36:	0ebb11        	slli	a11, a11, 2
  908b39:	c0e1      	movi.n	a14, 1
  908b3b:	dd80      	mov.n	a13, a8
  908b3d:	dcf0      	mov.n	a12, a15
  908b3f:	ab5b      	add.n	a11, a5, a11
  908b41:	066a02        	or	a10, a6, a6
  908b44:	9816      	s32i.n	a8, a1, 24
  908b46:	5bfe6a        	call8	9084f0 <rcRateSetseries$constprop$11>
  908b49:	8917      	l32i.n	a9, a1, 28
	for (; i < numRates; i++) {
  908b4b:	b177      	addi.n	a7, a7, 1
  908b4d:	09440c        	sub	a4, a4, a9
  908b50:	070747        	extui	a7, a7, 0, 8
  908b53:	040447        	extui	a4, a4, 0, 8
  908b56:	8f12      	l32i.n	a15, a1, 8
  908b58:	8816      	l32i.n	a8, a1, 24
  908b5a:	7f72a4        	blt	a7, a15, 908b02 <rcRateFind_11n+0x176>
	if (sc->sc_curmode == IEEE80211_MODE_11NG) {
  908b5d:	2822c2        	l32i	a8, a2, 0x308
  908b60:	698168        	bnei	a8, 1, 908bcc <rcRateFind_11n+0x240>
		dot11Rate = pRateTable->info[rix].dot11Rate;
  908b63:	0e3211        	slli	a2, a3, 2
  908b66:	a323      	add.n	a3, a2, a3
  908b68:	0d3311        	slli	a3, a3, 3
  908b6b:	a366      	add.n	a6, a6, a3
  908b6d:	24601a        	l8ui	a4, a6, 26
		if (i == 4 &&
  908b70:	697448        	bnei	a7, 4, 908bbc <rcRateFind_11n+0x230>
		    ((dot11Rate == 2 && phy == WLAN_RC_PHY_HT_40_SS) ||
  908b73:	270a00        	movi	a7, 0
  908b76:	234cfe        	addi	a3, a4, -2
  908b79:	077202        	or	a2, a7, a7
  908b7c:	038238        	moveqz	a2, a8, a3
		if (i == 4 &&
  908b7f:	020347        	extui	a3, a2, 0, 8
		phy = pRateTable->info[rix].phy;
  908b82:	26600c        	l8ui	a6, a6, 12
		if (i == 4 &&
  908b85:	77310b        	beq	a3, a7, 908b94 <rcRateFind_11n+0x208>
		    ((dot11Rate == 2 && phy == WLAN_RC_PHY_HT_40_SS) ||
  908b88:	226cfa        	addi	a2, a6, -6
  908b8b:	027839        	movnez	a8, a7, a2
		if (i == 4 &&
  908b8e:	080247        	extui	a2, a8, 0, 8
  908b91:	772905        	bne	a2, a7, 908b9a <rcRateFind_11n+0x20e>
		    ((dot11Rate == 2 && phy == WLAN_RC_PHY_HT_40_SS) ||
  908b94:	694324        	bnei	a4, 3, 908bbc <rcRateFind_11n+0x230>
  908b97:	696421        	bnei	a6, 4, 908bbc <rcRateFind_11n+0x230>
			series[3].rix = series[2].rix;
  908b9a:	225018        	l8ui	a2, a5, 24
  908b9d:	225424        	s8i	a2, a5, 36
			series[3].flags = series[2].flags;
  908ba0:	22501b        	l8ui	a2, a5, 27
  908ba3:	225427        	s8i	a2, a5, 39
			series[3].max4msframelen = series[2].max4msframelen;
  908ba6:	8257      	l32i.n	a2, a5, 28
  908ba8:	925a      	s32i.n	a2, a5, 40
  908baa:	60000e        	j	908bbc <rcRateFind_11n+0x230>
			series[0].flags |= ATH_RC_RTSCTS_FLAG;
  908bad:	225003        	l8ui	a2, a5, 3
  908bb0:	c130      	movi.n	a3, 16
  908bb2:	032202        	or	a2, a2, a3
  908bb5:	225403        	s8i	a2, a5, 3
}
  908bb8:	d10f      	retw.n
  908bba:	00006e        	excw
		if (dot11Rate <= 3 ) {
  908bbd:	44edd1        	excw
  908bc0:	0fd830        	excw
	A_UINT8 i = 0;
  908bc3:	d4b0      	mov.n	a4, a11
	if ((rcflag & ATH_RC_PROBE_ALLOWED) && (*isProbe)) {
  908bc5:	64bef1        	beqz	a11, 908aba <rcRateFind_11n+0x12e>
  908bc8:	63fece        	j	908a9a <rcRateFind_11n+0x10e>
  908bcb:	00d10f        	subx8	a1, a13, a0
	...

00908bd0 <rcUpdate_11n>:
void rcUpdate_11n(struct ath_softc_tgt *sc, struct ath_node_target *an,
		  A_UINT8 curTxAnt,
		  int finalTSIdx, int Xretries,
		  struct ath_rc_series rcs[], int nFrames,
		  int nBad, int long_retry)
{
  908bd0:	6c1008        	entry	a1, 64
  908bd3:	d920      	mov.n	a9, a2
	A_UINT32 series = 0;
	A_UINT32 rix;
	struct atheros_softc *asc = (struct atheros_softc*)sc->sc_rc;
	RATE_TABLE_11N *pRateTable = (RATE_TABLE_11N *)asc->hwRateTable[sc->sc_curmode];
  908bd5:	2492c2        	l32i	a4, a9, 0x308
  908bd8:	222248        	l32i	a2, a2, 0x120
  908bdb:	0e4411        	slli	a4, a4, 2
  908bde:	a422      	add.n	a2, a2, a4
  908be0:	8421      	l32i.n	a4, a2, 4
	struct atheros_node *pSib = ATH_NODE_ATHEROS(an);
  908be2:	223282        	l32i	a2, a3, 0x208
{
  908be5:	d870      	mov.n	a8, a7
	struct atheros_node *pSib = ATH_NODE_ATHEROS(an);
  908be7:	9214      	s32i.n	a2, a1, 16
{
  908be9:	c071      	movi.n	a7, 1

	/*
	 * If the first rate is not the final index, there are intermediate rate failures
	 * to be processed.
	 */
	if (finalTSIdx != 0) {
  908beb:	6450a6        	beqz	a5, 908c95 <rcUpdate_11n+0xc5>
  908bee:	c0a2      	movi.n	a10, 2
  908bf0:	d2a0      	mov.n	a2, a10
  908bf2:	067239        	movnez	a2, a7, a6
  908bf5:	9215      	s32i.n	a2, a1, 20
  908bf7:	c070      	movi.n	a7, 0
  908bf9:	d280      	mov.n	a2, a8
  908bfb:	60008b        	j	908c8a <rcUpdate_11n+0xba>
  908bfe:	000000        	ill

		/* Process intermediate rates that failed.*/
		for (series = 0; series < finalTSIdx ; series++) {
			if (rcs[series].tries != 0) {
  908c01:	2e2001        	l8ui	a14, a2, 1
  908c04:	64e07e        	beqz	a14, 908c86 <rcUpdate_11n+0xb6>
				flags = rcs[series].flags;
  908c07:	2c2003        	l8ui	a12, a2, 3
  908c0a:	c0b2      	movi.n	a11, 2
  908c0c:	0bca01        	and	a10, a12, a11
				/* If HT40 and we have switched mode from 40 to 20 => don't update */
				if ((flags & ATH_RC_CW40_FLAG) &&
  908c0f:	c8a9      	beqz.n	a10, 908c1c <rcUpdate_11n+0x4c>
  908c11:	8d14      	l32i.n	a13, a1, 16
  908c13:	2bd07c        	l8ui	a11, a13, 124
  908c16:	7ab102        	beq	a11, a10, 908c1c <rcUpdate_11n+0x4c>
  908c19:	600123        	j	908d40 <rcUpdate_11n+0x170>
				    (pRc->rcPhyMode != (flags & ATH_RC_CW40_FLAG))) {
					return;
				}
				if ((flags & ATH_RC_CW40_FLAG) && (flags & ATH_RC_HT40_SGI_FLAG)) {
  908c1c:	c0b6      	movi.n	a11, 6
  908c1e:	0bcb01        	and	a11, a12, a11
  908c21:	69b613        	bnei	a11, 6, 908c38 <rcUpdate_11n+0x68>
					rix = pRateTable->info[rcs[series].rix].htIndex;
  908c24:	2b2000        	l8ui	a11, a2, 0
  908c27:	0eba11        	slli	a10, a11, 2
  908c2a:	abaa      	add.n	a10, a10, a11
  908c2c:	0daa11        	slli	a10, a10, 3
  908c2f:	aa4a      	add.n	a10, a4, a10
  908c31:	2ca021        	l8ui	a12, a10, 33
  908c34:	600035        	j	908c6d <rcUpdate_11n+0x9d>
  908c37:	002b20        	excw
  908c3a:	007dc7        	excw
				} else if (flags & ATH_RC_HT40_SGI_FLAG) {
  908c3d:	0f0eba        	excw
					rix = pRateTable->info[rcs[series].rix].sgiIndex;
  908c40:	11abaa        	l32r	a1, 8f3ae8 <memset+0xe94c>
  908c43:	0daa11        	slli	a10, a10, 3
  908c46:	aa4a      	add.n	a10, a4, a10
  908c48:	2ca020        	l8ui	a12, a10, 32
  908c4b:	60001e        	j	908c6d <rcUpdate_11n+0x9d>
				} else if (flags & ATH_RC_CW40_FLAG) {
  908c4e:	c8ae      	beqz.n	a10, 908c60 <rcUpdate_11n+0x90>
					rix = pRateTable->info[rcs[series].rix].cw40Index;
  908c50:	0eba11        	slli	a10, a11, 2
  908c53:	abaa      	add.n	a10, a10, a11
  908c55:	0daa11        	slli	a10, a10, 3
  908c58:	aa4a      	add.n	a10, a4, a10
  908c5a:	2ca01f        	l8ui	a12, a10, 31
  908c5d:	60000c        	j	908c6d <rcUpdate_11n+0x9d>
				} else {
					rix = pRateTable->info[rcs[series].rix].baseIndex;
  908c60:	0eba11        	slli	a10, a11, 2
  908c63:	abaa      	add.n	a10, a10, a11
  908c65:	0daa11        	slli	a10, a10, 3
  908c68:	aa4a      	add.n	a10, a4, a10
  908c6a:	2ca01e        	l8ui	a12, a10, 30
  908c6d:	2a1210        	l32i	a10, a1, 64
				}

				/* FIXME:XXXX, too many args! */
				rcUpdate_ht(sc, an, rix, Xretries? 1 : 2, rcs[series].tries,
  908c70:	8d15      	l32i.n	a13, a1, 20
  908c72:	0a0f4f        	extui	a15, a10, 0, 16
  908c75:	9f10      	s32i.n	a15, a1, 0
  908c77:	da90      	mov.n	a10, a9
  908c79:	db30      	mov.n	a11, a3
  908c7b:	9817      	s32i.n	a8, a1, 28
  908c7d:	9916      	s32i.n	a9, a1, 24
  908c7f:	5bfd9d        	call8	9082f4 <rcUpdate_ht$constprop$6>
  908c82:	8916      	l32i.n	a9, a1, 24
  908c84:	8817      	l32i.n	a8, a1, 28
		for (series = 0; series < finalTSIdx ; series++) {
  908c86:	b177      	addi.n	a7, a7, 1
  908c88:	bc22      	addi.n	a2, a2, 12
  908c8a:	757b02        	bgeu	a7, a5, 908c90 <rcUpdate_11n+0xc0>
  908c8d:	63ff70        	j	908c01 <rcUpdate_11n+0x31>
  908c90:	600025        	j	908cb9 <rcUpdate_11n+0xe9>
  908c93:	000022        	excw
		/*
		 * Handle the special case of MIMO PS burst, where the second aggregate is sent
		 *  out with only one rate and one try. Treating it as an excessive retry penalizes
		 * the rate inordinately.
		 */
		if (rcs[0].tries == 1 && Xretries == 1) {
  908c96:	8001      	l32i.n	a0, a0, 4
  908c98:	db50      	mov.n	a11, a5
  908c9a:	b022      	addi.n	a2, a2, -1
  908c9c:	027b38        	moveqz	a11, a7, a2
  908c9f:	0b0247        	extui	a2, a11, 0, 8
  908ca2:	c82a      	beqz.n	a2, 908cb0 <rcUpdate_11n+0xe0>
  908ca4:	b062      	addi.n	a2, a6, -1
  908ca6:	dd50      	mov.n	a13, a5
  908ca8:	027d38        	moveqz	a13, a7, a2
  908cab:	0d0247        	extui	a2, a13, 0, 8
  908cae:	cc23      	bnez.n	a2, 908cb5 <rcUpdate_11n+0xe5>
	A_UINT32 series = 0;
  908cb0:	c070      	movi.n	a7, 0
  908cb2:	600003        	j	908cb9 <rcUpdate_11n+0xe9>
  908cb5:	d750      	mov.n	a7, a5
			Xretries = 2;
  908cb7:	c062      	movi.n	a6, 2
		}
	}

	flags = rcs[series].flags;
  908cb9:	0f7211        	slli	a2, a7, 1
  908cbc:	a727      	add.n	a7, a2, a7
  908cbe:	0e7711        	slli	a7, a7, 2
  908cc1:	a788      	add.n	a8, a8, a7
  908cc3:	278003        	l8ui	a7, a8, 3
  908cc6:	c052      	movi.n	a5, 2
  908cc8:	057501        	and	a5, a7, a5
	/* If HT40 and we have switched mode from 40 to 20 => don't update */
	if ((flags & ATH_RC_CW40_FLAG) &&
  908ccb:	c856      	beqz.n	a5, 908cd5 <rcUpdate_11n+0x105>
  908ccd:	8a14      	l32i.n	a10, a1, 16
  908ccf:	22a07c        	l8ui	a2, a10, 124
  908cd2:	75296a        	bne	a2, a5, 908d40 <rcUpdate_11n+0x170>
	    (pRc->rcPhyMode != (flags & ATH_RC_CW40_FLAG))) {
		return;
	}
	if ((flags & ATH_RC_CW40_FLAG) && (flags & ATH_RC_HT40_SGI_FLAG)) {
  908cd5:	c0a6      	movi.n	a10, 6
  908cd7:	0a7a01        	and	a10, a7, a10
  908cda:	228000        	l8ui	a2, a8, 0
  908cdd:	69a60f        	bnei	a10, 6, 908cf0 <rcUpdate_11n+0x120>
		rix = pRateTable->info[rcs[series].rix].htIndex;
  908ce0:	0e2511        	slli	a5, a2, 2
  908ce3:	a252      	add.n	a2, a5, a2
  908ce5:	0d2211        	slli	a2, a2, 3
  908ce8:	a244      	add.n	a4, a4, a2
  908cea:	2c4021        	l8ui	a12, a4, 33
  908ced:	600035        	j	908d26 <rcUpdate_11n+0x156>
	} else if (flags & ATH_RC_HT40_SGI_FLAG) {
  908cf0:	7d7710        	bbci	a7, 29, 908d04 <rcUpdate_11n+0x134>
		rix = pRateTable->info[rcs[series].rix].sgiIndex;
  908cf3:	0e2511        	slli	a5, a2, 2
  908cf6:	a252      	add.n	a2, a5, a2
  908cf8:	0d2211        	slli	a2, a2, 3
  908cfb:	a244      	add.n	a4, a4, a2
  908cfd:	2c4020        	l8ui	a12, a4, 32
  908d00:	600022        	j	908d26 <rcUpdate_11n+0x156>
  908d03:	00c951        	extui	a9, a0, 28, 2
	} else if (flags & ATH_RC_CW40_FLAG) {
		rix = pRateTable->info[rcs[series].rix].cw40Index;
  908d06:	0e2511        	slli	a5, a2, 2
  908d09:	a252      	add.n	a2, a5, a2
  908d0b:	0d2211        	slli	a2, a2, 3
  908d0e:	a244      	add.n	a4, a4, a2
  908d10:	2c401f        	l8ui	a12, a4, 31
  908d13:	60000f        	j	908d26 <rcUpdate_11n+0x156>
  908d16:	000000        	ill
	} else {
		rix = pRateTable->info[rcs[series].rix].baseIndex;
  908d19:	0e2511        	slli	a5, a2, 2
  908d1c:	a252      	add.n	a2, a5, a2
  908d1e:	0d2211        	slli	a2, a2, 3
  908d21:	a244      	add.n	a4, a4, a2
  908d23:	2c401e        	l8ui	a12, a4, 30
	}

	/* FIXME:XXXX, too many args! */
	rcUpdate_ht(sc, an, rix, Xretries, long_retry, curTxAnt,
  908d26:	221211        	l32i	a2, a1, 68
  908d29:	2e1212        	l32i	a14, a1, 72
  908d2c:	02024f        	extui	a2, a2, 0, 16
  908d2f:	9210      	s32i.n	a2, a1, 0
  908d31:	221210        	l32i	a2, a1, 64
  908d34:	dd60      	mov.n	a13, a6
  908d36:	020f4f        	extui	a15, a2, 0, 16
  908d39:	db30      	mov.n	a11, a3
  908d3b:	da90      	mov.n	a10, a9
  908d3d:	5bfd6d        	call8	9082f4 <rcUpdate_ht$constprop$6>
  908d40:	d10f      	retw.n
	...

00908d44 <ath_tx_status_update_rate>:

void ath_tx_status_update_rate(struct ath_softc_tgt *sc,
			       struct ath_rc_series rcs[],
			       int series,
			       WMI_TXSTATUS_EVENT *txs)
{
  908d44:	6c1004        	entry	a1, 32
	struct atheros_softc *asc = (struct atheros_softc*)sc->sc_rc;
	RATE_TABLE_11N *pRateTable = (RATE_TABLE_11N *)asc->hwRateTable[sc->sc_curmode];
  908d47:	2922c2        	l32i	a9, a2, 0x308
  908d4a:	282248        	l32i	a8, a2, 0x120
  908d4d:	0e9911        	slli	a9, a9, 2
  908d50:	a988      	add.n	a8, a8, a9

	/* HT Rate */
	if (pRateTable->info[rcs[series].rix].rateCode & 0x80) {
  908d52:	0f4911        	slli	a9, a4, 1
  908d55:	a494      	add.n	a4, a9, a4
  908d57:	0e4411        	slli	a4, a4, 2
  908d5a:	a433      	add.n	a3, a3, a4
  908d5c:	293000        	l8ui	a9, a3, 0
	RATE_TABLE_11N *pRateTable = (RATE_TABLE_11N *)asc->hwRateTable[sc->sc_curmode];
  908d5f:	8a81      	l32i.n	a10, a8, 4
	if (pRateTable->info[rcs[series].rix].rateCode & 0x80) {
  908d61:	0e9811        	slli	a8, a9, 2
  908d64:	a988      	add.n	a8, a8, a9
  908d66:	0d8811        	slli	a8, a8, 3
  908d69:	245000        	l8ui	a4, a5, 0
  908d6c:	a8aa      	add.n	a10, a10, a8
  908d6e:	22a018        	l8ui	a2, a10, 24
  908d71:	0f4811        	slli	a8, a4, 1
  908d74:	a488      	add.n	a8, a8, a4
  908d76:	a858      	add.n	a8, a5, a8
  908d78:	782739        	bbci	a2, 24, 908db5 <ath_tx_status_update_rate+0x71>
		txs->txstatus[txs->cnt].ts_rate |= SM(pRateTable->info[rcs[series].rix].dot11Rate,
  908d7b:	29a01a        	l8ui	a9, a10, 26
  908d7e:	228002        	l8ui	a2, a8, 2
  908d81:	090943        	extui	a9, a9, 0, 4
  908d84:	029902        	or	a9, a9, a2
								       ATH9K_HTC_TXSTAT_RATE);
		txs->txstatus[txs->cnt].ts_flags |= ATH9K_HTC_TXSTAT_MCS;
  908d87:	248003        	l8ui	a4, a8, 3
		txs->txstatus[txs->cnt].ts_rate |= SM(pRateTable->info[rcs[series].rix].dot11Rate,
  908d8a:	298402        	s8i	a9, a8, 2
		txs->txstatus[txs->cnt].ts_flags |= ATH9K_HTC_TXSTAT_MCS;
  908d8d:	c098      	movi.n	a9, 8
  908d8f:	094902        	or	a9, a4, a9
  908d92:	298403        	s8i	a9, a8, 3

		if (rcs[series].flags & ATH_RC_CW40_FLAG)
  908d95:	293003        	l8ui	a9, a3, 3
  908d98:	7e9708        	bbci	a9, 30, 908da4 <ath_tx_status_update_rate+0x60>
			txs->txstatus[txs->cnt].ts_flags |= ATH9K_HTC_TXSTAT_CW40;
  908d9b:	220a18        	movi	a2, 24
  908d9e:	024402        	or	a4, a4, a2
  908da1:	248403        	s8i	a4, a8, 3

		if (rcs[series].flags & ATH_RC_HT40_SGI_FLAG)
  908da4:	7d9719        	bbci	a9, 29, 908dc1 <ath_tx_status_update_rate+0x7d>
			txs->txstatus[txs->cnt].ts_flags |= ATH9K_HTC_TXSTAT_SGI;
  908da7:	248003        	l8ui	a4, a8, 3
  908daa:	c220      	movi.n	a2, 32
  908dac:	024402        	or	a4, a4, a2
  908daf:	248403        	s8i	a4, a8, 3
  908db2:	60000b        	j	908dc1 <ath_tx_status_update_rate+0x7d>

	} else {
		txs->txstatus[txs->cnt].ts_rate |= SM(rcs[series].rix, ATH9K_HTC_TXSTAT_RATE);
  908db5:	228002        	l8ui	a2, a8, 2
  908db8:	090943        	extui	a9, a9, 0, 4
  908dbb:	029902        	or	a9, a9, a2
  908dbe:	298402        	s8i	a9, a8, 2
	}

	if (rcs[series].flags & ATH_RC_RTSCTS_FLAG)
  908dc1:	223003        	l8ui	a2, a3, 3
  908dc4:	7b2714        	bbci	a2, 27, 908ddc <ath_tx_status_update_rate+0x98>
  908dc7:	245000        	l8ui	a4, a5, 0
		txs->txstatus[txs->cnt].ts_flags |= ATH9K_HTC_TXSTAT_RTC_CTS;
  908dca:	c024      	movi.n	a2, 4
  908dcc:	0f4311        	slli	a3, a4, 1
  908dcf:	a433      	add.n	a3, a3, a4
  908dd1:	a355      	add.n	a5, a5, a3
  908dd3:	235003        	l8ui	a3, a5, 3
  908dd6:	023302        	or	a3, a3, a2
  908dd9:	235403        	s8i	a3, a5, 3
  908ddc:	d10f      	retw.n
	...

00908de0 <ath_rate_attach>:

}

struct ath_ratectrl *
ath_rate_attach(struct ath_softc_tgt *sc)
{
  908de0:	6c1004        	entry	a1, 32
    return A_ALLOCRAM(size);
  908de3:	13716e        	l32r	a3, 8e539c <memset+0x200>
  908de6:	c1b8      	movi.n	a11, 24
  908de8:	223252        	l32i	a2, a3, 0x148
  908deb:	c0a0      	movi.n	a10, 0
  908ded:	0b2000        	callx8	a2
  908df0:	d2a0      	mov.n	a2, a10
	struct atheros_softc *asc;

	asc = adf_os_mem_alloc(sizeof(struct atheros_softc));
	if (asc == NULL)
  908df2:	c9a6      	beqz.n	a10, 908e0c <ath_rate_attach+0x2c>
	A_MEMSET(buf, b, size);
  908df4:	8334      	l32i.n	a3, a3, 16
  908df6:	c1c8      	movi.n	a12, 24
  908df8:	c0b0      	movi.n	a11, 0
  908dfa:	0b3000        	callx8	a3
		return NULL;

	adf_os_mem_set(asc, 0, sizeof(struct atheros_softc));
	asc->arc.arc_space = sizeof(struct atheros_node);
  908dfd:	230a88        	movi	a3, 136
  908e00:	9320      	s32i.n	a3, a2, 0

	ar5416AttachRateTables(asc);
  908e02:	da20      	mov.n	a10, a2

	asc->tx_chainmask = 1;
  908e04:	230a01        	movi	a3, 1
	ar5416AttachRateTables(asc);
  908e07:	58084e        	call8	90af40 <ar5416AttachRateTables>
	asc->tx_chainmask = 1;
  908e0a:	9323      	s32i.n	a3, a2, 12

	return &asc->arc;
}
  908e0c:	d10f      	retw.n
	...

00908e10 <ath_rate_findrate>:
                  int numRates,
                  int stepDnInc,
                  unsigned int rcflag,
                  struct ath_rc_series series[],
                  int *isProbe)
{
  908e10:	6c1006        	entry	a1, 48
  908e13:	8e1f      	l32i.n	a14, a1, 60
	*isProbe = 0;
  908e15:	c080      	movi.n	a8, 0

	if (!numRates || !numTries) {
  908e17:	c091      	movi.n	a9, 1
	*isProbe = 0;
  908e19:	98e0      	s32i.n	a8, a14, 0
	if (!numRates || !numTries) {
  908e1b:	079838        	moveqz	a8, a9, a7
  908e1e:	080847        	extui	a8, a8, 0, 8
{
  908e21:	dd70      	mov.n	a13, a7
  908e23:	da20      	mov.n	a10, a2
  908e25:	db30      	mov.n	a11, a3
  908e27:	dc60      	mov.n	a12, a6
	if (!numRates || !numTries) {
  908e29:	cd80      	bnez.n	a8, 908e3d <ath_rate_findrate+0x2d>
  908e2b:	069838        	moveqz	a8, a9, a6
  908e2e:	cc8b      	bnez.n	a8, 908e3d <ath_rate_findrate+0x2d>
	*isProbe = 0;
	if (!numRates || !numTries) {
		return;
	}

	rcRateFind_11n(sc, an, numTries, numRates, stepDnInc, rcflag, series, isProbe);
  908e30:	881e      	l32i.n	a8, a1, 56
  908e32:	9e11      	s32i.n	a14, a1, 4
  908e34:	8f1d      	l32i.n	a15, a1, 52
  908e36:	8e1c      	l32i.n	a14, a1, 48
  908e38:	9810      	s32i.n	a8, a1, 0
  908e3a:	5bfed4        	call8	90898c <rcRateFind_11n>
  908e3d:	d10f      	retw.n
	...

00908e40 <ath_rate_tx_complete>:
{
  908e40:	6c1006        	entry	a1, 48
			 int nframes, int nbad)
{
	int finalTSIdx = ds->ds_txstat.ts_rate;
	int tx_status = 0;

	if ((ds->ds_txstat.ts_status & HAL_TXERR_XRETRY) ||
  908e43:	284066        	l8ui	a8, a4, 102
  908e46:	c095      	movi.n	a9, 5
  908e48:	098801        	and	a8, a8, a9
{
  908e4b:	da20      	mov.n	a10, a2
  908e4d:	db30      	mov.n	a11, a3
  908e4f:	df50      	mov.n	a15, a5
	int finalTSIdx = ds->ds_txstat.ts_rate;
  908e51:	2d4068        	l8ui	a13, a4, 104
	if ((ds->ds_txstat.ts_status & HAL_TXERR_XRETRY) ||
  908e54:	c0e1      	movi.n	a14, 1
  908e56:	cc8a      	bnez.n	a8, 908e64 <ath_rate_tx_complete+0x24>
	    (ds->ds_txstat.ts_status & HAL_TXERR_FIFO) ||
	    (ds->ds_txstat.ts_flags & HAL_TX_DATA_UNDERRUN) ||
  908e58:	294067        	l8ui	a9, a4, 103
  908e5b:	2c0a18        	movi	a12, 24
  908e5e:	0c9901        	and	a9, a9, a12
  908e61:	098e38        	moveqz	a14, a8, a9
	    (ds->ds_txstat.ts_flags & HAL_TX_DELIM_UNDERRUN)) {
		tx_status = 1;
	}

	rcUpdate_11n(sc, an,
  908e64:	2c4073        	l8ui	a12, a4, 115
  908e67:	244071        	l8ui	a4, a4, 113
  908e6a:	9711      	s32i.n	a7, a1, 4
  908e6c:	9412      	s32i.n	a4, a1, 8
  908e6e:	261600        	s32i	a6, a1, 0
  908e71:	5bff57        	call8	908bd0 <rcUpdate_11n>
  908e74:	d10f      	retw.n
	...

00908e78 <ath_rate_newassoc>:
{
  908e78:	6c1004        	entry	a1, 32
  908e7b:	da20      	mov.n	a10, a2
  908e7d:	dc50      	mov.n	a12, a5
  908e7f:	dd60      	mov.n	a13, a6

static void
ath_rate_newassoc_11n(struct ath_softc_tgt *sc, struct ath_node_target *an, int isnew,
		      unsigned int capflag, struct ieee80211_rate *rs)
{
	if (isnew) {
  908e81:	c844      	beqz.n	a4, 908e89 <ath_rate_newassoc+0x11>
#ifdef MAGPIE_MERLIN
		struct atheros_node *oan = ATH_NODE_ATHEROS(an);
		/* Only MERLIN can send STBC */
		oan->stbc = (capflag & ATH_RC_TX_STBC_FLAG) ? 1 : 0;
#endif
		rcSibUpdate_ht(sc, an, capflag, 0, rs);
  908e83:	2b3282        	l32i	a11, a3, 0x208
  908e86:	5bfdb9        	call8	90856c <rcSibUpdate_ht$isra$3$constprop$13>
  908e89:	d10f      	retw.n
	...

00908e8c <ath_rate_node_update>:
{
  908e8c:	6c1004        	entry	a1, 32
  908e8f:	da20      	mov.n	a10, a2
  908e91:	dc50      	mov.n	a12, a5
  908e93:	dd60      	mov.n	a13, a6
	if (isnew) {
  908e95:	c844      	beqz.n	a4, 908e9d <ath_rate_node_update+0x11>
		rcSibUpdate_ht(sc, an, capflag, 0, rs);
  908e97:	2b3282        	l32i	a11, a3, 0x208
  908e9a:	5bfdb4        	call8	90856c <rcSibUpdate_ht$isra$3$constprop$13>
  908e9d:	d10f      	retw.n
	...

00908ea0 <ath_rate_newstate>:
{
  908ea0:	6c1004        	entry	a1, 32
	asc->tx_chainmask = sc->sc_ic.ic_tx_chainmask;
  908ea3:	2b2d16        	addmi	a11, a2, 0x1600
	struct ieee80211_node_target *ni = vap->iv_bss;
  908ea6:	8834      	l32i.n	a8, a3, 16
	asc->tx_chainmask = sc->sc_ic.ic_tx_chainmask;
  908ea8:	292248        	l32i	a9, a2, 0x120
  908eab:	2bb026        	l8ui	a11, a11, 38
{
  908eae:	da20      	mov.n	a10, a2
	asc->tx_chainmask = sc->sc_ic.ic_tx_chainmask;
  908eb0:	9b93      	s32i.n	a11, a9, 12
		rcSibUpdate_ht(sc, an, capflag, 0, rs);
  908eb2:	2b8282        	l32i	a11, a8, 0x208
  908eb5:	dd60      	mov.n	a13, a6
  908eb7:	dc50      	mov.n	a12, a5
  908eb9:	5bfdac        	call8	90856c <rcSibUpdate_ht$isra$3$constprop$13>
  908ebc:	d10f      	retw.n
	...

00908ec0 <__adf_os_mem_copy>:
{
  908ec0:	6c1004        	entry	a1, 32
    A_MEMCPY(dst,src,size);
  908ec3:	18716e        	l32r	a8, 8e547c <memset+0x2e0>
  908ec6:	dc40      	mov.n	a12, a4
  908ec8:	8885      	l32i.n	a8, a8, 20
  908eca:	db30      	mov.n	a11, a3
  908ecc:	da20      	mov.n	a10, a2
  908ece:	0b8000        	callx8	a8
  908ed1:	d10f      	retw.n
	...

00908ed4 <ieee80211_anyhdrsize>:
/*
 * Like ieee80211_hdrsize, but handles any type of frame.
 */
static __inline a_int32_t
ieee80211_anyhdrsize(const void *data)
{
  908ed4:	6c1004        	entry	a1, 32
	const struct ieee80211_frame *wh = data;

	if ((wh->i_fc[0]&IEEE80211_FC0_TYPE_MASK) == IEEE80211_FC0_TYPE_CTL) {
  908ed7:	282000        	l8ui	a8, a2, 0
  908eda:	c09c      	movi.n	a9, 12
  908edc:	098901        	and	a9, a8, a9
  908edf:	699415        	bnei	a9, 4, 908ef8 <ieee80211_anyhdrsize+0x24>
		switch (wh->i_fc[0] & IEEE80211_FC0_SUBTYPE_MASK) {
  908ee2:	c720      	movi.n	a2, -16
  908ee4:	028801        	and	a8, a8, a2
  908ee7:	220ac0        	movi	a2, 192
  908eea:	72812f        	beq	a8, a2, 908f1d <ieee80211_anyhdrsize+0x49>
  908eed:	220ad0        	movi	a2, 208
  908ef0:	728129        	beq	a8, a2, 908f1d <ieee80211_anyhdrsize+0x49>
		case IEEE80211_FC0_SUBTYPE_CTS:
		case IEEE80211_FC0_SUBTYPE_ACK:
			return sizeof(struct ieee80211_frame_ack);
		}
		return sizeof(struct ieee80211_frame_min);
  908ef3:	c120      	movi.n	a2, 16
  908ef5:	d10f      	retw.n
  908ef7:	002220        	excw
	if ((wh->i_fc[1] & IEEE80211_FC1_DIR_MASK) == IEEE80211_FC1_DIR_DSTODS)
  908efa:	01c1a8        	excw
  908efd:	020241        	extui	a2, a2, 0, 2
		size += IEEE80211_ADDR_LEN;
  908f00:	222cfd        	addi	a2, a2, -3
  908f03:	c19e      	movi.n	a9, 30
  908f05:	02a939        	movnez	a9, a10, a2
  908f08:	d290      	mov.n	a2, a9
	if (IEEE80211_QOS_HAS_SEQ(wh))
  908f0a:	29fa8c        	movi	a9, -116
  908f0d:	098801        	and	a8, a8, a9
		size += sizeof(a_uint16_t);
  908f10:	2a0a88        	movi	a10, 136
  908f13:	b229      	addi.n	a9, a2, 2
  908f15:	0a880c        	sub	a8, a8, a10
  908f18:	089238        	moveqz	a2, a9, a8
  908f1b:	d10f      	retw.n
			return sizeof(struct ieee80211_frame_ack);
  908f1d:	c02a      	movi.n	a2, 10
	} else
		return ieee80211_hdrsize(data);
}
  908f1f:	d10f      	retw.n
  908f21:	000000        	ill

00908f24 <owl_tgt_tid_init>:
	ath_rate_findrate(sc, an, 1, frameLen, 10, 4, 1,
			  ATH_RC_PROBE_ALLOWED, series, isProbe);
}

static void owl_tgt_tid_init(struct ath_atx_tid *tid)
{
  908f24:	6c1004        	entry	a1, 32
	int i;

	tid->seq_start  = tid->seq_next = 0;
  908f27:	c090      	movi.n	a9, 0
	tid->baw_size   = WME_MAX_BA;
  908f29:	c480      	movi.n	a8, 64
	tid->seq_start  = tid->seq_next = 0;
  908f2b:	292503        	s16i	a9, a2, 6
  908f2e:	292502        	s16i	a9, a2, 4
	tid->baw_size   = WME_MAX_BA;
  908f31:	282504        	s16i	a8, a2, 8
	tid->baw_head   = tid->baw_tail = 0;
	tid->paused     = 0;
  908f34:	292434        	s8i	a9, a2, 52
	tid->baw_head   = tid->baw_tail = 0;
  908f37:	c080      	movi.n	a8, 0
	tid->flag       = 0;
  908f39:	292436        	s8i	a9, a2, 54
	tid->sched      = AH_FALSE;
  908f3c:	292435        	s8i	a9, a2, 53

	asf_tailq_init(&tid->buf_q);
  908f3f:	292c2c        	addi	a9, a2, 44
	tid->baw_head   = tid->baw_tail = 0;
  908f42:	9824      	s32i.n	a8, a2, 16
  908f44:	9823      	s32i.n	a8, a2, 12
	asf_tailq_init(&tid->buf_q);
  908f46:	982b      	s32i.n	a8, a2, 44
  908f48:	992c      	s32i.n	a9, a2, 48

	for (i = 0; i < ATH_TID_MAX_BUFS; i++) {
		TX_BUF_BITMAP_CLR(tid->tx_buf_bitmap, i);
  908f4a:	c0e1      	movi.n	a14, 1
  908f4c:	c7df      	movi.n	a13, -1
  908f4e:	2a0a80        	movi	a10, 128
  908f51:	6da819        	loop	a10, 908f6e <owl_tgt_tid_init+0x4a>
  908f54:	085912        	srai	a9, a8, 5
  908f57:	0e9911        	slli	a9, a9, 2
  908f5a:	008104        	ssl	a8
  908f5d:	00eb1a        	sll	a11, a14
  908f60:	a929      	add.n	a9, a2, a9
  908f62:	0bdc03        	xor	a12, a13, a11
  908f65:	8b95      	l32i.n	a11, a9, 20
	for (i = 0; i < ATH_TID_MAX_BUFS; i++) {
  908f67:	b188      	addi.n	a8, a8, 1
		TX_BUF_BITMAP_CLR(tid->tx_buf_bitmap, i);
  908f69:	0cbb01        	and	a11, a11, a12
  908f6c:	9b95      	s32i.n	a11, a9, 20
	}
}
  908f6e:	d10f      	retw.n

00908f70 <ath_tgt_txq_add_ucast>:

	return 0;
}

static void ath_tgt_txq_add_ucast(struct ath_softc_tgt *sc, struct ath_tx_buf *bf)
{
  908f70:	6c1006        	entry	a1, 48
	struct ath_hal *ah = sc->sc_ah;
	struct ath_txq *txq;
	volatile a_int32_t txe_val;

	adf_os_assert(bf);
  908f73:	cc31      	bnez.n	a3, 908f78 <ath_tgt_txq_add_ucast+0x8>
  908f75:	63fffc        	j	908f75 <ath_tgt_txq_add_ucast+0x5>
	struct ath_hal *ah = sc->sc_ah;
  908f78:	222d05        	addmi	a2, a2, 0x500
  908f7b:	842b      	l32i.n	a4, a2, 44

	txq = bf->bf_txq;

	ah->ah_procTxDesc(ah, bf->bf_lastds);
  908f7d:	8b3e      	l32i.n	a11, a3, 56
  908f7f:	28421a        	l32i	a8, a4, 104
  908f82:	da40      	mov.n	a10, a4
	txq = bf->bf_txq;
  908f84:	223220        	l32i	a2, a3, 128
	ah->ah_procTxDesc(ah, bf->bf_lastds);
  908f87:	0b8000        	callx8	a8

	ATH_TXQ_INSERT_TAIL(txq, bf, bf_list);
  908f8a:	c080      	movi.n	a8, 0
  908f8c:	9839      	s32i.n	a8, a3, 36
  908f8e:	8823      	l32i.n	a8, a2, 12
  908f90:	983a      	s32i.n	a8, a3, 40
  908f92:	9380      	s32i.n	a3, a8, 0
  908f94:	283c24        	addi	a8, a3, 36
  908f97:	9823      	s32i.n	a8, a2, 12
  908f99:	8824      	l32i.n	a8, a2, 16
  908f9b:	9325      	s32i.n	a3, a2, 20
  908f9d:	b188      	addi.n	a8, a8, 1
  908f9f:	9824      	s32i.n	a8, a2, 16

	if (txq->axq_link == NULL) {
  908fa1:	8821      	l32i.n	a8, a2, 4
  908fa3:	cc87      	bnez.n	a8, 908fae <ath_tgt_txq_add_ucast+0x3e>
		ah->ah_setTxDP(ah, txq->axq_qnum, ATH_BUF_GET_DESC_PHY_ADDR(bf));
  908fa5:	884a      	l32i.n	a8, a4, 40
  908fa7:	8c3c      	l32i.n	a12, a3, 48
  908fa9:	8b20      	l32i.n	a11, a2, 0
  908fab:	600022        	j	908fd1 <ath_tgt_txq_add_ucast+0x61>
	} else {
		*txq->axq_link = ATH_BUF_GET_DESC_PHY_ADDR(bf);
  908fae:	8c3c      	l32i.n	a12, a3, 48
  908fb0:	9c80      	s32i.n	a12, a8, 0
  908fb2:	187229        	l32r	a8, 8e5858 <memset+0x6bc>

		txe_val = ioread32_mac(0x0840);
		if (!(txe_val & (1<< txq->axq_qnum)))
  908fb5:	8b20      	l32i.n	a11, a2, 0
  908fb7:	0c0200        	memw
  908fba:	8880      	l32i.n	a8, a8, 0
		txe_val = ioread32_mac(0x0840);
  908fbc:	0c0200        	memw
  908fbf:	9810      	s32i.n	a8, a1, 0
		if (!(txe_val & (1<< txq->axq_qnum)))
  908fc1:	0c0200        	memw
  908fc4:	8810      	l32i.n	a8, a1, 0
  908fc6:	00b004        	ssr	a11
  908fc9:	08081b        	sra	a8, a8
  908fcc:	7f8f06        	bbsi	a8, 31, 908fd6 <ath_tgt_txq_add_ucast+0x66>
			ah->ah_setTxDP(ah, txq->axq_qnum, ATH_BUF_GET_DESC_PHY_ADDR(bf));
  908fcf:	884a      	l32i.n	a8, a4, 40
  908fd1:	da40      	mov.n	a10, a4
  908fd3:	0b8000        	callx8	a8
	}

	txq->axq_link = &bf->bf_lastds->ds_link;
  908fd6:	833e      	l32i.n	a3, a3, 56
	ah->ah_startTxDma(ah, txq->axq_qnum);
  908fd8:	8b20      	l32i.n	a11, a2, 0
	txq->axq_link = &bf->bf_lastds->ds_link;
  908fda:	9321      	s32i.n	a3, a2, 4
	ah->ah_startTxDma(ah, txq->axq_qnum);
  908fdc:	834c      	l32i.n	a3, a4, 48
  908fde:	044a02        	or	a10, a4, a4
  908fe1:	0b3000        	callx8	a3
  908fe4:	d10f      	retw.n
	...

00908fe8 <ath_tx_update_baw>:
	ath_tgt_tx_enqueue(txq, tid);
}

static void
ath_tx_update_baw(ath_atx_tid_t *tid, int seqno)
{
  908fe8:	6c1004        	entry	a1, 32
	int index;
	int cindex;

	index  = ATH_BA_INDEX(tid->seq_start, seqno);
  908feb:	282102        	l16ui	a8, a2, 4
	cindex = (tid->baw_head + index) & (ATH_TID_MAX_BUFS - 1);

	TX_BUF_BITMAP_CLR(tid->tx_buf_bitmap, cindex);
  908fee:	c091      	movi.n	a9, 1
	index  = ATH_BA_INDEX(tid->seq_start, seqno);
  908ff0:	08330c        	sub	a3, a3, a8
	cindex = (tid->baw_head + index) & (ATH_TID_MAX_BUFS - 1);
  908ff3:	8823      	l32i.n	a8, a2, 12
	index  = ATH_BA_INDEX(tid->seq_start, seqno);
  908ff5:	03034b        	extui	a3, a3, 0, 12
	cindex = (tid->baw_head + index) & (ATH_TID_MAX_BUFS - 1);
  908ff8:	a833      	add.n	a3, a3, a8
	TX_BUF_BITMAP_CLR(tid->tx_buf_bitmap, cindex);
  908ffa:	035841        	extui	a8, a3, 5, 2
  908ffd:	0e8811        	slli	a8, a8, 2
  909000:	a828      	add.n	a8, a2, a8
  909002:	003104        	ssl	a3
  909005:	00931a        	sll	a3, a9
  909008:	c7af      	movi.n	a10, -1
  90900a:	03aa03        	xor	a10, a10, a3
  90900d:	8385      	l32i.n	a3, a8, 20
  90900f:	0a3301        	and	a3, a3, a10
  909012:	9385      	s32i.n	a3, a8, 20

	while (tid->baw_head != tid->baw_tail &&
  909014:	8a24      	l32i.n	a10, a2, 16
  909016:	600011        	j	90902b <ath_tx_update_baw+0x43>
	       (!TX_BUF_BITMAP_IS_SET(tid->tx_buf_bitmap, tid->baw_head))) {
		INCR(tid->seq_start, IEEE80211_SEQ_MAX);
  909019:	282102        	l16ui	a8, a2, 4
		INCR(tid->baw_head, ATH_TID_MAX_BUFS);
  90901c:	b133      	addi.n	a3, a3, 1
		INCR(tid->seq_start, IEEE80211_SEQ_MAX);
  90901e:	b188      	addi.n	a8, a8, 1
  909020:	08084b        	extui	a8, a8, 0, 12
		INCR(tid->baw_head, ATH_TID_MAX_BUFS);
  909023:	030346        	extui	a3, a3, 0, 7
		INCR(tid->seq_start, IEEE80211_SEQ_MAX);
  909026:	282502        	s16i	a8, a2, 4
		INCR(tid->baw_head, ATH_TID_MAX_BUFS);
  909029:	9323      	s32i.n	a3, a2, 12
	while (tid->baw_head != tid->baw_tail &&
  90902b:	8323      	l32i.n	a3, a2, 12
  90902d:	7a3114        	beq	a3, a10, 909045 <ath_tx_update_baw+0x5d>
	       (!TX_BUF_BITMAP_IS_SET(tid->tx_buf_bitmap, tid->baw_head))) {
  909030:	035812        	srai	a8, a3, 5
  909033:	b488      	addi.n	a8, a8, 4
  909035:	0e8811        	slli	a8, a8, 2
  909038:	a828      	add.n	a8, a2, a8
  90903a:	8c81      	l32i.n	a12, a8, 4
  90903c:	003104        	ssl	a3
  90903f:	009b1a        	sll	a11, a9
	while (tid->baw_head != tid->baw_tail &&
  909042:	7cb0d3        	bnone	a11, a12, 909019 <ath_tx_update_baw+0x31>
  909045:	d10f      	retw.n
	...

00909048 <ath_update_stats$isra$1>:
ath_update_stats(struct ath_softc_tgt *sc, struct ath_tx_buf *bf)
  909048:	6c1004        	entry	a1, 32
	if (ds->ds_txstat.ts_status == 0) {
  90904b:	283066        	l8ui	a8, a3, 102
  90904e:	cc8f      	bnez.n	a8, 909061 <ath_update_stats$isra$1+0x19>
		if (ds->ds_txstat.ts_rate & HAL_TXSTAT_ALTRATE)
  909050:	283068        	l8ui	a8, a3, 104
  909053:	788739        	bbci	a8, 24, 909090 <ath_update_stats$isra$1+0x48>
			sc->sc_tx_stats.ast_tx_altrate++;
  909056:	282259        	l32i	a8, a2, 0x164
  909059:	b188      	addi.n	a8, a8, 1
  90905b:	282659        	s32i	a8, a2, 0x164
  90905e:	60002e        	j	909090 <ath_update_stats$isra$1+0x48>
		if (ds->ds_txstat.ts_status & HAL_TXERR_XRETRY)
  909061:	7f8708        	bbci	a8, 31, 90906d <ath_update_stats$isra$1+0x25>
			sc->sc_tx_stats.ast_tx_xretries++;
  909064:	292252        	l32i	a9, a2, 0x148
  909067:	299c01        	addi	a9, a9, 1
  90906a:	292652        	s32i	a9, a2, 0x148
		if (ds->ds_txstat.ts_status & HAL_TXERR_FIFO)
  90906d:	7d8708        	bbci	a8, 29, 909079 <ath_update_stats$isra$1+0x31>
			sc->sc_tx_stats.ast_tx_fifoerr++;
  909070:	292253        	l32i	a9, a2, 0x14c
  909073:	299c01        	addi	a9, a9, 1
  909076:	292653        	s32i	a9, a2, 0x14c
		if (ds->ds_txstat.ts_status & HAL_TXERR_FILT)
  909079:	7e8708        	bbci	a8, 30, 909085 <ath_update_stats$isra$1+0x3d>
			sc->sc_tx_stats.ast_tx_filtered++;
  90907c:	292254        	l32i	a9, a2, 0x150
  90907f:	299c01        	addi	a9, a9, 1
  909082:	292654        	s32i	a9, a2, 0x150
		if (ds->ds_txstat.ts_status & HAL_TXERR_TIMER_EXPIRED)
  909085:	7b8707        	bbci	a8, 27, 909090 <ath_update_stats$isra$1+0x48>
			sc->sc_tx_stats.ast_tx_timer_exp++;
  909088:	282255        	l32i	a8, a2, 0x154
  90908b:	b188      	addi.n	a8, a8, 1
  90908d:	282655        	s32i	a8, a2, 0x154
	lr = ds->ds_txstat.ts_longretry;
  909090:	293071        	l8ui	a9, a3, 113
	sc->sc_tx_stats.ast_tx_shortretry += sr;
  909093:	282256        	l32i	a8, a2, 0x158
	sr = ds->ds_txstat.ts_shortretry;
  909096:	233070        	l8ui	a3, a3, 112
	sc->sc_tx_stats.ast_tx_shortretry += sr;
  909099:	a388      	add.n	a8, a8, a3
	sc->sc_tx_stats.ast_tx_longretry += lr;
  90909b:	232257        	l32i	a3, a2, 0x15c
	sc->sc_tx_stats.ast_tx_shortretry += sr;
  90909e:	282656        	s32i	a8, a2, 0x158
	sc->sc_tx_stats.ast_tx_longretry += lr;
  9090a1:	a933      	add.n	a3, a3, a9
  9090a3:	232657        	s32i	a3, a2, 0x15c
  9090a6:	d10f      	retw.n

009090a8 <ath_tgt_tx_enqueue$isra$3>:
ath_tgt_tx_enqueue(struct ath_txq *txq, struct ath_atx_tid  *tid)
  9090a8:	6c1004        	entry	a1, 32
	if (tid->paused)
  9090ab:	283034        	l8ui	a8, a3, 52
  9090ae:	cd88      	bnez.n	a8, 9090ca <ath_tgt_tx_enqueue$isra$3+0x22>
	if (tid->sched)
  9090b0:	283035        	l8ui	a8, a3, 53
  9090b3:	008832        	sext	a8, a8, 7
  9090b6:	cd80      	bnez.n	a8, 9090ca <ath_tgt_tx_enqueue$isra$3+0x22>
	tid->sched = AH_TRUE;
  9090b8:	c091      	movi.n	a9, 1
  9090ba:	293435        	s8i	a9, a3, 53
	asf_tailq_insert_tail(&txq->axq_tidq, tid, tid_qelem);
  9090bd:	9839      	s32i.n	a8, a3, 36
  9090bf:	8820      	l32i.n	a8, a2, 0
  9090c1:	983a      	s32i.n	a8, a3, 40
  9090c3:	9380      	s32i.n	a3, a8, 0
  9090c5:	233c24        	addi	a3, a3, 36
  9090c8:	9320      	s32i.n	a3, a2, 0
  9090ca:	d10f      	retw.n

009090cc <ath_update_aggr_stats$isra$5>:
ath_update_aggr_stats(struct ath_softc_tgt *sc,
  9090cc:	6c1004        	entry	a1, 32
	__statsn(sc, txaggr_longretries, ds->ds_txstat.ts_longretry);
  9090cf:	282268        	l32i	a8, a2, 0x1a0
  9090d2:	068608        	add	a6, a8, a6
	__statsn(sc, txaggr_shortretries, ds->ds_txstat.ts_shortretry);
  9090d5:	28226b        	l32i	a8, a2, 0x1ac
	__statsn(sc, txaggr_longretries, ds->ds_txstat.ts_longretry);
  9090d8:	262668        	s32i	a6, a2, 0x1a0
	__statsn(sc, txaggr_shortretries, ds->ds_txstat.ts_shortretry);
  9090db:	058508        	add	a5, a8, a5
  9090de:	25266b        	s32i	a5, a2, 0x1ac
	if (txflags & HAL_TX_DESC_CFG_ERR)
  9090e1:	7d4708        	bbci	a4, 29, 9090ed <ath_update_aggr_stats$isra$5+0x21>
		__stats(sc, txaggr_desc_cfgerr);
  9090e4:	282271        	l32i	a8, a2, 0x1c4
  9090e7:	288c01        	addi	a8, a8, 1
  9090ea:	282671        	s32i	a8, a2, 0x1c4
	if (txflags & HAL_TX_DATA_UNDERRUN)
  9090ed:	7c4708        	bbci	a4, 28, 9090f9 <ath_update_aggr_stats$isra$5+0x2d>
		__stats(sc, txaggr_data_urun);
  9090f0:	282265        	l32i	a8, a2, 0x194
  9090f3:	288c01        	addi	a8, a8, 1
  9090f6:	282665        	s32i	a8, a2, 0x194
	if (txflags & HAL_TX_DELIM_UNDERRUN)
  9090f9:	7b4707        	bbci	a4, 27, 909104 <ath_update_aggr_stats$isra$5+0x38>
		__stats(sc, txaggr_delim_urun);
  9090fc:	282266        	l32i	a8, a2, 0x198
  9090ff:	b188      	addi.n	a8, a8, 1
  909101:	282666        	s32i	a8, a2, 0x198
	if (!status) {
  909104:	cb38      	beqz.n	a3, 909140 <ath_update_aggr_stats$isra$5+0x74>
	if (status & HAL_TXERR_XRETRY)
  909106:	7f3707        	bbci	a3, 31, 909111 <ath_update_aggr_stats$isra$5+0x45>
		__stats(sc, txaggr_compxretry);
  909109:	28226a        	l32i	a8, a2, 0x1a8
  90910c:	b188      	addi.n	a8, a8, 1
  90910e:	28266a        	s32i	a8, a2, 0x1a8
	if (status & HAL_TXERR_FILT)
  909111:	7e3708        	bbci	a3, 30, 90911d <ath_update_aggr_stats$isra$5+0x51>
		__stats(sc, txaggr_filtered);
  909114:	28226e        	l32i	a8, a2, 0x1b8
  909117:	288c01        	addi	a8, a8, 1
  90911a:	28266e        	s32i	a8, a2, 0x1b8
	if (status & HAL_TXERR_FIFO)
  90911d:	7d3708        	bbci	a3, 29, 909129 <ath_update_aggr_stats$isra$5+0x5d>
		__stats(sc, txaggr_fifo);
  909120:	28226f        	l32i	a8, a2, 0x1bc
  909123:	288c01        	addi	a8, a8, 1
  909126:	28266f        	s32i	a8, a2, 0x1bc
	if (status & HAL_TXERR_XTXOP)
  909129:	7c3708        	bbci	a3, 28, 909135 <ath_update_aggr_stats$isra$5+0x69>
		__stats(sc, txaggr_xtxop);
  90912c:	282270        	l32i	a8, a2, 0x1c0
  90912f:	288c01        	addi	a8, a8, 1
  909132:	282670        	s32i	a8, a2, 0x1c0
	if (status & HAL_TXERR_TIMER_EXPIRED)
  909135:	7b3707        	bbci	a3, 27, 909140 <ath_update_aggr_stats$isra$5+0x74>
		__stats(sc, txaggr_timer_exp);
  909138:	23226c        	l32i	a3, a2, 0x1b0
  90913b:	b133      	addi.n	a3, a3, 1
  90913d:	23266c        	s32i	a3, a2, 0x1b0
  909140:	d10f      	retw.n
	...

00909144 <ath_dma_unmap$isra$6>:
static void ath_dma_unmap(struct ath_softc_tgt *sc, struct ath_tx_buf *bf)
  909144:	6c1004        	entry	a1, 32
    return (__adf_nbuf_queue_first(head));
  909147:	2a3c14        	addi	a10, a3, 20
  90914a:	5be95a        	call8	9036b4 <__adf_nbuf_queue_first>
    __adf_nbuf_unmap(osdev, bmap, dir);
  90914d:	8b30      	l32i.n	a11, a3, 0
  90914f:	8a20      	l32i.n	a10, a2, 0
  909151:	c0c0      	movi.n	a12, 0
  909153:	5be8e1        	call8	9034d8 <__adf_nbuf_unmap>
  909156:	d10f      	retw.n

00909158 <ath_tgt_skb_free$isra$7>:
static void ath_tgt_skb_free(struct ath_softc_tgt *sc,
  909158:	6c1004        	entry	a1, 32
		ath_free_tx_skb(sc->tgt_htc_handle,endpt,tskb);
  90915b:	15716e        	l32r	a5, 8e5714 <memset+0x578>
  90915e:	600012        	j	909174 <ath_tgt_skb_free$isra$7+0x1c>
    return __adf_nbuf_queue_remove(head);
  909161:	da30      	mov.n	a10, a3
  909163:	5be8c9        	call8	903488 <__adf_nbuf_queue_remove>
  909166:	dca0      	mov.n	a12, a10
  909168:	285287        	l32i	a8, a5, 0x21c
  90916b:	2a2200        	l32i	a10, a2, 0
  90916e:	044b02        	or	a11, a4, a4
  909171:	0b8000        	callx8	a8
    return __adf_nbuf_queue_len(head);
  909174:	da30      	mov.n	a10, a3
  909176:	5be94d        	call8	9036ac <__adf_nbuf_queue_len>
	while (adf_nbuf_queue_len(head) != 0) {
  909179:	65afe4        	bnez	a10, 909161 <ath_tgt_skb_free$isra$7+0x9>
}
  90917c:	d10f      	retw.n
	...

00909180 <ath_filltxdesc$isra$9>:
static void ath_filltxdesc(struct ath_softc_tgt *sc, struct ath_tx_buf *bf)
  909180:	6c1004        	entry	a1, 32
    __adf_nbuf_dmamap_info(bmap, sg);
  909183:	8a30      	l32i.n	a10, a3, 0
  909185:	b43b      	addi.n	a11, a3, 4
	struct ath_tx_desc *ds0, *ds = bf->bf_desc;
  909187:	853c      	l32i.n	a5, a3, 48
  909189:	5be8d8        	call8	9034ec <__adf_nbuf_dmamap_info>
	for (i = 0; i < bf->bf_dmamap_info.nsegs; i++, ds++) {
  90918c:	c0c0      	movi.n	a12, 0
	struct ath_tx_desc *ds0, *ds = bf->bf_desc;
  90918e:	d450      	mov.n	a4, a5
			ds->ds_link = 0;
  909190:	d6c0      	mov.n	a6, a12
  909192:	60007e        	j	909214 <ath_filltxdesc$isra$9+0x94>
  909195:	0dc811        	slli	a8, a12, 3
  909198:	a838      	add.n	a8, a3, a8
		ds->ds_data = bf->bf_dmamap_info.dma_segs[i].paddr;
  90919a:	278008        	l8ui	a7, a8, 8
		if (i == (bf->bf_dmamap_info.nsegs - 1)) {
  90919d:	b0dd      	addi.n	a13, a13, -1
		ds->ds_data = bf->bf_dmamap_info.dma_segs[i].paddr;
  90919f:	274404        	s8i	a7, a4, 4
  9091a2:	278009        	l8ui	a7, a8, 9
  9091a5:	274405        	s8i	a7, a4, 5
  9091a8:	27800a        	l8ui	a7, a8, 10
  9091ab:	274406        	s8i	a7, a4, 6
  9091ae:	27800b        	l8ui	a7, a8, 11
  9091b1:	274407        	s8i	a7, a4, 7
  9091b4:	b1c7      	addi.n	a7, a12, 1
		if (i == (bf->bf_dmamap_info.nsegs - 1)) {
  9091b6:	7cd912        	bne	a13, a12, 9091cc <ath_filltxdesc$isra$9+0x4c>
			ds->ds_link = 0;
  9091b9:	264400        	s8i	a6, a4, 0
  9091bc:	264401        	s8i	a6, a4, 1
  9091bf:	264402        	s8i	a6, a4, 2
  9091c2:	264403        	s8i	a6, a4, 3
			bf->bf_lastds = ds;
  9091c5:	943e      	s32i.n	a4, a3, 56
  9091c7:	600022        	j	9091ed <ath_filltxdesc$isra$9+0x6d>
  9091ca:	00000c        	sub	a0, a0, a0
			ds->ds_link = ATH_BUF_GET_DESC_PHY_ADDR_WITH_IDX(bf, i+1);
  9091cd:	7911a7        	beq	a1, a9, 909178 <ath_tgt_skb_free$isra$7+0x20>
  9091d0:	990d      	s32i.n	a9, a0, 52
  9091d2:	9a11      	s32i.n	a10, a1, 4
  9091d4:	893d      	l32i.n	a9, a3, 52
  9091d6:	aa99      	add.n	a9, a9, a10
  9091d8:	098a57        	extui	a10, a9, 24, 8
  9091db:	2a4400        	s8i	a10, a4, 0
  9091de:	090a57        	extui	a10, a9, 16, 8
  9091e1:	2a4401        	s8i	a10, a4, 1
  9091e4:	098a47        	extui	a10, a9, 8, 8
  9091e7:	2a4402        	s8i	a10, a4, 2
  9091ea:	294403        	s8i	a9, a4, 3
		ah->ah_fillTxDesc(ds
  9091ed:	0cdd0c        	sub	a13, a13, a12
  9091f0:	c091      	movi.n	a9, 1
  9091f2:	da60      	mov.n	a10, a6
  9091f4:	0d9a38        	moveqz	a10, a9, a13
  9091f7:	2f2218        	l32i	a15, a2, 96
  9091fa:	0c6939        	movnez	a9, a6, a12
  9091fd:	8b83      	l32i.n	a11, a8, 12
  9091ff:	dda0      	mov.n	a13, a10
  909201:	dc90      	mov.n	a12, a9
  909203:	044a02        	or	a10, a4, a4
  909206:	055e02        	or	a14, a5, a5
  909209:	0bf000        	callx8	a15
	for (i = 0; i < bf->bf_dmamap_info.nsegs; i++, ds++) {
  90920c:	070c47        	extui	a12, a7, 0, 8
  90920f:	270a88        	movi	a7, 136
  909212:	a744      	add.n	a4, a4, a7
  909214:	8d31      	l32i.n	a13, a3, 4
  909216:	7dcb02        	bgeu	a12, a13, 90921c <ath_filltxdesc$isra$9+0x9c>
  909219:	63ff78        	j	909195 <ath_filltxdesc$isra$9+0x15>
}
  90921c:	d10f      	retw.n
	...

00909220 <ath_tx_tgt_setds>:
{
  909220:	6c1006        	entry	a1, 48
	switch (bf->bf_protmode) {
  909223:	293084        	l8ui	a9, a3, 132
	struct ath_hal *ah = sc->sc_ah;
  909226:	222d05        	addmi	a2, a2, 0x500
	struct ath_tx_desc *ds = bf->bf_desc;
  909229:	8a3c      	l32i.n	a10, a3, 48
	struct ath_hal *ah = sc->sc_ah;
  90922b:	8d2b      	l32i.n	a13, a2, 44
  90922d:	283144        	l16ui	a8, a3, 136
	switch (bf->bf_protmode) {
  909230:	689108        	beqi	a9, 1, 90923c <ath_tx_tgt_setds+0x1c>
  909233:	69920d        	bnei	a9, 2, 909244 <ath_tx_tgt_setds+0x24>
		bf->bf_flags |= HAL_TXDESC_RTSENA;
  909236:	c094      	movi.n	a9, 4
  909238:	600002        	j	90923e <ath_tx_tgt_setds+0x1e>
  90923b:	00c098        	excw
		bf->bf_flags |= HAL_TXDESC_CTSENA;
  90923e:	098802        	or	a8, a8, a9
  909241:	283544        	s16i	a8, a3, 136
	ah->ah_set11nTxDesc(ds
  909244:	283144        	l16ui	a8, a3, 136
  909247:	c190      	movi.n	a9, 16
  909249:	098802        	or	a8, a8, a9
  90924c:	08084f        	extui	a8, a8, 0, 16
  90924f:	9810      	s32i.n	a8, a1, 0
  909251:	2b3122        	l16ui	a11, a3, 68
  909254:	88df      	l32i.n	a8, a13, 60
  909256:	2f3085        	l8ui	a15, a3, 133
  909259:	2e3049        	l8ui	a14, a3, 73
  90925c:	2c304a        	l8ui	a12, a3, 74
  90925f:	2d0a3c        	movi	a13, 60
  909262:	0b8000        	callx8	a8
	ath_filltxdesc(sc, bf);
  909265:	8a2b      	l32i.n	a10, a2, 44
  909267:	db30      	mov.n	a11, a3
  909269:	5bffc5        	call8	909180 <ath_filltxdesc$isra$9>
  90926c:	d10f      	retw.n
	...

00909270 <__adf_os_mem_set$constprop$19>:
__adf_os_mem_set(void *buf, a_uint8_t b, adf_os_size_t size)
  909270:	6c1004        	entry	a1, 32
	A_MEMSET(buf, b, size);
  909273:	18716e        	l32r	a8, 8e582c <memset+0x690>
  909276:	dc30      	mov.n	a12, a3
  909278:	8884      	l32i.n	a8, a8, 16
  90927a:	c0b0      	movi.n	a11, 0
  90927c:	da20      	mov.n	a10, a2
  90927e:	0b8000        	callx8	a8
  909281:	d10f      	retw.n
	...

00909284 <ath_buf_set_rate>:
{
  909284:	6c1012        	entry	a1, 144
    struct ath_hal *ah = sc->sc_ah;
  909287:	242d05        	addmi	a4, a2, 0x500
  90928a:	844b      	l32i.n	a4, a4, 44
    rt = sc->sc_currates;
  90928c:	252281        	l32i	a5, a2, 0x204
    struct ath_hal *ah = sc->sc_ah;
  90928f:	241615        	s32i	a4, a1, 84
    struct ath_tx_desc *ds = bf->bf_desc;
  909292:	843c      	l32i.n	a4, a3, 48
    flags = (bf->bf_flags & (HAL_TXDESC_RTSENA | HAL_TXDESC_CTSENA));
  909294:	283144        	l16ui	a8, a3, 136
    struct ath_tx_desc *ds = bf->bf_desc;
  909297:	241616        	s32i	a4, a1, 88
    cix = rt->info[sc->sc_protrix].controlRate;
  90929a:	242d03        	addmi	a4, a2, 0x300
  90929d:	24400c        	l8ui	a4, a4, 12
    flags = (bf->bf_flags & (HAL_TXDESC_RTSENA | HAL_TXDESC_CTSENA));
  9092a0:	c06c      	movi.n	a6, 12
    cix = rt->info[sc->sc_protrix].controlRate;
  9092a2:	b244      	addi.n	a4, a4, 2
  9092a4:	0c4411        	slli	a4, a4, 4
  9092a7:	a454      	add.n	a4, a5, a4
  9092a9:	244013        	l8ui	a4, a4, 19
    flags = (bf->bf_flags & (HAL_TXDESC_RTSENA | HAL_TXDESC_CTSENA));
  9092ac:	068601        	and	a6, a8, a6
    cix = rt->info[sc->sc_protrix].controlRate;
  9092af:	241614        	s32i	a4, a1, 80
    if (bf->bf_protmode != IEEE80211_PROT_NONE &&
  9092b2:	243084        	l8ui	a4, a3, 132
  9092b5:	c94b      	beqz.n	a4, 9092d4 <ath_buf_set_rate+0x50>
	(rt->info[rix].phy == IEEE80211_T_OFDM ||
  9092b7:	243050        	l8ui	a4, a3, 80
  9092ba:	270afd        	movi	a7, 253
  9092bd:	b244      	addi.n	a4, a4, 2
  9092bf:	0c4411        	slli	a4, a4, 4
  9092c2:	045408        	add	a4, a5, a4
  9092c5:	244009        	l8ui	a4, a4, 9
  9092c8:	244cfe        	addi	a4, a4, -2
    if (bf->bf_protmode != IEEE80211_PROT_NONE &&
  9092cb:	774805        	bany	a4, a7, 9092d4 <ath_buf_set_rate+0x50>
	    prot_mode = AH_TRUE;
  9092ce:	270a01        	movi	a7, 1
	 rt->info[rix].phy == IEEE80211_T_HT) &&
  9092d1:	7e8749        	bbci	a8, 30, 90931e <ath_buf_set_rate+0x9a>
	    if (ath_hal_getcapability(ah, HAL_CAP_HT) && (!bf->bf_ismcast))
  9092d4:	2a1215        	l32i	a10, a1, 84
  9092d7:	c0b5      	movi.n	a11, 5
  9092d9:	5bef32        	call8	904fa4 <ath_hal_getcapability>
  9092dc:	c8a9      	beqz.n	a10, 9092e9 <ath_buf_set_rate+0x65>
  9092de:	243221        	l32i	a4, a3, 132
		    flags = HAL_TXDESC_RTSENA;
  9092e1:	c074      	movi.n	a7, 4
	    if (ath_hal_getcapability(ah, HAL_CAP_HT) && (!bf->bf_ismcast))
  9092e3:	047440        	extui	a4, a4, 7, 1
		    flags = HAL_TXDESC_RTSENA;
  9092e6:	047638        	moveqz	a6, a7, a4
  9092e9:	243c75        	addi	a4, a3, 117
	    for (i = 4; i--;) {
  9092ec:	c074      	movi.n	a7, 4
  9092ee:	600024        	j	909316 <ath_buf_set_rate+0x92>
  9092f1:	244cf4        	addi	a4, a4, -12
		    if (bf->bf_rcs[i].tries) {
  9092f4:	28400c        	l8ui	a8, a4, 12
  9092f7:	c98b      	beqz.n	a8, 909316 <ath_buf_set_rate+0x92>
			    cix = rt->info[bf->bf_rcs[i].rix].controlRate;
  9092f9:	0f7411        	slli	a4, a7, 1
  9092fc:	a744      	add.n	a4, a4, a7
  9092fe:	0e4411        	slli	a4, a4, 2
  909301:	a434      	add.n	a4, a3, a4
  909303:	244050        	l8ui	a4, a4, 80
  909306:	b244      	addi.n	a4, a4, 2
  909308:	0c4411        	slli	a4, a4, 4
  90930b:	a454      	add.n	a4, a5, a4
  90930d:	244013        	l8ui	a4, a4, 19
  909310:	241614        	s32i	a4, a1, 80
  909313:	600004        	j	90931b <ath_buf_set_rate+0x97>
	    for (i = 4; i--;) {
  909316:	b077      	addi.n	a7, a7, -1
  909318:	6970d5        	bnei	a7, -1, 9092f1 <ath_buf_set_rate+0x6d>
    a_int32_t prot_mode = AH_FALSE;
  90931b:	270a00        	movi	a7, 0
    __adf_os_mem_set(buf, b, size);
  90931e:	2b0a50        	movi	a11, 80
  909321:	011a02        	or	a10, a1, a1
  909324:	240a80        	movi	a4, 128
  909327:	5bffd2        	call8	909270 <__adf_os_mem_set$constprop$19>
  90932a:	a434      	add.n	a4, a3, a4
  90932c:	2f3c50        	addi	a15, a3, 80
  90932f:	d810      	mov.n	a8, a1
  909331:	241617        	s32i	a4, a1, 92
	    if (!bf->bf_rcs[i].tries)
  909334:	2af001        	l8ui	a10, a15, 1
  909337:	64a0fe        	beqz	a10, 909439 <ath_buf_set_rate+0x1b5>
	    rix = bf->bf_rcs[i].rix;
  90933a:	2df000        	l8ui	a13, a15, 0
		    (bf->bf_shpream ? rt->info[rix].shortPreamble : 0);
  90933d:	2c3221        	l32i	a12, a3, 132
  909340:	0cd911        	slli	a9, a13, 4
  909343:	a959      	add.n	a9, a5, a9
  909345:	2e0a40        	movi	a14, 64
	    series[i].Rate = rt->info[rix].rateCode |
  909348:	2b9030        	l8ui	a11, a9, 48
  90934b:	240a00        	movi	a4, 0
		    (bf->bf_shpream ? rt->info[rix].shortPreamble : 0);
  90934e:	7ec002        	bnone	a12, a14, 909354 <ath_buf_set_rate+0xd0>
  909351:	249031        	l8ui	a4, a9, 49
	    series[i].Rate = rt->info[rix].rateCode |
  909354:	0b4402        	or	a4, a4, a11
  909357:	9481      	s32i.n	a4, a8, 4
	    series[i].RateFlags = ((bf->bf_rcs[i].flags & ATH_RC_RTSCTS_FLAG) ?
  909359:	24f003        	l8ui	a4, a15, 3
		     HAL_RATESERIES_2040 : 0 ) |
  90935c:	c0b6      	movi.n	a11, 6
	    series[i].Tries = bf->bf_rcs[i].tries;
  90935e:	9a80      	s32i.n	a10, a8, 0
  909360:	c0e4      	movi.n	a14, 4
  909362:	c0a2      	movi.n	a10, 2
				   HAL_RATESERIES_RTS_CTS : 0 ) |
  909364:	044940        	extui	a9, a4, 4, 1
  909367:	0a4a01        	and	a10, a4, a10
  90936a:	0e4e01        	and	a14, a4, a14
		     HAL_RATESERIES_2040 : 0 ) |
  90936d:	0b4401        	and	a4, a4, a11
  909370:	049402        	or	a4, a9, a4
	    series[i].RateFlags = ((bf->bf_rcs[i].flags & ATH_RC_RTSCTS_FLAG) ?
  909373:	9484      	s32i.n	a4, a8, 16
	const HAL_RATE_TABLE *rt = sc->sc_currates;
  909375:	2b2281        	l32i	a11, a2, 0x204
	pktlen = bf->bf_isaggr ? bf->bf_al : bf->bf_pktlen;
  909378:	7ac705        	bbci	a12, 26, 909381 <ath_buf_set_rate+0xfd>
  90937b:	2c3127        	l16ui	a12, a3, 78
  90937e:	600002        	j	909384 <ath_buf_set_rate+0x100>
  909381:	2c3122        	l16ui	a12, a3, 68
	rc = rt->info[rix].rateCode;
  909384:	b2d4      	addi.n	a4, a13, 2
  909386:	0c4411        	slli	a4, a4, 4
  909389:	a4b4      	add.n	a4, a11, a4
  90938b:	244010        	l8ui	a4, a4, 16
	if (!IS_HT_RATE(rc))
  90938e:	004932        	sext	a9, a4, 7
  909391:	66901c        	bltz	a9, 9093b1 <ath_buf_set_rate+0x12d>
					     bf->bf_shpream);
  909394:	2e3221        	l32i	a14, a3, 132
		return ath_hal_computetxtime(sc->sc_ah, rt, pktlen, rix,
  909397:	242d05        	addmi	a4, a2, 0x500
  90939a:	8a4b      	l32i.n	a10, a4, 44
  90939c:	0e6e40        	extui	a14, a14, 6, 1
  90939f:	28161a        	s32i	a8, a1, 104
  9093a2:	2f1619        	s32i	a15, a1, 100
  9093a5:	5bef0d        	call8	904fdc <ath_hal_computetxtime>
  9093a8:	28121a        	l32i	a8, a1, 104
  9093ab:	2f1219        	l32i	a15, a1, 100
  9093ae:	600060        	j	909412 <ath_buf_set_rate+0x18e>
	    series[i].PktDuration = ath_pkt_duration(sc, rix, bf,
  9093b1:	c0d1      	movi.n	a13, 1
	nsymbits = bits_per_symbol[HT_RC_2_MCS(rc)][width];
  9093b3:	040943        	extui	a9, a4, 0, 4
	    series[i].PktDuration = ath_pkt_duration(sc, rix, bf,
  9093b6:	c0b0      	movi.n	a11, 0
  9093b8:	0adb39        	movnez	a11, a13, a10
	nsymbits = bits_per_symbol[HT_RC_2_MCS(rc)][width];
  9093bb:	00d104        	ssl	a13
  9093be:	009a1a        	sll	a10, a9
  9093c1:	abaa      	add.n	a10, a10, a11
  9093c3:	00d104        	ssl	a13
  9093c6:	00aa1a        	sll	a10, a10
  9093c9:	1d72a6        	l32r	a13, 8e5e64 <memset+0xcc8>
	nbits = (pktlen << 3) + OFDM_PLCP_BITS;
  9093cc:	0dcc11        	slli	a12, a12, 3
	nsymbits = bits_per_symbol[HT_RC_2_MCS(rc)][width];
  9093cf:	aada      	add.n	a10, a13, a10
  9093d1:	2ba100        	l16ui	a11, a10, 0
	nsymbols = (nbits + nsymbits - 1) / nsymbits;
  9093d4:	28161a        	s32i	a8, a1, 104
  9093d7:	acba      	add.n	a10, a11, a12
  9093d9:	2aac15        	addi	a10, a10, 21
  9093dc:	2e1618        	s32i	a14, a1, 96
  9093df:	2f1619        	s32i	a15, a1, 100
  9093e2:	5b6e6f        	call8	8e4da0 <__udivsi3>
	if (!half_gi)
  9093e5:	2e1218        	l32i	a14, a1, 96
  9093e8:	28121a        	l32i	a8, a1, 104
  9093eb:	2f1219        	l32i	a15, a1, 100
		duration = SYMBOL_TIME(nsymbols);
  9093ee:	0ea911        	slli	a9, a10, 2
	if (!half_gi)
  9093f1:	c9e3      	beqz.n	a14, 909408 <ath_buf_set_rate+0x184>
		duration = SYMBOL_TIME_HALFGI(nsymbols);
  9093f3:	0da911        	slli	a9, a10, 3
  9093f6:	0a9a08        	add	a10, a9, a10
  9093f9:	0faa11        	slli	a10, a10, 1
  9093fc:	1972a7        	l32r	a9, 8e5e98 <memset+0xcfc>
  9093ff:	2aac04        	addi	a10, a10, 4
  909402:	09aa2a        	muluh	a10, a10, a9
  909405:	0a2914        	srli	a9, a10, 2
	streams = HT_RC_2_STREAMS(rc);
  909408:	043a43        	extui	a10, a4, 3, 4
	duration += L_STF + L_LTF + L_SIG + HT_SIG + HT_STF + HT_LTF(streams);
  90940b:	b9aa      	addi.n	a10, a10, 9
  90940d:	0eaa11        	slli	a10, a10, 2
  909410:	a9aa      	add.n	a10, a10, a9
	    series[i].ChSel = sc->sc_ic.ic_tx_chainmask;
  909412:	242d16        	addmi	a4, a2, 0x1600
  909415:	244026        	l8ui	a4, a4, 38
	    series[i].PktDuration = ath_pkt_duration(sc, rix, bf,
  909418:	9a82      	s32i.n	a10, a8, 8
	    series[i].ChSel = sc->sc_ic.ic_tx_chainmask;
  90941a:	9483      	s32i.n	a4, a8, 12
	    if (prot_mode)
  90941c:	c879      	beqz.n	a7, 909429 <ath_buf_set_rate+0x1a5>
		    series[i].RateFlags |= HAL_RATESERIES_RTS_CTS;
  90941e:	8484      	l32i.n	a4, a8, 16
  909420:	290a01        	movi	a9, 1
  909423:	094402        	or	a4, a4, a9
  909426:	248604        	s32i	a4, a8, 16
	    if (bf->bf_rcs[i].flags & ATH_RC_DS_FLAG)
  909429:	24f003        	l8ui	a4, a15, 3
  90942c:	7f4709        	bbci	a4, 31, 909439 <ath_buf_set_rate+0x1b5>
		    series[i].RateFlags |= HAL_RATESERIES_RTS_CTS;
  90942f:	8484      	l32i.n	a4, a8, 16
  909431:	c091      	movi.n	a9, 1
  909433:	094402        	or	a4, a4, a9
  909436:	248604        	s32i	a4, a8, 16
    for (i = 0; i < 4; i++) {
  909439:	241217        	l32i	a4, a1, 92
  90943c:	bcff      	addi.n	a15, a15, 12
  90943e:	288c14        	addi	a8, a8, 20
  909441:	74f102        	beq	a15, a4, 909447 <ath_buf_set_rate+0x1c3>
  909444:	63feec        	j	909334 <ath_buf_set_rate+0xb0>
  909447:	241214        	l32i	a4, a1, 80
	    (bf->bf_shpream ? rt->info[cix].shortPreamble : 0);
  90944a:	233221        	l32i	a3, a3, 132
  90944d:	0c4211        	slli	a2, a4, 4
  909450:	a255      	add.n	a5, a5, a2
    rtsctsrate = rt->info[cix].rateCode |
  909452:	2c5030        	l8ui	a12, a5, 48
  909455:	c020      	movi.n	a2, 0
  909457:	793702        	bbci	a3, 25, 90945d <ath_buf_set_rate+0x1d9>
	    (bf->bf_shpream ? rt->info[cix].shortPreamble : 0);
  90945a:	225031        	l8ui	a2, a5, 49
    ah->ah_set11nRateScenario(ds, 1,
  90945d:	241215        	l32i	a4, a1, 84
  909460:	2a1216        	l32i	a10, a1, 88
  909463:	234210        	l32i	a3, a4, 64
  909466:	df60      	mov.n	a15, a6
  909468:	c0e4      	movi.n	a14, 4
  90946a:	dd10      	mov.n	a13, a1
  90946c:	0c2c02        	or	a12, a2, a12
  90946f:	c0b1      	movi.n	a11, 1
  909471:	0b3000        	callx8	a3
  909474:	d10f      	retw.n
	...

00909478 <ath_dma_map$isra$8>:
static void ath_dma_map(struct ath_softc_tgt *sc, struct ath_tx_buf *bf)
  909478:	6c1004        	entry	a1, 32
    return (__adf_nbuf_queue_first(head));
  90947b:	2a3c14        	addi	a10, a3, 20
  90947e:	5be88d        	call8	9036b4 <__adf_nbuf_queue_first>
    return __adf_nbuf_map(osdev, bmap, buf, dir);
  909481:	dca0      	mov.n	a12, a10
  909483:	8b30      	l32i.n	a11, a3, 0
  909485:	8a20      	l32i.n	a10, a2, 0
  909487:	c0d0      	movi.n	a13, 0
  909489:	5be810        	call8	9034cc <__adf_nbuf_map>
  90948c:	d10f      	retw.n
	...

00909490 <ath_buf_toggle>:
{
  909490:	6c1004        	entry	a1, 32
  909493:	d520      	mov.n	a5, a2
	adf_os_assert(sc->sc_txbuf_held != NULL);
  909495:	2222dc        	l32i	a2, a2, 0x370
  909498:	cc21      	bnez.n	a2, 90949d <ath_buf_toggle+0xd>
  90949a:	63fffc        	j	90949a <ath_buf_toggle+0xa>
	if (retry) {
  90949d:	6440b3        	beqz	a4, 909554 <ath_buf_toggle+0xc4>
  9094a0:	261a18        	movi	a6, 0x118
  9094a3:	a656      	add.n	a6, a5, a6
		ath_dma_unmap(sc, bf);
  9094a5:	db30      	mov.n	a11, a3
  9094a7:	da60      	mov.n	a10, a6
  9094a9:	5bff26        	call8	909144 <ath_dma_unmap$isra$6>
		adf_nbuf_queue_init(&tmp->bf_skbhead);
  9094ac:	272c14        	addi	a7, a2, 20
    __adf_nbuf_queue_init(head);
  9094af:	da70      	mov.n	a10, a7
  9094b1:	5be87a        	call8	90369c <__adf_nbuf_queue_init>
		buf = adf_nbuf_queue_remove(&bf->bf_skbhead);
  9094b4:	243c14        	addi	a4, a3, 20
    return __adf_nbuf_queue_remove(head);
  9094b7:	da40      	mov.n	a10, a4
  9094b9:	5be7f3        	call8	903488 <__adf_nbuf_queue_remove>
		adf_os_assert(buf);
  9094bc:	cca1      	bnez.n	a10, 9094c1 <ath_buf_toggle+0x31>
  9094be:	63fffc        	j	9094be <ath_buf_toggle+0x2e>
    __adf_nbuf_queue_add(head, buf);
  9094c1:	dba0      	mov.n	a11, a10
  9094c3:	da70      	mov.n	a10, a7
  9094c5:	5be7e8        	call8	903468 <__adf_nbuf_queue_add>
    return __adf_nbuf_queue_len(head);
  9094c8:	da40      	mov.n	a10, a4
  9094ca:	5be878        	call8	9036ac <__adf_nbuf_queue_len>
  9094cd:	d4a0      	mov.n	a4, a10
		adf_os_assert(adf_nbuf_queue_len(&bf->bf_skbhead) == 0);
  9094cf:	c8a1      	beqz.n	a10, 9094d4 <ath_buf_toggle+0x44>
  9094d1:	63fffc        	j	9094d1 <ath_buf_toggle+0x41>
		tmp->bf_next = bf->bf_next;
  9094d4:	873b      	l32i.n	a7, a3, 44
		tmp->bf_state = bf->bf_state;
  9094d6:	c4cc      	movi.n	a12, 76
		tmp->bf_next = bf->bf_next;
  9094d8:	972b      	s32i.n	a7, a2, 44
		tmp->bf_endpt = bf->bf_endpt;
  9094da:	273223        	l32i	a7, a3, 140
		tmp->bf_state = bf->bf_state;
  9094dd:	2b3c3c        	addi	a11, a3, 60
		tmp->bf_endpt = bf->bf_endpt;
  9094e0:	272623        	s32i	a7, a2, 140
		tmp->bf_tidno = bf->bf_tidno;
  9094e3:	27304d        	l8ui	a7, a3, 77
		tmp->bf_state = bf->bf_state;
  9094e6:	2a2c3c        	addi	a10, a2, 60
		tmp->bf_tidno = bf->bf_tidno;
  9094e9:	27244d        	s8i	a7, a2, 77
		tmp->bf_skb = bf->bf_skb;
  9094ec:	8738      	l32i.n	a7, a3, 32
		tmp->bf_isaggr = bf->bf_isaggr;
  9094ee:	283221        	l32i	a8, a3, 132
		tmp->bf_skb = bf->bf_skb;
  9094f1:	9728      	s32i.n	a7, a2, 32
		tmp->bf_isaggr = bf->bf_isaggr;
  9094f3:	085840        	extui	a8, a8, 5, 1
		tmp->bf_node = bf->bf_node;
  9094f6:	8734      	l32i.n	a7, a3, 16
		tmp->bf_isaggr = bf->bf_isaggr;
  9094f8:	0b8911        	slli	a9, a8, 5
  9094fb:	282087        	l8ui	a8, a2, 135
		tmp->bf_node = bf->bf_node;
  9094fe:	9724      	s32i.n	a7, a2, 16
		tmp->bf_isaggr = bf->bf_isaggr;
  909500:	27fadf        	movi	a7, -33
  909503:	078801        	and	a8, a8, a7
  909506:	098802        	or	a8, a8, a9
  909509:	282487        	s8i	a8, a2, 135
		tmp->bf_flags = bf->bf_flags;
  90950c:	283144        	l16ui	a8, a3, 136
  90950f:	282544        	s16i	a8, a2, 136
		tmp->bf_state = bf->bf_state;
  909512:	5b6e69        	call8	8e4eb8 <memcpy>
		tmp->bf_retries = bf->bf_retries;
  909515:	283086        	l8ui	a8, a3, 134
		ath_dma_map(sc, tmp);
  909518:	db20      	mov.n	a11, a2
		tmp->bf_retries = bf->bf_retries;
  90951a:	282486        	s8i	a8, a2, 134
		tmp->bf_comp = bf->bf_comp;
  90951d:	883f      	l32i.n	a8, a3, 60
		ath_dma_map(sc, tmp);
  90951f:	da60      	mov.n	a10, a6
		tmp->bf_comp = bf->bf_comp;
  909521:	982f      	s32i.n	a8, a2, 60
		tmp->bf_nframes = bf->bf_nframes;
  909523:	28304c        	l8ui	a8, a3, 76
  909526:	28244c        	s8i	a8, a2, 76
		tmp->bf_cookie = bf->bf_cookie;
  909529:	283092        	l8ui	a8, a3, 146
  90952c:	282492        	s8i	a8, a2, 146
		bf->bf_isaggr = 0;
  90952f:	283087        	l8ui	a8, a3, 135
		bf->bf_next = NULL;
  909532:	943b      	s32i.n	a4, a3, 44
		bf->bf_isaggr = 0;
  909534:	078801        	and	a8, a8, a7
  909537:	283487        	s8i	a8, a3, 135
		bf->bf_skb = NULL;
  90953a:	9438      	s32i.n	a4, a3, 32
		bf->bf_node = NULL;
  90953c:	9434      	s32i.n	a4, a3, 16
		bf->bf_flags = 0;
  90953e:	243544        	s16i	a4, a3, 136
		bf->bf_comp = NULL;
  909541:	24360f        	s32i	a4, a3, 60
		bf->bf_retries = 0;
  909544:	243486        	s8i	a4, a3, 134
		bf->bf_nframes = 0;
  909547:	24344c        	s8i	a4, a3, 76
		ath_dma_map(sc, tmp);
  90954a:	5bffcb        	call8	909478 <ath_dma_map$isra$8>
		ath_tx_tgt_setds(sc, tmp);
  90954d:	db20      	mov.n	a11, a2
  90954f:	da50      	mov.n	a10, a5
  909551:	5bff33        	call8	909220 <ath_tx_tgt_setds>
	sc->sc_txbuf_held = bf;
  909554:	2356dc        	s32i	a3, a5, 0x370
}
  909557:	d10f      	retw.n
  909559:	000000        	ill

0090955c <ath_buf_comp>:
{
  90955c:	6c1004        	entry	a1, 32
	ath_dma_unmap(sc, bf);
  90955f:	2a1a18        	movi	a10, 0x118
  909562:	db30      	mov.n	a11, a3
  909564:	aa2a      	add.n	a10, a2, a10
  909566:	5bfef7        	call8	909144 <ath_dma_unmap$isra$6>
	ath_tgt_skb_free(sc, &bf->bf_skbhead,bf->bf_endpt);
  909569:	2c3223        	l32i	a12, a3, 140
  90956c:	2b3c14        	addi	a11, a3, 20
  90956f:	b82a      	addi.n	a10, a2, 8
  909571:	5bfef9        	call8	909158 <ath_tgt_skb_free$isra$7>
	bf->bf_skb = NULL;
  909574:	c040      	movi.n	a4, 0
  909576:	9438      	s32i.n	a4, a3, 32
	bf->bf_node = NULL;
  909578:	9434      	s32i.n	a4, a3, 16
	bf = ath_buf_toggle(sc, bf, 0);
  90957a:	dc40      	mov.n	a12, a4
  90957c:	033b02        	or	a11, a3, a3
  90957f:	da20      	mov.n	a10, a2
  909581:	5bffc3        	call8	909490 <ath_buf_toggle>
	if (bf != NULL) {
  909584:	74a10e        	beq	a10, a4, 909596 <ath_buf_comp+0x3a>
		asf_tailq_insert_tail(&sc->sc_txbuf, bf, bf_list);
  909587:	2322f1        	l32i	a3, a2, 0x3c4
  90958a:	94a9      	s32i.n	a4, a10, 36
  90958c:	93aa      	s32i.n	a3, a10, 40
  90958e:	9a30      	s32i.n	a10, a3, 0
  909590:	2aac24        	addi	a10, a10, 36
  909593:	2a26f1        	s32i	a10, a2, 0x3c4
  909596:	d10f      	retw.n

00909598 <ath_tx_freebuf>:
{
  909598:	6c1004        	entry	a1, 32
	struct ath_hal *ah = sc->sc_ah;
  90959b:	242d05        	addmi	a4, a2, 0x500
  90959e:	864b      	l32i.n	a6, a4, 44
	for (bfd = bf->bf_desc, i = 0; i < bf->bf_dmamap_info.nsegs; bfd++, i++) {
  9095a0:	c050      	movi.n	a5, 0
  9095a2:	843c      	l32i.n	a4, a3, 48
  9095a4:	270a88        	movi	a7, 136
  9095a7:	600023        	j	9095ce <ath_tx_freebuf+0x36>
  9095aa:	000028        	mull	a0, a0, a0
		ah->ah_clr11nAggr(bfd);
  9095ad:	6214da        	j	8eaa8b <memset+0x58ef>
  9095b0:	400b80        	excw
  9095b3:	002862        	excw
		ah->ah_set11nBurstDuration(bfd, 0);
  9095b6:	15044a        	l32r	a5, 8ca6e0 <_bss_end+0x3bced8>
  9095b9:	022b0a        	addx4	a11, a2, a2
  9095bc:	000b80        	excw
  9095bf:	002862        	excw
		ah->ah_set11nVirtualMoreFrag(bfd, 0);
  9095c2:	16da40        	l32r	a6, 8ffec4 <memset+0x1ad28>
  9095c5:	c0b0      	movi.n	a11, 0
  9095c7:	0b8000        	callx8	a8
	for (bfd = bf->bf_desc, i = 0; i < bf->bf_dmamap_info.nsegs; bfd++, i++) {
  9095ca:	a744      	add.n	a4, a4, a7
  9095cc:	b155      	addi.n	a5, a5, 1
  9095ce:	8831      	l32i.n	a8, a3, 4
  9095d0:	7853d8        	bltu	a5, a8, 9095ac <ath_tx_freebuf+0x14>
	ath_dma_unmap(sc, bf);
  9095d3:	2a1a18        	movi	a10, 0x118
  9095d6:	db30      	mov.n	a11, a3
  9095d8:	aa2a      	add.n	a10, a2, a10
  9095da:	5bfeda        	call8	909144 <ath_dma_unmap$isra$6>
	ath_tgt_skb_free(sc, &bf->bf_skbhead,bf->bf_endpt);
  9095dd:	2c3223        	l32i	a12, a3, 140
  9095e0:	2b3c14        	addi	a11, a3, 20
  9095e3:	2a2c08        	addi	a10, a2, 8
  9095e6:	5bfedc        	call8	909158 <ath_tgt_skb_free$isra$7>
	bf->bf_skb = NULL;
  9095e9:	c040      	movi.n	a4, 0
  9095eb:	9438      	s32i.n	a4, a3, 32
	bf->bf_comp = NULL;
  9095ed:	943f      	s32i.n	a4, a3, 60
	bf->bf_node = NULL;
  9095ef:	9434      	s32i.n	a4, a3, 16
	bf->bf_next = NULL;
  9095f1:	943b      	s32i.n	a4, a3, 44
	bf = ath_buf_toggle(sc, bf, 0);
  9095f3:	db30      	mov.n	a11, a3
  9095f5:	dc40      	mov.n	a12, a4
  9095f7:	da20      	mov.n	a10, a2
  9095f9:	5bffa5        	call8	909490 <ath_buf_toggle>
	bf->bf_isretried = 0;
  9095fc:	23a087        	l8ui	a3, a10, 135
  9095ff:	c65f      	movi.n	a5, -17
	bf->bf_retries = 0;
  909601:	24a486        	s8i	a4, a10, 134
	bf->bf_isretried = 0;
  909604:	053301        	and	a3, a3, a5
  909607:	23a487        	s8i	a3, a10, 135
		asf_tailq_insert_tail(&sc->sc_txbuf, bf, bf_list);
  90960a:	2322f1        	l32i	a3, a2, 0x3c4
  90960d:	94a9      	s32i.n	a4, a10, 36
  90960f:	93aa      	s32i.n	a3, a10, 40
  909611:	9a30      	s32i.n	a10, a3, 0
  909613:	2aac24        	addi	a10, a10, 36
  909616:	2a26f1        	s32i	a10, a2, 0x3c4
  909619:	d10f      	retw.n
	...

0090961c <ath_bar_tx>:
	ath_buf_comp(sc, bf);
}

static void ath_bar_tx(struct ath_softc_tgt *sc,
		       ath_atx_tid_t *tid, struct ath_tx_buf *bf)
{
  90961c:	6c1016        	entry	a1, 176
  90961f:	d730      	mov.n	a7, a3
	adf_nbuf_t skb;
	struct ieee80211_frame_bar *bar;
	u_int8_t min_rate;
	struct ath_tx_desc *ds, *ds0;
	struct ath_hal *ah = sc->sc_ah;
  909621:	232d05        	addmi	a3, a2, 0x500
  909624:	863b      	l32i.n	a6, a3, 44
  909626:	231620        	s32i	a3, a1, 128
	HAL_11N_RATE_SERIES series[4];
	int i = 0;
	a_uint8_t *anbdata;
	a_uint32_t anblen;

	__stats(sc, tx_bars);
  909629:	232278        	l32i	a3, a2, 0x1e0
  90962c:	c5b0      	movi.n	a11, 80
  90962e:	b133      	addi.n	a3, a3, 1
  909630:	232678        	s32i	a3, a2, 0x1e0
  909633:	2a1c20        	addi	a10, a1, 32
  909636:	5bff0e        	call8	909270 <__adf_os_mem_set$constprop$19>

	adf_os_mem_set(&series, 0, sizeof(series));

	ath_aggr_pause_tid(sc, tid);

	skb = adf_nbuf_queue_remove(&bf->bf_skbhead);
  909639:	254c14        	addi	a5, a4, 20
	tid->paused =1;
  90963c:	230a01        	movi	a3, 1
  90963f:	237434        	s8i	a3, a7, 52
    return __adf_nbuf_queue_remove(head);
  909642:	055a02        	or	a10, a5, a5
  909645:	5be790        	call8	903488 <__adf_nbuf_queue_remove>
    __adf_nbuf_peek_header(buf, addr, len);
  909648:	2c1c70        	addi	a12, a1, 112
  90964b:	2b1c74        	addi	a11, a1, 116
    return __adf_nbuf_queue_remove(head);
  90964e:	0aa302        	or	a3, a10, a10
    __adf_nbuf_peek_header(buf, addr, len);
  909651:	5be80c        	call8	903684 <__adf_nbuf_peek_header>
    __adf_nbuf_trim_tail(buf, size);
  909654:	2b121c        	l32i	a11, a1, 112
  909657:	da30      	mov.n	a10, a3
  909659:	5be7ef        	call8	903618 <__adf_nbuf_trim_tail>
  90965c:	2c1a18        	movi	a12, 0x118
  90965f:	ac2c      	add.n	a12, a2, a12
	adf_nbuf_peek_header(skb, &anbdata, &anblen);
	adf_nbuf_trim_tail(skb, anblen);
	bar = (struct ieee80211_frame_bar *) anbdata;
  909661:	29121d        	l32i	a9, a1, 116

	min_rate =  0x0b;

	ath_dma_unmap(sc, bf);
  909664:	dac0      	mov.n	a10, a12
  909666:	db40      	mov.n	a11, a4
  909668:	2c1622        	s32i	a12, a1, 136
  90966b:	291621        	s32i	a9, a1, 132
  90966e:	5bfeb5        	call8	909144 <ath_dma_unmap$isra$6>
    __adf_nbuf_queue_add(head, buf);
  909671:	db30      	mov.n	a11, a3
  909673:	da50      	mov.n	a10, a5
  909675:	5be77c        	call8	903468 <__adf_nbuf_queue_add>
	adf_nbuf_queue_add(&bf->bf_skbhead, skb);

	bar->i_fc[1] = IEEE80211_FC1_DIR_NODS;
  909678:	291221        	l32i	a9, a1, 132
  90967b:	c050      	movi.n	a5, 0
  90967d:	259401        	s8i	a5, a9, 1
	bar->i_fc[0] = IEEE80211_FC0_VERSION_0 |
  909680:	25fa84        	movi	a5, -124
  909683:	259400        	s8i	a5, a9, 0
		IEEE80211_FC0_TYPE_CTL |
		IEEE80211_FC0_SUBTYPE_BAR;
	bar->i_ctl = tid->tidno << IEEE80211_BAR_CTL_TID_S |
  909686:	8570      	l32i.n	a5, a7, 0
  909688:	c0a4      	movi.n	a10, 4
  90968a:	045511        	slli	a5, a5, 12
  90968d:	0a5502        	or	a5, a5, a10
  909690:	05054f        	extui	a5, a5, 0, 16
  909693:	259411        	s8i	a5, a9, 17
  909696:	058a14        	srli	a10, a5, 8
		IEEE80211_BAR_CTL_COMBA;
	bar->i_seq = adf_os_cpu_to_le16(tid->seq_start << IEEE80211_SEQ_SEQ_SHIFT);
  909699:	257102        	l16ui	a5, a7, 4
	bar->i_ctl = tid->tidno << IEEE80211_BAR_CTL_TID_S |
  90969c:	2a9410        	s8i	a10, a9, 16
	bar->i_seq = adf_os_cpu_to_le16(tid->seq_start << IEEE80211_SEQ_SEQ_SHIFT);
  90969f:	0c5511        	slli	a5, a5, 4
  9096a2:	05054f        	extui	a5, a5, 0, 16
  9096a5:	058b14        	srli	a11, a5, 8
  9096a8:	085a11        	slli	a10, a5, 8
  9096ab:	0baa02        	or	a10, a10, a11
  9096ae:	0a0a4f        	extui	a10, a10, 0, 16
  9096b1:	0a8b14        	srli	a11, a10, 8
  9096b4:	2b9412        	s8i	a11, a9, 18
  9096b7:	2a9413        	s8i	a10, a9, 19

	bf->bf_seqno = tid->seq_start << IEEE80211_SEQ_SEQ_SHIFT;
  9096ba:	254523        	s16i	a5, a4, 70
    return __adf_nbuf_put_tail(buf, size);
  9096bd:	c1b4      	movi.n	a11, 20
  9096bf:	da30      	mov.n	a10, a3
  9096c1:	5be7cb        	call8	9035f0 <__adf_nbuf_put_tail>

	adf_nbuf_put_tail(skb, sizeof(struct ieee80211_frame_bar));

	bf->bf_comp = ath_bar_tx_comp;
  9096c4:	1572a8        	l32r	a5, 8e6164 <memset+0xfc8>
	bf->bf_tidno = tid->tidno;
	bf->bf_node = &tid->an->ni;
	ath_dma_map(sc, bf);
  9096c7:	2c1222        	l32i	a12, a1, 136
	bf->bf_comp = ath_bar_tx_comp;
  9096ca:	954f      	s32i.n	a5, a4, 60
	bf->bf_tidno = tid->tidno;
  9096cc:	8570      	l32i.n	a5, a7, 0
	ath_dma_map(sc, bf);
  9096ce:	dac0      	mov.n	a10, a12
	bf->bf_tidno = tid->tidno;
  9096d0:	25444d        	s8i	a5, a4, 77
	bf->bf_node = &tid->an->ni;
  9096d3:	857e      	l32i.n	a5, a7, 56
	ath_dma_map(sc, bf);
  9096d5:	db40      	mov.n	a11, a4
	bf->bf_node = &tid->an->ni;
  9096d7:	254604        	s32i	a5, a4, 16
	ath_dma_map(sc, bf);
  9096da:	5bff67        	call8	909478 <ath_dma_map$isra$8>
    __adf_nbuf_dmamap_info(bmap, sg);
  9096dd:	8a40      	l32i.n	a10, a4, 0
  9096df:	b44b      	addi.n	a11, a4, 4
  9096e1:	5be782        	call8	9034ec <__adf_nbuf_dmamap_info>
	adf_nbuf_dmamap_info(bf->bf_dmamap, &bf->bf_dmamap_info);

	ds = bf->bf_desc;
	ah->ah_setupTxDesc(ds
  9096e4:	286217        	l32i	a8, a6, 92
    return (__adf_nbuf_len(buf));
  9096e7:	da30      	mov.n	a10, a3
	ds = bf->bf_desc;
  9096e9:	854c      	l32i.n	a5, a4, 48
  9096eb:	281621        	s32i	a8, a1, 132
  9096ee:	5be7dd        	call8	903664 <__adf_nbuf_len>
	ah->ah_setupTxDesc(ds
  9096f1:	c191      	movi.n	a9, 17
  9096f3:	9912      	s32i.n	a9, a1, 8
  9096f5:	294049        	l8ui	a9, a4, 73
  9096f8:	c030      	movi.n	a3, 0
  9096fa:	c0fb      	movi.n	a15, 11
  9096fc:	281221        	l32i	a8, a1, 132
  9096ff:	9911      	s32i.n	a9, a1, 4
  909701:	b4ab      	addi.n	a11, a10, 4
  909703:	9314      	s32i.n	a3, a1, 16
  909705:	9313      	s32i.n	a3, a1, 12
  909707:	9f10      	s32i.n	a15, a1, 0
  909709:	c3ec      	movi.n	a14, 60
  90970b:	dd30      	mov.n	a13, a3
  90970d:	dc30      	mov.n	a12, a3
  90970f:	da50      	mov.n	a10, a5
  909711:	0b8000        	callx8	a8
			    , bf->bf_keyix
			    , HAL_TXDESC_INTREQ
			    | HAL_TXDESC_CLRDMASK
			    , 0, 0);

	bf->bf_isaggr = 0;
  909714:	284087        	l8ui	a8, a4, 135
  909717:	29fadf        	movi	a9, -33
  90971a:	098801        	and	a8, a8, a9
  90971d:	284487        	s8i	a8, a4, 135
	bf->bf_next = NULL;
  909720:	934b      	s32i.n	a3, a4, 44

	for (ds0 = ds, i=0; i < bf->bf_dmamap_info.nsegs; ds0++, i++) {
  909722:	290a88        	movi	a9, 136
  909725:	600012        	j	90973b <ath_bar_tx+0x11f>
  909728:	002862        	excw
		ah->ah_clr11nAggr(ds0);
  90972b:	14da50        	l32r	a4, 90006c <memset+0x1aed0>
  90972e:	291621        	s32i	a9, a1, 132
  909731:	0b8000        	callx8	a8
	for (ds0 = ds, i=0; i < bf->bf_dmamap_info.nsegs; ds0++, i++) {
  909734:	291221        	l32i	a9, a1, 132
  909737:	b133      	addi.n	a3, a3, 1
  909739:	a955      	add.n	a5, a5, a9
  90973b:	8841      	l32i.n	a8, a4, 4
  90973d:	7833e8        	bltu	a3, a8, 909729 <ath_bar_tx+0x10d>
	}

	ath_filltxdesc(sc, bf);
  909740:	231220        	l32i	a3, a1, 128
  909743:	db40      	mov.n	a11, a4
  909745:	8a3b      	l32i.n	a10, a3, 44

	for (i = 0 ; i < 4; i++) {
		series[i].Tries = ATH_TXMAXTRY;
		series[i].Rate = min_rate;
		series[i].ChSel = sc->sc_ic.ic_tx_chainmask;
  909747:	232d16        	addmi	a3, a2, 0x1600
	ath_filltxdesc(sc, bf);
  90974a:	5bfe8d        	call8	909180 <ath_filltxdesc$isra$9>
		series[i].ChSel = sc->sc_ic.ic_tx_chainmask;
  90974d:	283026        	l8ui	a8, a3, 38
		series[i].Tries = ATH_TXMAXTRY;
  909750:	c07b      	movi.n	a7, 11
  909752:	231c20        	addi	a3, a1, 32
  909755:	250a04        	movi	a5, 4
  909758:	9730      	s32i.n	a7, a3, 0
		series[i].Rate = min_rate;
  90975a:	9731      	s32i.n	a7, a3, 4
		series[i].ChSel = sc->sc_ic.ic_tx_chainmask;
  90975c:	9833      	s32i.n	a8, a3, 12
  90975e:	233c14        	addi	a3, a3, 20
  909761:	b055      	addi.n	a5, a5, -1
  909763:	655ff1        	bnez	a5, 909758 <ath_bar_tx+0x13c>
	}

	ah->ah_set11nRateScenario(bf->bf_desc, 0, 0, series, 4, 4);
  909766:	c0f4      	movi.n	a15, 4
  909768:	c0c0      	movi.n	a12, 0
  90976a:	8a4c      	l32i.n	a10, a4, 48
  90976c:	236210        	l32i	a3, a6, 64
  90976f:	dbc0      	mov.n	a11, a12
  909771:	def0      	mov.n	a14, a15
  909773:	2d1c20        	addi	a13, a1, 32
  909776:	0b3000        	callx8	a3
	ath_tgt_txq_add_ucast(sc, bf);
  909779:	db40      	mov.n	a11, a4
  90977b:	da20      	mov.n	a10, a2
  90977d:	5bfdfc        	call8	908f70 <ath_tgt_txq_add_ucast>
  909780:	d10f      	retw.n
	...

00909784 <owl_tgt_node_init>:
{
  909784:	6c1004        	entry	a1, 32
	for (tidno = 0, tid = &an->tid[tidno]; tidno < WME_NUM_TID;tidno++, tid++) {
  909787:	232c24        	addi	a3, a2, 36
  90978a:	240a00        	movi	a4, 0
			tid->flag |= TID_REINITIALIZE;
  90978d:	250a04        	movi	a5, 4
		if ( tid->flag & TID_CLEANUP_INPROGRES ) {
  909790:	283036        	l8ui	a8, a3, 54
		tid->tidno = tidno;
  909793:	9430      	s32i.n	a4, a3, 0
		tid->an = an;
  909795:	923e      	s32i.n	a2, a3, 56
		if ( tid->flag & TID_CLEANUP_INPROGRES ) {
  909797:	7f871d        	bbci	a8, 31, 9097b8 <owl_tgt_node_init+0x34>
			tid->flag |= TID_REINITIALIZE;
  90979a:	058802        	or	a8, a8, a5
  90979d:	283436        	s8i	a8, a3, 54
			adf_os_print("tid[%p]->incomp is not 0: %d\n",
  9097a0:	18716e        	l32r	a8, 8e5d58 <memset+0xbbc>
  9097a3:	2c3037        	l8ui	a12, a3, 55
  9097a6:	288212        	l32i	a8, a8, 72
  9097a9:	1a72a9        	l32r	a10, 8e6250 <memset+0x10b4>
  9097ac:	00cc32        	sext	a12, a12, 7
  9097af:	db30      	mov.n	a11, a3
  9097b1:	0b8000        	callx8	a8
  9097b4:	600005        	j	9097bd <owl_tgt_node_init+0x39>
  9097b7:	00da30        	excw
			owl_tgt_tid_init(tid);
  9097ba:	5bfdda        	call8	908f24 <owl_tgt_tid_init>
	for (tidno = 0, tid = &an->tid[tidno]; tidno < WME_NUM_TID;tidno++, tid++) {
  9097bd:	b144      	addi.n	a4, a4, 1
  9097bf:	233c3c        	addi	a3, a3, 60
  9097c2:	6948ca        	bnei	a4, 8, 909790 <owl_tgt_node_init+0xc>
}
  9097c5:	d10f      	retw.n
	...

009097c8 <ath_tx_status_clear>:
{
  9097c8:	6c1004        	entry	a1, 32
		sc->tx_status[i].cnt = 0;
  9097cb:	222d16        	addmi	a2, a2, 0x1600
  9097ce:	c080      	movi.n	a8, 0
  9097d0:	282438        	s8i	a8, a2, 56
  9097d3:	28245d        	s8i	a8, a2, 93
  9097d6:	d10f      	retw.n

009097d8 <ath_tx_status_update>:
{
  9097d8:	6c1004        	entry	a1, 32
	if (sc->sc_tx_draining)
  9097db:	242249        	l32i	a4, a2, 0x124
  9097de:	157231        	l32r	a5, 8e60a4 <memset+0xf08>
  9097e1:	054401        	and	a4, a4, a5
  9097e4:	6540b1        	bnez	a4, 909899 <ath_tx_status_update+0xc1>
		if (sc->tx_status[i].cnt < HTC_MAX_TX_STATUS) {
  9097e7:	282d16        	addmi	a8, a2, 0x1600
  9097ea:	298038        	l8ui	a9, a8, 56
  9097ed:	c05b      	movi.n	a5, 11
  9097ef:	795b0a        	bgeu	a5, a9, 9097fd <ath_tx_status_update+0x25>
  9097f2:	24805d        	l8ui	a4, a8, 93
  9097f5:	745b02        	bgeu	a5, a4, 9097fb <ath_tx_status_update+0x23>
  9097f8:	60009d        	j	909899 <ath_tx_status_update+0xc1>
	for (i = 0; i < 2; i++) {
  9097fb:	c041      	movi.n	a4, 1
			txs = &sc->tx_status[i];
  9097fd:	0d4511        	slli	a5, a4, 3
  909800:	a459      	add.n	a9, a5, a4
  909802:	0e9911        	slli	a9, a9, 2
  909805:	a499      	add.n	a9, a9, a4
  909807:	1b72aa        	l32r	a11, 8e62b0 <memset+0x1114>
	txs->txstatus[txs->cnt].ts_flags = 0;
  90980a:	a928      	add.n	a8, a2, a9
  90980c:	ab88      	add.n	a8, a8, a11
  90980e:	2c8000        	l8ui	a12, a8, 0
			txs = &sc->tx_status[i];
  909811:	ab9d      	add.n	a13, a9, a11
	txs->txstatus[txs->cnt].ts_flags = 0;
  909813:	0fc811        	slli	a8, a12, 1
  909816:	ac8b      	add.n	a11, a8, a12
  909818:	a9b9      	add.n	a9, a11, a9
  90981a:	1b72ab        	l32r	a11, 8e62c8 <memset+0x112c>
  90981d:	a929      	add.n	a9, a2, a9
  90981f:	ab9b      	add.n	a11, a9, a11
  909821:	c0e0      	movi.n	a14, 0
	struct ath_tx_desc *ds = bf->bf_lastds;
  909823:	8a3e      	l32i.n	a10, a3, 56
	txs->txstatus[txs->cnt].ts_flags = 0;
  909825:	2eb400        	s8i	a14, a11, 0
	txs->txstatus[txs->cnt].cookie = bf->bf_cookie;
  909828:	1e72ac        	l32r	a14, 8e62d8 <memset+0x113c>
  90982b:	2f3092        	l8ui	a15, a3, 146
  90982e:	ae9e      	add.n	a14, a9, a14
  909830:	2fe400        	s8i	a15, a14, 0
	txs->txstatus[txs->cnt].ts_rate = SM(bf->bf_endpt, ATH9K_HTC_TXSTAT_EPID);
  909833:	1e72ad        	l32r	a14, 8e62e8 <memset+0x114c>
	if (ds->ds_txstat.ts_status & HAL_TXERR_FILT)
  909836:	c0f2      	movi.n	a15, 2
	txs->txstatus[txs->cnt].ts_rate = SM(bf->bf_endpt, ATH9K_HTC_TXSTAT_EPID);
  909838:	0e9908        	add	a9, a9, a14
  90983b:	2e3223        	l32i	a14, a3, 140
			txs = &sc->tx_status[i];
  90983e:	0d2d08        	add	a13, a2, a13
	txs->txstatus[txs->cnt].ts_rate = SM(bf->bf_endpt, ATH9K_HTC_TXSTAT_EPID);
  909841:	0cee11        	slli	a14, a14, 4
  909844:	2e9400        	s8i	a14, a9, 0
	if (ds->ds_txstat.ts_status & HAL_TXERR_FILT)
  909847:	2ea066        	l8ui	a14, a10, 102
  90984a:	7fe008        	bnone	a14, a15, 909856 <ath_tx_status_update+0x7e>
		txs->txstatus[txs->cnt].ts_flags |= ATH9K_HTC_TXSTAT_FILT;
  90984d:	29b000        	l8ui	a9, a11, 0
  909850:	0f9902        	or	a9, a9, a15
  909853:	29b400        	s8i	a9, a11, 0
	if (!(ds->ds_txstat.ts_status & HAL_TXERR_XRETRY) &&
  909856:	c197      	movi.n	a9, 23
  909858:	79e81c        	bany	a14, a9, 909878 <ath_tx_status_update+0xa0>
		txs->txstatus[txs->cnt].ts_flags |= ATH9K_HTC_TXSTAT_ACK;
  90985b:	a459      	add.n	a9, a5, a4
  90985d:	0e9911        	slli	a9, a9, 2
  909860:	a499      	add.n	a9, a9, a4
  909862:	ac88      	add.n	a8, a8, a12
  909864:	a988      	add.n	a8, a8, a9
  909866:	1972ab        	l32r	a9, 8e6314 <memset+0x1178>
  909869:	a828      	add.n	a8, a2, a8
  90986b:	a988      	add.n	a8, a8, a9
  90986d:	298000        	l8ui	a9, a8, 0
  909870:	c0b1      	movi.n	a11, 1
  909872:	0b9902        	or	a9, a9, a11
  909875:	298400        	s8i	a9, a8, 0
	ath_tx_status_update_rate(sc, bf->bf_rcs, ds->ds_txstat.ts_rate, txs);
  909878:	2ca068        	l8ui	a12, a10, 104
	txs->cnt++;
  90987b:	a455      	add.n	a5, a5, a4
	ath_tx_status_update_rate(sc, bf->bf_rcs, ds->ds_txstat.ts_rate, txs);
  90987d:	2b3c50        	addi	a11, a3, 80
  909880:	da20      	mov.n	a10, a2
	txs->cnt++;
  909882:	0e5511        	slli	a5, a5, 2
	ath_tx_status_update_rate(sc, bf->bf_rcs, ds->ds_txstat.ts_rate, txs);
  909885:	5bfd2f        	call8	908d44 <ath_tx_status_update_rate>
	txs->cnt++;
  909888:	a454      	add.n	a4, a5, a4
  90988a:	1372aa        	l32r	a3, 8e6334 <memset+0x1198>
  90988d:	a422      	add.n	a2, a2, a4
  90988f:	a322      	add.n	a2, a2, a3
  909891:	232000        	l8ui	a3, a2, 0
  909894:	b133      	addi.n	a3, a3, 1
  909896:	232400        	s8i	a3, a2, 0
  909899:	d10f      	retw.n
	...

0090989c <ath_tx_status_update_aggr>:
{
  90989c:	6c1004        	entry	a1, 32
  90989f:	da30      	mov.n	a10, a3
	if (sc->sc_tx_draining)
  9098a1:	272249        	l32i	a7, a2, 0x124
  9098a4:	137231        	l32r	a3, 8e6168 <memset+0xfcc>
{
  9098a7:	db50      	mov.n	a11, a5
	if (sc->sc_tx_draining)
  9098a9:	037701        	and	a7, a7, a3
  9098ac:	65708a        	bnez	a7, 90993a <ath_tx_status_update_aggr+0x9e>
		if (sc->tx_status[i].cnt < HTC_MAX_TX_STATUS) {
  9098af:	282d16        	addmi	a8, a2, 0x1600
  9098b2:	298038        	l8ui	a9, a8, 56
  9098b5:	230a0b        	movi	a3, 11
  9098b8:	793b08        	bgeu	a3, a9, 9098c4 <ath_tx_status_update_aggr+0x28>
  9098bb:	27805d        	l8ui	a7, a8, 93
  9098be:	773378        	bltu	a3, a7, 90993a <ath_tx_status_update_aggr+0x9e>
	for (i = 0; i < 2; i++) {
  9098c1:	270a01        	movi	a7, 1
	txs->txstatus[txs->cnt].cookie = bf->bf_cookie;
  9098c4:	0d7311        	slli	a3, a7, 3
  9098c7:	a739      	add.n	a9, a3, a7
  9098c9:	0e9911        	slli	a9, a9, 2
  9098cc:	a799      	add.n	a9, a9, a7
  9098ce:	1c72aa        	l32r	a12, 8e6378 <memset+0x11dc>
  9098d1:	a928      	add.n	a8, a2, a9
  9098d3:	ac88      	add.n	a8, a8, a12
  9098d5:	2c8000        	l8ui	a12, a8, 0
  9098d8:	0fc811        	slli	a8, a12, 1
  9098db:	ac88      	add.n	a8, a8, a12
  9098dd:	a988      	add.n	a8, a8, a9
  9098df:	1972ac        	l32r	a9, 8e6390 <memset+0x11f4>
  9098e2:	2ca092        	l8ui	a12, a10, 146
  9098e5:	a828      	add.n	a8, a2, a8
  9098e7:	a989      	add.n	a9, a8, a9
  9098e9:	2c9400        	s8i	a12, a9, 0
	txs->txstatus[txs->cnt].ts_rate = SM(bf->bf_endpt, ATH9K_HTC_TXSTAT_EPID);
  9098ec:	2aa223        	l32i	a10, a10, 140
  9098ef:	1972ad        	l32r	a9, 8e63a4 <memset+0x1208>
  9098f2:	0caa11        	slli	a10, a10, 4
  9098f5:	a989      	add.n	a9, a8, a9
  9098f7:	2a9400        	s8i	a10, a9, 0
	if (txok)
  9098fa:	c86e      	beqz.n	a6, 90990c <ath_tx_status_update_aggr+0x70>
		txs->txstatus[txs->cnt].ts_flags |= ATH9K_HTC_TXSTAT_ACK;
  9098fc:	1972ab        	l32r	a9, 8e63a8 <memset+0x120c>
  9098ff:	a989      	add.n	a9, a8, a9
  909901:	269000        	l8ui	a6, a9, 0
  909904:	c081      	movi.n	a8, 1
  909906:	086602        	or	a6, a6, a8
  909909:	269400        	s8i	a6, a9, 0
	if (rcs)
  90990c:	c9b4      	beqz.n	a11, 909924 <ath_tx_status_update_aggr+0x88>
			txs = &sc->tx_status[i];
  90990e:	a73d      	add.n	a13, a3, a7
  909910:	0edd11        	slli	a13, a13, 2
  909913:	1672aa        	l32r	a6, 8e63bc <memset+0x1220>
  909916:	a7dd      	add.n	a13, a13, a7
  909918:	a6dd      	add.n	a13, a13, a6
		ath_tx_status_update_rate(sc, rcs, ds->ds_txstat.ts_rate, txs);
  90991a:	2c4068        	l8ui	a12, a4, 104
  90991d:	ad2d      	add.n	a13, a2, a13
  90991f:	da20      	mov.n	a10, a2
  909921:	5bfd08        	call8	908d44 <ath_tx_status_update_rate>
	txs->cnt++;
  909924:	a738      	add.n	a8, a3, a7
  909926:	0e8811        	slli	a8, a8, 2
  909929:	a787      	add.n	a7, a8, a7
  90992b:	a722      	add.n	a2, a2, a7
  90992d:	1772aa        	l32r	a7, 8e63d8 <memset+0x123c>
  909930:	a722      	add.n	a2, a2, a7
  909932:	232000        	l8ui	a3, a2, 0
  909935:	b133      	addi.n	a3, a3, 1
  909937:	232400        	s8i	a3, a2, 0
  90993a:	d10f      	retw.n

0090993c <ath_tx_status_send>:
{
  90993c:	6c1004        	entry	a1, 32
	if (sc->sc_tx_draining)
  90993f:	242249        	l32i	a4, a2, 0x124
  909942:	137231        	l32r	a3, 8e6208 <memset+0x106c>
  909945:	034401        	and	a4, a4, a3
  909948:	cf44      	bnez.n	a4, 909980 <ath_tx_status_send+0x44>
		if (sc->tx_status[i].cnt) {
  90994a:	232d16        	addmi	a3, a2, 0x1600
  90994d:	283038        	l8ui	a8, a3, 56
  909950:	c980      	beqz.n	a8, 909964 <ath_tx_status_send+0x28>
			wmi_event(sc->tgt_wmi_handle, WMI_TXSTATUS_EVENTID,
  909952:	1c72aa        	l32r	a12, 8e63fc <memset+0x1260>
  909955:	1b72ae        	l32r	a11, 8e6410 <memset+0x1274>
  909958:	8a23      	l32i.n	a10, a2, 12
  90995a:	c2d5      	movi.n	a13, 37
  90995c:	ac2c      	add.n	a12, a2, a12
  90995e:	5bf497        	call8	906bbc <wmi_event>
			sc->tx_status[i].cnt = 0;
  909961:	243438        	s8i	a4, a3, 56
		if (sc->tx_status[i].cnt) {
  909964:	24305d        	l8ui	a4, a3, 93
  909967:	c945      	beqz.n	a4, 909980 <ath_tx_status_send+0x44>
			wmi_event(sc->tgt_wmi_handle, WMI_TXSTATUS_EVENTID,
  909969:	1c72af        	l32r	a12, 8e6428 <memset+0x128c>
  90996c:	8a23      	l32i.n	a10, a2, 12
  90996e:	1b72ae        	l32r	a11, 8e6428 <memset+0x128c>
  909971:	0c2c08        	add	a12, a2, a12
  909974:	2d0a25        	movi	a13, 37
			sc->tx_status[i].cnt = 0;
  909977:	220a00        	movi	a2, 0
			wmi_event(sc->tgt_wmi_handle, WMI_TXSTATUS_EVENTID,
  90997a:	5bf490        	call8	906bbc <wmi_event>
			sc->tx_status[i].cnt = 0;
  90997d:	22345d        	s8i	a2, a3, 93
  909980:	d10f      	retw.n
	...

00909984 <ATH_SKB_2_WH>:
{
  909984:	6c1006        	entry	a1, 48
    __adf_nbuf_peek_header(buf, addr, len);
  909987:	da20      	mov.n	a10, a2
  909989:	dc10      	mov.n	a12, a1
  90998b:	b41b      	addi.n	a11, a1, 4
  90998d:	5be73d        	call8	903684 <__adf_nbuf_peek_header>
}
  909990:	8211      	l32i.n	a2, a1, 4
  909992:	d10f      	retw.n

00909994 <ath_tx_set_retry$isra$12>:
static void ath_tx_set_retry(struct ath_softc_tgt *sc, struct ath_tx_buf *bf)
  909994:	6c1004        	entry	a1, 32
	__stats(sc, txaggr_retries);
  909997:	8820      	l32i.n	a8, a2, 0
	wh = ATH_SKB_2_WH(bf->bf_skb);
  909999:	8a38      	l32i.n	a10, a3, 32
	__stats(sc, txaggr_retries);
  90999b:	b188      	addi.n	a8, a8, 1
  90999d:	9820      	s32i.n	a8, a2, 0
	bf->bf_isretried = 1;
  90999f:	283087        	l8ui	a8, a3, 135
  9099a2:	c120      	movi.n	a2, 16
  9099a4:	028802        	or	a8, a8, a2
  9099a7:	283487        	s8i	a8, a3, 135
	bf->bf_retries ++;
  9099aa:	283086        	l8ui	a8, a3, 134
	wh->i_fc[1] |= IEEE80211_FC1_RETRY;
  9099ad:	c028      	movi.n	a2, 8
	bf->bf_retries ++;
  9099af:	288c01        	addi	a8, a8, 1
  9099b2:	283486        	s8i	a8, a3, 134
	wh = ATH_SKB_2_WH(bf->bf_skb);
  9099b5:	5bfff3        	call8	909984 <ATH_SKB_2_WH>
	wh->i_fc[1] |= IEEE80211_FC1_RETRY;
  9099b8:	23a001        	l8ui	a3, a10, 1
  9099bb:	023302        	or	a3, a3, a2
  9099be:	23a401        	s8i	a3, a10, 1
  9099c1:	d10f      	retw.n
	...

009099c4 <ath_tx_retry_subframe$isra$14>:
ath_tx_retry_subframe(struct ath_softc_tgt *sc, struct ath_tx_buf *bf,
  9099c4:	6c1006        	entry	a1, 48
	struct ath_hal *ah = sc->sc_ah;
  9099c7:	262d05        	addmi	a6, a2, 0x500
  9099ca:	876b      	l32i.n	a7, a6, 44
	__stats(sc, txaggr_compretries);
  9099cc:	262263        	l32i	a6, a2, 0x18c
	struct ath_node_target *an = ATH_NODE_TARGET(bf->bf_node);
  9099cf:	8d34      	l32i.n	a13, a3, 16
	__stats(sc, txaggr_compretries);
  9099d1:	b166      	addi.n	a6, a6, 1
	ath_atx_tid_t *tid = ATH_AN_2_TID(an, bf->bf_tidno);
  9099d3:	2c304d        	l8ui	a12, a3, 77
	for(ds = bf->bf_desc, i = 0; i < bf->bf_dmamap_info.nsegs; ds++, i++) {
  9099d6:	c080      	movi.n	a8, 0
	__stats(sc, txaggr_compretries);
  9099d8:	262663        	s32i	a6, a2, 0x18c
	for(ds = bf->bf_desc, i = 0; i < bf->bf_dmamap_info.nsegs; ds++, i++) {
  9099db:	2e0a88        	movi	a14, 136
  9099de:	863c      	l32i.n	a6, a3, 48
  9099e0:	600032        	j	909a16 <ath_tx_retry_subframe$isra$14+0x52>
  9099e3:	002972        	excw
		ah->ah_clr11nAggr(ds);
  9099e6:	14da60        	l32r	a4, 900368 <memset+0x1b1cc>
  9099e9:	9812      	s32i.n	a8, a1, 8
  9099eb:	9c11      	s32i.n	a12, a1, 4
  9099ed:	9d10      	s32i.n	a13, a1, 0
  9099ef:	9e13      	s32i.n	a14, a1, 12
  9099f1:	0b9000        	callx8	a9
		ah->ah_set11nBurstDuration(ds, 0);
  9099f4:	297215        	l32i	a9, a7, 84
  9099f7:	066a02        	or	a10, a6, a6
  9099fa:	2b0a00        	movi	a11, 0
  9099fd:	0b9000        	callx8	a9
		ah->ah_set11nVirtualMoreFrag(ds, 0);
  909a00:	297216        	l32i	a9, a7, 88
  909a03:	da60      	mov.n	a10, a6
  909a05:	c0b0      	movi.n	a11, 0
  909a07:	0b9000        	callx8	a9
	for(ds = bf->bf_desc, i = 0; i < bf->bf_dmamap_info.nsegs; ds++, i++) {
  909a0a:	8e13      	l32i.n	a14, a1, 12
  909a0c:	8812      	l32i.n	a8, a1, 8
  909a0e:	8d10      	l32i.n	a13, a1, 0
  909a10:	8c11      	l32i.n	a12, a1, 4
  909a12:	ae66      	add.n	a6, a6, a14
  909a14:	b188      	addi.n	a8, a8, 1
  909a16:	8931      	l32i.n	a9, a3, 4
  909a18:	7983c8        	bltu	a8, a9, 9099e4 <ath_tx_retry_subframe$isra$14+0x20>
	if (bf->bf_retries >= OWLMAX_RETRIES) {
  909a1b:	263086        	l8ui	a6, a3, 134
  909a1e:	c089      	movi.n	a8, 9
  909a20:	768b3e        	bgeu	a8, a6, 909a62 <ath_tx_retry_subframe$isra$14+0x9e>
	ath_atx_tid_t *tid = ATH_AN_2_TID(an, bf->bf_tidno);
  909a23:	0cca11        	slli	a10, a12, 4
		__stats(sc, txaggr_xretries);
  909a26:	242274        	l32i	a4, a2, 0x1d0
	ath_atx_tid_t *tid = ATH_AN_2_TID(an, bf->bf_tidno);
  909a29:	0caa0c        	sub	a10, a10, a12
		ath_tx_update_baw(tid, SEQNO_FROM_BF_SEQNO(bf->bf_seqno));
  909a2c:	2b3123        	l16ui	a11, a3, 70
	ath_atx_tid_t *tid = ATH_AN_2_TID(an, bf->bf_tidno);
  909a2f:	0eaa11        	slli	a10, a10, 2
		__stats(sc, txaggr_xretries);
  909a32:	b144      	addi.n	a4, a4, 1
	ath_atx_tid_t *tid = ATH_AN_2_TID(an, bf->bf_tidno);
  909a34:	2aac24        	addi	a10, a10, 36
		ath_tx_update_baw(tid, SEQNO_FROM_BF_SEQNO(bf->bf_seqno));
  909a37:	aada      	add.n	a10, a13, a10
		__stats(sc, txaggr_xretries);
  909a39:	242674        	s32i	a4, a2, 0x1d0
		ath_tx_update_baw(tid, SEQNO_FROM_BF_SEQNO(bf->bf_seqno));
  909a3c:	0b4b14        	srli	a11, a11, 4
  909a3f:	5bfd6a        	call8	908fe8 <ath_tx_update_baw>
		ath_tx_status_update_aggr(sc, bf, bf->bf_lastds, NULL, 0);
  909a42:	c0e0      	movi.n	a14, 0
  909a44:	8c3e      	l32i.n	a12, a3, 56
  909a46:	dde0      	mov.n	a13, a14
  909a48:	db30      	mov.n	a11, a3
  909a4a:	022a02        	or	a10, a2, a2
  909a4d:	5bff93        	call8	90989c <ath_tx_status_update_aggr>
		if (!*bar)
  909a50:	8450      	l32i.n	a4, a5, 0
  909a52:	cc43      	bnez.n	a4, 909a59 <ath_tx_retry_subframe$isra$14+0x95>
			*bar = bf;
  909a54:	9350      	s32i.n	a3, a5, 0
  909a56:	d10f      	retw.n
  909a58:	00db30        	excw
			ath_tx_freebuf(sc, bf);
  909a5b:	da20      	mov.n	a10, a2
  909a5d:	5bfece        	call8	909598 <ath_tx_freebuf>
  909a60:	d10f      	retw.n
	if (!bf->bf_next) {
  909a62:	853b      	l32i.n	a5, a3, 44
  909a64:	cd55      	bnez.n	a5, 909a7d <ath_tx_retry_subframe$isra$14+0xb9>
		__stats(sc, txaggr_errlast);
  909a66:	252267        	l32i	a5, a2, 0x19c
		bf = ath_buf_toggle(sc, bf, 1);
  909a69:	db30      	mov.n	a11, a3
		__stats(sc, txaggr_errlast);
  909a6b:	b155      	addi.n	a5, a5, 1
  909a6d:	252667        	s32i	a5, a2, 0x19c
		bf = ath_buf_toggle(sc, bf, 1);
  909a70:	c0c1      	movi.n	a12, 1
  909a72:	022a02        	or	a10, a2, a2
  909a75:	5bfe86        	call8	909490 <ath_buf_toggle>
  909a78:	d3a0      	mov.n	a3, a10
  909a7a:	600012        	j	909a90 <ath_tx_retry_subframe$isra$14+0xcc>
		bf->bf_lastds = &(bf->bf_descarr[bf->bf_dmamap_info.nsegs - 1]);
  909a7d:	0c9811        	slli	a8, a9, 4
  909a80:	a988      	add.n	a8, a8, a9
  909a82:	0d8811        	slli	a8, a8, 3
  909a85:	25fa78        	movi	a5, -136
  909a88:	863d      	l32i.n	a6, a3, 52
  909a8a:	a588      	add.n	a8, a8, a5
  909a8c:	a868      	add.n	a8, a6, a8
  909a8e:	983e      	s32i.n	a8, a3, 56
	ath_tx_set_retry(sc, bf);
  909a90:	2a1a80        	movi	a10, 0x180
  909a93:	db30      	mov.n	a11, a3
  909a95:	aa2a      	add.n	a10, a2, a10
	asf_tailq_insert_tail(bf_q, bf, bf_list);
  909a97:	c020      	movi.n	a2, 0
	ath_tx_set_retry(sc, bf);
  909a99:	5bffbe        	call8	909994 <ath_tx_set_retry$isra$12>
	asf_tailq_insert_tail(bf_q, bf, bf_list);
  909a9c:	9239      	s32i.n	a2, a3, 36
  909a9e:	8240      	l32i.n	a2, a4, 0
  909aa0:	923a      	s32i.n	a2, a3, 40
  909aa2:	9320      	s32i.n	a3, a2, 0
  909aa4:	233c24        	addi	a3, a3, 36
  909aa7:	9340      	s32i.n	a3, a4, 0
  909aa9:	d10f      	retw.n
	...

00909aac <ath_tx_comp_aggr_error>:
{
  909aac:	6c1020        	entry	a1, 0x100
	struct ath_tx_buf *bar = NULL;
  909aaf:	c050      	movi.n	a5, 0
  909ab1:	251630        	s32i	a5, a1, 192
	asf_tailq_init(&bf_q);
  909ab4:	25162e        	s32i	a5, a1, 184
    __adf_os_mem_copy(dst, src, size);
  909ab7:	8b3e      	l32i.n	a11, a3, 56
  909ab9:	250ab8        	movi	a5, 184
  909abc:	051508        	add	a5, a1, a5
  909abf:	2c0a88        	movi	a12, 136
  909ac2:	011a02        	or	a10, a1, a1
  909ac5:	25162f        	s32i	a5, a1, 188
	int nframes = bf->bf_nframes;
  909ac8:	26304c        	l8ui	a6, a3, 76
	txq = bf->bf_txq;
  909acb:	273220        	l32i	a7, a3, 128
  909ace:	5bfcfc        	call8	908ec0 <__adf_os_mem_copy>
  909ad1:	2a0a88        	movi	a10, 136
  909ad4:	2c0a30        	movi	a12, 48
  909ad7:	2b3c50        	addi	a11, a3, 80
  909ada:	0a1a08        	add	a10, a1, a10
  909add:	5bfcf8        	call8	908ec0 <__adf_os_mem_copy>
		ath_tx_retry_subframe(sc, bf, &bf_q, &bar);
  909ae0:	b455      	addi.n	a5, a5, 4
		bf_next = bf->bf_next;
  909ae2:	883b      	l32i.n	a8, a3, 44
		ath_tx_retry_subframe(sc, bf, &bf_q, &bar);
  909ae4:	2d0ac0        	movi	a13, 192
  909ae7:	db30      	mov.n	a11, a3
  909ae9:	a1dd      	add.n	a13, a13, a1
  909aeb:	dc50      	mov.n	a12, a5
  909aed:	da20      	mov.n	a10, a2
  909aef:	281634        	s32i	a8, a1, 208
  909af2:	5bffb4        	call8	9099c4 <ath_tx_retry_subframe$isra$14>
  909af5:	281234        	l32i	a8, a1, 208
  909af8:	088302        	or	a3, a8, a8
	while (bf) {
  909afb:	658fe3        	bnez	a8, 909ae2 <ath_tx_comp_aggr_error+0x36>
	ath_update_aggr_stats(sc, ds, nframes, nframes);
  909afe:	2e1071        	l8ui	a14, a1, 113
  909b01:	2d1070        	l8ui	a13, a1, 112
  909b04:	2c1067        	l8ui	a12, a1, 103
  909b07:	2b1066        	l8ui	a11, a1, 102
  909b0a:	022a02        	or	a10, a2, a2
  909b0d:	5bfd6f        	call8	9090cc <ath_update_aggr_stats$isra$5>
	ath_rate_tx_complete(sc, tid->an, ds, rcs, nframes, nframes);
  909b10:	2d0a88        	movi	a13, 136
  909b13:	8b4e      	l32i.n	a11, a4, 56
  909b15:	dc10      	mov.n	a12, a1
  909b17:	df60      	mov.n	a15, a6
  909b19:	de60      	mov.n	a14, a6
  909b1b:	0d1d08        	add	a13, a1, a13
  909b1e:	022a02        	or	a10, a2, a2
  909b21:	5bfcc7        	call8	908e40 <ath_rate_tx_complete>
	if (bar) {
  909b24:	2c1230        	l32i	a12, a1, 192
  909b27:	c8c5      	beqz.n	a12, 909b30 <ath_tx_comp_aggr_error+0x84>
		ath_bar_tx(sc, tid, bar);
  909b29:	db40      	mov.n	a11, a4
  909b2b:	da20      	mov.n	a10, a2
  909b2d:	5bfebb        	call8	90961c <ath_bar_tx>
	if (!asf_tailq_empty(&bf_q)) {
  909b30:	23122e        	l32i	a3, a1, 184
  909b33:	ca3a      	beqz.n	a3, 909b61 <ath_tx_comp_aggr_error+0xb5>
		__stats(sc, txaggr_prepends);
  909b35:	232264        	l32i	a3, a2, 0x190
  909b38:	b133      	addi.n	a3, a3, 1
  909b3a:	232664        	s32i	a3, a2, 0x190
		TAILQ_INSERTQ_HEAD(&tid->buf_q, &bf_q, bf_list);
  909b3d:	834b      	l32i.n	a3, a4, 44
  909b3f:	22122f        	l32i	a2, a1, 188
  909b42:	c837      	beqz.n	a3, 909b4d <ath_tx_comp_aggr_error+0xa1>
  909b44:	9320      	s32i.n	a3, a2, 0
  909b46:	834b      	l32i.n	a3, a4, 44
  909b48:	923a      	s32i.n	a2, a3, 40
  909b4a:	600001        	j	909b4f <ath_tx_comp_aggr_error+0xa3>
  909b4d:	924c      	s32i.n	a2, a4, 48
  909b4f:	22122e        	l32i	a2, a1, 184
  909b52:	234c2c        	addi	a3, a4, 44
  909b55:	924b      	s32i.n	a2, a4, 44
  909b57:	932a      	s32i.n	a3, a2, 40
		ath_tgt_tx_enqueue(txq, tid);
  909b59:	db40      	mov.n	a11, a4
  909b5b:	2a7c1c        	addi	a10, a7, 28
  909b5e:	5bfd52        	call8	9090a8 <ath_tgt_tx_enqueue$isra$3>
  909b61:	d10f      	retw.n
	...

00909b64 <ath_tgt_tid_drain>:
{
  909b64:	6c1004        	entry	a1, 32
	while (!asf_tailq_empty(&tid->buf_q)) {
  909b67:	600015        	j	909b80 <ath_tgt_tid_drain+0x1c>
		TAILQ_DEQ(&tid->buf_q, bf, bf_list);
  909b6a:	88b9      	l32i.n	a8, a11, 36
  909b6c:	89ba      	l32i.n	a9, a11, 40
  909b6e:	c883      	beqz.n	a8, 909b75 <ath_tgt_tid_drain+0x11>
  909b70:	998a      	s32i.n	a9, a8, 40
  909b72:	600001        	j	909b77 <ath_tgt_tid_drain+0x13>
  909b75:	993c      	s32i.n	a9, a3, 48
  909b77:	89ba      	l32i.n	a9, a11, 40
		ath_tx_freebuf(sc, bf);
  909b79:	da20      	mov.n	a10, a2
		TAILQ_DEQ(&tid->buf_q, bf, bf_list);
  909b7b:	9890      	s32i.n	a8, a9, 0
		ath_tx_freebuf(sc, bf);
  909b7d:	5bfe86        	call8	909598 <ath_tx_freebuf>
	while (!asf_tailq_empty(&tid->buf_q)) {
  909b80:	8b3b      	l32i.n	a11, a3, 44
  909b82:	65bfe4        	bnez	a11, 909b6a <ath_tgt_tid_drain+0x6>
	tid->seq_next = tid->seq_start;
  909b85:	283102        	l16ui	a8, a3, 4
  909b88:	283503        	s16i	a8, a3, 6
	tid->baw_tail = tid->baw_head;
  909b8b:	8833      	l32i.n	a8, a3, 12
  909b8d:	9834      	s32i.n	a8, a3, 16
  909b8f:	d10f      	retw.n
  909b91:	000000        	ill

00909b94 <ath_tgt_tx_prepare>:
{
  909b94:	6c1006        	entry	a1, 48
  909b97:	d520      	mov.n	a5, a2
	ni = ath_tgt_find_node(sc, dh->ni_index);
  909b99:	224001        	l8ui	a2, a4, 1
	if (node_index > TARGET_NODE_MAX)
  909b9c:	c068      	movi.n	a6, 8
  909b9e:	726a02        	bge	a6, a2, 909ba4 <ath_tgt_tx_prepare+0x10>
  909ba1:	600245        	j	909dea <ath_tgt_tx_prepare+0x256>
	ni = &an->ni;
  909ba4:	0a2811        	slli	a8, a2, 6
  909ba7:	a288      	add.n	a8, a8, a2
  909ba9:	0f8811        	slli	a8, a8, 1
  909bac:	a288      	add.n	a8, a8, a2
  909bae:	0e8811        	slli	a8, a8, 2
  909bb1:	265a38        	movi	a6, 0x538
  909bb4:	a686      	add.n	a6, a8, a6
	if (an->an_valid) {
  909bb6:	227a3c        	movi	a2, 0x73c
  909bb9:	a858      	add.n	a8, a5, a8
  909bbb:	a282      	add.n	a2, a8, a2
  909bbd:	222000        	l8ui	a2, a2, 0
	ni = &an->ni;
  909bc0:	a656      	add.n	a6, a5, a6
	if (an->an_valid) {
  909bc2:	002232        	sext	a2, a2, 7
  909bc5:	642223        	beqz	a2, 909dec <ath_tgt_tx_prepare+0x258>
		if (ni->ni_vap == NULL) {
  909bc8:	225a58        	movi	a2, 0x558
  909bcb:	a288      	add.n	a8, a8, a2
  909bcd:	8280      	l32i.n	a2, a8, 0
  909bcf:	c071      	movi.n	a7, 1
  909bd1:	c080      	movi.n	a8, 0
  909bd3:	027838        	moveqz	a8, a7, a2
	if (ni == NULL)
  909bd6:	080247        	extui	a2, a8, 0, 8
  909bd9:	65220d        	bnez	a2, 909dea <ath_tgt_tx_prepare+0x256>
  909bdc:	067238        	moveqz	a2, a7, a6
  909bdf:	652207        	bnez	a2, 909dea <ath_tgt_tx_prepare+0x256>
	tid = ATH_AN_2_TID(ATH_NODE_TARGET(ni), dh->tidno);
  909be2:	284003        	l8ui	a8, a4, 3
	if (tid->flag & TID_REINITIALIZE) {
  909be5:	0c8711        	slli	a7, a8, 4
  909be8:	08770c        	sub	a7, a7, a8
  909beb:	0e7711        	slli	a7, a7, 2
  909bee:	a767      	add.n	a7, a6, a7
  909bf0:	27705a        	l8ui	a7, a7, 90
  909bf3:	7d770d        	bbci	a7, 29, 909c04 <ath_tgt_tx_prepare+0x70>
		adf_os_print("drop frame due to TID reinit\n");
  909bf6:	13716e        	l32r	a3, 8e61b0 <memset+0x1014>
  909bf9:	1a72b0        	l32r	a10, 8e66bc <memset+0x1520>
  909bfc:	233212        	l32i	a3, a3, 72
  909bff:	0b3000        	callx8	a3
		return NULL;
  909c02:	d10f      	retw.n
	bf = asf_tailq_first(&sc->sc_txbuf);
  909c04:	2252f0        	l32i	a2, a5, 0x3c0
	if (bf !=  NULL) {
  909c07:	ca29      	beqz.n	a2, 909c34 <ath_tgt_tx_prepare+0xa0>
    __adf_os_mem_set(buf, b, size);
  909c09:	c4bc      	movi.n	a11, 76
  909c0b:	2a2c3c        	addi	a10, a2, 60
  909c0e:	5bfd98        	call8	909270 <__adf_os_mem_set$constprop$19>
		asf_tailq_remove(&sc->sc_txbuf, bf, bf_list);
  909c11:	8729      	l32i.n	a7, a2, 36
  909c13:	882a      	l32i.n	a8, a2, 40
  909c15:	c873      	beqz.n	a7, 909c1c <ath_tgt_tx_prepare+0x88>
  909c17:	987a      	s32i.n	a8, a7, 40
  909c19:	600002        	j	909c1f <ath_tgt_tx_prepare+0x8b>
  909c1c:	2856f1        	s32i	a8, a5, 0x3c4
  909c1f:	882a      	l32i.n	a8, a2, 40
  909c21:	9780      	s32i.n	a7, a8, 0
	bf->bf_tidno = dh->tidno;
  909c23:	274003        	l8ui	a7, a4, 3
  909c26:	27244d        	s8i	a7, a2, 77
	bf->bf_txq = TID_TO_ACTXQ(bf->bf_tidno);
  909c29:	c871      	beqz.n	a7, 909c2e <ath_tgt_tx_prepare+0x9a>
  909c2b:	69730b        	bnei	a7, 3, 909c3a <ath_tgt_tx_prepare+0xa6>
  909c2e:	c080      	movi.n	a8, 0
  909c30:	60001d        	j	909c51 <ath_tgt_tx_prepare+0xbd>
  909c33:	0063ff        	excw
  909c36:	fc          	.byte 0xfc
  909c37:	000000        	ill
  909c3a:	b079      	addi.n	a9, a7, -1
  909c3c:	090947        	extui	a9, a9, 0, 8
  909c3f:	c081      	movi.n	a8, 1
  909c41:	6e920c        	bltui	a9, 2, 909c51 <ath_tgt_tx_prepare+0xbd>
  909c44:	277cfc        	addi	a7, a7, -4
  909c47:	070747        	extui	a7, a7, 0, 8
  909c4a:	c083      	movi.n	a8, 3
  909c4c:	6f7201        	bgeui	a7, 2, 909c51 <ath_tgt_tx_prepare+0xbd>
  909c4f:	c082      	movi.n	a8, 2
  909c51:	0e8811        	slli	a8, a8, 2
  909c54:	288d05        	addmi	a8, a8, 0x500
  909c57:	a858      	add.n	a8, a5, a8
  909c59:	8783      	l32i.n	a7, a8, 12
    __adf_nbuf_queue_add(head, buf);
  909c5b:	db30      	mov.n	a11, a3
  909c5d:	272620        	s32i	a7, a2, 128
	bf->bf_keytype = dh->keytype;
  909c60:	274008        	l8ui	a7, a4, 8
  909c63:	272485        	s8i	a7, a2, 133
	bf->bf_keyix = dh->keyix;
  909c66:	274009        	l8ui	a7, a4, 9
  909c69:	272449        	s8i	a7, a2, 73
	bf->bf_protmode = dh->flags & (IEEE80211_PROT_RTSCTS | IEEE80211_PROT_CTSONLY);
  909c6c:	274007        	l8ui	a7, a4, 7
	bf->bf_node = ni;
  909c6f:	9624      	s32i.n	a6, a2, 16
	bf->bf_protmode = dh->flags & (IEEE80211_PROT_RTSCTS | IEEE80211_PROT_CTSONLY);
  909c71:	070741        	extui	a7, a7, 0, 2
	adf_nbuf_queue_add(&bf->bf_skbhead, skb);
  909c74:	262c14        	addi	a6, a2, 20
  909c77:	066a02        	or	a10, a6, a6
	bf->bf_protmode = dh->flags & (IEEE80211_PROT_RTSCTS | IEEE80211_PROT_CTSONLY);
  909c7a:	272484        	s8i	a7, a2, 132
  909c7d:	5be5fa        	call8	903468 <__adf_nbuf_queue_add>
    return (__adf_nbuf_queue_first(head));
  909c80:	da60      	mov.n	a10, a6
  909c82:	5be68c        	call8	9036b4 <__adf_nbuf_queue_first>
  909c85:	d3a0      	mov.n	a3, a10
    return __adf_nbuf_queue_len(head);
  909c87:	da60      	mov.n	a10, a6
  909c89:	5be688        	call8	9036ac <__adf_nbuf_queue_len>
	if (adf_nbuf_queue_len(&(bf->bf_skbhead)) == 0) {
  909c8c:	cca9      	bnez.n	a10, 909c99 <ath_tgt_tx_prepare+0x105>
		__stats(sc, tx_noskbs);
  909c8e:	225276        	l32i	a2, a5, 0x1d8
  909c91:	b122      	addi.n	a2, a2, 1
  909c93:	225676        	s32i	a2, a5, 0x1d8
  909c96:	600150        	j	909dea <ath_tgt_tx_prepare+0x256>
	adf_os_assert(skb);
  909c99:	cc31      	bnez.n	a3, 909c9e <ath_tgt_tx_prepare+0x10a>
  909c9b:	63fffc        	j	909c9b <ath_tgt_tx_prepare+0x107>
	bf->bf_skb = skb;
  909c9e:	9328      	s32i.n	a3, a2, 32
	struct ieee80211_frame *wh = ATH_SKB2_WH(bf->bf_skb);
  909ca0:	da30      	mov.n	a10, a3
  909ca2:	5bff38        	call8	909984 <ATH_SKB_2_WH>
	a_uint32_t flags = adf_os_ntohl(dh->flags);
  909ca5:	284004        	l8ui	a8, a4, 4
  909ca8:	234005        	l8ui	a3, a4, 5
  909cab:	088810        	slli	a8, a8, 24
  909cae:	003311        	slli	a3, a3, 16
  909cb1:	083802        	or	a8, a3, a8
  909cb4:	234006        	l8ui	a3, a4, 6
	struct ieee80211_frame *wh = ATH_SKB2_WH(bf->bf_skb);
  909cb7:	d7a0      	mov.n	a7, a10
	a_uint32_t flags = adf_os_ntohl(dh->flags);
  909cb9:	083311        	slli	a3, a3, 8
  909cbc:	083302        	or	a3, a3, a8
	struct ieee80211_frame *wh = ATH_SKB_2_WH(bf->bf_skb);
  909cbf:	8a28      	l32i.n	a10, a2, 32
	struct ieee80211_node_target *ni = bf->bf_node;
  909cc1:	282204        	l32i	a8, a2, 16
	a_uint32_t flags = adf_os_ntohl(dh->flags);
  909cc4:	244007        	l8ui	a4, a4, 7
	struct ieee80211_frame *wh = ATH_SKB_2_WH(bf->bf_skb);
  909cc7:	9810      	s32i.n	a8, a1, 0
  909cc9:	5bff2e        	call8	909984 <ATH_SKB_2_WH>
	INCR(ni->ni_txseqmgmt, IEEE80211_SEQ_MAX);
  909ccc:	8810      	l32i.n	a8, a1, 0
	struct ath_atx_tid *tid = ATH_AN_2_TID(an, bf->bf_tidno);
  909cce:	2d204d        	l8ui	a13, a2, 77
	a_uint32_t flags = adf_os_ntohl(dh->flags);
  909cd1:	034402        	or	a4, a4, a3
	bf->bf_seqno = (tid->seq_next << IEEE80211_SEQ_SEQ_SHIFT);
  909cd4:	0cdb11        	slli	a11, a13, 4
	INCR(ni->ni_txseqmgmt, IEEE80211_SEQ_MAX);
  909cd7:	23810c        	l16ui	a3, a8, 24
	bf->bf_seqno = (tid->seq_next << IEEE80211_SEQ_SEQ_SHIFT);
  909cda:	0db90c        	sub	a9, a11, a13
	INCR(ni->ni_txseqmgmt, IEEE80211_SEQ_MAX);
  909cdd:	b133      	addi.n	a3, a3, 1
	bf->bf_seqno = (tid->seq_next << IEEE80211_SEQ_SEQ_SHIFT);
  909cdf:	0e9911        	slli	a9, a9, 2
	INCR(ni->ni_txseqmgmt, IEEE80211_SEQ_MAX);
  909ce2:	03034b        	extui	a3, a3, 0, 12
	bf->bf_seqno = (tid->seq_next << IEEE80211_SEQ_SEQ_SHIFT);
  909ce5:	098908        	add	a9, a8, a9
	u_int8_t fragno = (wh->i_seq[0] & 0xf);
  909ce8:	2ca016        	l8ui	a12, a10, 22
	INCR(ni->ni_txseqmgmt, IEEE80211_SEQ_MAX);
  909ceb:	23850c        	s16i	a3, a8, 24
	bf->bf_seqno = (tid->seq_next << IEEE80211_SEQ_SEQ_SHIFT);
  909cee:	239115        	l16ui	a3, a9, 42
	u_int8_t fragno = (wh->i_seq[0] & 0xf);
  909cf1:	0c0c43        	extui	a12, a12, 0, 4
	bf->bf_seqno = (tid->seq_next << IEEE80211_SEQ_SEQ_SHIFT);
  909cf4:	0c3311        	slli	a3, a3, 4
  909cf7:	03034f        	extui	a3, a3, 0, 16
  909cfa:	232523        	s16i	a3, a2, 70
	*(u_int16_t *)wh->i_seq = adf_os_cpu_to_le16(bf->bf_seqno);
  909cfd:	083e11        	slli	a14, a3, 8
  909d00:	038314        	srli	a3, a3, 8
  909d03:	03e302        	or	a3, a14, a3
  909d06:	030e4f        	extui	a14, a3, 0, 16
  909d09:	23a50b        	s16i	a3, a10, 22
	wh->i_seq[0] |= fragno;
  909d0c:	0e8314        	srli	a3, a14, 8
  909d0f:	03cc02        	or	a12, a12, a3
	if (!(wh->i_fc[1] & IEEE80211_FC1_MORE_FRAG))
  909d12:	23a001        	l8ui	a3, a10, 1
	wh->i_seq[0] |= fragno;
  909d15:	2ca416        	s8i	a12, a10, 22
	if (!(wh->i_fc[1] & IEEE80211_FC1_MORE_FRAG))
  909d18:	7d3f08        	bbsi	a3, 29, 909d24 <ath_tgt_tx_prepare+0x190>
		INCR(tid->seq_next, IEEE80211_SEQ_MAX);
  909d1b:	239115        	l16ui	a3, a9, 42
  909d1e:	233c01        	addi	a3, a3, 1
  909d21:	239515        	s16i	a3, a9, 42
  909d24:	0dbb0c        	sub	a11, a11, a13
  909d27:	0ebb11        	slli	a11, a11, 2
  909d2a:	ab88      	add.n	a8, a8, a11
  909d2c:	238115        	l16ui	a3, a8, 42
	bf->bf_hdrlen   = ieee80211_anyhdrsize(wh);
  909d2f:	077a02        	or	a10, a7, a7
		INCR(tid->seq_next, IEEE80211_SEQ_MAX);
  909d32:	03034b        	extui	a3, a3, 0, 12
  909d35:	238515        	s16i	a3, a8, 42
	bf->bf_txq_add  = ath_tgt_txq_add_ucast;
  909d38:	1372b1        	l32r	a3, 8e67fc <memset+0x1660>
  909d3b:	232610        	s32i	a3, a2, 64
	bf->bf_hdrlen   = ieee80211_anyhdrsize(wh);
  909d3e:	5bfc65        	call8	908ed4 <ieee80211_anyhdrsize>
  909d41:	d3a0      	mov.n	a3, a10
  909d43:	2a2448        	s8i	a10, a2, 72
    return (__adf_nbuf_queue_first(head));
  909d46:	066a02        	or	a10, a6, a6
  909d49:	5be65a        	call8	9036b4 <__adf_nbuf_queue_first>
    return (__adf_nbuf_len(buf));
  909d4c:	5be645        	call8	903664 <__adf_nbuf_len>
	pktlen -= (hdrlen & 3);
  909d4f:	030341        	extui	a3, a3, 0, 2
  909d52:	03a30c        	sub	a3, a10, a3
	pktlen += IEEE80211_CRC_LEN;
  909d55:	b433      	addi.n	a3, a3, 4
	bf->bf_pktlen   = ath_get_pktlen(bf, bf->bf_hdrlen);
  909d57:	232522        	s16i	a3, a2, 68
	bf->bf_ismcast  = IEEE80211_IS_MULTICAST(wh->i_addr1);
  909d5a:	237004        	l8ui	a3, a7, 4
	struct ieee80211_frame *wh = ATH_SKB_2_WH(bf->bf_skb);
  909d5d:	8a28      	l32i.n	a10, a2, 32
	bf->bf_ismcast  = IEEE80211_IS_MULTICAST(wh->i_addr1);
  909d5f:	093611        	slli	a6, a3, 7
  909d62:	232087        	l8ui	a3, a2, 135
	if (!(wh->i_fc[1] & IEEE80211_FC1_WEP)) {
  909d65:	c470      	movi.n	a7, 64
	bf->bf_ismcast  = IEEE80211_IS_MULTICAST(wh->i_addr1);
  909d67:	030346        	extui	a3, a3, 0, 7
  909d6a:	063302        	or	a3, a3, a6
  909d6d:	232487        	s8i	a3, a2, 135
	if ((retval = ath_key_setup(bf->bf_node, bf)) < 0)
  909d70:	8624      	l32i.n	a6, a2, 16
	struct ieee80211_frame *wh = ATH_SKB_2_WH(bf->bf_skb);
  909d72:	5bff04        	call8	909984 <ATH_SKB_2_WH>
	if (!(wh->i_fc[1] & IEEE80211_FC1_WEP)) {
  909d75:	23a001        	l8ui	a3, a10, 1
  909d78:	073301        	and	a3, a3, a7
  909d7b:	cc39      	bnez.n	a3, 909d88 <ath_tgt_tx_prepare+0x1f4>
		bf->bf_keytype = HAL_KEY_TYPE_CLEAR;
  909d7d:	232485        	s8i	a3, a2, 133
		bf->bf_keyix = HAL_TXKEYIX_INVALID;
  909d80:	c73f      	movi.n	a3, -1
  909d82:	232449        	s8i	a3, a2, 73
  909d85:	60002d        	j	909db6 <ath_tgt_tx_prepare+0x222>
	switch (bf->bf_keytype) {
  909d88:	2c2085        	l8ui	a12, a2, 133
  909d8b:	68c209        	beqi	a12, 2, 909d98 <ath_tgt_tx_prepare+0x204>
  909d8e:	68c30e        	beqi	a12, 3, 909da0 <ath_tgt_tx_prepare+0x20c>
  909d91:	69c113        	bnei	a12, 1, 909da8 <ath_tgt_tx_prepare+0x214>
  909d94:	600008        	j	909da0 <ath_tgt_tx_prepare+0x20c>
  909d97:	002321        	excw
		bf->bf_pktlen += IEEE80211_WEP_MICLEN;
  909d9a:	22b833        	excw
  909d9d:	600004        	j	909da5 <ath_tgt_tx_prepare+0x211>
		bf->bf_pktlen += IEEE80211_WEP_ICVLEN;
  909da0:	232122        	l16ui	a3, a2, 68
  909da3:	b433      	addi.n	a3, a3, 4
  909da5:	232522        	s16i	a3, a2, 68
	if (bf->bf_keytype == HAL_KEY_TYPE_AES ||
  909da8:	23ccfe        	addi	a3, a12, -2
  909dab:	030347        	extui	a3, a3, 0, 8
  909dae:	6f3204        	bgeui	a3, 2, 909db6 <ath_tgt_tx_prepare+0x222>
		ieee80211_tgt_crypto_encap(wh, ni, bf->bf_keytype);
  909db1:	db60      	mov.n	a11, a6
  909db3:	580476        	call8	90af8c <ieee80211_tgt_crypto_encap>
  909db6:	232087        	l8ui	a3, a2, 135
	if (flags & ATH_SHORT_PREAMBLE)
  909db9:	7f4707        	bbci	a4, 31, 909dc4 <ath_tgt_tx_prepare+0x230>
		bf->bf_shpream = AH_TRUE;
  909dbc:	c440      	movi.n	a4, 64
  909dbe:	043302        	or	a3, a3, a4
  909dc1:	600005        	j	909dca <ath_tgt_tx_prepare+0x236>
		bf->bf_shpream = AH_FALSE;
  909dc4:	24fabf        	movi	a4, -65
  909dc7:	043301        	and	a3, a3, a4
  909dca:	232487        	s8i	a3, a2, 135
	bf->bf_flags = HAL_TXDESC_CLRDMASK;
  909dcd:	c031      	movi.n	a3, 1
  909dcf:	232544        	s16i	a3, a2, 136
	ath_dma_map(sc, bf);
  909dd2:	2a1a18        	movi	a10, 0x118
	bf->bf_atype = HAL_PKT_TYPE_NORMAL;
  909dd5:	c030      	movi.n	a3, 0
	ath_dma_map(sc, bf);
  909dd7:	db20      	mov.n	a11, a2
  909dd9:	aa5a      	add.n	a10, a5, a10
	bf->bf_atype = HAL_PKT_TYPE_NORMAL;
  909ddb:	23244a        	s8i	a3, a2, 74
	ath_dma_map(sc, bf);
  909dde:	5bfda6        	call8	909478 <ath_dma_map$isra$8>
	ath_tx_tgt_setds(sc, bf);
  909de1:	db20      	mov.n	a11, a2
  909de3:	da50      	mov.n	a10, a5
  909de5:	5bfd0e        	call8	909220 <ath_tx_tgt_setds>
	return bf;
  909de8:	d10f      	retw.n
		return NULL;
  909dea:	c020      	movi.n	a2, 0
}
  909dec:	d10f      	retw.n
	...

00909df0 <ath_tgt_tx_send_normal>:
{
  909df0:	6c1014        	entry	a1, 160
  909df3:	251c40        	addi	a5, a1, 64
  909df6:	c3b0      	movi.n	a11, 48
  909df8:	da50      	mov.n	a10, a5
	a_int32_t isProbe = 0;
  909dfa:	c040      	movi.n	a4, 0
	struct ath_node_target *an = ATH_NODE_TARGET(bf->bf_node);
  909dfc:	263204        	l32i	a6, a3, 16
	a_int32_t isProbe = 0;
  909dff:	24161c        	s32i	a4, a1, 112
  909e02:	5bfd1b        	call8	909270 <__adf_os_mem_set$constprop$19>
  909e05:	c3b0      	movi.n	a11, 48
  909e07:	2a1c10        	addi	a10, a1, 16
  909e0a:	5bfd19        	call8	909270 <__adf_os_mem_set$constprop$19>
	if (!bf->bf_ismcast) {
  909e0d:	273221        	l32i	a7, a3, 132
  909e10:	2d0a80        	movi	a13, 128
  909e13:	07dd01        	and	a13, a13, a7
  909e16:	273c50        	addi	a7, a3, 80
  909e19:	74d921        	bne	a13, a4, 909e3e <ath_tgt_tx_send_normal+0x4e>
	ath_rate_findrate(sc, an, 1, frameLen, 10, 4, 1,
  909e1c:	c0c1      	movi.n	a12, 1
  909e1e:	241c70        	addi	a4, a1, 112
  909e21:	9c11      	s32i.n	a12, a1, 4
  909e23:	9c10      	s32i.n	a12, a1, 0
  909e25:	db60      	mov.n	a11, a6
  909e27:	9413      	s32i.n	a4, a1, 12
  909e29:	9512      	s32i.n	a5, a1, 8
  909e2b:	c0f4      	movi.n	a15, 4
  909e2d:	c0ea      	movi.n	a14, 10
  909e2f:	da20      	mov.n	a10, a2
  909e31:	5bfbf7        	call8	908e10 <ath_rate_findrate>
		ath_hal_memcpy(bf->bf_rcs, rcs, sizeof(rcs));
  909e34:	c3c0      	movi.n	a12, 48
  909e36:	db50      	mov.n	a11, a5
  909e38:	600024        	j	909e60 <ath_tgt_tx_send_normal+0x70>
  909e3b:	000000        	ill
		mrcs[0].tries = 1;
  909e3e:	c051      	movi.n	a5, 1
		mrcs[1].tries = mrcs[2].tries = mrcs[3].tries = 0;
  909e40:	241435        	s8i	a4, a1, 53
  909e43:	241429        	s8i	a4, a1, 41
  909e46:	24141d        	s8i	a4, a1, 29
		mrcs[1].rix = mrcs[2].rix = mrcs[3].rix = 0;
  909e49:	241434        	s8i	a4, a1, 52
  909e4c:	241428        	s8i	a4, a1, 40
  909e4f:	24141c        	s8i	a4, a1, 28
		mrcs[0].rix   = 0;
  909e52:	241410        	s8i	a4, a1, 16
		mrcs[0].tries = 1;
  909e55:	251411        	s8i	a5, a1, 17
		mrcs[0].flags = 0;
  909e58:	241413        	s8i	a4, a1, 19
		ath_hal_memcpy(bf->bf_rcs, mrcs, sizeof(mrcs));
  909e5b:	c3c0      	movi.n	a12, 48
  909e5d:	2b1c10        	addi	a11, a1, 16
  909e60:	da70      	mov.n	a10, a7
  909e62:	5be760        	call8	903be4 <ath_hal_memcpy>
	ath_buf_set_rate(sc, bf);
  909e65:	db30      	mov.n	a11, a3
  909e67:	da20      	mov.n	a10, a2
  909e69:	5bfd06        	call8	909284 <ath_buf_set_rate>
	bf->bf_txq_add(sc, bf);
  909e6c:	243210        	l32i	a4, a3, 64
  909e6f:	db30      	mov.n	a11, a3
  909e71:	da20      	mov.n	a10, a2
  909e73:	0b4000        	callx8	a4
  909e76:	d10f      	retw.n

00909e78 <ath_tgt_send_mgt>:
{
  909e78:	6c1022        	entry	a1, 0x110
	struct ath_hal *ah = sc->sc_ah;
  909e7b:	262d05        	addmi	a6, a2, 0x500
  909e7e:	866b      	l32i.n	a6, a6, 44
  909e80:	2c0a80        	movi	a12, 128
  909e83:	26162c        	s32i	a6, a1, 176
  909e86:	2b0a84        	movi	a11, 132
	if (!hdr_buf) {
  909e89:	cd37      	bnez.n	a3, 909ea4 <ath_tgt_send_mgt+0x2c>
    __adf_nbuf_peek_header(buf, addr, len);
  909e8b:	231c20        	addi	a3, a1, 32
  909e8e:	ab3b      	add.n	a11, a3, a11
  909e90:	044a02        	or	a10, a4, a4
  909e93:	0c3c08        	add	a12, a3, a12
  909e96:	5be5fb        	call8	903684 <__adf_nbuf_peek_header>
    return __adf_nbuf_pull_head(buf, size);
  909e99:	c0b8      	movi.n	a11, 8
  909e9b:	da40      	mov.n	a10, a4
  909e9d:	5be554        	call8	9033f0 <__adf_nbuf_pull_head>
  909ea0:	60000c        	j	909eb0 <ath_tgt_send_mgt+0x38>
  909ea3:	00261c        	mul16u	a6, a2, a0
    __adf_nbuf_peek_header(buf, addr, len);
  909ea6:	20ac6c        	addi	a0, a10, 108
  909ea9:	ab6b      	add.n	a11, a6, a11
  909eab:	da30      	mov.n	a10, a3
  909ead:	5be5f5        	call8	903684 <__adf_nbuf_peek_header>
	adf_os_assert(len >= sizeof(ath_mgt_hdr_t));
  909eb0:	231228        	l32i	a3, a1, 160
  909eb3:	6f3802        	bgeui	a3, 8, 909eb9 <ath_tgt_send_mgt+0x41>
  909eb6:	63fffc        	j	909eb6 <ath_tgt_send_mgt+0x3e>
  909eb9:	281c20        	addi	a8, a1, 32
  909ebc:	2c0a80        	movi	a12, 128
  909ebf:	2b0a84        	movi	a11, 132
  909ec2:	ab8b      	add.n	a11, a8, a11
  909ec4:	ac8c      	add.n	a12, a8, a12
  909ec6:	da40      	mov.n	a10, a4
	mh = (ath_mgt_hdr_t *)data;
  909ec8:	261229        	l32i	a6, a1, 164
  909ecb:	5be5ee        	call8	903684 <__adf_nbuf_peek_header>
  909ece:	c3b0      	movi.n	a11, 48
  909ed0:	2a1c70        	addi	a10, a1, 112
	wh = (struct ieee80211_frame *)data;
  909ed3:	271229        	l32i	a7, a1, 164
  909ed6:	5bfce6        	call8	909270 <__adf_os_mem_set$constprop$19>
  909ed9:	c5b0      	movi.n	a11, 80
  909edb:	2a1c20        	addi	a10, a1, 32
  909ede:	5bfce4        	call8	909270 <__adf_os_mem_set$constprop$19>
	bf = asf_tailq_first(&sc->sc_txbuf);
  909ee1:	2322f0        	l32i	a3, a2, 0x3c0
	if (!bf)
  909ee4:	6432f9        	beqz	a3, 90a1e1 <ath_tgt_send_mgt+0x369>
	asf_tailq_remove(&sc->sc_txbuf, bf, bf_list);
  909ee7:	8839      	l32i.n	a8, a3, 36
  909ee9:	893a      	l32i.n	a9, a3, 40
  909eeb:	c885      	beqz.n	a8, 909ef4 <ath_tgt_send_mgt+0x7c>
  909eed:	998a      	s32i.n	a9, a8, 40
  909eef:	600004        	j	909ef7 <ath_tgt_send_mgt+0x7f>
  909ef2:	000029        	excw
  909ef5:	26f189        	l16ui	a6, a15, 0x112
  909ef8:	3a9890        	excw
	ni = ath_tgt_find_node(sc, mh->ni_index);
  909efb:	286000        	l8ui	a8, a6, 0
	if (node_index > TARGET_NODE_MAX)
  909efe:	c098      	movi.n	a9, 8
  909f00:	789a02        	bge	a9, a8, 909f06 <ath_tgt_send_mgt+0x8e>
  909f03:	6002da        	j	90a1e1 <ath_tgt_send_mgt+0x369>
	ni = &an->ni;
  909f06:	0a8911        	slli	a9, a8, 6
  909f09:	a899      	add.n	a9, a9, a8
  909f0b:	0f9911        	slli	a9, a9, 1
  909f0e:	a899      	add.n	a9, a9, a8
  909f10:	0e9911        	slli	a9, a9, 2
  909f13:	2a5a38        	movi	a10, 0x538
  909f16:	aa9a      	add.n	a10, a9, a10
  909f18:	aa2a      	add.n	a10, a2, a10
  909f1a:	2a1634        	s32i	a10, a1, 208
	if (an->an_valid) {
  909f1d:	a929      	add.n	a9, a2, a9
  909f1f:	2a7a3c        	movi	a10, 0x73c
  909f22:	aa9a      	add.n	a10, a9, a10
  909f24:	2aa000        	l8ui	a10, a10, 0
  909f27:	64a2b6        	beqz	a10, 90a1e1 <ath_tgt_send_mgt+0x369>
		if (ni->ni_vap == NULL) {
  909f2a:	2a5a58        	movi	a10, 0x558
  909f2d:	aa99      	add.n	a9, a9, a10
  909f2f:	8990      	l32i.n	a9, a9, 0
  909f31:	6592bf        	bnez	a9, 90a1f4 <ath_tgt_send_mgt+0x37c>
  909f34:	6002a9        	j	90a1e1 <ath_tgt_send_mgt+0x369>
  909f37:	000029        	excw
		keyix = mh->keyix;
  909f3a:	600529        	j	90a467 <ath_tgt_tx_form_aggr+0x10b>
  909f3d:	16308b        	l32r	a6, 8d616c <_bss_end+0x3c8964>
    return __adf_nbuf_map(osdev, bmap, buf, dir);
  909f40:	302a22        	excw
  909f43:	46dc40        	excw
  909f46:	c0d0      	movi.n	a13, 0
  909f48:	281637        	s32i	a8, a1, 220
  909f4b:	5be560        	call8	9034cc <__adf_nbuf_map>
    __adf_nbuf_queue_add(head, buf);
  909f4e:	db40      	mov.n	a11, a4
	bf->bf_skb = skb;
  909f50:	9438      	s32i.n	a4, a3, 32
  909f52:	2a3c14        	addi	a10, a3, 20
  909f55:	5be544        	call8	903468 <__adf_nbuf_queue_add>
	ds = bf->bf_desc;
  909f58:	843c      	l32i.n	a4, a3, 48
	rt = sc->sc_currates;
  909f5a:	2f2281        	l32i	a15, a2, 0x204
	ds = bf->bf_desc;
  909f5d:	24162f        	s32i	a4, a1, 188
	adf_os_assert(rt != NULL);
  909f60:	281237        	l32i	a8, a1, 220
  909f63:	ccf1      	bnez.n	a15, 909f68 <ath_tgt_send_mgt+0xf0>
  909f65:	63fffc        	j	909f65 <ath_tgt_send_mgt+0xed>
	if (mh->flags == ATH_SHORT_PREAMBLE)
  909f68:	256003        	l8ui	a5, a6, 3
  909f6b:	c0a0      	movi.n	a10, 0
  909f6d:	b054      	addi.n	a4, a5, -1
  909f6f:	c091      	movi.n	a9, 1
  909f71:	dea0      	mov.n	a14, a10
  909f73:	049e38        	moveqz	a14, a9, a4
	switch (wh->i_fc[0] & IEEE80211_FC0_TYPE_MASK) {
  909f76:	247000        	l8ui	a4, a7, 0
	if (mh->flags == ATH_SHORT_PREAMBLE)
  909f79:	251639        	s32i	a5, a1, 228
	switch (wh->i_fc[0] & IEEE80211_FC0_TYPE_MASK) {
  909f7c:	c05c      	movi.n	a5, 12
	if (mh->flags == ATH_SHORT_PREAMBLE)
  909f7e:	2e1635        	s32i	a14, a1, 212
	switch (wh->i_fc[0] & IEEE80211_FC0_TYPE_MASK) {
  909f81:	054501        	and	a5, a4, a5
  909f84:	7a591d        	bne	a5, a10, 909fa5 <ath_tgt_send_mgt+0x12d>
  909f87:	c7a0      	movi.n	a10, -16
			atype = HAL_PKT_TYPE_PROBE_RESP;
  909f89:	c0b4      	movi.n	a11, 4
  909f8b:	0a4401        	and	a4, a4, a10
  909f8e:	2b162d        	s32i	a11, a1, 180
		if (subtype == IEEE80211_FC0_SUBTYPE_PROBE_RESP)
  909f91:	c5a0      	movi.n	a10, 80
  909f93:	7a4111        	beq	a4, a10, 909fa8 <ath_tgt_send_mgt+0x130>
		else if (subtype == IEEE80211_FC0_SUBTYPE_ATIM)
  909f96:	2afa70        	movi	a10, -144
  909f99:	aa44      	add.n	a4, a4, a10
  909f9b:	049538        	moveqz	a5, a9, a4
  909f9e:	25162d        	s32i	a5, a1, 180
  909fa1:	600003        	j	909fa8 <ath_tgt_send_mgt+0x130>
  909fa4:	002a16        	excw
		atype = HAL_PKT_TYPE_NORMAL;
  909fa7:	2d2460        	s8i	a13, a2, 96
	avp = &sc->sc_vap[mh->vap_index];
  909faa:	01da20        	excw
  909fad:	0c4b11        	slli	a11, a4, 4
  909fb0:	a4bb      	add.n	a11, a11, a4
  909fb2:	147289        	l32r	a4, 8e69d8 <memset+0x183c>
  909fb5:	0ebb11        	slli	a11, a11, 2
  909fb8:	a4bb      	add.n	a11, a11, a4
	rcs[0].rix = ath_get_minrateidx(sc, avp);
  909fba:	0b2b08        	add	a11, a2, a11
  909fbd:	281637        	s32i	a8, a1, 220
  909fc0:	2f1636        	s32i	a15, a1, 216
	rcs[0].tries = ATH_TXMAXTRY;
  909fc3:	c04b      	movi.n	a4, 11
	rcs[0].rix = ath_get_minrateidx(sc, avp);
  909fc5:	5bf722        	call8	907c50 <ath_get_minrateidx>
  909fc8:	2a1470        	s8i	a10, a1, 112
	rcs[0].tries = ATH_TXMAXTRY;
  909fcb:	241471        	s8i	a4, a1, 113
    __adf_os_mem_copy(dst, src, size);
  909fce:	2c0a30        	movi	a12, 48
	rcs[0].flags = 0;
  909fd1:	240a00        	movi	a4, 0
  909fd4:	2b1c70        	addi	a11, a1, 112
  909fd7:	2a3c50        	addi	a10, a3, 80
  909fda:	241473        	s8i	a4, a1, 115
  909fdd:	5bfbb8        	call8	908ec0 <__adf_os_mem_copy>
	rix = rcs[0].rix;
  909fe0:	2d1070        	l8ui	a13, a1, 112
  909fe3:	2f1236        	l32i	a15, a1, 216
  909fe6:	0cd411        	slli	a4, a13, 4
	if (shortPreamble){
  909fe9:	2e1239        	l32i	a14, a1, 228
  909fec:	a4f4      	add.n	a4, a15, a4
	try0 = rcs[0].tries;
  909fee:	2c1071        	l8ui	a12, a1, 113
	txrate = rt->info[rix].rateCode;
  909ff1:	254030        	l8ui	a5, a4, 48
	if (shortPreamble){
  909ff4:	281237        	l32i	a8, a1, 220
  909ff7:	69e105        	bnei	a14, 1, 90a000 <ath_tgt_send_mgt+0x188>
		txrate |= rt->info[rix].shortPreamble;
  909ffa:	294031        	l8ui	a9, a4, 49
  909ffd:	095502        	or	a5, a5, a9
	vap = ni->ni_vap;
  90a000:	0a8911        	slli	a9, a8, 6
  90a003:	a899      	add.n	a9, a9, a8
  90a005:	0f9911        	slli	a9, a9, 1
  90a008:	a899      	add.n	a9, a9, a8
  90a00a:	0e9911        	slli	a9, a9, 2
	bf->bf_node = ni;
  90a00d:	2e1234        	l32i	a14, a1, 208
	vap = ni->ni_vap;
  90a010:	a929      	add.n	a9, a2, a9
  90a012:	2a5a58        	movi	a10, 0x558
  90a015:	aa99      	add.n	a9, a9, a10
  90a017:	8990      	l32i.n	a9, a9, 0
	bf->bf_node = ni;
  90a019:	9e34      	s32i.n	a14, a3, 16
	if (ismcast) {
  90a01b:	2e1233        	l32i	a14, a1, 204
  90a01e:	cdea      	bnez.n	a14, 90a03c <ath_tgt_send_mgt+0x1c4>
	} else if (pktlen > vap->iv_rtsthreshold) {
  90a020:	299105        	l16ui	a9, a9, 10
  90a023:	2e122e        	l32i	a14, a1, 184
  90a026:	291633        	s32i	a9, a1, 204
  90a029:	2a1233        	l32i	a10, a1, 204
	flags = HAL_TXDESC_CLRDMASK;
  90a02c:	c091      	movi.n	a9, 1
	a_uint8_t rix, txrate, ctsrate, cix = 0xff, *data;
  90a02e:	2b0aff        	movi	a11, 255
	} else if (pktlen > vap->iv_rtsthreshold) {
  90a031:	7eaa0f        	bge	a10, a14, 90a044 <ath_tgt_send_mgt+0x1cc>
		cix = rt->info[rix].controlRate;
  90a034:	2b4033        	l8ui	a11, a4, 51
		flags |= HAL_TXDESC_RTSENA;
  90a037:	c095      	movi.n	a9, 5
  90a039:	600007        	j	90a044 <ath_tgt_send_mgt+0x1cc>
		try0 = 1;
  90a03c:	c0c1      	movi.n	a12, 1
		flags |= HAL_TXDESC_NOACK;
  90a03e:	290a03        	movi	a9, 3
	a_uint8_t rix, txrate, ctsrate, cix = 0xff, *data;
  90a041:	2b0aff        	movi	a11, 255
	if ((bf->bf_protmode != IEEE80211_PROT_NONE) &&
  90a044:	2a3084        	l8ui	a10, a3, 132
  90a047:	caa1      	beqz.n	a10, 90a06c <ath_tgt_send_mgt+0x1f4>
  90a049:	244029        	l8ui	a4, a4, 41
  90a04c:	69421c        	bnei	a4, 2, 90a06c <ath_tgt_send_mgt+0x1f4>
	    rt->info[rix].phy == IEEE80211_T_OFDM &&
  90a04f:	749819        	bany	a9, a4, 90a06c <ath_tgt_send_mgt+0x1f4>
		cix = rt->info[sc->sc_protrix].controlRate;
  90a052:	242d03        	addmi	a4, a2, 0x300
  90a055:	24400c        	l8ui	a4, a4, 12
  90a058:	b244      	addi.n	a4, a4, 2
  90a05a:	0c4411        	slli	a4, a4, 4
  90a05d:	04f408        	add	a4, a15, a4
  90a060:	2b4013        	l8ui	a11, a4, 19
		sc->sc_tx_stats.ast_tx_protect++;
  90a063:	24225a        	l32i	a4, a2, 0x168
  90a066:	244c01        	addi	a4, a4, 1
  90a069:	24265a        	s32i	a4, a2, 0x168
	*(a_uint16_t *)&wh->i_seq[0] =  adf_os_cpu_to_le16(ni->ni_txseqmgmt <<
  90a06c:	0a8411        	slli	a4, a8, 6
  90a06f:	a844      	add.n	a4, a4, a8
  90a071:	0f4411        	slli	a4, a4, 1
  90a074:	a844      	add.n	a4, a4, a8
  90a076:	0e4411        	slli	a4, a4, 2
  90a079:	285a50        	movi	a8, 0x550
  90a07c:	a424      	add.n	a4, a2, a4
  90a07e:	a844      	add.n	a4, a4, a8
  90a080:	284100        	l16ui	a8, a4, 0
  90a083:	048a11        	slli	a10, a8, 12
  90a086:	084847        	extui	a8, a8, 4, 8
  90a089:	08a802        	or	a8, a10, a8
  90a08c:	28750b        	s16i	a8, a7, 22
	INCR(ni->ni_txseqmgmt, IEEE80211_SEQ_MAX);
  90a08f:	284100        	l16ui	a8, a4, 0
	if (flags & (HAL_TXDESC_RTSENA|HAL_TXDESC_CTSENA)) {
  90a092:	c0ac      	movi.n	a10, 12
	INCR(ni->ni_txseqmgmt, IEEE80211_SEQ_MAX);
  90a094:	b188      	addi.n	a8, a8, 1
  90a096:	08084b        	extui	a8, a8, 0, 12
  90a099:	284500        	s16i	a8, a4, 0
	if (flags & (HAL_TXDESC_RTSENA|HAL_TXDESC_CTSENA)) {
  90a09c:	0a9a01        	and	a10, a9, a10
  90a09f:	64a04e        	beqz	a10, 90a0f1 <ath_tgt_send_mgt+0x279>
		adf_os_assert(cix != 0xff);
  90a0a2:	240aff        	movi	a4, 255
  90a0a5:	74b903        	bne	a11, a4, 90a0ac <ath_tgt_send_mgt+0x234>
  90a0a8:	63fffc        	j	90a0a8 <ath_tgt_send_mgt+0x230>
  90a0ab:	000cbb        	excw
  90a0ae:	112812        	l32r	a1, 8d40f8 <_bss_end+0x3c68f0>
		if (shortPreamble) {
  90a0b1:	39abfb        	excw
		ctsrate = rt->info[cix].rateCode;
  90a0b4:	24b030        	l8ui	a4, a11, 48
		if (shortPreamble) {
  90a0b7:	69810d        	bnei	a8, 1, 90a0c8 <ath_tgt_send_mgt+0x250>
			ctsrate |= rt->info[cix].shortPreamble;
  90a0ba:	28b031        	l8ui	a8, a11, 49
  90a0bd:	084402        	or	a4, a4, a8
				ctsduration += rt->info[cix].spAckDuration;
  90a0c0:	28b11b        	l16ui	a8, a11, 54
  90a0c3:	600004        	j	90a0cb <ath_tgt_send_mgt+0x253>
  90a0c6:	000028        	mull	a0, a0, a0
				ctsduration += rt->info[cix].lpAckDuration;
  90a0c9:	b11a      	addi.n	a10, a1, 1
		ctsduration += ath_hal_computetxtime(ah,
  90a0cb:	2c122e        	l32i	a12, a1, 184
  90a0ce:	2e1235        	l32i	a14, a1, 212
  90a0d1:	2a122c        	l32i	a10, a1, 176
				ctsduration += rt->info[cix].lpAckDuration;
  90a0d4:	0f8811        	slli	a8, a8, 1
		ctsduration += ath_hal_computetxtime(ah,
  90a0d7:	dbf0      	mov.n	a11, a15
  90a0d9:	281637        	s32i	a8, a1, 220
  90a0dc:	291636        	s32i	a9, a1, 216
  90a0df:	5bebbf        	call8	904fdc <ath_hal_computetxtime>
  90a0e2:	281237        	l32i	a8, a1, 220
		try0 = 1;
  90a0e5:	c0c1      	movi.n	a12, 1
		ctsduration += ath_hal_computetxtime(ah,
  90a0e7:	a8aa      	add.n	a10, a10, a8
  90a0e9:	291236        	l32i	a9, a1, 216
  90a0ec:	600003        	j	90a0f3 <ath_tgt_send_mgt+0x27b>
  90a0ef:	0000d4        	excw
		ctsrate = 0;
  90a0f2:	a09a      	add.n	a10, a9, a0
	ah->ah_setupTxDesc(ds
  90a0f4:	142a12        	l32r	a4, 8d493c <_bss_end+0x3c7134>
  90a0f7:	30c180        	excw
	flags |= HAL_TXDESC_INTREQ;
  90a0fa:	089902        	or	a9, a9, a8
	ah->ah_setupTxDesc(ds
  90a0fd:	2b122c        	l32i	a11, a1, 176
  90a100:	00a832        	sext	a8, a10, 7
  90a103:	9912      	s32i.n	a9, a1, 8
  90a105:	9c10      	s32i.n	a12, a1, 0
  90a107:	9413      	s32i.n	a4, a1, 12
  90a109:	9811      	s32i.n	a8, a1, 4
  90a10b:	28b217        	l32i	a8, a11, 92
  90a10e:	2d122d        	l32i	a13, a1, 180
  90a111:	2c1232        	l32i	a12, a1, 200
  90a114:	2b122e        	l32i	a11, a1, 184
  90a117:	2a122f        	l32i	a10, a1, 188
  90a11a:	291636        	s32i	a9, a1, 216
  90a11d:	df50      	mov.n	a15, a5
  90a11f:	c3ec      	movi.n	a14, 60
  90a121:	0b8000        	callx8	a8
	bf->bf_flags = flags;
  90a124:	291236        	l32i	a9, a1, 216
	if (iswep && (keyix != HAL_TXKEYIX_INVALID) &&
  90a127:	281231        	l32i	a8, a1, 196
	bf->bf_flags = flags;
  90a12a:	293544        	s16i	a9, a3, 136
	if (iswep && (keyix != HAL_TXKEYIX_INVALID) &&
  90a12d:	c98f      	beqz.n	a8, 90a150 <ath_tgt_send_mgt+0x2d8>
  90a12f:	277000        	l8ui	a7, a7, 0
  90a132:	280af0        	movi	a8, 240
  90a135:	087701        	and	a7, a7, a8
  90a138:	280ab0        	movi	a8, 176
  90a13b:	787911        	bne	a7, a8, 90a150 <ath_tgt_send_mgt+0x2d8>
		ah->ah_fillKeyTxDesc(ds, mh->keytype);
  90a13e:	29122c        	l32i	a9, a1, 176
  90a141:	2b6004        	l8ui	a11, a6, 4
  90a144:	2a122f        	l32i	a10, a1, 188
  90a147:	269219        	l32i	a6, a9, 100
  90a14a:	00bb32        	sext	a11, a11, 7
  90a14d:	0b6000        	callx8	a6
	ath_filltxdesc(sc, bf);
  90a150:	262d05        	addmi	a6, a2, 0x500
  90a153:	2a620b        	l32i	a10, a6, 44
  90a156:	033b02        	or	a11, a3, a3
  90a159:	5bfc09        	call8	909180 <ath_filltxdesc$isra$9>
		series[i].ChSel = sc->sc_ic.ic_tx_chainmask;
  90a15c:	272d16        	addmi	a7, a2, 0x1600
  90a15f:	2b7026        	l8ui	a11, a7, 38
  90a162:	281c20        	addi	a8, a1, 32
  90a165:	c074      	movi.n	a7, 4
  90a167:	dd80      	mov.n	a13, a8
		series[i].Tries = 2;
  90a169:	c0c2      	movi.n	a12, 2
		series[i].RateFlags = 0;
  90a16b:	c0a0      	movi.n	a10, 0
  90a16d:	d970      	mov.n	a9, a7
  90a16f:	6d980c        	loop	a9, 90a17f <ath_tgt_send_mgt+0x307>
		series[i].Tries = 2;
  90a172:	9c80      	s32i.n	a12, a8, 0
		series[i].Rate = txrate;
  90a174:	9581      	s32i.n	a5, a8, 4
		series[i].ChSel = sc->sc_ic.ic_tx_chainmask;
  90a176:	9b83      	s32i.n	a11, a8, 12
		series[i].RateFlags = 0;
  90a178:	9a84      	s32i.n	a10, a8, 16
  90a17a:	b077      	addi.n	a7, a7, -1
  90a17c:	288c14        	addi	a8, a8, 20
	ah->ah_set11nRateScenario(ds, 0, ctsrate, series, 4, 0);
  90a17f:	28122c        	l32i	a8, a1, 176
  90a182:	c0f0      	movi.n	a15, 0
  90a184:	258210        	l32i	a5, a8, 64
  90a187:	dc40      	mov.n	a12, a4
  90a189:	2a122f        	l32i	a10, a1, 188
	ATH_TXQ_INSERT_TAIL(txq, bf, bf_list);
  90a18c:	243aec        	movi	a4, 0x3ec
  90a18f:	a424      	add.n	a4, a2, a4
	ah->ah_set11nRateScenario(ds, 0, ctsrate, series, 4, 0);
  90a191:	c0e4      	movi.n	a14, 4
  90a193:	0ffb02        	or	a11, a15, a15
  90a196:	0b5000        	callx8	a5
  90a199:	856b      	l32i.n	a5, a6, 44
	ATH_TXQ_INSERT_TAIL(txq, bf, bf_list);
  90a19b:	8643      	l32i.n	a6, a4, 12
  90a19d:	9739      	s32i.n	a7, a3, 36
  90a19f:	963a      	s32i.n	a6, a3, 40
	ath_tgt_txqaddbuf(sc, txq, bf, bf->bf_lastds);
  90a1a1:	883e      	l32i.n	a8, a3, 56
	ATH_TXQ_INSERT_TAIL(txq, bf, bf_list);
  90a1a3:	9360      	s32i.n	a3, a6, 0
  90a1a5:	263c24        	addi	a6, a3, 36
  90a1a8:	9643      	s32i.n	a6, a4, 12
  90a1aa:	8644      	l32i.n	a6, a4, 16
  90a1ac:	9345      	s32i.n	a3, a4, 20
  90a1ae:	b166      	addi.n	a6, a6, 1
  90a1b0:	9644      	s32i.n	a6, a4, 16
	if (txq->axq_link == NULL) {
  90a1b2:	8641      	l32i.n	a6, a4, 4
  90a1b4:	cd62      	bnez.n	a6, 90a1ca <ath_tgt_send_mgt+0x352>
		ah->ah_setTxDP(ah, txq->axq_qnum, ATH_BUF_GET_DESC_PHY_ADDR(bf));
  90a1b6:	865a      	l32i.n	a6, a5, 40
  90a1b8:	8c3c      	l32i.n	a12, a3, 48
  90a1ba:	8b40      	l32i.n	a11, a4, 0
  90a1bc:	da50      	mov.n	a10, a5
  90a1be:	281637        	s32i	a8, a1, 220
  90a1c1:	0b6000        	callx8	a6
  90a1c4:	281237        	l32i	a8, a1, 220
  90a1c7:	600003        	j	90a1ce <ath_tgt_send_mgt+0x356>
		*txq->axq_link = ATH_BUF_GET_DESC_PHY_ADDR(bf);
  90a1ca:	833c      	l32i.n	a3, a3, 48
  90a1cc:	9360      	s32i.n	a3, a6, 0
	txq->axq_link = &lastds->ds_link;
  90a1ce:	233aec        	movi	a3, 0x3ec
  90a1d1:	a322      	add.n	a2, a2, a3
	ah->ah_startTxDma(ah, txq->axq_qnum);
  90a1d3:	8b20      	l32i.n	a11, a2, 0
  90a1d5:	835c      	l32i.n	a3, a5, 48
	txq->axq_link = &lastds->ds_link;
  90a1d7:	9821      	s32i.n	a8, a2, 4
	ah->ah_startTxDma(ah, txq->axq_qnum);
  90a1d9:	da50      	mov.n	a10, a5
  90a1db:	0b3000        	callx8	a3
  90a1de:	d10f      	retw.n
  90a1e0:	001371        	excw
	HTC_ReturnBuffers(sc->tgt_htc_handle, endpt, skb);
  90a1e3:	6e8a22        	bltui	a8, 12, 90a209 <ath_tgt_send_mgt+0x391>
  90a1e6:	233287        	l32i	a3, a3, 0x21c
  90a1e9:	dc40      	mov.n	a12, a4
  90a1eb:	db50      	mov.n	a11, a5
  90a1ed:	0b3000        	callx8	a3
	return;
  90a1f0:	d10f      	retw.n
  90a1f2:	000025        	excw
	bf->bf_endpt = endpt;
  90a1f5:	362325        	excw
	bf->bf_cookie = mh->cookie;
  90a1f8:	600607        	j	90a803 <owltgt_tx_processq+0x5f>
	hdrlen = ieee80211_anyhdrsize(wh);
  90a1fb:	7a0225        	blt	a0, a10, 90a224 <ath_tgt_send_mgt+0x3ac>
	bf->bf_cookie = mh->cookie;
  90a1fe:	349225        	excw
	bf->bf_protmode = mh->flags & (IEEE80211_PROT_RTSCTS | IEEE80211_PROT_CTSONLY);
  90a201:	600305        	j	90a50a <ath_tgt_tx_form_aggr+0x1ae>
  90a204:	054125        	excw
  90a207:	348429        	excw
  90a20a:	700125        	beq	a0, a0, 90a233 <ath_tgt_send_mgt+0x3bb>
  90a20d:	0a4005        	excw
  90a210:	9901      	s32i.n	a9, a0, 4
  90a212:	257004        	l8ui	a5, a7, 4
  90a215:	291631        	s32i	a9, a1, 196
  90a218:	050540        	extui	a5, a5, 0, 1
  90a21b:	251633        	s32i	a5, a1, 204
	hdrlen = ieee80211_anyhdrsize(wh);
  90a21e:	281637        	s32i	a8, a1, 220
  90a221:	5bfb2c        	call8	908ed4 <ieee80211_anyhdrsize>
	pktlen -= (hdrlen & 3);
  90a224:	251228        	l32i	a5, a1, 160
  90a227:	0a0941        	extui	a9, a10, 0, 2
  90a22a:	09550c        	sub	a5, a5, a9
	pktlen += IEEE80211_CRC_LEN;
  90a22d:	b455      	addi.n	a5, a5, 4
	if (iswep)
  90a22f:	291231        	l32i	a9, a1, 196
	hdrlen = ieee80211_anyhdrsize(wh);
  90a232:	2a1632        	s32i	a10, a1, 200
	pktlen += IEEE80211_CRC_LEN;
  90a235:	25162e        	s32i	a5, a1, 184
	if (iswep)
  90a238:	281237        	l32i	a8, a1, 220
  90a23b:	659cfa        	bnez	a9, 909f39 <ath_tgt_send_mgt+0xc1>
	keyix = HAL_TXKEYIX_INVALID;
  90a23e:	250aff        	movi	a5, 255
  90a241:	251630        	s32i	a5, a1, 192
  90a244:	63fcf7        	j	909f3f <ath_tgt_send_mgt+0xc7>
	...

0090a248 <ath_tgt_handle_normal>:
{
  90a248:	6c1004        	entry	a1, 32
	an = (struct ath_node_target *)bf->bf_node;
  90a24b:	8834      	l32i.n	a8, a3, 16
{
  90a24d:	da20      	mov.n	a10, a2
  90a24f:	db30      	mov.n	a11, a3
	adf_os_assert(an);
  90a251:	cc83      	bnez.n	a8, 90a258 <ath_tgt_handle_normal+0x10>
  90a253:	63fffc        	j	90a253 <ath_tgt_handle_normal+0xb>
  90a256:	00002c        	excw
	tid = &an->tid[bf->bf_tidno];
  90a259:	304d19        	excw
	bf->bf_comp = ath_tgt_tx_comp_normal;
  90a25c:	72b299        	blt	a11, a2, 90a1f9 <ath_tgt_send_mgt+0x381>
  90a25f:	3f0cc9        	excw
	INCR(tid->seq_start, IEEE80211_SEQ_MAX);
  90a262:	110c99        	l32r	a1, 8cd4c8 <_bss_end+0x3bfcc0>
  90a265:	0c0e99        	excw
  90a268:	11a988        	l32r	a1, 8f4888 <memset+0xf6ec>
  90a26b:	298114        	l16ui	a9, a8, 40
  90a26e:	b199      	addi.n	a9, a9, 1
  90a270:	09094b        	extui	a9, a9, 0, 12
  90a273:	298514        	s16i	a9, a8, 40
	ath_tgt_tx_send_normal(sc, bf);
  90a276:	5bfede        	call8	909df0 <ath_tgt_tx_send_normal>
  90a279:	d10f      	retw.n
	...

0090a27c <ath_tx_addto_baw>:
{
  90a27c:	6c1004        	entry	a1, 32
	if (bf->bf_isretried) {
  90a27f:	283221        	l32i	a8, a3, 132
  90a282:	7b8f3e        	bbsi	a8, 27, 90a2c4 <ath_tx_addto_baw+0x48>
	index  = ATH_BA_INDEX(tid->seq_start, SEQNO_FROM_BF_SEQNO(bf->bf_seqno));
  90a285:	283123        	l16ui	a8, a3, 70
  90a288:	232102        	l16ui	a3, a2, 4
  90a28b:	084814        	srli	a8, a8, 4
	cindex = (tid->baw_head + index) & (ATH_TID_MAX_BUFS - 1);
  90a28e:	8d23      	l32i.n	a13, a2, 12
	index  = ATH_BA_INDEX(tid->seq_start, SEQNO_FROM_BF_SEQNO(bf->bf_seqno));
  90a290:	03880c        	sub	a8, a8, a3
  90a293:	08084b        	extui	a8, a8, 0, 12
	cindex = (tid->baw_head + index) & (ATH_TID_MAX_BUFS - 1);
  90a296:	ad8c      	add.n	a12, a8, a13
  90a298:	0c0946        	extui	a9, a12, 0, 7
	TX_BUF_BITMAP_SET(tid->tx_buf_bitmap, cindex);
  90a29b:	095a12        	srai	a10, a9, 5
  90a29e:	0eaa11        	slli	a10, a10, 2
  90a2a1:	aa2a      	add.n	a10, a2, a10
  90a2a3:	c0b1      	movi.n	a11, 1
  90a2a5:	00c104        	ssl	a12
  90a2a8:	00bc1a        	sll	a12, a11
  90a2ab:	8ba5      	l32i.n	a11, a10, 20
  90a2ad:	0cbb02        	or	a11, a11, a12
  90a2b0:	9ba5      	s32i.n	a11, a10, 20
	if (index >= ((tid->baw_tail - tid->baw_head) & (ATH_TID_MAX_BUFS - 1))) {
  90a2b2:	8a24      	l32i.n	a10, a2, 16
  90a2b4:	0daa0c        	sub	a10, a10, a13
  90a2b7:	0a0a46        	extui	a10, a10, 0, 7
  90a2ba:	7a8206        	blt	a8, a10, 90a2c4 <ath_tx_addto_baw+0x48>
		INCR(tid->baw_tail, ATH_TID_MAX_BUFS);
  90a2bd:	b199      	addi.n	a9, a9, 1
  90a2bf:	090946        	extui	a9, a9, 0, 7
  90a2c2:	9924      	s32i.n	a9, a2, 16
  90a2c4:	d10f      	retw.n
	...

0090a2c8 <ath_tgt_handle_aggr>:
{
  90a2c8:	6c1004        	entry	a1, 32
	an = (struct ath_node_target *)bf->bf_node;
  90a2cb:	8b34      	l32i.n	a11, a3, 16
	struct ath_txq *txq = bf->bf_txq;
  90a2cd:	2c3220        	l32i	a12, a3, 128
	adf_os_assert(an);
  90a2d0:	ccb1      	bnez.n	a11, 90a2d5 <ath_tgt_handle_aggr+0xd>
  90a2d2:	63fffc        	j	90a2d2 <ath_tgt_handle_aggr+0xa>
	tid = &an->tid[bf->bf_tidno];
  90a2d5:	2d304d        	l8ui	a13, a3, 77
	bf->bf_comp = ath_tgt_tx_comp_aggr;
  90a2d8:	1472b3        	l32r	a4, 8e6da4 <memset+0x1c08>
	tid = &an->tid[bf->bf_tidno];
  90a2db:	0cda11        	slli	a10, a13, 4
  90a2de:	0daa0c        	sub	a10, a10, a13
  90a2e1:	0eaa11        	slli	a10, a10, 2
	bf->bf_comp = ath_tgt_tx_comp_aggr;
  90a2e4:	943f      	s32i.n	a4, a3, 60
			(tid->paused) || (!within_baw) );
  90a2e6:	84c4      	l32i.n	a4, a12, 16
	tid = &an->tid[bf->bf_tidno];
  90a2e8:	2aac24        	addi	a10, a10, 36
  90a2eb:	aaba      	add.n	a10, a11, a10
  90a2ed:	0cde11        	slli	a14, a13, 4
			(tid->paused) || (!within_baw) );
  90a2f0:	ce4d      	bnez.n	a4, 90a321 <ath_tgt_handle_aggr+0x59>
			(!asf_tailq_empty(&tid->buf_q)) ||
  90a2f2:	0de80c        	sub	a8, a14, a13
  90a2f5:	0e8811        	slli	a8, a8, 2
  90a2f8:	a8b8      	add.n	a8, a11, a8
	queue_frame = ( (txq->axq_depth >= ATH_AGGR_MIN_QDEPTH) ||
  90a2fa:	2f8214        	l32i	a15, a8, 80
  90a2fd:	cef0      	bnez.n	a15, 90a321 <ath_tgt_handle_aggr+0x59>
	within_baw = BAW_WITHIN(tid->seq_start, tid->baw_size,
  90a2ff:	293123        	l16ui	a9, a3, 70
  90a302:	248114        	l16ui	a4, a8, 40
  90a305:	094914        	srli	a9, a9, 4
  90a308:	04990c        	sub	a9, a9, a4
  90a30b:	248116        	l16ui	a4, a8, 44
  90a30e:	09094b        	extui	a9, a9, 0, 12
			(tid->paused) || (!within_baw) );
  90a311:	749a0c        	bge	a9, a4, 90a321 <ath_tgt_handle_aggr+0x59>
			(!asf_tailq_empty(&tid->buf_q)) ||
  90a314:	288058        	l8ui	a8, a8, 88
  90a317:	c091      	movi.n	a9, 1
  90a319:	089f39        	movnez	a15, a9, a8
			(tid->paused) || (!within_baw) );
  90a31c:	0f0847        	extui	a8, a15, 0, 8
  90a31f:	ca81      	beqz.n	a8, 90a344 <ath_tgt_handle_aggr+0x7c>
		asf_tailq_insert_tail(&tid->buf_q, bf, bf_list);
  90a321:	0de80c        	sub	a8, a14, a13
  90a324:	0e8811        	slli	a8, a8, 2
  90a327:	a8b8      	add.n	a8, a11, a8
  90a329:	c020      	movi.n	a2, 0
  90a32b:	9239      	s32i.n	a2, a3, 36
  90a32d:	228215        	l32i	a2, a8, 84
		ath_tgt_tx_enqueue(txq, tid);
  90a330:	dba0      	mov.n	a11, a10
		asf_tailq_insert_tail(&tid->buf_q, bf, bf_list);
  90a332:	923a      	s32i.n	a2, a3, 40
  90a334:	9320      	s32i.n	a3, a2, 0
  90a336:	233c24        	addi	a3, a3, 36
  90a339:	238615        	s32i	a3, a8, 84
		ath_tgt_tx_enqueue(txq, tid);
  90a33c:	2acc1c        	addi	a10, a12, 28
  90a33f:	5bfb5a        	call8	9090a8 <ath_tgt_tx_enqueue$isra$3>
  90a342:	d10f      	retw.n
		ath_tx_addto_baw(tid, bf);
  90a344:	db30      	mov.n	a11, a3
  90a346:	5bffcd        	call8	90a27c <ath_tx_addto_baw>
		__stats(sc, txaggr_nframes);
  90a349:	28225d        	l32i	a8, a2, 0x174
		ath_tgt_tx_send_normal(sc, bf);
  90a34c:	db30      	mov.n	a11, a3
		__stats(sc, txaggr_nframes);
  90a34e:	b188      	addi.n	a8, a8, 1
  90a350:	28265d        	s32i	a8, a2, 0x174
		ath_tgt_tx_send_normal(sc, bf);
  90a353:	da20      	mov.n	a10, a2
  90a355:	5bfea6        	call8	909df0 <ath_tgt_tx_send_normal>
  90a358:	d10f      	retw.n
	...

0090a35c <ath_tgt_tx_form_aggr>:
{
  90a35c:	6c100e        	entry	a1, 112
  90a35f:	941a      	s32i.n	a4, a1, 40
	struct ath_hal *ah = sc->sc_ah;
  90a361:	242d05        	addmi	a4, a2, 0x500
  90a364:	844b      	l32i.n	a4, a4, 44
	u_int16_t aggr_limit =  (64*1024 -1), al = 0, bpad = 0, al_delta;
  90a366:	c060      	movi.n	a6, 0
	struct ath_hal *ah = sc->sc_ah;
  90a368:	941b      	s32i.n	a4, a1, 44
	u_int16_t h_baw = tid->baw_size/2, prev_al = 0, prev_frames = 0;
  90a36a:	243104        	l16ui	a4, a3, 8
	bf_first = asf_tailq_first(&tid->buf_q);
  90a36d:	893b      	l32i.n	a9, a3, 44
	u_int16_t h_baw = tid->baw_size/2, prev_al = 0, prev_frames = 0;
  90a36f:	041414        	srli	a4, a4, 1
	u_int16_t aggr_limit =  (64*1024 -1), al = 0, bpad = 0, al_delta;
  90a372:	177273        	l32r	a7, 8e6d40 <memset+0x1ba4>
	u_int16_t h_baw = tid->baw_size/2, prev_al = 0, prev_frames = 0;
  90a375:	9419      	s32i.n	a4, a1, 36
	u_int16_t aggr_limit =  (64*1024 -1), al = 0, bpad = 0, al_delta;
  90a377:	d560      	mov.n	a5, a6
	int nframes = 0, rl = 0;;
  90a379:	dd60      	mov.n	a13, a6
  90a37b:	d860      	mov.n	a8, a6
	struct ath_tx_buf *bf_first ,*bf_prev = NULL;
  90a37d:	261608        	s32i	a6, a1, 32
		bf = asf_tailq_first(&tid->buf_q);
  90a380:	843b      	l32i.n	a4, a3, 44
		adf_os_assert(bf);
  90a382:	cc42      	bnez.n	a4, 90a388 <ath_tgt_tx_form_aggr+0x2c>
  90a384:	63fffc        	j	90a384 <ath_tgt_tx_form_aggr+0x28>
  90a387:	002a41        	extui	a10, a0, 2, 2
		if (!BAW_WITHIN(tid->seq_start, tid->baw_size,
  90a38a:	232b31        	l32ai	a3, a2, 196
  90a38d:	020a4a        	extui	a10, a2, 0, 11
  90a390:	140baa        	l32r	a4, 8cd238 <_bss_end+0x3bfa30>
  90a393:	0c2b31        	excw
  90a396:	040a0a        	addx4	a10, a0, a4
  90a399:	4b7ba2        	excw
  90a39c:	0a2595        	excw
			bf_first->bf_al= al;
  90a39f:	272894        	excw
			bf_first->bf_nframes = nframes;
  90a3a2:	4cc021        	excw
			return ATH_TGT_AGGR_BAW_CLOSED;
  90a3a5:	d10f      	retw.n
  90a3a7:	0065d0        	excw
		if (!rl) {
  90a3aa:	b72a      	addi.n	a10, a2, 7
	const HAL_RATE_TABLE  *rt = sc->sc_currates;
  90a3ac:	22812b        	l16ui	a2, a8, 86
	if (bf->bf_ismcast) {
  90a3af:	0a809a        	excw
	const HAL_RATE_TABLE  *rt = sc->sc_currates;
  90a3b2:	1c2a42        	l32r	a12, 8d4cbc <_bss_end+0x3c74b4>
	if (bf->bf_ismcast) {
  90a3b5:	21873e        	excw
  90a3b8:	7ab018        	bnone	a11, a10, 90a3d4 <ath_tgt_tx_form_aggr+0x78>
		bf->bf_rcs[0].rix   = 0xb;
  90a3bb:	c0ab      	movi.n	a10, 11
  90a3bd:	2a4450        	s8i	a10, a4, 80
		bf->bf_rcs[0].tries = ATH_TXMAXTRY - 1;
  90a3c0:	c0aa      	movi.n	a10, 10
		bf->bf_rcs[1].tries = bf->bf_rcs[2].tries = bf->bf_rcs[3].tries = 0;
  90a3c2:	2d4475        	s8i	a13, a4, 117
  90a3c5:	2d4469        	s8i	a13, a4, 105
  90a3c8:	2d445d        	s8i	a13, a4, 93
		bf->bf_rcs[0].tries = ATH_TXMAXTRY - 1;
  90a3cb:	2a4451        	s8i	a10, a4, 81
		bf->bf_rcs[0].flags = 0;
  90a3ce:	2d4453        	s8i	a13, a4, 83
  90a3d1:	600024        	j	90a3f9 <ath_tgt_tx_form_aggr+0x9d>
	ath_rate_findrate(sc, an, 1, frameLen, 10, 4, 1,
  90a3d4:	2a1c10        	addi	a10, a1, 16
  90a3d7:	c0c1      	movi.n	a12, 1
  90a3d9:	9a13      	s32i.n	a10, a1, 12
				      ATH_RC_PROBE_ALLOWED, bf->bf_rcs, &prate);
  90a3db:	2a4c50        	addi	a10, a4, 80
	ath_rate_findrate(sc, an, 1, frameLen, 10, 4, 1,
  90a3de:	9a12      	s32i.n	a10, a1, 8
  90a3e0:	9c11      	s32i.n	a12, a1, 4
  90a3e2:	9c10      	s32i.n	a12, a1, 0
  90a3e4:	c0f4      	movi.n	a15, 4
  90a3e6:	c0ea      	movi.n	a14, 10
  90a3e8:	db70      	mov.n	a11, a7
  90a3ea:	da20      	mov.n	a10, a2
  90a3ec:	981f      	s32i.n	a8, a1, 60
  90a3ee:	291610        	s32i	a9, a1, 64
  90a3f1:	5bfa87        	call8	908e10 <ath_rate_findrate>
  90a3f4:	291210        	l32i	a9, a1, 64
  90a3f7:	881f      	l32i.n	a8, a1, 60
	struct ath_tx_buf *bf_first ,*bf_prev = NULL;
  90a3f9:	1d7273        	l32r	a13, 8e6dc8 <memset+0x1c2c>
  90a3fc:	2a4c50        	addi	a10, a4, 80
  90a3ff:	c0c4      	movi.n	a12, 4
  90a401:	6dc81d        	loop	a12, 90a422 <ath_tgt_tx_form_aggr+0xc6>
		if (bf->bf_rcs[i].tries) {
  90a404:	2ba001        	l8ui	a11, a10, 1
  90a407:	c9b5      	beqz.n	a11, 90a420 <ath_tgt_tx_form_aggr+0xc4>
			if (rt->info[bf->bf_rcs[i].rix].phy != IEEE80211_T_HT) {
  90a409:	2ba000        	l8ui	a11, a10, 0
  90a40c:	8f1c      	l32i.n	a15, a1, 48
  90a40e:	b2bb      	addi.n	a11, a11, 2
  90a410:	0cbb11        	slli	a11, a11, 4
  90a413:	abfb      	add.n	a11, a15, a11
  90a415:	2bb009        	l8ui	a11, a11, 9
			frame_length = bf->bf_rcs[i].max4msframelen;
  90a418:	8ea1      	l32i.n	a14, a10, 4
			if (rt->info[bf->bf_rcs[i].rix].phy != IEEE80211_T_HT) {
  90a41a:	69b40c        	bnei	a11, 4, 90a42a <ath_tgt_tx_form_aggr+0xce>
			max4msframelen = ATH_MIN(max4msframelen, frame_length);
  90a41d:	0edd36        	minu	a13, a13, a14
  90a420:	bcaa      	addi.n	a10, a10, 12
	u_int16_t aggr_limit, legacy=0;
  90a422:	c0a0      	movi.n	a10, 0
  90a424:	600004        	j	90a42c <ath_tgt_tx_form_aggr+0xd0>
  90a427:	000000        	ill
				legacy = 1;
  90a42a:	c0a1      	movi.n	a10, 1
	if (prate || legacy)
  90a42c:	8b14      	l32i.n	a11, a1, 16
  90a42e:	cebc      	bnez.n	a11, 90a45e <ath_tgt_tx_form_aggr+0x102>
  90a430:	ceaa      	bnez.n	a10, 90a45e <ath_tgt_tx_form_aggr+0x102>
	if (sc->sc_ic.ic_enable_coex)
  90a432:	2a2d16        	addmi	a10, a2, 0x1600
  90a435:	8ca8      	l32i.n	a12, a10, 32
  90a437:	2ea025        	l8ui	a14, a10, 37
		aggr_limit = ATH_MIN(max4msframelen, sc->sc_ic.ic_ampdu_limit);
  90a43a:	0cdb36        	minu	a11, a13, a12
  90a43d:	0b0a4f        	extui	a10, a11, 0, 16
	if (sc->sc_ic.ic_enable_coex)
  90a440:	c8ec      	beqz.n	a14, 90a450 <ath_tgt_tx_form_aggr+0xf4>
		aggr_limit = ATH_MIN((max4msframelen*3)/8, sc->sc_ic.ic_ampdu_limit);
  90a442:	0fda11        	slli	a10, a13, 1
  90a445:	adaa      	add.n	a10, a10, a13
  90a447:	0a3a14        	srli	a10, a10, 3
  90a44a:	0caa36        	minu	a10, a10, a12
  90a44d:	0a0a4f        	extui	a10, a10, 0, 16
	if (ieee_node->ni_maxampdu)
  90a450:	27710a        	l16ui	a7, a7, 20
		aggr_limit = ATH_MIN(aggr_limit, ieee_node->ni_maxampdu);
  90a453:	0a7b36        	minu	a11, a7, a10
  90a456:	07ba39        	movnez	a10, a11, a7
  90a459:	d7a0      	mov.n	a7, a10
  90a45b:	600001        	j	90a460 <ath_tgt_tx_form_aggr+0x104>
		return 0;
  90a45e:	c070      	movi.n	a7, 0
			aggr_limit = ath_lookup_rate(sc, tid->an, bf);
  90a460:	07074f        	extui	a7, a7, 0, 16
		al_delta = ATH_AGGR_DELIM_SZ + bf->bf_pktlen;
  90a463:	2c4122        	l16ui	a12, a4, 68
  90a466:	b4cc      	addi.n	a12, a12, 4
  90a468:	0c0c4f        	extui	a12, a12, 0, 16
		if (nframes && (aggr_limit < (al + bpad + al_delta + prev_al))) {
  90a46b:	648125        	beqz	a8, 90a594 <ath_tgt_tx_form_aggr+0x238>
  90a46e:	a65a      	add.n	a10, a5, a6
  90a470:	acaa      	add.n	a10, a10, a12
  90a472:	7a7a02        	bge	a7, a10, 90a478 <ath_tgt_tx_form_aggr+0x11c>
  90a475:	600012        	j	90a48b <ath_tgt_tx_form_aggr+0x12f>
		if ((nframes + prev_frames) >= ATH_MIN((h_baw), 17)) {
  90a478:	8d19      	l32i.n	a13, a1, 36
  90a47a:	c1b0      	movi.n	a11, 16
  90a47c:	c1a1      	movi.n	a10, 17
  90a47e:	7db306        	bltu	a11, a13, 90a488 <ath_tgt_tx_form_aggr+0x12c>
  90a481:	dad0      	mov.n	a10, a13
  90a483:	600001        	j	90a488 <ath_tgt_tx_form_aggr+0x12c>
  90a486:	8a19      	l32i.n	a10, a1, 36
  90a488:	7a820a        	blt	a8, a10, 90a496 <ath_tgt_tx_form_aggr+0x13a>
			bf_first->bf_al= al;
  90a48b:	259527        	s16i	a5, a9, 78
			bf_first->bf_nframes = nframes;
  90a48e:	28944c        	s8i	a8, a9, 76
			return ATH_TGT_AGGR_LIMITED;
  90a491:	c022      	movi.n	a2, 2
  90a493:	d10f      	retw.n
  90a495:	00db40        	extui	a11, a0, 13, 1
		ath_tx_addto_baw(tid, bf);
  90a498:	da30      	mov.n	a10, a3
  90a49a:	981f      	s32i.n	a8, a1, 60
  90a49c:	291610        	s32i	a9, a1, 64
  90a49f:	9c1e      	s32i.n	a12, a1, 56
  90a4a1:	5bff76        	call8	90a27c <ath_tx_addto_baw>
		asf_tailq_remove(&tid->buf_q, bf, bf_list);
  90a4a4:	8a49      	l32i.n	a10, a4, 36
  90a4a6:	8b4a      	l32i.n	a11, a4, 40
  90a4a8:	881f      	l32i.n	a8, a1, 60
  90a4aa:	291210        	l32i	a9, a1, 64
  90a4ad:	8c1e      	l32i.n	a12, a1, 56
  90a4af:	c8a3      	beqz.n	a10, 90a4b6 <ath_tgt_tx_form_aggr+0x15a>
  90a4b1:	9baa      	s32i.n	a11, a10, 40
  90a4b3:	600001        	j	90a4b8 <ath_tgt_tx_form_aggr+0x15c>
  90a4b6:	9b3c      	s32i.n	a11, a3, 48
  90a4b8:	8b4a      	l32i.n	a11, a4, 40
		asf_tailq_insert_tail(bf_q, bf, bf_list);
  90a4ba:	8f1a      	l32i.n	a15, a1, 40
		asf_tailq_remove(&tid->buf_q, bf, bf_list);
  90a4bc:	9ab0      	s32i.n	a10, a11, 0
		asf_tailq_insert_tail(bf_q, bf, bf_list);
  90a4be:	8bf1      	l32i.n	a11, a15, 4
  90a4c0:	c0a0      	movi.n	a10, 0
  90a4c2:	9b4a      	s32i.n	a11, a4, 40
  90a4c4:	9a49      	s32i.n	a10, a4, 36
  90a4c6:	94b0      	s32i.n	a4, a11, 0
  90a4c8:	2b4c24        	addi	a11, a4, 36
  90a4cb:	9bf1      	s32i.n	a11, a15, 4
		adf_os_assert(bf->bf_comp == ath_tgt_tx_comp_aggr);
  90a4cd:	8d4f      	l32i.n	a13, a4, 60
  90a4cf:	1b72b3        	l32r	a11, 8e6f9c <memset+0x1e00>
		nframes ++;
  90a4d2:	b188      	addi.n	a8, a8, 1
		adf_os_assert(bf->bf_comp == ath_tgt_tx_comp_aggr);
  90a4d4:	7bd102        	beq	a13, a11, 90a4da <ath_tgt_tx_form_aggr+0x17e>
  90a4d7:	63fffc        	j	90a4d7 <ath_tgt_tx_form_aggr+0x17b>
  90a4da:	a655      	add.n	a5, a5, a6
		bf->bf_ndelim = ATH_AGGR_GET_NDELIM(bf->bf_pktlen);
  90a4dc:	264122        	l16ui	a6, a4, 68
		al += bpad + al_delta;
  90a4df:	0c5508        	add	a5, a5, a12
		bf->bf_ndelim = ATH_AGGR_GET_NDELIM(bf->bf_pktlen);
  90a4e2:	2b0afb        	movi	a11, 251
		al += bpad + al_delta;
  90a4e5:	05054f        	extui	a5, a5, 0, 16
		bf->bf_ndelim = ATH_AGGR_GET_NDELIM(bf->bf_pktlen);
  90a4e8:	76b208        	blt	a11, a6, 90a4f4 <ath_tgt_tx_form_aggr+0x198>
  90a4eb:	2a0afc        	movi	a10, 252
  90a4ee:	06aa0c        	sub	a10, a10, a6
  90a4f1:	0a2a12        	srai	a10, a10, 2
  90a4f4:	0a0a47        	extui	a10, a10, 0, 8
		switch (bf->bf_keytype) {
  90a4f7:	264085        	l8ui	a6, a4, 133
		bf->bf_ndelim = ATH_AGGR_GET_NDELIM(bf->bf_pktlen);
  90a4fa:	2a444b        	s8i	a10, a4, 75
		switch (bf->bf_keytype) {
  90a4fd:	686213        	beqi	a6, 2, 90a514 <ath_tgt_tx_form_aggr+0x1b8>
  90a500:	6f6305        	bgeui	a6, 3, 90a509 <ath_tgt_tx_form_aggr+0x1ad>
  90a503:	686112        	beqi	a6, 1, 90a519 <ath_tgt_tx_form_aggr+0x1bd>
  90a506:	60001a        	j	90a524 <ath_tgt_tx_form_aggr+0x1c8>
  90a509:	68630c        	beqi	a6, 3, 90a519 <ath_tgt_tx_form_aggr+0x1bd>
			bf->bf_ndelim += 12;
  90a50c:	bcaa      	addi.n	a10, a10, 12
		switch (bf->bf_keytype) {
  90a50e:	68640f        	beqi	a6, 4, 90a521 <ath_tgt_tx_form_aggr+0x1c5>
  90a511:	60000f        	j	90a524 <ath_tgt_tx_form_aggr+0x1c8>
			bf->bf_ndelim += ATH_AGGR_ENCRYPTDELIM;
  90a514:	baaa      	addi.n	a10, a10, 10
  90a516:	600007        	j	90a521 <ath_tgt_tx_form_aggr+0x1c5>
			bf->bf_ndelim += 64;
  90a519:	2aac40        	addi	a10, a10, 64
  90a51c:	600001        	j	90a521 <ath_tgt_tx_form_aggr+0x1c5>
  90a51f:	00002a        	muluh	a0, a0, a0
			bf->bf_ndelim += 12;
  90a522:	444b26        	excw
		bpad = PADBYTES(al_delta) + (bf->bf_ndelim << 2);
  90a525:	404b0c        	excw
  90a528:	0c068a        	excw
		if (bf_prev) {
  90a52b:	180c0c        	l32r	a8, 8cd55c <_bss_end+0x3bfd54>
		bpad = PADBYTES(al_delta) + (bf->bf_ndelim << 2);
  90a52e:	410e66        	excw
  90a531:	11a6c6        	l32r	a1, 8f404c <memset+0xeeb0>
  90a534:	8c4c      	l32i.n	a12, a4, 48
		if (bf_prev) {
  90a536:	c9aa      	beqz.n	a10, 90a554 <ath_tgt_tx_form_aggr+0x1f8>
			bf_prev->bf_next = bf;
  90a538:	94ab      	s32i.n	a4, a10, 44
			bf_prev->bf_lastds->ds_link = ATH_BUF_GET_DESC_PHY_ADDR(bf);
  90a53a:	8aae      	l32i.n	a10, a10, 56
  90a53c:	0c8b57        	extui	a11, a12, 24, 8
  90a53f:	2ba400        	s8i	a11, a10, 0
  90a542:	2b4031        	l8ui	a11, a4, 49
  90a545:	2ba401        	s8i	a11, a10, 1
  90a548:	2b4032        	l8ui	a11, a4, 50
  90a54b:	2ba402        	s8i	a11, a10, 2
  90a54e:	2b4033        	l8ui	a11, a4, 51
  90a551:	2ba403        	s8i	a11, a10, 3
		for(ds = bf->bf_desc; ds <= bf->bf_lastds; ds++)
  90a554:	2d0a88        	movi	a13, 136
  90a557:	600020        	j	90a57b <ath_tgt_tx_form_aggr+0x21f>
			ah->ah_set11nAggrMiddle(ds, bf->bf_ndelim);
  90a55a:	8f1b      	l32i.n	a15, a1, 44
  90a55c:	2b404b        	l8ui	a11, a4, 75
  90a55f:	2ef212        	l32i	a14, a15, 72
  90a562:	dac0      	mov.n	a10, a12
  90a564:	981f      	s32i.n	a8, a1, 60
  90a566:	291610        	s32i	a9, a1, 64
  90a569:	9c1e      	s32i.n	a12, a1, 56
  90a56b:	9d1d      	s32i.n	a13, a1, 52
  90a56d:	0be000        	callx8	a14
		for(ds = bf->bf_desc; ds <= bf->bf_lastds; ds++)
  90a570:	8c1e      	l32i.n	a12, a1, 56
  90a572:	8d1d      	l32i.n	a13, a1, 52
  90a574:	291210        	l32i	a9, a1, 64
  90a577:	881f      	l32i.n	a8, a1, 60
  90a579:	adcc      	add.n	a12, a12, a13
  90a57b:	8a4e      	l32i.n	a10, a4, 56
  90a57d:	7cabd9        	bgeu	a10, a12, 90a55a <ath_tgt_tx_form_aggr+0x1fe>
  90a580:	9418      	s32i.n	a4, a1, 32
	} while (!asf_tailq_empty(&tid->buf_q));
  90a582:	843b      	l32i.n	a4, a3, 44
  90a584:	c0d1      	movi.n	a13, 1
  90a586:	654df6        	bnez	a4, 90a380 <ath_tgt_tx_form_aggr+0x24>
	bf_first->bf_al= al;
  90a589:	259527        	s16i	a5, a9, 78
	bf_first->bf_nframes = nframes;
  90a58c:	28944c        	s8i	a8, a9, 76
	return ATH_TGT_AGGR_DONE;
  90a58f:	d240      	mov.n	a2, a4
  90a591:	d10f      	retw.n
  90a593:	008b19        	excw
		if ((nframes + prev_frames) >= ATH_MIN((h_baw), 17)) {
  90a596:	c1a0      	movi.n	a10, 16
  90a598:	7ba302        	bltu	a10, a11, 90a59e <ath_tgt_tx_form_aggr+0x242>
  90a59b:	63fee7        	j	90a486 <ath_tgt_tx_form_aggr+0x12a>
  90a59e:	63fef4        	j	90a496 <ath_tgt_tx_form_aggr+0x13a>
  90a5a1:	000000        	ill

0090a5a4 <ath_tgt_txq_schedule>:
{
  90a5a4:	6c1008        	entry	a1, 64
		TAILQ_DEQ(&txq->axq_tidq, tid, tid_qelem);
  90a5a7:	8436      	l32i.n	a4, a3, 24
  90a5a9:	6441f3        	beqz	a4, 90a7a0 <ath_tgt_txq_schedule+0x1fc>
  90a5ac:	8549      	l32i.n	a5, a4, 36
  90a5ae:	864a      	l32i.n	a6, a4, 40
  90a5b0:	c854      	beqz.n	a5, 90a5b8 <ath_tgt_txq_schedule+0x14>
  90a5b2:	965a      	s32i.n	a6, a5, 40
  90a5b4:	600002        	j	90a5ba <ath_tgt_txq_schedule+0x16>
  90a5b7:	009637        	maxu	a6, a9, a0
  90a5ba:	864a      	l32i.n	a6, a4, 40
  90a5bc:	9560      	s32i.n	a5, a6, 0
		if (tid->paused)
  90a5be:	264034        	l8ui	a6, a4, 52
		tid->sched = AH_FALSE;
  90a5c1:	c050      	movi.n	a5, 0
  90a5c3:	254435        	s8i	a5, a4, 53
		if (tid->paused)
  90a5c6:	006732        	sext	a7, a6, 7
  90a5c9:	c050      	movi.n	a5, 0
  90a5cb:	757102        	beq	a7, a5, 90a5d1 <ath_tgt_txq_schedule+0x2d>
  90a5ce:	6001c2        	j	90a794 <ath_tgt_txq_schedule+0x1f0>
		if (!(tid->flag & TID_AGGR_ENABLED))
  90a5d1:	264036        	l8ui	a6, a4, 54
  90a5d4:	c052      	movi.n	a5, 2
  90a5d6:	056601        	and	a6, a6, a5
  90a5d9:	c081      	movi.n	a8, 1
  90a5db:	8540      	l32i.n	a5, a4, 0
  90a5dd:	656050        	bnez	a6, 90a631 <ath_tgt_txq_schedule+0x8d>
	struct ath_txq *txq =TID_TO_ACTXQ(tid->tidno);;
  90a5e0:	d960      	mov.n	a9, a6
  90a5e2:	058939        	movnez	a9, a8, a5
  90a5e5:	c999      	beqz.n	a9, 90a602 <ath_tgt_txq_schedule+0x5e>
  90a5e7:	275cfd        	addi	a7, a5, -3
  90a5ea:	078639        	movnez	a6, a8, a7
  90a5ed:	c961      	beqz.n	a6, 90a602 <ath_tgt_txq_schedule+0x5e>
  90a5ef:	b056      	addi.n	a6, a5, -1
  90a5f1:	6e620f        	bltui	a6, 2, 90a604 <ath_tgt_txq_schedule+0x60>
  90a5f4:	255cfc        	addi	a5, a5, -4
  90a5f7:	c082      	movi.n	a8, 2
  90a5f9:	785307        	bltu	a5, a8, 90a604 <ath_tgt_txq_schedule+0x60>
  90a5fc:	c083      	movi.n	a8, 3
  90a5fe:	600002        	j	90a604 <ath_tgt_txq_schedule+0x60>
  90a601:	00c080        	excw
  90a604:	0e8811        	slli	a8, a8, 2
  90a607:	288d05        	addmi	a8, a8, 0x500
  90a60a:	a828      	add.n	a8, a2, a8
  90a60c:	8783      	l32i.n	a7, a8, 12
		if (asf_tailq_empty(&tid->buf_q))
  90a60e:	8b4b      	l32i.n	a11, a4, 44
  90a610:	64b172        	beqz	a11, 90a786 <ath_tgt_txq_schedule+0x1e2>
		asf_tailq_remove(&tid->buf_q, bf, bf_list);
  90a613:	85b9      	l32i.n	a5, a11, 36
  90a615:	86ba      	l32i.n	a6, a11, 40
  90a617:	c853      	beqz.n	a5, 90a61e <ath_tgt_txq_schedule+0x7a>
  90a619:	965a      	s32i.n	a6, a5, 40
  90a61b:	600001        	j	90a620 <ath_tgt_txq_schedule+0x7c>
  90a61e:	964c      	s32i.n	a6, a4, 48
  90a620:	86ba      	l32i.n	a6, a11, 40
		ath_tgt_tx_send_normal(sc, bf);
  90a622:	da20      	mov.n	a10, a2
		asf_tailq_remove(&tid->buf_q, bf, bf_list);
  90a624:	9560      	s32i.n	a5, a6, 0
		ath_tgt_tx_send_normal(sc, bf);
  90a626:	5bfdf2        	call8	909df0 <ath_tgt_tx_send_normal>
	} while (txq->axq_depth < ATH_AGGR_MIN_QDEPTH);
  90a629:	8574      	l32i.n	a5, a7, 16
  90a62b:	645fdf        	beqz	a5, 90a60e <ath_tgt_txq_schedule+0x6a>
  90a62e:	600154        	j	90a786 <ath_tgt_txq_schedule+0x1e2>
	struct ath_txq *txq = TID_TO_ACTXQ(tid->tidno);
  90a631:	d670      	mov.n	a6, a7
  90a633:	058639        	movnez	a6, a8, a5
  90a636:	060647        	extui	a6, a6, 0, 8
  90a639:	c96d      	beqz.n	a6, 90a65a <ath_tgt_txq_schedule+0xb6>
  90a63b:	265cfd        	addi	a6, a5, -3
  90a63e:	d970      	mov.n	a9, a7
  90a640:	068939        	movnez	a9, a8, a6
  90a643:	090647        	extui	a6, a9, 0, 8
  90a646:	c960      	beqz.n	a6, 90a65a <ath_tgt_txq_schedule+0xb6>
  90a648:	b056      	addi.n	a6, a5, -1
  90a64a:	6e620e        	bltui	a6, 2, 90a65c <ath_tgt_txq_schedule+0xb8>
  90a64d:	255cfc        	addi	a5, a5, -4
  90a650:	c082      	movi.n	a8, 2
  90a652:	785306        	bltu	a5, a8, 90a65c <ath_tgt_txq_schedule+0xb8>
  90a655:	c083      	movi.n	a8, 3
  90a657:	600001        	j	90a65c <ath_tgt_txq_schedule+0xb8>
  90a65a:	c080      	movi.n	a8, 0
  90a65c:	0e8811        	slli	a8, a8, 2
  90a65f:	288d05        	addmi	a8, a8, 0x500
  90a662:	a828      	add.n	a8, a2, a8
  90a664:	8883      	l32i.n	a8, a8, 12
	if (asf_tailq_empty(&tid->buf_q))
  90a666:	864b      	l32i.n	a6, a4, 44
	struct ath_hal *ah = sc->sc_ah;
  90a668:	252d05        	addmi	a5, a2, 0x500
	struct ath_txq *txq = TID_TO_ACTXQ(tid->tidno);
  90a66b:	9815      	s32i.n	a8, a1, 20
	struct ath_hal *ah = sc->sc_ah;
  90a66d:	855b      	l32i.n	a5, a5, 44
	if (asf_tailq_empty(&tid->buf_q))
  90a66f:	646113        	beqz	a6, 90a786 <ath_tgt_txq_schedule+0x1e2>
		asf_tailq_init(&bf_q);
  90a672:	c060      	movi.n	a6, 0
		if (asf_tailq_empty(&tid->buf_q))
  90a674:	874b      	l32i.n	a7, a4, 44
  90a676:	64710c        	beqz	a7, 90a786 <ath_tgt_txq_schedule+0x1e2>
		status = ath_tgt_tx_form_aggr(sc, tid, &bf_q);
  90a679:	dc10      	mov.n	a12, a1
  90a67b:	db40      	mov.n	a11, a4
  90a67d:	da20      	mov.n	a10, a2
		asf_tailq_init(&bf_q);
  90a67f:	9610      	s32i.n	a6, a1, 0
  90a681:	9111      	s32i.n	a1, a1, 4
		status = ath_tgt_tx_form_aggr(sc, tid, &bf_q);
  90a683:	5bff36        	call8	90a35c <ath_tgt_tx_form_aggr>
		if (asf_tailq_empty(&bf_q))
  90a686:	8710      	l32i.n	a7, a1, 0
		status = ath_tgt_tx_form_aggr(sc, tid, &bf_q);
  90a688:	9a14      	s32i.n	a10, a1, 16
		if (asf_tailq_empty(&bf_q))
  90a68a:	6470f8        	beqz	a7, 90a786 <ath_tgt_txq_schedule+0x1e2>
		if (bf->bf_nframes == 1) {
  90a68d:	2a704c        	l8ui	a10, a7, 76
  90a690:	69a168        	bnei	a10, 1, 90a6fc <ath_tgt_txq_schedule+0x158>
			if(bf->bf_retries == 0)
  90a693:	2a7086        	l8ui	a10, a7, 134
  90a696:	cca6      	bnez.n	a10, 90a6a0 <ath_tgt_txq_schedule+0xfc>
				__stats(sc, txaggr_single);
  90a698:	2a2261        	l32i	a10, a2, 0x184
  90a69b:	b1aa      	addi.n	a10, a10, 1
  90a69d:	2a2661        	s32i	a10, a2, 0x184
			bf->bf_isaggr = 0;
  90a6a0:	2a7087        	l8ui	a10, a7, 135
  90a6a3:	2bfadf        	movi	a11, -33
  90a6a6:	0baa01        	and	a10, a10, a11
			bf->bf_lastds = &(bf->bf_descarr[bf->bf_dmamap_info.nsegs -1]);
  90a6a9:	8b71      	l32i.n	a11, a7, 4
			bf->bf_isaggr = 0;
  90a6ab:	2a7487        	s8i	a10, a7, 135
			bf->bf_lastds = &(bf->bf_descarr[bf->bf_dmamap_info.nsegs -1]);
  90a6ae:	0cba11        	slli	a10, a11, 4
  90a6b1:	abaa      	add.n	a10, a10, a11
  90a6b3:	0daa11        	slli	a10, a10, 3
  90a6b6:	2bfa78        	movi	a11, -136
  90a6b9:	abab      	add.n	a11, a10, a11
  90a6bb:	8a7d      	l32i.n	a10, a7, 52
			for(ds = bf->bf_desc; ds <= bf->bf_lastds; ds++)
  90a6bd:	2c0a88        	movi	a12, 136
			bf->bf_lastds = &(bf->bf_descarr[bf->bf_dmamap_info.nsegs -1]);
  90a6c0:	abaa      	add.n	a10, a10, a11
  90a6c2:	9a7e      	s32i.n	a10, a7, 56
			bf->bf_lastds->ds_link = 0;
  90a6c4:	26a400        	s8i	a6, a10, 0
  90a6c7:	26a401        	s8i	a6, a10, 1
  90a6ca:	26a402        	s8i	a6, a10, 2
  90a6cd:	26a403        	s8i	a6, a10, 3
			bf->bf_next = NULL;
  90a6d0:	967b      	s32i.n	a6, a7, 44
			for(ds = bf->bf_desc; ds <= bf->bf_lastds; ds++)
  90a6d2:	8b7c      	l32i.n	a11, a7, 48
  90a6d4:	600014        	j	90a6ec <ath_tgt_txq_schedule+0x148>
  90a6d7:	002e52        	extui	a14, a0, 18, 3
				ah->ah_clr11nAggr(ds);
  90a6da:	14dab0        	l32r	a4, 90119c <memset+0x1c000>
  90a6dd:	2b1607        	s32i	a11, a1, 28
  90a6e0:	2c1606        	s32i	a12, a1, 24
  90a6e3:	0be000        	callx8	a14
			for(ds = bf->bf_desc; ds <= bf->bf_lastds; ds++)
  90a6e6:	8b17      	l32i.n	a11, a1, 28
  90a6e8:	8c16      	l32i.n	a12, a1, 24
  90a6ea:	acbb      	add.n	a11, a11, a12
  90a6ec:	8a7e      	l32i.n	a10, a7, 56
  90a6ee:	7babe6        	bgeu	a10, a11, 90a6d8 <ath_tgt_txq_schedule+0x134>
			ath_buf_set_rate(sc, bf);
  90a6f1:	db70      	mov.n	a11, a7
  90a6f3:	da20      	mov.n	a10, a2
  90a6f5:	5bfae3        	call8	909284 <ath_buf_set_rate>
  90a6f8:	600071        	j	90a76d <ath_tgt_txq_schedule+0x1c9>
  90a6fb:	008a11        	slli	a10, a8, 16
		bf->bf_isaggr  = 1;
  90a6fe:	c2b0      	movi.n	a11, 32
		bf_last = asf_tailq_last(&bf_q, ath_tx_bufhead_s);
  90a700:	8aa1      	l32i.n	a10, a10, 4
  90a702:	8ea0      	l32i.n	a14, a10, 0
		bf_last->bf_lastds->ds_link = 0;
  90a704:	8aee      	l32i.n	a10, a14, 56
		bf_last->bf_next = NULL;
  90a706:	96eb      	s32i.n	a6, a14, 44
		bf_last->bf_lastds->ds_link = 0;
  90a708:	26a400        	s8i	a6, a10, 0
  90a70b:	26a401        	s8i	a6, a10, 1
  90a70e:	26a402        	s8i	a6, a10, 2
  90a711:	26a403        	s8i	a6, a10, 3
		bf_last->bf_ndelim = 0;
  90a714:	26e44b        	s8i	a6, a14, 75
		bf->bf_isaggr  = 1;
  90a717:	2a7087        	l8ui	a10, a7, 135
  90a71a:	0baa02        	or	a10, a10, a11
  90a71d:	2a7487        	s8i	a10, a7, 135
		ath_buf_set_rate(sc, bf);
  90a720:	db70      	mov.n	a11, a7
  90a722:	da20      	mov.n	a10, a2
  90a724:	9e16      	s32i.n	a14, a1, 24
  90a726:	5bfad7        	call8	909284 <ath_buf_set_rate>
		ah->ah_set11nAggrFirst(bf->bf_desc, bf->bf_al,
  90a729:	2b7127        	l16ui	a11, a7, 78
  90a72c:	2a720c        	l32i	a10, a7, 48
  90a72f:	2f5211        	l32i	a15, a5, 68
  90a732:	2c704b        	l8ui	a12, a7, 75
  90a735:	0bf000        	callx8	a15
		bf->bf_lastds = bf_last->bf_lastds;
  90a738:	8e16      	l32i.n	a14, a1, 24
		for (i = 0; i < bf_last->bf_dmamap_info.nsegs; i++)
  90a73a:	c0b0      	movi.n	a11, 0
		bf->bf_lastds = bf_last->bf_lastds;
  90a73c:	8aee      	l32i.n	a10, a14, 56
  90a73e:	9a7e      	s32i.n	a10, a7, 56
  90a740:	60001c        	j	90a760 <ath_tgt_txq_schedule+0x1bc>
  90a743:	000cba        	excw
			ah->ah_set11nAggrLast(&bf_last->bf_descarr[i]);
  90a746:	118fed        	l32r	a1, 8ee6fc <memset+0x9560>
  90a749:	abaa      	add.n	a10, a10, a11
  90a74b:	2c5213        	l32i	a12, a5, 76
  90a74e:	0daa11        	slli	a10, a10, 3
  90a751:	9b17      	s32i.n	a11, a1, 28
  90a753:	9e16      	s32i.n	a14, a1, 24
  90a755:	aafa      	add.n	a10, a15, a10
  90a757:	0bc000        	callx8	a12
		for (i = 0; i < bf_last->bf_dmamap_info.nsegs; i++)
  90a75a:	8b17      	l32i.n	a11, a1, 28
  90a75c:	8e16      	l32i.n	a14, a1, 24
  90a75e:	b1bb      	addi.n	a11, a11, 1
  90a760:	8ae1      	l32i.n	a10, a14, 4
  90a762:	7ab3de        	bltu	a11, a10, 90a744 <ath_tgt_txq_schedule+0x1a0>
		if (status == ATH_AGGR_8K_LIMITED) {
  90a765:	8814      	l32i.n	a8, a1, 16
  90a767:	698402        	bnei	a8, 4, 90a76d <ath_tgt_txq_schedule+0x1c9>
  90a76a:	63fffc        	j	90a76a <ath_tgt_txq_schedule+0x1c6>
		bf->bf_txq_add(sc, bf);
  90a76d:	2c7210        	l32i	a12, a7, 64
  90a770:	077b02        	or	a11, a7, a7
  90a773:	da20      	mov.n	a10, a2
  90a775:	0bc000        	callx8	a12
		 status != ATH_TGT_AGGR_BAW_CLOSED);
  90a778:	8915      	l32i.n	a9, a1, 20
  90a77a:	8894      	l32i.n	a8, a9, 16
	} while (txq->axq_depth < ATH_AGGR_MIN_QDEPTH &&
  90a77c:	cc86      	bnez.n	a8, 90a786 <ath_tgt_txq_schedule+0x1e2>
  90a77e:	8814      	l32i.n	a8, a1, 16
  90a780:	688102        	beqi	a8, 1, 90a786 <ath_tgt_txq_schedule+0x1e2>
  90a783:	63feed        	j	90a674 <ath_tgt_txq_schedule+0xd0>
		if (!asf_tailq_empty(&tid->buf_q)) {
  90a786:	864b      	l32i.n	a6, a4, 44
		bdone = AH_TRUE;
  90a788:	c051      	movi.n	a5, 1
		if (!asf_tailq_empty(&tid->buf_q)) {
  90a78a:	c866      	beqz.n	a6, 90a794 <ath_tgt_txq_schedule+0x1f0>
			ath_tgt_tx_enqueue(txq, tid);
  90a78c:	db40      	mov.n	a11, a4
  90a78e:	2a3c1c        	addi	a10, a3, 28
  90a791:	5bfa45        	call8	9090a8 <ath_tgt_tx_enqueue$isra$3>
	} while (!asf_tailq_empty(&txq->axq_tidq) && !bdone);
  90a794:	8736      	l32i.n	a7, a3, 24
  90a796:	c061      	movi.n	a6, 1
  90a798:	c874      	beqz.n	a7, 90a7a0 <ath_tgt_txq_schedule+0x1fc>
  90a79a:	765102        	beq	a5, a6, 90a7a0 <ath_tgt_txq_schedule+0x1fc>
  90a79d:	63fe06        	j	90a5a7 <ath_tgt_txq_schedule+0x3>
  90a7a0:	d10f      	retw.n
	...

0090a7a4 <owltgt_tx_processq>:
{
  90a7a4:	6c1006        	entry	a1, 48
	struct ath_hal *ah = sc->sc_ah;
  90a7a7:	252d05        	addmi	a5, a2, 0x500
  90a7aa:	865b      	l32i.n	a6, a5, 44
		if (status == HAL_EINPROGRESS) {
  90a7ac:	c07f      	movi.n	a7, 15
		if (asf_tailq_empty(&txq->axq_q)) {
  90a7ae:	8532      	l32i.n	a5, a3, 8
  90a7b0:	cc54      	bnez.n	a5, 90a7b8 <owltgt_tx_processq+0x14>
			txq->axq_link = NULL;
  90a7b2:	9531      	s32i.n	a5, a3, 4
			txq->axq_linkbuf = NULL;
  90a7b4:	9535      	s32i.n	a5, a3, 20
			break;
  90a7b6:	d10f      	retw.n
		ds = bf->bf_lastds;
  90a7b8:	885e      	l32i.n	a8, a5, 56
		status = ah->ah_procTxDesc(ah, ds);
  90a7ba:	29621a        	l32i	a9, a6, 104
  90a7bd:	db80      	mov.n	a11, a8
  90a7bf:	9810      	s32i.n	a8, a1, 0
  90a7c1:	da60      	mov.n	a10, a6
  90a7c3:	0b9000        	callx8	a9
		if (status == HAL_EINPROGRESS) {
  90a7c6:	8810      	l32i.n	a8, a1, 0
  90a7c8:	77a91e        	bne	a10, a7, 90a7ea <owltgt_tx_processq+0x46>
			if (txqstate == OWL_TXQ_ACTIVE)
  90a7cb:	644069        	beqz	a4, 90a838 <owltgt_tx_processq+0x94>
			else if (txqstate == OWL_TXQ_STOPPED) {
  90a7ce:	694112        	bnei	a4, 1, 90a7e4 <owltgt_tx_processq+0x40>
				__stats(sc, tx_stopfiltered);
  90a7d1:	292275        	l32i	a9, a2, 0x1d4
  90a7d4:	b199      	addi.n	a9, a9, 1
  90a7d6:	292675        	s32i	a9, a2, 0x1d4
				ds->ds_txstat.ts_flags  = 0;
  90a7d9:	c090      	movi.n	a9, 0
  90a7db:	298467        	s8i	a9, a8, 103
				ds->ds_txstat.ts_status = HAL_OK;
  90a7de:	298466        	s8i	a9, a8, 102
  90a7e1:	600005        	j	90a7ea <owltgt_tx_processq+0x46>
				ds->ds_txstat.ts_flags  = HAL_TX_SW_FILTERED;
  90a7e4:	29fa80        	movi	a9, -128
  90a7e7:	298467        	s8i	a9, a8, 103
		ATH_TXQ_REMOVE_HEAD(txq, bf, bf_list);
  90a7ea:	8859      	l32i.n	a8, a5, 36
  90a7ec:	895a      	l32i.n	a9, a5, 40
  90a7ee:	c883      	beqz.n	a8, 90a7f5 <owltgt_tx_processq+0x51>
  90a7f0:	998a      	s32i.n	a9, a8, 40
  90a7f2:	600001        	j	90a7f7 <owltgt_tx_processq+0x53>
  90a7f5:	9933      	s32i.n	a9, a3, 12
  90a7f7:	895a      	l32i.n	a9, a5, 40
  90a7f9:	9890      	s32i.n	a8, a9, 0
  90a7fb:	8834      	l32i.n	a8, a3, 16
  90a7fd:	b088      	addi.n	a8, a8, -1
  90a7ff:	9834      	s32i.n	a8, a3, 16
		if ((asf_tailq_empty(&txq->axq_q))) {
  90a801:	8832      	l32i.n	a8, a3, 8
  90a803:	cc8a      	bnez.n	a8, 90a811 <owltgt_tx_processq+0x6d>
			__stats(sc, tx_qnull);
  90a805:	29225c        	l32i	a9, a2, 0x170
  90a808:	b199      	addi.n	a9, a9, 1
  90a80a:	29265c        	s32i	a9, a2, 0x170
			txq->axq_link = NULL;
  90a80d:	9831      	s32i.n	a8, a3, 4
			txq->axq_linkbuf = NULL;
  90a80f:	9835      	s32i.n	a8, a3, 20
		if (bf->bf_comp) {
  90a811:	885f      	l32i.n	a8, a5, 60
			bf->bf_comp(sc, bf);
  90a813:	db50      	mov.n	a11, a5
  90a815:	da20      	mov.n	a10, a2
		if (bf->bf_comp) {
  90a817:	c884      	beqz.n	a8, 90a81f <owltgt_tx_processq+0x7b>
			bf->bf_comp(sc, bf);
  90a819:	0b8000        	callx8	a8
  90a81c:	600009        	j	90a829 <owltgt_tx_processq+0x85>
			ath_tx_status_update(sc, bf);
  90a81f:	5bfbee        	call8	9097d8 <ath_tx_status_update>
			ath_buf_comp(sc, bf);
  90a822:	db50      	mov.n	a11, a5
  90a824:	da20      	mov.n	a10, a2
  90a826:	5bfb4d        	call8	90955c <ath_buf_comp>
		if (txqstate == OWL_TXQ_ACTIVE) {
  90a829:	654f81        	bnez	a4, 90a7ae <owltgt_tx_processq+0xa>
			ath_tgt_txq_schedule(sc, txq);
  90a82c:	db30      	mov.n	a11, a3
  90a82e:	022a02        	or	a10, a2, a2
  90a831:	5bff5c        	call8	90a5a4 <ath_tgt_txq_schedule>
  90a834:	63ff76        	j	90a7ae <owltgt_tx_processq+0xa>
  90a837:	00d10f        	subx8	a1, a13, a0
	...

0090a83c <owl_tgt_tx_tasklet>:
{
  90a83c:	6c1004        	entry	a1, 32
	ath_tx_status_clear(sc);
  90a83f:	022a02        	or	a10, a2, a2
  90a842:	233acc        	movi	a3, 0x3cc
  90a845:	5bfbe0        	call8	9097c8 <ath_tx_status_clear>
  90a848:	032308        	add	a3, a2, a3
	for (i = 0; i < (HAL_NUM_TX_QUEUES - 6); i++) {
  90a84b:	240a00        	movi	a4, 0
		if (ATH_TXQ_SETUP(sc, i)) {
  90a84e:	262d03        	addmi	a6, a2, 0x300
  90a851:	2560c8        	l8ui	a5, a6, 200
  90a854:	004004        	ssr	a4
  90a857:	05051b        	sra	a5, a5
  90a85a:	7f573b        	bbci	a5, 31, 90a899 <owl_tgt_tx_tasklet+0x5d>
			if (txq == sc->sc_cabq)
  90a85d:	252d05        	addmi	a5, a2, 0x500
  90a860:	885c      	l32i.n	a8, a5, 48
  90a862:	78392a        	bne	a3, a8, 90a890 <owl_tgt_tx_tasklet+0x54>
	struct ath_hal *ah = sc->sc_ah;
  90a865:	855b      	l32i.n	a5, a5, 44
	ah->ah_setInterrupts(ah, sc->sc_imask & ~HAL_INT_SWBA);
  90a867:	197291        	l32r	a9, 8e72ac <memset+0x2110>
  90a86a:	2b22c4        	l32i	a11, a2, 0x310
  90a86d:	285228        	l32i	a8, a5, 160
  90a870:	09bb01        	and	a11, a11, a9
  90a873:	da50      	mov.n	a10, a5
  90a875:	0b8000        	callx8	a8
	owltgt_tx_processq(sc, txq, OWL_TXQ_ACTIVE);
  90a878:	db30      	mov.n	a11, a3
  90a87a:	da20      	mov.n	a10, a2
  90a87c:	c0c0      	movi.n	a12, 0
  90a87e:	5bffc9        	call8	90a7a4 <owltgt_tx_processq>
	ah->ah_setInterrupts(ah, sc->sc_imask);
  90a881:	285228        	l32i	a8, a5, 160
  90a884:	2b22c4        	l32i	a11, a2, 0x310
  90a887:	da50      	mov.n	a10, a5
  90a889:	0b8000        	callx8	a8
  90a88c:	600009        	j	90a899 <owl_tgt_tx_tasklet+0x5d>
  90a88f:	00c0c0        	excw
				owltgt_tx_processq(sc, txq, OWL_TXQ_ACTIVE);
  90a892:	db30      	mov.n	a11, a3
  90a894:	da20      	mov.n	a10, a2
  90a896:	5bffc3        	call8	90a7a4 <owltgt_tx_processq>
	for (i = 0; i < (HAL_NUM_TX_QUEUES - 6); i++) {
  90a899:	b144      	addi.n	a4, a4, 1
  90a89b:	233c20        	addi	a3, a3, 32
  90a89e:	6944af        	bnei	a4, 4, 90a851 <owl_tgt_tx_tasklet+0x15>
	ath_tx_status_send(sc);
  90a8a1:	da20      	mov.n	a10, a2
  90a8a3:	5bfc26        	call8	90993c <ath_tx_status_send>
  90a8a6:	d10f      	retw.n

0090a8a8 <ath_aggr_resume_tid>:
{
  90a8a8:	6c1004        	entry	a1, 32
	txq = TID_TO_ACTXQ(tid->tidno);
  90a8ab:	8930      	l32i.n	a9, a3, 0
{
  90a8ad:	db30      	mov.n	a11, a3
	txq = TID_TO_ACTXQ(tid->tidno);
  90a8af:	c997      	beqz.n	a9, 90a8ca <ath_aggr_resume_tid+0x22>
  90a8b1:	689315        	beqi	a9, 3, 90a8ca <ath_aggr_resume_tid+0x22>
  90a8b4:	b09a      	addi.n	a10, a9, -1
  90a8b6:	c081      	movi.n	a8, 1
  90a8b8:	6ea210        	bltui	a10, 2, 90a8cc <ath_aggr_resume_tid+0x24>
  90a8bb:	299cfc        	addi	a9, a9, -4
  90a8be:	c082      	movi.n	a8, 2
  90a8c0:	789308        	bltu	a9, a8, 90a8cc <ath_aggr_resume_tid+0x24>
  90a8c3:	c083      	movi.n	a8, 3
  90a8c5:	600003        	j	90a8cc <ath_aggr_resume_tid+0x24>
  90a8c8:	0000c0        	excw
  90a8cb:	800e      	l32i.n	a0, a0, 56
  90a8cd:	8811      	l32i.n	a8, a1, 4
  90a8cf:	288d05        	addmi	a8, a8, 0x500
  90a8d2:	a828      	add.n	a8, a2, a8
  90a8d4:	8383      	l32i.n	a3, a8, 12
	tid->paused = 0;
  90a8d6:	c080      	movi.n	a8, 0
  90a8d8:	28b434        	s8i	a8, a11, 52
	if (asf_tailq_empty(&tid->buf_q))
  90a8db:	88bb      	l32i.n	a8, a11, 44
  90a8dd:	c88b      	beqz.n	a8, 90a8ec <ath_aggr_resume_tid+0x44>
	ath_tgt_tx_enqueue(txq, tid);
  90a8df:	2a3c1c        	addi	a10, a3, 28
  90a8e2:	5bf9f1        	call8	9090a8 <ath_tgt_tx_enqueue$isra$3>
	ath_tgt_txq_schedule(sc, txq);
  90a8e5:	db30      	mov.n	a11, a3
  90a8e7:	da20      	mov.n	a10, a2
  90a8e9:	5bff2e        	call8	90a5a4 <ath_tgt_txq_schedule>
  90a8ec:	d10f      	retw.n
	...

0090a8f0 <owl_tgt_tid_cleanup>:
{
  90a8f0:	6c1004        	entry	a1, 32
	tid->incomp--;
  90a8f3:	283037        	l8ui	a8, a3, 55
{
  90a8f6:	da20      	mov.n	a10, a2
	tid->incomp--;
  90a8f8:	b088      	addi.n	a8, a8, -1
  90a8fa:	080847        	extui	a8, a8, 0, 8
  90a8fd:	283437        	s8i	a8, a3, 55
	if (tid->incomp) {
  90a900:	cf85      	bnez.n	a8, 90a939 <owl_tgt_tid_cleanup+0x49>
	tid->flag &= ~TID_CLEANUP_INPROGRES;
  90a902:	293036        	l8ui	a9, a3, 54
  90a905:	28fafe        	movi	a8, -2
  90a908:	089801        	and	a8, a9, a8
  90a90b:	283436        	s8i	a8, a3, 54
	if (tid->flag & TID_REINITIALIZE) {
  90a90e:	7d9722        	bbci	a9, 29, 90a934 <owl_tgt_tid_cleanup+0x44>
		adf_os_print("TID REINIT DONE for tid %p\n", tid);
  90a911:	18716e        	l32r	a8, 8e6ecc <memset+0x1d30>
  90a914:	1a72b4        	l32r	a10, 8e73e4 <memset+0x2248>
  90a917:	288212        	l32i	a8, a8, 72
  90a91a:	033b02        	or	a11, a3, a3
  90a91d:	0b8000        	callx8	a8
		tid->flag  &= ~TID_REINITIALIZE;
  90a920:	283036        	l8ui	a8, a3, 54
  90a923:	c79b      	movi.n	a9, -5
  90a925:	098801        	and	a8, a8, a9
  90a928:	283436        	s8i	a8, a3, 54
		owl_tgt_tid_init(tid);
  90a92b:	da30      	mov.n	a10, a3
  90a92d:	5bf97d        	call8	908f24 <owl_tgt_tid_init>
  90a930:	d10f      	retw.n
  90a932:	0000db        	excw
		ath_aggr_resume_tid(sc, tid);
  90a935:	305bff        	excw
  90a938:	dcd1      	excw
  90a93a:	0f          	.byte 0xf
	...

0090a93c <ath_tgt_tx_comp_normal>:
{
  90a93c:	6c1004        	entry	a1, 32
	ath_atx_tid_t *tid = ATH_AN_2_TID(an, bf->bf_tidno);
  90a93f:	2a304d        	l8ui	a10, a3, 77
	struct ath_node_target *an = ATH_NODE_TARGET(bf->bf_node);
  90a942:	8b34      	l32i.n	a11, a3, 16
	if (tid->flag & TID_CLEANUP_INPROGRES) {
  90a944:	0ca911        	slli	a9, a10, 4
  90a947:	0a990c        	sub	a9, a9, a10
  90a94a:	0e9911        	slli	a9, a9, 2
  90a94d:	a9b9      	add.n	a9, a11, a9
  90a94f:	28905a        	l8ui	a8, a9, 90
  90a952:	7f8714        	bbci	a8, 31, 90a96a <ath_tgt_tx_comp_normal+0x2e>
	ath_atx_tid_t *tid = ATH_AN_2_TID(an, bf->bf_tidno);
  90a955:	0ca811        	slli	a8, a10, 4
  90a958:	0a880c        	sub	a8, a8, a10
  90a95b:	0e8811        	slli	a8, a8, 2
  90a95e:	288c24        	addi	a8, a8, 36
		owl_tgt_tid_cleanup(sc, tid);
  90a961:	08bb08        	add	a11, a11, a8
  90a964:	022a02        	or	a10, a2, a2
  90a967:	5bffe2        	call8	90a8f0 <owl_tgt_tid_cleanup>
	if (bf->bf_node) {
  90a96a:	8834      	l32i.n	a8, a3, 16
  90a96c:	c98d      	beqz.n	a8, 90a98d <ath_tgt_tx_comp_normal+0x51>
	ath_tx_status_update(sc, bf);
  90a96e:	db30      	mov.n	a11, a3
  90a970:	da20      	mov.n	a10, a2
  90a972:	5bfb99        	call8	9097d8 <ath_tx_status_update>
	ath_update_stats(sc, bf);
  90a975:	8b3c      	l32i.n	a11, a3, 48
  90a977:	da20      	mov.n	a10, a2
  90a979:	5bf9b3        	call8	909048 <ath_update_stats$isra$1>
	ath_rate_tx_complete(sc, ATH_NODE_TARGET(bf->bf_node),
  90a97c:	8c3e      	l32i.n	a12, a3, 56
  90a97e:	8b34      	l32i.n	a11, a3, 16
  90a980:	c0f0      	movi.n	a15, 0
  90a982:	c0e1      	movi.n	a14, 1
  90a984:	2d3c50        	addi	a13, a3, 80
  90a987:	022a02        	or	a10, a2, a2
  90a98a:	5bf92d        	call8	908e40 <ath_rate_tx_complete>
	ath_tx_freebuf(sc, bf);
  90a98d:	db30      	mov.n	a11, a3
  90a98f:	da20      	mov.n	a10, a2
  90a991:	5bfb01        	call8	909598 <ath_tx_freebuf>
  90a994:	d10f      	retw.n
	...

0090a998 <ath_tgt_tx_comp_aggr>:
{
  90a998:	6c1024        	entry	a1, 0x120
	ath_atx_tid_t *tid = ATH_AN_2_TID(an, bf->bf_tidno);
  90a99b:	27304d        	l8ui	a7, a3, 77
	struct ath_node_target *an = ATH_NODE_TARGET(bf->bf_node);
  90a99e:	8434      	l32i.n	a4, a3, 16
  90a9a0:	0c7511        	slli	a5, a7, 4
  90a9a3:	07550c        	sub	a5, a5, a7
  90a9a6:	0e5511        	slli	a5, a5, 2
	ath_atx_tid_t *tid = ATH_AN_2_TID(an, bf->bf_tidno);
  90a9a9:	265c24        	addi	a6, a5, 36
  90a9ac:	251635        	s32i	a5, a1, 212
	int nframes = bf->bf_nframes;
  90a9af:	25304c        	l8ui	a5, a3, 76
	ath_atx_tid_t *tid = ATH_AN_2_TID(an, bf->bf_tidno);
  90a9b2:	a646      	add.n	a6, a4, a6
	int nframes = bf->bf_nframes;
  90a9b4:	251634        	s32i	a5, a1, 208
	struct ath_tx_buf *bar = NULL;
  90a9b7:	c050      	movi.n	a5, 0
  90a9b9:	251630        	s32i	a5, a1, 192
	if (tid->flag & TID_CLEANUP_INPROGRES) {
  90a9bc:	0c7511        	slli	a5, a7, 4
  90a9bf:	075d0c        	sub	a13, a5, a7
  90a9c2:	0ed911        	slli	a9, a13, 2
  90a9c5:	a949      	add.n	a9, a4, a9
  90a9c7:	28905a        	l8ui	a8, a9, 90
  90a9ca:	253c50        	addi	a5, a3, 80
  90a9cd:	080840        	extui	a8, a8, 0, 1
  90a9d0:	6480ed        	beqz	a8, 90aac1 <ath_tgt_tx_comp_aggr+0x129>
  90a9d3:	2b320e        	l32i	a11, a3, 56
  90a9d6:	2c0a88        	movi	a12, 136
  90a9d9:	da10      	mov.n	a10, a1
  90a9db:	29163d        	s32i	a9, a1, 244
  90a9de:	2d163b        	s32i	a13, a1, 236
  90a9e1:	5bf937        	call8	908ec0 <__adf_os_mem_copy>
  90a9e4:	280a88        	movi	a8, 136
  90a9e7:	a817      	add.n	a7, a1, a8
  90a9e9:	055b02        	or	a11, a5, a5
  90a9ec:	2c0a30        	movi	a12, 48
  90a9ef:	077a02        	or	a10, a7, a7
  90a9f2:	5bf933        	call8	908ec0 <__adf_os_mem_copy>
	if (!bf->bf_isaggr) {
  90a9f5:	253221        	l32i	a5, a3, 132
  90a9f8:	29123d        	l32i	a9, a1, 244
  90a9fb:	2d123b        	l32i	a13, a1, 236
  90a9fe:	7a5f34        	bbsi	a5, 26, 90aa36 <ath_tgt_tx_comp_aggr+0x9e>
		ath_update_stats(sc, bf);
  90aa01:	8b3c      	l32i.n	a11, a3, 48
  90aa03:	022a02        	or	a10, a2, a2
  90aa06:	5bf990        	call8	909048 <ath_update_stats$isra$1>
		__stats(sc, tx_compunaggr);
  90aa09:	24225e        	l32i	a4, a2, 0x178
		ath_tx_status_update(sc, bf);
  90aa0c:	db30      	mov.n	a11, a3
		__stats(sc, tx_compunaggr);
  90aa0e:	244c01        	addi	a4, a4, 1
		ath_tx_status_update(sc, bf);
  90aa11:	022a02        	or	a10, a2, a2
		__stats(sc, tx_compunaggr);
  90aa14:	24265e        	s32i	a4, a2, 0x178
		ath_tx_status_update(sc, bf);
  90aa17:	5bfb70        	call8	9097d8 <ath_tx_status_update>
		ath_tx_freebuf(sc, bf);
  90aa1a:	db30      	mov.n	a11, a3
  90aa1c:	da20      	mov.n	a10, a2
  90aa1e:	5bfade        	call8	909598 <ath_tx_freebuf>
		if (tid->flag & TID_CLEANUP_INPROGRES) {
  90aa21:	29123d        	l32i	a9, a1, 244
  90aa24:	23905a        	l8ui	a3, a9, 90
  90aa27:	7f3f02        	bbsi	a3, 31, 90aa2d <ath_tgt_tx_comp_aggr+0x95>
  90aa2a:	600350        	j	90ad7e <ath_tgt_tx_comp_aggr+0x3e6>
			owl_tgt_tid_cleanup(sc, tid);
  90aa2d:	db60      	mov.n	a11, a6
  90aa2f:	da20      	mov.n	a10, a2
  90aa31:	5bffaf        	call8	90a8f0 <owl_tgt_tid_cleanup>
  90aa34:	d10f      	retw.n
		ath_tx_status_update_aggr(sc, bf, ds, rcs, 0);
  90aa36:	d870      	mov.n	a8, a7
		tid->incomp--;
  90aa38:	d5d0      	mov.n	a5, a13
  90aa3a:	099702        	or	a7, a9, a9
  90aa3d:	299c5b        	addi	a9, a9, 91
		bf_next  = bf->bf_next;
  90aa40:	8f3b      	l32i.n	a15, a3, 44
		ath_tx_status_update_aggr(sc, bf, ds, rcs, 0);
  90aa42:	dd80      	mov.n	a13, a8
  90aa44:	db30      	mov.n	a11, a3
  90aa46:	c0e0      	movi.n	a14, 0
  90aa48:	dc10      	mov.n	a12, a1
  90aa4a:	022a02        	or	a10, a2, a2
  90aa4d:	28163c        	s32i	a8, a1, 240
  90aa50:	29163d        	s32i	a9, a1, 244
  90aa53:	2f163b        	s32i	a15, a1, 236
  90aa56:	5bfb91        	call8	90989c <ath_tx_status_update_aggr>
		ath_tx_freebuf(sc, bf);
  90aa59:	db30      	mov.n	a11, a3
  90aa5b:	da20      	mov.n	a10, a2
  90aa5d:	5bface        	call8	909598 <ath_tx_freebuf>
		tid->incomp--;
  90aa60:	29123d        	l32i	a9, a1, 244
		if (!tid->incomp) {
  90aa63:	28123c        	l32i	a8, a1, 240
		tid->incomp--;
  90aa66:	239000        	l8ui	a3, a9, 0
		if (!tid->incomp) {
  90aa69:	2f123b        	l32i	a15, a1, 236
		tid->incomp--;
  90aa6c:	b033      	addi.n	a3, a3, -1
  90aa6e:	030347        	extui	a3, a3, 0, 8
  90aa71:	239400        	s8i	a3, a9, 0
		if (!tid->incomp) {
  90aa74:	cd38      	bnez.n	a3, 90aa90 <ath_tgt_tx_comp_aggr+0xf8>
			tid->flag  &= ~TID_CLEANUP_INPROGRES;
  90aa76:	0e5511        	slli	a5, a5, 2
  90aa79:	a545      	add.n	a5, a4, a5
  90aa7b:	23505a        	l8ui	a3, a5, 90
  90aa7e:	c75e      	movi.n	a5, -2
  90aa80:	053301        	and	a3, a3, a5
  90aa83:	23745a        	s8i	a3, a7, 90
			ath_aggr_resume_tid(sc, tid);
  90aa86:	db60      	mov.n	a11, a6
  90aa88:	da20      	mov.n	a10, a2
  90aa8a:	5bff87        	call8	90a8a8 <ath_aggr_resume_tid>
  90aa8d:	600005        	j	90aa96 <ath_tgt_tx_comp_aggr+0xfe>
  90aa90:	0ff302        	or	a3, a15, a15
	while (bf) {
  90aa93:	65ffa9        	bnez	a15, 90aa40 <ath_tgt_tx_comp_aggr+0xa8>
	ath_update_aggr_stats(sc, ds, nframes, nbad);
  90aa96:	2e1071        	l8ui	a14, a1, 113
  90aa99:	2d1070        	l8ui	a13, a1, 112
  90aa9c:	2c1067        	l8ui	a12, a1, 103
  90aa9f:	2b1066        	l8ui	a11, a1, 102
  90aaa2:	022a02        	or	a10, a2, a2
  90aaa5:	5bf989        	call8	9090cc <ath_update_aggr_stats$isra$5>
	ath_rate_tx_complete(sc, an, ds, rcs, nframes, nbad);
  90aaa8:	2e1234        	l32i	a14, a1, 208
  90aaab:	2d0a88        	movi	a13, 136
  90aaae:	c0f0      	movi.n	a15, 0
  90aab0:	ad1d      	add.n	a13, a1, a13
  90aab2:	dc10      	mov.n	a12, a1
  90aab4:	db40      	mov.n	a11, a4
  90aab6:	022a02        	or	a10, a2, a2
  90aab9:	5bf8e1        	call8	908e40 <ath_rate_tx_complete>
  90aabc:	d10f      	retw.n
  90aabe:	000000        	ill
	txq = bf->bf_txq;
  90aac1:	293220        	l32i	a9, a3, 128
  90aac4:	8b3e      	l32i.n	a11, a3, 56
  90aac6:	2c0a88        	movi	a12, 136
  90aac9:	da10      	mov.n	a10, a1
  90aacb:	291636        	s32i	a9, a1, 216
  90aace:	28163c        	s32i	a8, a1, 240
  90aad1:	5bf8fb        	call8	908ec0 <__adf_os_mem_copy>
  90aad4:	2a0a88        	movi	a10, 136
  90aad7:	c3c0      	movi.n	a12, 48
  90aad9:	db50      	mov.n	a11, a5
  90aadb:	aa1a      	add.n	a10, a1, a10
  90aadd:	5bf8f8        	call8	908ec0 <__adf_os_mem_copy>
	if (ds->ds_txstat.ts_flags == HAL_TX_SW_FILTERED) {
  90aae0:	291067        	l8ui	a9, a1, 103
  90aae3:	28123c        	l32i	a8, a1, 240
  90aae6:	699e02        	bnei	a9, 128, 90aaec <ath_tgt_tx_comp_aggr+0x154>
  90aae9:	63fffc        	j	90aae9 <ath_tgt_tx_comp_aggr+0x151>
	if (!bf->bf_isaggr) {
  90aaec:	2a3221        	l32i	a10, a3, 132
  90aaef:	c2f0      	movi.n	a15, 32
  90aaf1:	0aff01        	and	a15, a15, a10
  90aaf4:	65f12c        	bnez	a15, 90ac24 <ath_tgt_tx_comp_aggr+0x28c>
	ath_update_stats(sc, bf);
  90aaf7:	8b3c      	l32i.n	a11, a3, 48
  90aaf9:	da20      	mov.n	a10, a2
	struct ath_tx_desc *ds  = bf->bf_lastds;
  90aafb:	863e      	l32i.n	a6, a3, 56
	struct ath_node_target *an = ATH_NODE_TARGET(bf->bf_node);
  90aafd:	8434      	l32i.n	a4, a3, 16
	ath_atx_tid_t *tid = ATH_AN_2_TID(an, bf->bf_tidno);
  90aaff:	27304d        	l8ui	a7, a3, 77
	ath_update_stats(sc, bf);
  90ab02:	2f163b        	s32i	a15, a1, 236
  90ab05:	5bf950        	call8	909048 <ath_update_stats$isra$1>
	ath_rate_tx_complete(sc, an, ds, bf->bf_rcs, 1, 0);
  90ab08:	2f123b        	l32i	a15, a1, 236
  90ab0b:	dd50      	mov.n	a13, a5
  90ab0d:	c0e1      	movi.n	a14, 1
  90ab0f:	dc60      	mov.n	a12, a6
  90ab11:	db40      	mov.n	a11, a4
  90ab13:	da20      	mov.n	a10, a2
  90ab15:	5bf8ca        	call8	908e40 <ath_rate_tx_complete>
	if (ATH_DS_TX_STATUS(ds) & HAL_TXERR_XRETRY) {
  90ab18:	256066        	l8ui	a5, a6, 102
  90ab1b:	7f5f02        	bbsi	a5, 31, 90ab21 <ath_tgt_tx_comp_aggr+0x189>
  90ab1e:	6000cf        	j	90abf1 <ath_tgt_tx_comp_aggr+0x259>
	ath_atx_tid_t *tid = ATH_AN_2_TID(an, bf->bf_tidno);
  90ab21:	26304d        	l8ui	a6, a3, 77
	txq = bf->bf_txq;
  90ab24:	283220        	l32i	a8, a3, 128
  90ab27:	0c6411        	slli	a4, a6, 4
  90ab2a:	06440c        	sub	a4, a4, a6
	struct ath_node_target *an = ATH_NODE_TARGET(bf->bf_node);
  90ab2d:	8734      	l32i.n	a7, a3, 16
  90ab2f:	0e4411        	slli	a4, a4, 2
	txq = bf->bf_txq;
  90ab32:	281634        	s32i	a8, a1, 208
	if (bf->bf_retries >= OWLMAX_RETRIES) {
  90ab35:	283086        	l8ui	a8, a3, 134
	ath_atx_tid_t *tid = ATH_AN_2_TID(an, bf->bf_tidno);
  90ab38:	254c24        	addi	a5, a4, 36
	if (bf->bf_retries >= OWLMAX_RETRIES) {
  90ab3b:	c0a9      	movi.n	a10, 9
	ath_atx_tid_t *tid = ATH_AN_2_TID(an, bf->bf_tidno);
  90ab3d:	a575      	add.n	a5, a7, a5
	if (bf->bf_retries >= OWLMAX_RETRIES) {
  90ab3f:	78ab26        	bgeu	a10, a8, 90ab69 <ath_tgt_tx_comp_aggr+0x1d1>
		__stats(sc, txunaggr_xretry);
  90ab42:	242273        	l32i	a4, a2, 0x1cc
		ath_tx_update_baw(tid, SEQNO_FROM_BF_SEQNO(bf->bf_seqno));
  90ab45:	2b3123        	l16ui	a11, a3, 70
		__stats(sc, txunaggr_xretry);
  90ab48:	b144      	addi.n	a4, a4, 1
		ath_tx_update_baw(tid, SEQNO_FROM_BF_SEQNO(bf->bf_seqno));
  90ab4a:	da50      	mov.n	a10, a5
		__stats(sc, txunaggr_xretry);
  90ab4c:	242673        	s32i	a4, a2, 0x1cc
		ath_tx_update_baw(tid, SEQNO_FROM_BF_SEQNO(bf->bf_seqno));
  90ab4f:	0b4b14        	srli	a11, a11, 4
  90ab52:	5bf925        	call8	908fe8 <ath_tx_update_baw>
		ath_tx_status_update(sc, bf);
  90ab55:	db30      	mov.n	a11, a3
  90ab57:	da20      	mov.n	a10, a2
  90ab59:	5bfb1f        	call8	9097d8 <ath_tx_status_update>
		ath_bar_tx(sc, tid, bf);
  90ab5c:	dc30      	mov.n	a12, a3
  90ab5e:	db50      	mov.n	a11, a5
  90ab60:	da20      	mov.n	a10, a2
  90ab62:	5bfaae        	call8	90961c <ath_bar_tx>
  90ab65:	d10f      	retw.n
  90ab67:	000028        	mull	a0, a0, a0
	__stats(sc, txunaggr_compretries);
  90ab6a:	226d8b        	addmi	a2, a6, 0xffff8b00
	if (!bf->bf_lastds->ds_link) {
  90ab6d:	3eb188        	excw
	__stats(sc, txunaggr_compretries);
  90ab70:	28266d        	s32i	a8, a2, 0x1b4
	if (!bf->bf_lastds->ds_link) {
  90ab73:	2ab000        	l8ui	a10, a11, 0
  90ab76:	28b001        	l8ui	a8, a11, 1
  90ab79:	08aa10        	slli	a10, a10, 24
  90ab7c:	008811        	slli	a8, a8, 16
  90ab7f:	0a8a02        	or	a10, a8, a10
  90ab82:	28b002        	l8ui	a8, a11, 2
  90ab85:	088811        	slli	a8, a8, 8
  90ab88:	0a8802        	or	a8, a8, a10
  90ab8b:	2ab003        	l8ui	a10, a11, 3
  90ab8e:	08a802        	or	a8, a10, a8
  90ab91:	cd83      	bnez.n	a8, 90aba8 <ath_tgt_tx_comp_aggr+0x210>
		__stats(sc, txunaggr_errlast);
  90ab93:	282272        	l32i	a8, a2, 0x1c8
		bf = ath_buf_toggle(sc, bf, 1);
  90ab96:	db30      	mov.n	a11, a3
		__stats(sc, txunaggr_errlast);
  90ab98:	b188      	addi.n	a8, a8, 1
  90ab9a:	282672        	s32i	a8, a2, 0x1c8
		bf = ath_buf_toggle(sc, bf, 1);
  90ab9d:	2c0a01        	movi	a12, 1
  90aba0:	022a02        	or	a10, a2, a2
  90aba3:	5bfa3b        	call8	909490 <ath_buf_toggle>
  90aba6:	d3a0      	mov.n	a3, a10
	ath_tx_set_retry(sc, bf);
  90aba8:	2a1a80        	movi	a10, 0x180
  90abab:	0a2a08        	add	a10, a2, a10
  90abae:	033b02        	or	a11, a3, a3
  90abb1:	5bfb78        	call8	909994 <ath_tx_set_retry$isra$12>
	asf_tailq_insert_head(&tid->buf_q, bf, bf_list);
  90abb4:	0c6211        	slli	a2, a6, 4
  90abb7:	06280c        	sub	a8, a2, a6
  90abba:	0e8811        	slli	a8, a8, 2
  90abbd:	a878      	add.n	a8, a7, a8
  90abbf:	2a8214        	l32i	a10, a8, 80
  90abc2:	2b3c24        	addi	a11, a3, 36
  90abc5:	9a39      	s32i.n	a10, a3, 36
  90abc7:	c8a5      	beqz.n	a10, 90abd0 <ath_tgt_tx_comp_aggr+0x238>
  90abc9:	9baa      	s32i.n	a11, a10, 40
  90abcb:	600004        	j	90abd3 <ath_tgt_tx_comp_aggr+0x23b>
  90abce:	00002b        	mulsh	a0, a0, a0
  90abd1:	8615      	l32i.n	a6, a1, 20
  90abd3:	06220c        	sub	a2, a2, a6
  90abd6:	0e2211        	slli	a2, a2, 2
  90abd9:	a272      	add.n	a2, a7, a2
  90abdb:	244c50        	addi	a4, a4, 80
	ath_tgt_tx_enqueue(txq, tid);
  90abde:	291234        	l32i	a9, a1, 208
	asf_tailq_insert_head(&tid->buf_q, bf, bf_list);
  90abe1:	232614        	s32i	a3, a2, 80
  90abe4:	a477      	add.n	a7, a7, a4
  90abe6:	973a      	s32i.n	a7, a3, 40
	ath_tgt_tx_enqueue(txq, tid);
  90abe8:	db50      	mov.n	a11, a5
  90abea:	2a9c1c        	addi	a10, a9, 28
  90abed:	60018a        	j	90ad7b <ath_tgt_tx_comp_aggr+0x3e3>
  90abf0:	000c7a        	excw
	ath_atx_tid_t *tid = ATH_AN_2_TID(an, bf->bf_tidno);
  90abf3:	112522        	l32r	a1, 8d407c <_bss_end+0x3c6874>
	__stats(sc, tx_compunaggr);
  90abf6:	5e07aa        	call12	88caa0 <_bss_end+0x37f298>
	ath_atx_tid_t *tid = ATH_AN_2_TID(an, bf->bf_tidno);
  90abf9:	0c2b31        	excw
	ath_tx_update_baw(tid, SEQNO_FROM_BF_SEQNO(bf->bf_seqno));
  90abfc:	230eaa        	s32c1i	a3, a0, 0x2a8
	ath_atx_tid_t *tid = ATH_AN_2_TID(an, bf->bf_tidno);
  90abff:	11255c        	l32r	a1, 8d4170 <_bss_end+0x3c6968>
	__stats(sc, tx_compunaggr);
  90ac02:	012aac        	excw
	ath_atx_tid_t *tid = ATH_AN_2_TID(an, bf->bf_tidno);
  90ac05:	240a4a        	movi	a4, 74
	ath_tx_update_baw(tid, SEQNO_FROM_BF_SEQNO(bf->bf_seqno));
  90ac08:	082526        	excw
	__stats(sc, tx_compunaggr);
  90ac0b:	5e0b4b        	call12	88d938 <_bss_end+0x380130>
	ath_tx_update_baw(tid, SEQNO_FROM_BF_SEQNO(bf->bf_seqno));
  90ac0e:	145bf8        	l32r	a4, 8e1bf0 <athos_indirection_table_install+0x6a8>
  90ac11:	f6          	.byte 0xf6
	ath_tx_status_update(sc, bf);
  90ac12:	db30      	mov.n	a11, a3
  90ac14:	da20      	mov.n	a10, a2
  90ac16:	5bfaf0        	call8	9097d8 <ath_tx_status_update>
	ath_tx_freebuf(sc, bf);
  90ac19:	db30      	mov.n	a11, a3
  90ac1b:	da20      	mov.n	a10, a2
  90ac1d:	5bfa5e        	call8	909598 <ath_tx_freebuf>
  90ac20:	d10f      	retw.n
  90ac22:	000025        	excw
	__stats(sc, tx_compaggr);
  90ac25:	225f2f        	s32ri	a2, a5, 188
	tx_ok  =  (ATH_DS_TX_STATUS(ds) == HAL_OK);
  90ac28:	1066b1        	l32r	a0, 8e46ec <vdesc_module_install+0x5b0>
	__stats(sc, tx_compaggr);
  90ac2b:	552526        	call4	9540c4 <_etext+0x49085>
  90ac2e:	5f250a        	call12	8d4058 <_bss_end+0x3c6850>
	asf_tailq_init(&bf_q);
  90ac31:	b8a5      	addi.n	a5, a10, 8
  90ac33:	152516        	l32r	a5, 8d408c <_bss_end+0x3c6884>
  90ac36:	2fc051        	l8ui	a15, a12, 81
  90ac39:	28162e        	s32i	a8, a1, 184
	tx_ok  =  (ATH_DS_TX_STATUS(ds) == HAL_OK);
  90ac3c:	0f5838        	moveqz	a8, a5, a15
  90ac3f:	281638        	s32i	a8, a1, 224
	if (ATH_DS_TX_STATUS(ds) & HAL_TXERR_XRETRY) {
  90ac42:	05f501        	and	a5, a15, a5
  90ac45:	c853      	beqz.n	a5, 90ac4c <ath_tgt_tx_comp_aggr+0x2b4>
  90ac47:	600022        	j	90ac6d <ath_tgt_tx_comp_aggr+0x2d5>
  90ac4a:	000028        	mull	a0, a0, a0
	seq_st =  ATH_DS_BA_SEQ(ds);
  90ac4d:	113228        	l32r	a1, 8d74f0 <_bss_end+0x3c9ce8>
  90ac50:	1637ce        	l32r	a6, 8d8b88 <_bss_end+0x3cb380>
	if (tx_ok && !ATH_DS_TX_BA(ds)) {
  90ac53:	f3          	.byte 0xf3
  90ac54:	d5f0      	mov.n	a5, a15
  90ac56:	7f9f1f        	bbsi	a9, 31, 90ac79 <ath_tgt_tx_comp_aggr+0x2e1>
		__stats(sc, txaggr_babug);
  90ac59:	242269        	l32i	a4, a2, 0x1a4
		adf_os_print("BA Bug?\n");
  90ac5c:	1a72b5        	l32r	a10, 8e7730 <memset+0x2594>
		__stats(sc, txaggr_babug);
  90ac5f:	b144      	addi.n	a4, a4, 1
  90ac61:	242669        	s32i	a4, a2, 0x1a4
		adf_os_print("BA Bug?\n");
  90ac64:	14716e        	l32r	a4, 8e721c <memset+0x2080>
  90ac67:	244212        	l32i	a4, a4, 72
  90ac6a:	0b4000        	callx8	a4
		ath_tx_comp_aggr_error(sc, bf, tid);
  90ac6d:	dc60      	mov.n	a12, a6
  90ac6f:	db30      	mov.n	a11, a3
  90ac71:	da20      	mov.n	a10, a2
  90ac73:	5bfb8e        	call8	909aac <ath_tx_comp_aggr_error>
		return;
  90ac76:	d10f      	retw.n
  90ac78:	00280a        	addx4	a8, a2, a0
			ath_tx_retry_subframe(sc, bf, &bf_q, &bar);
  90ac7b:	bca8      	addi.n	a8, a10, 12
  90ac7d:	182816        	l32r	a8, 8d4cd8 <_bss_end+0x3c74d0>
  90ac80:	3a2b31        	excw
		ba_index = ATH_BA_INDEX(seq_st, SEQNO_FROM_BF_SEQNO(bf->bf_seqno));
  90ac83:	232812        	excw
  90ac86:	370b4b        	excw
  90ac89:	1408b9        	l32r	a4, 8ccf70 <_bss_end+0x3bf768>
  90ac8c:	0c8a3b        	movgez	a10, a8, a12
  90ac8f:	09094f        	extui	a9, a9, 0, 16
		bf_next  = bf->bf_next;
  90ac92:	2a1639        	s32i	a10, a1, 228
		ba_index = ATH_BA_INDEX(seq_st, SEQNO_FROM_BF_SEQNO(bf->bf_seqno));
  90ac95:	09084b        	extui	a8, a9, 0, 12
		if (tx_ok && ATH_BA_ISSET(ba, ba_index)) {
  90ac98:	c3af      	movi.n	a10, 63
  90ac9a:	78a247        	blt	a10, a8, 90ace5 <ath_tgt_tx_comp_aggr+0x34d>
  90ac9d:	2a1238        	l32i	a10, a1, 224
  90aca0:	64a041        	beqz	a10, 90ace5 <ath_tgt_tx_comp_aggr+0x34d>
  90aca3:	085812        	srai	a8, a8, 5
  90aca6:	0e8811        	slli	a8, a8, 2
  90aca9:	a818      	add.n	a8, a1, a8
  90acab:	c0e1      	movi.n	a14, 1
  90acad:	28821d        	l32i	a8, a8, 116
  90acb0:	009104        	ssl	a9
  90acb3:	00e91a        	sll	a9, a14
  90acb6:	78902b        	bnone	a9, a8, 90ace5 <ath_tgt_tx_comp_aggr+0x34d>
			__stats(sc, txaggr_compgood);
  90acb9:	282262        	l32i	a8, a2, 0x188
			ath_tx_update_baw(tid, SEQNO_FROM_BF_SEQNO(bf->bf_seqno));
  90acbc:	da60      	mov.n	a10, a6
			__stats(sc, txaggr_compgood);
  90acbe:	ae88      	add.n	a8, a8, a14
  90acc0:	282662        	s32i	a8, a2, 0x188
			ath_tx_update_baw(tid, SEQNO_FROM_BF_SEQNO(bf->bf_seqno));
  90acc3:	2e163b        	s32i	a14, a1, 236
  90acc6:	5bf8c8        	call8	908fe8 <ath_tx_update_baw>
			ath_tx_status_update_aggr(sc, bf, ds, rcs, 1);
  90acc9:	2e123b        	l32i	a14, a1, 236
  90accc:	2d0a88        	movi	a13, 136
  90accf:	db30      	mov.n	a11, a3
  90acd1:	da20      	mov.n	a10, a2
  90acd3:	ad1d      	add.n	a13, a1, a13
  90acd5:	dc10      	mov.n	a12, a1
  90acd7:	5bfaf1        	call8	90989c <ath_tx_status_update_aggr>
			ath_tx_freebuf(sc, bf);
  90acda:	db30      	mov.n	a11, a3
  90acdc:	da20      	mov.n	a10, a2
  90acde:	5bfa2e        	call8	909598 <ath_tx_freebuf>
  90ace1:	600011        	j	90acf6 <ath_tgt_tx_comp_aggr+0x35e>
  90ace4:	002d0a        	addx4	a13, a2, a0
			ath_tx_retry_subframe(sc, bf, &bf_q, &bar);
  90ace7:	c02c      	movi.n	a2, 12
  90ace9:	123aad        	l32r	a2, 8d97a0 <_bss_end+0x3cbf98>
  90acec:	1ddb30        	l32r	a13, 9019ac <memset+0x1c810>
  90acef:	da20      	mov.n	a10, a2
  90acf1:	5bfb34        	call8	9099c4 <ath_tx_retry_subframe$isra$14>
			nbad ++;
  90acf4:	b155      	addi.n	a5, a5, 1
  90acf6:	231239        	l32i	a3, a1, 228
	while (bf) {
  90acf9:	653f84        	bnez	a3, 90ac81 <ath_tgt_tx_comp_aggr+0x2e9>
	ath_update_aggr_stats(sc, ds, nframes, nbad);
  90acfc:	2e1071        	l8ui	a14, a1, 113
  90acff:	2d1070        	l8ui	a13, a1, 112
  90ad02:	2c1067        	l8ui	a12, a1, 103
  90ad05:	2b1066        	l8ui	a11, a1, 102
  90ad08:	da20      	mov.n	a10, a2
  90ad0a:	5bf8f0        	call8	9090cc <ath_update_aggr_stats$isra$5>
	ath_rate_tx_complete(sc, an, ds, rcs, nframes, nbad);
  90ad0d:	2e1234        	l32i	a14, a1, 208
  90ad10:	2d0a88        	movi	a13, 136
  90ad13:	dc10      	mov.n	a12, a1
  90ad15:	df50      	mov.n	a15, a5
  90ad17:	ad1d      	add.n	a13, a1, a13
  90ad19:	db40      	mov.n	a11, a4
  90ad1b:	da20      	mov.n	a10, a2
  90ad1d:	5bf848        	call8	908e40 <ath_rate_tx_complete>
	if (bar) {
  90ad20:	2c1230        	l32i	a12, a1, 192
  90ad23:	c8c5      	beqz.n	a12, 90ad2c <ath_tgt_tx_comp_aggr+0x394>
		ath_bar_tx(sc, tid, bar);
  90ad25:	db60      	mov.n	a11, a6
  90ad27:	da20      	mov.n	a10, a2
  90ad29:	5bfa3c        	call8	90961c <ath_bar_tx>
	if (!asf_tailq_empty(&bf_q)) {
  90ad2c:	23122e        	l32i	a3, a1, 184
  90ad2f:	64304b        	beqz	a3, 90ad7e <ath_tgt_tx_comp_aggr+0x3e6>
		__stats(sc, txaggr_prepends);
  90ad32:	232264        	l32i	a3, a2, 0x190
  90ad35:	25122f        	l32i	a5, a1, 188
  90ad38:	b133      	addi.n	a3, a3, 1
  90ad3a:	232664        	s32i	a3, a2, 0x190
		TAILQ_INSERTQ_HEAD(&tid->buf_q, &bf_q, bf_list);
  90ad3d:	0c7211        	slli	a2, a7, 4
  90ad40:	07230c        	sub	a3, a2, a7
  90ad43:	0e3311        	slli	a3, a3, 2
  90ad46:	a343      	add.n	a3, a4, a3
  90ad48:	283214        	l32i	a8, a3, 80
  90ad4b:	c889      	beqz.n	a8, 90ad58 <ath_tgt_tx_comp_aggr+0x3c0>
  90ad4d:	9850      	s32i.n	a8, a5, 0
  90ad4f:	233214        	l32i	a3, a3, 80
  90ad52:	953a      	s32i.n	a5, a3, 40
  90ad54:	600003        	j	90ad5b <ath_tgt_tx_comp_aggr+0x3c3>
  90ad57:	002536        	minu	a5, a2, a0
  90ad5a:	150727        	l32r	a5, 8cc9f8 <_bss_end+0x3bf1f0>
  90ad5d:	0c2512        	srai	a5, a12, 2
  90ad60:	352312        	excw
  90ad63:	2e0e77        	s32c1i	a14, a0, 0x1dc
  90ad66:	11a747        	l32r	a1, 8f4a84 <memset+0xf8e8>
  90ad69:	225c50        	addi	a2, a5, 80
		ath_tgt_tx_enqueue(txq, tid);
  90ad6c:	281236        	l32i	a8, a1, 216
		TAILQ_INSERTQ_HEAD(&tid->buf_q, &bf_q, bf_list);
  90ad6f:	237614        	s32i	a3, a7, 80
  90ad72:	a244      	add.n	a4, a4, a2
  90ad74:	943a      	s32i.n	a4, a3, 40
		ath_tgt_tx_enqueue(txq, tid);
  90ad76:	db60      	mov.n	a11, a6
  90ad78:	2a8c1c        	addi	a10, a8, 28
  90ad7b:	5bf8cb        	call8	9090a8 <ath_tgt_tx_enqueue$isra$3>
  90ad7e:	d10f      	retw.n

0090ad80 <ath_tgt_tx_cleanup>:
{
  90ad80:	6c1004        	entry	a1, 32
  90ad83:	050547        	extui	a5, a5, 0, 8
	bf = asf_tailq_first(&tid->buf_q);
  90ad86:	864b      	l32i.n	a6, a4, 44
			if (bf->bf_isretried)
  90ad88:	c170      	movi.n	a7, 16
	while (bf) {
  90ad8a:	600045        	j	90add3 <ath_tgt_tx_cleanup+0x53>
  90ad8d:	008369        	excw
		if (discard_all || bf->bf_isretried) {
  90ad90:	cc54      	bnez.n	a5, 90ad98 <ath_tgt_tx_cleanup+0x18>
  90ad92:	286221        	l32i	a8, a6, 132
  90ad95:	787033        	bnone	a7, a8, 90adcc <ath_tgt_tx_cleanup+0x4c>
			bf_next = asf_tailq_next(bf, bf_list);
  90ad98:	d630      	mov.n	a6, a3
			TAILQ_DEQ(&tid->buf_q, bf, bf_list);
  90ad9a:	834b      	l32i.n	a3, a4, 44
  90ad9c:	c930      	beqz.n	a3, 90adb0 <ath_tgt_tx_cleanup+0x30>
  90ad9e:	8839      	l32i.n	a8, a3, 36
  90ada0:	893a      	l32i.n	a9, a3, 40
  90ada2:	c884      	beqz.n	a8, 90adaa <ath_tgt_tx_cleanup+0x2a>
  90ada4:	998a      	s32i.n	a9, a8, 40
  90ada6:	600002        	j	90adac <ath_tgt_tx_cleanup+0x2c>
  90ada9:	00994c        	extui	a9, a0, 9, 13
  90adac:	893a      	l32i.n	a9, a3, 40
  90adae:	9890      	s32i.n	a8, a9, 0
			if (bf->bf_isretried)
  90adb0:	283221        	l32i	a8, a3, 132
  90adb3:	78700a        	bnone	a7, a8, 90adc1 <ath_tgt_tx_cleanup+0x41>
				ath_tx_update_baw(tid, SEQNO_FROM_BF_SEQNO(bf->bf_seqno));
  90adb6:	2b3123        	l16ui	a11, a3, 70
  90adb9:	da40      	mov.n	a10, a4
  90adbb:	0b4b14        	srli	a11, a11, 4
  90adbe:	5bf88a        	call8	908fe8 <ath_tx_update_baw>
			ath_tx_freebuf(sc, bf);
  90adc1:	db30      	mov.n	a11, a3
  90adc3:	da20      	mov.n	a10, a2
  90adc5:	5bf9f4        	call8	909598 <ath_tx_freebuf>
			continue;
  90adc8:	600007        	j	90add3 <ath_tgt_tx_cleanup+0x53>
  90adcb:	001872        	excw
		bf->bf_comp = ath_tgt_tx_comp_normal;
  90adce:	b298      	addi.n	a8, a9, 2
  90add0:	6fd630        	bgeui	a13, 6, 90ae04 <ath_tgt_tx_cleanup+0x84>
	while (bf) {
  90add3:	656fb7        	bnez	a6, 90ad8e <ath_tgt_tx_cleanup+0xe>
	tid->paused =1;
  90add6:	c031      	movi.n	a3, 1
  90add8:	234434        	s8i	a3, a4, 52
	while (tid->baw_head != tid->baw_tail) {
  90addb:	8a44      	l32i.n	a10, a4, 16
		if (TX_BUF_BITMAP_IS_SET(tid->tx_buf_bitmap, tid->baw_head)) {
  90addd:	c061      	movi.n	a6, 1
			TX_BUF_BITMAP_CLR(tid->tx_buf_bitmap, tid->baw_head);
  90addf:	c7bf      	movi.n	a11, -1
  90ade1:	60003d        	j	90ae22 <ath_tgt_tx_cleanup+0xa2>
		if (TX_BUF_BITMAP_IS_SET(tid->tx_buf_bitmap, tid->baw_head)) {
  90ade4:	085312        	srai	a3, a8, 5
  90ade7:	0e3311        	slli	a3, a3, 2
  90adea:	a343      	add.n	a3, a4, a3
  90adec:	8535      	l32i.n	a5, a3, 20
  90adee:	008104        	ssl	a8
  90adf1:	00691a        	sll	a9, a6
  90adf4:	795018        	bnone	a5, a9, 90ae10 <ath_tgt_tx_cleanup+0x90>
			tid->incomp++;
  90adf7:	2c4037        	l8ui	a12, a4, 55
			TX_BUF_BITMAP_CLR(tid->tx_buf_bitmap, tid->baw_head);
  90adfa:	09b903        	xor	a9, a11, a9
			tid->incomp++;
  90adfd:	b1cc      	addi.n	a12, a12, 1
  90adff:	2c4437        	s8i	a12, a4, 55
			tid->flag |= TID_CLEANUP_INPROGRES;
  90ae02:	2c4036        	l8ui	a12, a4, 54
			TX_BUF_BITMAP_CLR(tid->tx_buf_bitmap, tid->baw_head);
  90ae05:	059901        	and	a9, a9, a5
			tid->flag |= TID_CLEANUP_INPROGRES;
  90ae08:	0c6c02        	or	a12, a6, a12
  90ae0b:	2c4436        	s8i	a12, a4, 54
			TX_BUF_BITMAP_CLR(tid->tx_buf_bitmap, tid->baw_head);
  90ae0e:	9935      	s32i.n	a9, a3, 20
		INCR(tid->seq_start, IEEE80211_SEQ_MAX);
  90ae10:	234102        	l16ui	a3, a4, 4
		INCR(tid->baw_head, ATH_TID_MAX_BUFS);
  90ae13:	b188      	addi.n	a8, a8, 1
		INCR(tid->seq_start, IEEE80211_SEQ_MAX);
  90ae15:	b133      	addi.n	a3, a3, 1
		INCR(tid->baw_head, ATH_TID_MAX_BUFS);
  90ae17:	080846        	extui	a8, a8, 0, 7
		INCR(tid->seq_start, IEEE80211_SEQ_MAX);
  90ae1a:	03034b        	extui	a3, a3, 0, 12
		INCR(tid->baw_head, ATH_TID_MAX_BUFS);
  90ae1d:	9843      	s32i.n	a8, a4, 12
		INCR(tid->seq_start, IEEE80211_SEQ_MAX);
  90ae1f:	234502        	s16i	a3, a4, 4
	while (tid->baw_head != tid->baw_tail) {
  90ae22:	8843      	l32i.n	a8, a4, 12
  90ae24:	7a89bc        	bne	a8, a10, 90ade4 <ath_tgt_tx_cleanup+0x64>
	if (!(tid->flag & TID_CLEANUP_INPROGRES)) {
  90ae27:	234036        	l8ui	a3, a4, 54
  90ae2a:	7f3f06        	bbsi	a3, 31, 90ae34 <ath_tgt_tx_cleanup+0xb4>
		ath_aggr_resume_tid(sc, tid);
  90ae2d:	db40      	mov.n	a11, a4
  90ae2f:	da20      	mov.n	a10, a2
  90ae31:	5bfe9d        	call8	90a8a8 <ath_aggr_resume_tid>
  90ae34:	d10f      	retw.n
	...

0090ae38 <ath_bar_tx_comp>:
{
  90ae38:	6c1006        	entry	a1, 48
	tid = &an->tid[bf->bf_tidno];
  90ae3b:	2a304d        	l8ui	a10, a3, 77
	struct ath_tx_desc *ds = bf->bf_lastds;
  90ae3e:	893e      	l32i.n	a9, a3, 56
	tid = &an->tid[bf->bf_tidno];
  90ae40:	0ca411        	slli	a4, a10, 4
  90ae43:	0a440c        	sub	a4, a4, a10
	if (ATH_DS_TX_STATUS(ds) & HAL_TXERR_XRETRY) {
  90ae46:	269066        	l8ui	a6, a9, 102
	an = (struct ath_node_target *)bf->bf_node;
  90ae49:	8534      	l32i.n	a5, a3, 16
	tid = &an->tid[bf->bf_tidno];
  90ae4b:	0e4411        	slli	a4, a4, 2
  90ae4e:	244c24        	addi	a4, a4, 36
	if (ATH_DS_TX_STATUS(ds) & HAL_TXERR_XRETRY) {
  90ae51:	060640        	extui	a6, a6, 0, 1
	tid = &an->tid[bf->bf_tidno];
  90ae54:	a454      	add.n	a4, a5, a4
	if (ATH_DS_TX_STATUS(ds) & HAL_TXERR_XRETRY) {
  90ae56:	6460d3        	beqz	a6, 90af2d <ath_bar_tx_comp+0xf5>
	if (bf->bf_retries >= OWLMAX_BAR_RETRIES) {
  90ae59:	263086        	l8ui	a6, a3, 134
  90ae5c:	c089      	movi.n	a8, 9
  90ae5e:	768b6a        	bgeu	a8, a6, 90aecc <ath_bar_tx_comp+0x94>
		ath_tgt_delba_send(sc, bf->bf_node, tid->tidno, 1,
  90ae61:	0ca811        	slli	a8, a10, 4
  90ae64:	0a880c        	sub	a8, a8, a10
  90ae67:	0e8811        	slli	a8, a8, 2
  90ae6a:	a858      	add.n	a8, a5, a8
  90ae6c:	268027        	l8ui	a6, a8, 39
	tid->flag &= ~TID_AGGR_ENABLED;
  90ae6f:	c79d      	movi.n	a9, -3
  90ae71:	0c6c11        	slli	a12, a6, 4
  90ae74:	06cc0c        	sub	a12, a12, a6
  90ae77:	0ecc11        	slli	a12, a12, 2
  90ae7a:	ac56      	add.n	a6, a5, a12
  90ae7c:	28605a        	l8ui	a8, a6, 90
	ath_atx_tid_t *tid = ATH_AN_2_TID(an, tidno);
  90ae7f:	2ccc24        	addi	a12, a12, 36
	tid->flag &= ~TID_AGGR_ENABLED;
  90ae82:	098801        	and	a8, a8, a9
  90ae85:	28645a        	s8i	a8, a6, 90
	ath_tgt_tx_cleanup(sc, an, tid, 1);
  90ae88:	ac5c      	add.n	a12, a5, a12
  90ae8a:	db50      	mov.n	a11, a5
  90ae8c:	c0d1      	movi.n	a13, 1
  90ae8e:	022a02        	or	a10, a2, a2
  90ae91:	5bffbb        	call8	90ad80 <ath_tgt_tx_cleanup>
	wmi_delba.ni_nodeindex = ni->ni_nodeindex;
  90ae94:	25500c        	l8ui	a5, a5, 12
	wmi_event(sc->tgt_wmi_handle,
  90ae97:	1b72b6        	l32r	a11, 8e7970 <memset+0x27d4>
	wmi_delba.ni_nodeindex = ni->ni_nodeindex;
  90ae9a:	251400        	s8i	a5, a1, 0
	wmi_delba.tidno = tid->tidno;
  90ae9d:	8569      	l32i.n	a5, a6, 36
	wmi_event(sc->tgt_wmi_handle,
  90ae9f:	8a23      	l32i.n	a10, a2, 12
	wmi_delba.tidno = tid->tidno;
  90aea1:	251401        	s8i	a5, a1, 1
	wmi_delba.initiator = 1;
  90aea4:	c051      	movi.n	a5, 1
  90aea6:	251402        	s8i	a5, a1, 2
	wmi_delba.reasoncode = IEEE80211_REASON_UNSPECIFIED;
  90aea9:	251403        	s8i	a5, a1, 3
	__stats(sc, txbar_xretry);
  90aeac:	252279        	l32i	a5, a2, 0x1e4
	wmi_event(sc->tgt_wmi_handle,
  90aeaf:	c0d4      	movi.n	a13, 4
	__stats(sc, txbar_xretry);
  90aeb1:	b155      	addi.n	a5, a5, 1
	wmi_event(sc->tgt_wmi_handle,
  90aeb3:	011c02        	or	a12, a1, a1
	__stats(sc, txbar_xretry);
  90aeb6:	252679        	s32i	a5, a2, 0x1e4
	wmi_event(sc->tgt_wmi_handle,
  90aeb9:	5bef40        	call8	906bbc <wmi_event>
		ath_tgt_tid_drain(sc, tid);
  90aebc:	db40      	mov.n	a11, a4
  90aebe:	da20      	mov.n	a10, a2
		bf->bf_comp = NULL;
  90aec0:	c040      	movi.n	a4, 0
		ath_tgt_tid_drain(sc, tid);
  90aec2:	5bfb28        	call8	909b64 <ath_tgt_tid_drain>
		bf->bf_comp = NULL;
  90aec5:	943f      	s32i.n	a4, a3, 60
  90aec7:	60006b        	j	90af36 <ath_bar_tx_comp+0xfe>
  90aeca:	000024        	excw
	__stats(sc, txbar_compretries);
  90aecd:	227a25        	movi	a2, 0x725
	if (!bf->bf_lastds->ds_link) {
  90aed0:	9000      	s32i.n	a0, a0, 0
	__stats(sc, txbar_compretries);
  90aed2:	b144      	addi.n	a4, a4, 1
  90aed4:	24267a        	s32i	a4, a2, 0x1e8
	if (!bf->bf_lastds->ds_link) {
  90aed7:	249001        	l8ui	a4, a9, 1
  90aeda:	085510        	slli	a5, a5, 24
  90aedd:	004411        	slli	a4, a4, 16
  90aee0:	054502        	or	a5, a4, a5
  90aee3:	249002        	l8ui	a4, a9, 2
  90aee6:	084411        	slli	a4, a4, 8
  90aee9:	054402        	or	a4, a4, a5
  90aeec:	259003        	l8ui	a5, a9, 3
  90aeef:	045402        	or	a4, a5, a4
  90aef2:	cd42      	bnez.n	a4, 90af08 <ath_bar_tx_comp+0xd0>
		__stats(sc, txbar_errlast);
  90aef4:	24227b        	l32i	a4, a2, 0x1ec
		bf = ath_buf_toggle(sc, bf, 1);
  90aef7:	db30      	mov.n	a11, a3
		__stats(sc, txbar_errlast);
  90aef9:	b144      	addi.n	a4, a4, 1
  90aefb:	24267b        	s32i	a4, a2, 0x1ec
		bf = ath_buf_toggle(sc, bf, 1);
  90aefe:	c0c1      	movi.n	a12, 1
  90af00:	022a02        	or	a10, a2, a2
  90af03:	5bf963        	call8	909490 <ath_buf_toggle>
  90af06:	d3a0      	mov.n	a3, a10
	bf->bf_lastds->ds_link = 0;
  90af08:	843e      	l32i.n	a4, a3, 56
  90af0a:	c050      	movi.n	a5, 0
	ath_tx_set_retry(sc, bf);
  90af0c:	2a1a80        	movi	a10, 0x180
  90af0f:	db30      	mov.n	a11, a3
  90af11:	aa2a      	add.n	a10, a2, a10
	bf->bf_lastds->ds_link = 0;
  90af13:	254400        	s8i	a5, a4, 0
  90af16:	254401        	s8i	a5, a4, 1
  90af19:	254402        	s8i	a5, a4, 2
  90af1c:	254403        	s8i	a5, a4, 3
	ath_tx_set_retry(sc, bf);
  90af1f:	5bfa9d        	call8	909994 <ath_tx_set_retry$isra$12>
	ath_tgt_txq_add_ucast(sc, bf);
  90af22:	db30      	mov.n	a11, a3
  90af24:	da20      	mov.n	a10, a2
  90af26:	5bf812        	call8	908f70 <ath_tgt_txq_add_ucast>
  90af29:	d10f      	retw.n
  90af2b:	0000db        	excw
	ath_aggr_resume_tid(sc, tid);
  90af2e:	40da20        	excw
  90af31:	5bfe5d        	call8	90a8a8 <ath_aggr_resume_tid>
	bf->bf_comp = NULL;
  90af34:	963f      	s32i.n	a6, a3, 60
	ath_buf_comp(sc, bf);
  90af36:	db30      	mov.n	a11, a3
  90af38:	da20      	mov.n	a10, a2
  90af3a:	5bf988        	call8	90955c <ath_buf_comp>
  90af3d:	d10f      	retw.n
	...

0090af40 <ar5416AttachRateTables>:

#endif //#ifdef MAGPIE_MERLIN // MAGPIE_MERLIN

void
ar5416AttachRateTables(struct atheros_softc *sc)
{
  90af40:	6c1004        	entry	a1, 32
    sc->hwRateTable[WIRELESS_MODE_11NG]  = &ar5416_11ngRateTable;
  90af43:	1872b7        	l32r	a8, 8e7a20 <memset+0x2884>
  90af46:	9822      	s32i.n	a8, a2, 8
  90af48:	d10f      	retw.n
	...

0090af4c <io32_rmw>:
{
  90af4c:	6c1006        	entry	a1, 48
  90af4f:	0c0200        	memw
  90af52:	9210      	s32i.n	a2, a1, 0
	val = ioread32(addr);
  90af54:	0c0200        	memw
  90af57:	8810      	l32i.n	a8, a1, 0
	return *(const volatile uint32_t *) addr;
  90af59:	0c0200        	memw
  90af5c:	8980      	l32i.n	a9, a8, 0
	val &= ~clr;
  90af5e:	c78f      	movi.n	a8, -1
  90af60:	048403        	xor	a4, a8, a4
  90af63:	094401        	and	a4, a4, a9
	iowrite32(addr, val);
  90af66:	0c0200        	memw
  90af69:	8810      	l32i.n	a8, a1, 0
	val |= set;
  90af6b:	034402        	or	a4, a4, a3
	*(volatile uint32_t *) addr = b;
  90af6e:	0c0200        	memw
  90af71:	9480      	s32i.n	a4, a8, 0
  90af73:	d10f      	retw.n
  90af75:	000000        	ill

0090af78 <__adf_net_register_drv>:
 *
 * @return a_status_t
 */
a_status_t
__adf_net_register_drv(adf_drv_info_t *drv)
{
  90af78:	6c1004        	entry	a1, 32
    wlan_pci_register_drv(drv);
  90af7b:	da20      	mov.n	a10, a2
  90af7d:	5be323        	call8	903c0c <wlan_pci_register_drv>
    return A_STATUS_OK;
}
  90af80:	c020      	movi.n	a2, 0
  90af82:	d10f      	retw.n

0090af84 <__adf_net_unregister_drv>:
 * @brief unregister the driver from the shim
 * @param[in] name
 */
void
__adf_net_unregister_drv(a_uint8_t *name)
{
  90af84:	6c1004        	entry	a1, 32
  90af87:	d10f      	retw.n
  90af89:	000000        	ill

0090af8c <ieee80211_tgt_crypto_encap>:

a_status_t
ieee80211_tgt_crypto_encap(struct ieee80211_frame *wh,
			   struct ieee80211_node_target *ni,
			   a_uint8_t keytype)
{
  90af8c:	6c1004        	entry	a1, 32
	a_uint16_t tmp;
	a_uint16_t offset = IEEE80211_WLAN_HDR_LEN;
	a_uint8_t b1, b2;
	struct ieee80211_qosframe_addr4 *wh_mesh;

	if (IEEE80211_QOS_HAS_SEQ(wh))
  90af8f:	282000        	l8ui	a8, a2, 0
  90af92:	290a8c        	movi	a9, 140
  90af95:	098801        	and	a8, a8, a9
  90af98:	290a88        	movi	a9, 136
		offset += 4;  // pad for 4 byte alignment
  90af9b:	09880c        	sub	a8, a8, a9
  90af9e:	c1a8      	movi.n	a10, 24
  90afa0:	c19c      	movi.n	a9, 28
  90afa2:	08a939        	movnez	a9, a10, a8
  90afa5:	d890      	mov.n	a8, a9

	/* set the offset to 32 if the mesh control field is present */
	wh_mesh = (struct ieee80211_qosframe_addr4 *)wh;
	if (wh_mesh->i_qos[1] & 0x01)
  90afa7:	29201f        	l8ui	a9, a2, 31
		offset = 32;
  90afaa:	c2a0      	movi.n	a10, 32
	if (wh_mesh->i_qos[1] & 0x01)
  90afac:	090940        	extui	a9, a9, 0, 1
		offset = 32;
  90afaf:	09a839        	movnez	a8, a10, a9
{
  90afb2:	040447        	extui	a4, a4, 0, 8

	iv = (a_uint8_t *) wh;
	iv = iv + offset;
  90afb5:	a822      	add.n	a2, a2, a8

	switch (keytype) {
  90afb7:	684206        	beqi	a4, 2, 90afc1 <ieee80211_tgt_crypto_encap+0x35>
  90afba:	684333        	beqi	a4, 3, 90aff1 <ieee80211_tgt_crypto_encap+0x65>
  90afbd:	60007a        	j	90b03b <ieee80211_tgt_crypto_encap+0xaf>
  90afc0:	002831        	excw
	case CRYPTO_KEY_TYPE_AES:
		ni->ni_iv16++;
  90afc3:	0db188        	excw
  90afc6:	08084f        	extui	a8, a8, 0, 16
  90afc9:	28350d        	s16i	a8, a3, 26
		if (ni->ni_iv16 == 0)
  90afcc:	cc84      	bnez.n	a8, 90afd4 <ieee80211_tgt_crypto_encap+0x48>
		{
			ni->ni_iv32++;
  90afce:	8937      	l32i.n	a9, a3, 28
  90afd0:	b199      	addi.n	a9, a9, 1
  90afd2:	9937      	s32i.n	a9, a3, 28
		}

		*iv++ = (a_uint8_t) ni->ni_iv16;
  90afd4:	282400        	s8i	a8, a2, 0
		*iv++ = (a_uint8_t) (ni->ni_iv16 >> 8);
  90afd7:	28310d        	l16ui	a8, a3, 26
		*iv++ = 0x00;
  90afda:	c040      	movi.n	a4, 0
		*iv++ = (a_uint8_t) (ni->ni_iv16 >> 8);
  90afdc:	088814        	srli	a8, a8, 8
  90afdf:	282401        	s8i	a8, a2, 1
		*iv++ |= 0x20;
  90afe2:	282003        	l8ui	a8, a2, 3
		*iv++ = 0x00;
  90afe5:	242402        	s8i	a4, a2, 2
		*iv++ |= 0x20;
  90afe8:	c240      	movi.n	a4, 32
  90afea:	048802        	or	a8, a8, a4
  90afed:	600030        	j	90b021 <ieee80211_tgt_crypto_encap+0x95>
  90aff0:	002831        	excw
		tmp = (a_uint16_t) (ni->ni_iv32 >> 16);
		*iv++ = (a_uint8_t) tmp;
		*iv = (a_uint8_t) (tmp >> 8);
		break;
	case CRYPTO_KEY_TYPE_TKIP:
		ni->ni_iv16++;
  90aff3:	0db188        	excw
  90aff6:	08084f        	extui	a8, a8, 0, 16
  90aff9:	28350d        	s16i	a8, a3, 26
		if (ni->ni_iv16 == 0)
  90affc:	cc84      	bnez.n	a8, 90b004 <ieee80211_tgt_crypto_encap+0x78>
		{
			ni->ni_iv32++;
  90affe:	8937      	l32i.n	a9, a3, 28
  90b000:	b199      	addi.n	a9, a9, 1
  90b002:	9937      	s32i.n	a9, a3, 28
		}

		b1 = (a_uint8_t) (ni->ni_iv16 >> 8);
  90b004:	088814        	srli	a8, a8, 8
		b2 = (b1 | 0x20) & 0x7f;

		*iv++ = b1;
  90b007:	282400        	s8i	a8, a2, 0
		b2 = (b1 | 0x20) & 0x7f;
  90b00a:	c290      	movi.n	a9, 32
  90b00c:	080846        	extui	a8, a8, 0, 7
  90b00f:	098802        	or	a8, a8, a9
		*iv++ = b2;
  90b012:	282401        	s8i	a8, a2, 1

		*iv++ = (a_uint8_t) ni->ni_iv16;
  90b015:	24310d        	l16ui	a4, a3, 26
		*iv++ |= 0x20;
  90b018:	282003        	l8ui	a8, a2, 3
		*iv++ = (a_uint8_t) ni->ni_iv16;
  90b01b:	242402        	s8i	a4, a2, 2
		*iv++ |= 0x20;
  90b01e:	098802        	or	a8, a8, a9
  90b021:	282403        	s8i	a8, a2, 3

		tmp = (a_uint16_t) ni->ni_iv32;
  90b024:	8837      	l32i.n	a8, a3, 28
		*iv++ = (a_uint8_t) tmp;
  90b026:	282404        	s8i	a8, a2, 4
		*iv++ = (a_uint8_t) (tmp >> 8);
  90b029:	088847        	extui	a8, a8, 8, 8
  90b02c:	282405        	s8i	a8, a2, 5

		tmp = (a_uint16_t) (ni->ni_iv32 >> 16);
  90b02f:	23310e        	l16ui	a3, a3, 28
		*iv++ = (a_uint8_t) tmp;
  90b032:	232406        	s8i	a3, a2, 6
		*iv = (a_uint8_t) (tmp >> 8);
  90b035:	038314        	srli	a3, a3, 8
  90b038:	232407        	s8i	a3, a2, 7

#undef CRYPTO_KEY_TYPE_TKIP
#undef CRYPTO_KEY_TYPE_AES
#undef CRYPTO_KEY_TYPE_WAPI
#undef IEEE80211_WLAN_HDR_LEN
}
  90b03b:	c021      	movi.n	a2, 1
  90b03d:	d10f      	retw.n
