
/home/oleksij/tmp/my/ath9k-htc-firmware-blob/k2/fw.elf:     Dateiformat elf32-xtensa-be
/home/oleksij/tmp/my/ath9k-htc-firmware-blob/k2/fw.elf
Architektur: xtensa, Flags 0x00000112:
EXEC_P, HAS_SYMS, D_PAGED
Startadresse 0x00903000

Xtensa header:

Machine     = Base
Insn tables = true
Literal tables = true

Programm-Header:
    LOAD off    0x00501000 vaddr 0x00501000 paddr 0x00501000 align 2**29
         filesz 0x00000ae0 memsz 0x00000ae0 flags r--
    LOAD off    0x0050cb40 vaddr 0x0050cb40 paddr 0x0050cb40 align 2**29
         filesz 0x00000bfc memsz 0x00000cc8 flags rw-
    LOAD off    0x00903000 vaddr 0x00903000 paddr 0x00903000 align 2**29
         filesz 0x0000803f memsz 0x0000803f flags r-x

Sektionen:
Idx Name          Größe     VMA       LMA       Datei-Off Ausr.
  0 .lit4         0001be00  004e5200  004e5200  00000000  2**0
                  ALLOC
  1 .rodata       000005a4  00501000  00501000  00501000  2**2
                  CONTENTS, ALLOC, LOAD, READONLY, DATA
  2 .literals     0000053c  005015a4  005015a4  005015a4  2**2
                  CONTENTS, ALLOC, LOAD, READONLY, DATA
  3 .dport0.bss   00000000  0050cb40  0050cb40  0090b03f  2**0
                  CONTENTS
  4 .data         00000bfc  0050cb40  0050cb40  0050cb40  2**2
                  CONTENTS, ALLOC, LOAD, DATA
  5 .bss          000000cc  0050d73c  0050d73c  0050d73c  2**2
                  ALLOC
  6 .boot         0000023e  00903000  00903000  00903000  2**2
                  CONTENTS, ALLOC, LOAD, READONLY, CODE
  7 .text         00007dff  00903240  00903240  00903240  2**2
                  CONTENTS, ALLOC, LOAD, READONLY, CODE
  8 .debug_aranges 00000348  00000000  00000000  0090b03f  2**0
                  CONTENTS, READONLY, DEBUGGING
  9 .debug_info   0005b255  00000000  00000000  0090b387  2**0
                  CONTENTS, READONLY, DEBUGGING
 10 .debug_abbrev 00006085  00000000  00000000  009665dc  2**0
                  CONTENTS, READONLY, DEBUGGING
 11 .debug_line   00012b1a  00000000  00000000  0096c661  2**0
                  CONTENTS, READONLY, DEBUGGING
 12 .debug_frame  00001d00  00000000  00000000  0097f17c  2**2
                  CONTENTS, READONLY, DEBUGGING
 13 .debug_str    00008b39  00000000  00000000  00980e7c  2**0
                  CONTENTS, READONLY, DEBUGGING
 14 .debug_loc    0000c403  00000000  00000000  009899b5  2**0
                  CONTENTS, READONLY, DEBUGGING
 15 .xt.prop      00004e54  00000000  00000000  00995db8  2**0
                  CONTENTS, READONLY
 16 .debug_ranges 00000c20  00000000  00000000  0099ac0c  2**0
                  CONTENTS, READONLY, DEBUGGING
 17 .comment      0000006d  00000000  00000000  0099b82c  2**0
                  CONTENTS, READONLY
 18 .xtensa.info  00000038  00000000  00000000  0099b899  2**0
                  CONTENTS, READONLY
SYMBOL TABLE:
004e5200 l    d  .lit4	00000000 .lit4
00501000 l    d  .rodata	00000000 .rodata
005015a4 l    d  .literals	00000000 .literals
0050cb40 l    d  .dport0.bss	00000000 .dport0.bss
0050cb40 l    d  .data	00000000 .data
0050d73c l    d  .bss	00000000 .bss
00903000 l    d  .boot	00000000 .boot
00903240 l    d  .text	00000000 .text
00000000 l    d  .debug_aranges	00000000 .debug_aranges
00000000 l    d  .debug_info	00000000 .debug_info
00000000 l    d  .debug_abbrev	00000000 .debug_abbrev
00000000 l    d  .debug_line	00000000 .debug_line
00000000 l    d  .debug_frame	00000000 .debug_frame
00000000 l    d  .debug_str	00000000 .debug_str
00000000 l    d  .debug_loc	00000000 .debug_loc
00000000 l    d  .xt.prop	00000000 .xt.prop
00000000 l    d  .debug_ranges	00000000 .debug_ranges
00000000 l    d  .comment	00000000 .comment
00000000 l    d  .xtensa.info	00000000 .xtensa.info
00000000 l    df *ABS*	00000000 magpie.c
00501000 l     O .rodata	0000000d __FUNCTION__$3728
00000000 l    df *ABS*	00000000 usb_api_main_patch.c
0050cb42 l     O .data	00000002 cmd_is_new$5222
0050d764 l     O .bss	00000004 evntbuf$5220
0050d760 l     O .bss	00000004 regaddr$5221
0050d75c l     O .bss	00000002 buf_len$5219
0050cb40 l     O .data	00000002 cmd_is_new$5241
0050d758 l     O .bss	00000004 buf$5239
0050d754 l     O .bss	00000002 cmd_len$5238
0050100d l     O .rodata	00000012 __func__$5242
0050d750 l     O .bss	00000004 regaddr$5237
00000000 l    df *ABS*	00000000 ar5416_hw.c
00501020 l     O .rodata	000000d0 ar5416hal_10
00000000 l    df *ABS*	00000000 if_ath.c
0090640c l     F .text	00000014 __adf_os_mem_alloc
00906420 l     F .text	00000013 __adf_os_mem_copy
00906434 l     F .text	00000013 __adf_os_mem_set
00906448 l     F .text	00000005 tgt_HTCRecv_uapsdhandler
00906450 l     F .text	00000006 dispatch_magpie_sys_cmds
00906458 l     F .text	00000005 htc_setup_comp
00906460 l     F .text	0000005f tgt_ServiceConnect
00906ab0 l     F .text	0000010c tgt_HTCSendCompleteHandler
009064c0 l     F .text	0000002e tgt_reg_service
009064f0 l     F .text	0000008e tgt_HTCRecvMessageHandler
00906580 l     F .text	00000010 tgt_HTCRecv_mgmthandler
00906590 l     F .text	00000098 ath_descdma_cleanup
00906628 l     F .text	00000014 __adf_os_init_bh$isra$5
0090663c l     F .text	00000010 __adf_os_sched_bh$isra$6
0090664c l     F .text	000000b6 ath_tgt_rx_tasklet
0050d77d l     O .bss	00000001 flg$7419
0050d77c l     O .bss	00000001 reset_pll$7413
00906704 l     F .text	0000008e ath_hal_reg_write_filter$isra$13
00906794 l     F .text	0000005c ath_reg_read_filter
009067f0 l     F .text	0000003b tgt_HTCRecv_cabhandler
0090682c l     F .text	0000004c ath_desc_free
00906878 l     F .text	0000009f ath_descdma_setup$isra$21$constprop$26
00906918 l     F .text	00000198 ath_rxdesc_init
0050cec4 l     O .data	00000004 ath_numrxbufs
0090723c l     F .text	00000012 ath_fatal_tasklet
00907250 l     F .text	00000012 ath_bmiss_tasklet
009072ac l     F .text	0000004e ath_hal_reg_rmw_tgt
009072fc l     F .text	0000008a ath_rc_mask_tgt
00907388 l     F .text	00000023 ath_rx_stats_tgt
009073ac l     F .text	00000042 ath_tx_stats_tgt
009073f0 l     F .text	00000032 ath_int_stats_tgt
00907424 l     F .text	0000006f ath_node_update_tgt
00907494 l     F .text	0000002a ath_detach_tgt
00501114 l     O .rodata	00000014 __FUNCTION__$7337
009074c0 l     F .text	000000ab ath_enable_aggr_tgt
0090756c l     F .text	0000002c ath_ic_update_tgt
00907598 l     F .text	0000005a handle_rc_rate_update_cmd
009075f4 l     F .text	00000052 handle_rc_state_change_cmd
00907648 l     F .text	0000002e ath_hal_reg_write_tgt
00907678 l     F .text	00000042 ath_hal_reg_read_tgt
009076bc l     F .text	0000005c ath_vap_create_tgt
00907718 l     F .text	00000052 ath_vap_delete_tgt
0090776c l     F .text	00000030 ath_node_cleanup_tgt
0090779c l     F .text	000000af ath_node_create_tgt
0090784c l     F .text	0000006a ath_setcurmode_tgt
009078b8 l     F .text	00000050 ath_flushrecv_tgt
00907908 l     F .text	0000003a ath_stoprecv_tgt
00907944 l     F .text	00000086 ath_startrecv_tgt
009079cc l     F .text	000000c6 ath_draintxq_tgt
00907a94 l     F .text	0000002e ath_tx_draintxq_tgt
00907ac4 l     F .text	00000023 ath_aborttx_dma_tgt
00907ae8 l     F .text	00000026 ath_stop_tx_dma_tgt
00907b10 l     F .text	00000040 ath_aborttxq_tgt
00907b50 l     F .text	0000004e ath_init_tgt
00907ba0 l     F .text	00000054 ath_enable_intr_tgt
00907bf4 l     F .text	00000026 ath_disable_intr_tgt
00907c1c l     F .text	0000001e ath_get_tgt_version
00907c3c l     F .text	00000013 handle_echo_command
00907c68 l     F .text	000001a2 tgt_HTCRecv_beaconhandler
0050cdc0 l     O .data	00000100 Magpie_Sys_DispatchEntries
0050cec0 l     O .data	00000004 ath_numrxdescs
00000000 l    df *ABS*	00000000 ratectrl_11n_ln.c
0090829c l     F .text	00000058 rcIsValidPhyRate
00501128 l     O .rodata	00000028 nRetry2PerLookup$7046
009082f4 l     F .text	000001fa rcUpdate_ht$constprop$6
009084f0 l     F .text	0000007a rcRateSetseries$constprop$11
0090856c l     F .text	000003bc rcSibUpdate_ht$isra$3$constprop$13
00908928 l     F .text	00000062 rcRateGetIndex$constprop$9
00000000 l    df *ABS*	00000000 if_owl.c
00908ec0 l     F .text	00000013 __adf_os_mem_copy
00908ed4 l     F .text	0000004d ieee80211_anyhdrsize
00908f24 l     F .text	0000004c owl_tgt_tid_init
00908f70 l     F .text	00000076 ath_tgt_txq_add_ucast
00908fe8 l     F .text	0000005f ath_tx_update_baw
00909048 l     F .text	00000060 ath_update_stats$isra$1
009090a8 l     F .text	00000024 ath_tgt_tx_enqueue$isra$3
009090cc l     F .text	00000076 ath_update_aggr_stats$isra$5
00909144 l     F .text	00000014 ath_dma_unmap$isra$6
00909158 l     F .text	00000026 ath_tgt_skb_free$isra$7
00909180 l     F .text	0000009e ath_filltxdesc$isra$9
00909220 l     F .text	0000004e ath_tx_tgt_setds
00909270 l     F .text	00000013 __adf_os_mem_set$constprop$19
00501150 l     O .rodata	00000040 bits_per_symbol
00909284 l     F .text	000001f2 ath_buf_set_rate
00909478 l     F .text	00000016 ath_dma_map$isra$8
00909490 l     F .text	000000c9 ath_buf_toggle
0090955c l     F .text	0000003c ath_buf_comp
00909598 l     F .text	00000083 ath_tx_freebuf
0090ae38 l     F .text	00000107 ath_bar_tx_comp
0090961c l     F .text	00000166 ath_bar_tx
00909984 l     F .text	00000010 ATH_SKB2_WH
00909994 l     F .text	0000002f ath_tx_set_retry$isra$12
009099c4 l     F .text	000000e7 ath_tx_retry_subframe$isra$14
00909aac l     F .text	000000b7 ath_tx_comp_aggr_error
0090a93c l     F .text	0000005a ath_tgt_tx_comp_normal
0090a5a4 l     F .text	000001fe ath_tgt_txq_schedule
0090a8a8 l     F .text	00000046 ath_aggr_resume_tid
0090a8f0 l     F .text	0000004b owl_tgt_tid_cleanup
00000000 l    df *ABS*	00000000 app_start.c
0090af4c l     F .text	00000029 io32_rmw
00000000 l    df *ABS*	00000000 ah_osdep.c
00000000 l    df *ABS*	00000000 wlan_pci.c
00000000 l    df *ABS*	00000000 usb_api_k2_patch.c
009046a4 l     F .text	0000002b io8_rmw
009046d0 l     F .text	00000021 io32_rmw$constprop$0
00000000 l    df *ABS*	00000000 k2_fw_cmnos_printf.c
00904ad0 l     F .text	00000051 _cvt
00904b24 l     F .text	0000002a cmnos_write_char
00000000 l    df *ABS*	00000000 if_ath_pci.c
00906338 l     F .text	00000005 ath_pci_suspend
00906340 l     F .text	00000005 ath_pci_resume
00906348 l     F .text	00000010 ath_pci_remove
0050cd80 l     O .data	00000020 ath_drv_info
00906368 l     F .text	0000007e ath_pci_probe
0050cda0 l     O .data	00000020 ath_pci_id_table
00000000 l    df *ABS*	00000000 init.c
0050d744 l     O .bss	00000004 loop_high
0050d748 l     O .bss	00000004 loop_low
00000000 l    df *ABS*	00000000 adf_nbuf.c
00000000 l    df *ABS*	00000000 buf_pool_static.c
00000000 l    df *ABS*	00000000 htc.c
00000000 l    df *ABS*	00000000 wmi_svc.c
00904488 l     F .text	0000000b WMIServiceConnect
00904494 l     F .text	00000007 _WMI_GetPendingEventsCount
0090449c l     F .text	00000007 _WMI_GetControlEp
009044a4 l     F .text	00000014 _WMI_RegisterDispatchTable
009044b8 l     F .text	00000005 _WMI_Shutdown
009044c0 l     F .text	00000086 WMIRecvMessageHandler
00904548 l     F .text	00000024 _WMI_SendCompleteHandler
0090456c l     F .text	00000030 _WMI_AllocEvent
0090459c l     F .text	00000036 _WMI_SendEvent
009045d4 l     F .text	0000006f _WMI_Init
00000000 l    df *ABS*	00000000 k2_HIF_usb_patch.c
00000000 l    df *ABS*	00000000 k2_cmnos_clock_patch.c
0050d778 l     O .bss	00000004 last_tick$3640
00000000 l    df *ABS*	00000000 ah.c
00000000 l    df *ABS*	00000000 ar5416_phy.c
00000000 l    df *ABS*	00000000 adf_net.c
00000000 l    df *ABS*	00000000 adf_os_irq_pvt.c
00000000 l    df *ABS*	00000000 adf_os_dma.c
00000000 l    df *ABS*	00000000 ar5416Phy.c
00000000 l    df *ABS*	00000000 ieee80211_output.c
005009e4 g       *ABS*	00000000 u16TxRxCounter
00903240 g     F .text	00000035 init_mem
00908e40 g     F .text	00000036 ath_rate_tx_complete
004e5200 g       *ABS*	00000000 _rom_literal_start
009034ec g     F .text	0000002b __adf_nbuf_dmamap_info
00903af4 g     F .text	00000079 bGet_descriptor_patch
00909b64 g     F .text	0000002d ath_tgt_tid_drain
009035dc g     F .text	00000011 __adf_nbuf_last
0050d784 g     O .bss	00000004 save_cmnos_printf
005009f8 g       *ABS*	00000000 u8UsbInterfaceValue
0090341c g     F .text	0000000c __adf_nbuf_copy
0050d780 g     O .bss	00000004 _assfail_ori
009034cc g     F .text	00000009 __adf_nbuf_map
005015a4 g       *ABS*	00000000 _bss_table_end
0090af78 g     F .text	0000000c __adf_net_register_drv
0050d768 g     O .bss	00000004 g_wlan_intr
009034b0 g     F .text	0000001c __adf_nbuf_dmamap_create
009041a8 g     F .text	00000087 HTCControlSvcProcessMsg
0050cec8 g     O .data	00000874 ar5416_11ngRateTable
00903bfc g     F .text	0000000f wlan_pci_module_init
00500000 g       *ABS*	00000000 _indir_tbl
00904f94 g     F .text	00000010 ath_hal_attach_tgt
00903798 g     F .text	00000023 buf_pool_module_install
00501000 g       *ABS*	00000000 _lit4_end
0090367c g     F .text	00000007 __adf_nbuf_is_cloned
00903924 g     F .text	000000ff usb_reg_out_patch
00903518 g     F .text	00000005 __adf_nbuf_set_rx_cksum
00906094 g     F .text	000000bc ar5416AbortTxDma
0090b03f g       *ABS*	00000000 _text_end
0090a998 g     F .text	000003e8 ath_tgt_tx_comp_aggr
00904690 g     F .text	00000013 _HIFusb_isr_handler_patch
00908de0 g     F .text	0000002e ath_rate_attach
00905fb0 g     F .text	00000044 ar5416Set11nBurstDuration_20
00903a68 g     F .text	00000022 vUsbFIFO_EPxCfg_FS_patch
00903528 g     F .text	00000067 __adf_nbuf_create_frm_frag
00903800 g     F .text	00000022 cold_reboot
00501000 g       *ABS*	00000000 _lit4_start
00501ae0 g       *ABS*	00000000 _dram0_literal_end
00904230 g     F .text	00000040 AdjustCreditThreshold
00501ae0 g       *ABS*	00000000 _dram0_literal_start
0090504c g     F .text	00000029 ath_hal_wait
0090b03f g       .text	00000000 _etext
00905ff4 g     F .text	0000006f ar5416Set11nVirtualMoreFrag_20
008e408c g       *ABS*	00000000 vbuf_module_install
0050d740 g     O .bss	00000004 idle_cnt
00909784 g     F .text	00000043 owl_tgt_node_init
00903824 g     F .text	000000ff usb_status_in_patch
00903c0c g     F .text	0000000a wlan_pci_register_drv
009033c4 g     F .text	0000002a __adf_nbuf_push_head
009037bc g     F .text	00000022 _fw_usbfifo_recv_command
0090af40 g     F .text	0000000a ar5416AttachRateTables
00903d34 g     F .text	000000bf _HTC_Init
009033ac g     F .text	00000006 __adf_nbuf_realloc_headroom
00905de0 g     F .text	00000089 ar5416Set11nAggrFirst_20
009034e4 g     F .text	00000005 __adf_nbuf_dmamap_destroy
00909e78 g     F .text	000003cf ath_tgt_send_mgt
00906328 g     F .text	00000010 ar5416GetRateTable
0090369c g     F .text	0000000d __adf_nbuf_queue_init
008e4eb8 g       *ABS*	00000000 memcpy
00908e78 g     F .text	00000013 ath_rate_newassoc
005015a4 g       *ABS*	00000000 _rodata_end
00903520 g     F .text	00000007 __adf_nbuf_get_vlan_info
00908bd0 g     F .text	00000172 rcUpdate_11n
00904fdc g     F .text	0000006f ath_hal_computetxtime
00500a00 g       *ABS*	00000000 u8UsbDeviceDescriptor
00908d44 g     F .text	0000009a ath_tx_status_update_rate
009036b4 g     F .text	00000007 __adf_nbuf_queue_first
0050d788 g     O .bss	00000004 htc_handle
00909984 g     F .text	00000010 ATH_SKB_2_WH
0090af8c g     F .text	000000b3 ieee80211_tgt_crypto_encap
008e4da0 g       *ABS*	00000000 __udivsi3
00903e84 g     F .text	00000057 _HTC_Ready
00903b70 g     F .text	00000010 ath_hal_getuptime
00903618 g     F .text	00000024 __adf_nbuf_trim_tail
0050d740 g       *ABS*	00000000 _bss_start
0050cb40 g       *ABS*	00000000 _dram0_data_end
00903f44 g     F .text	00000066 ReturnBuffers
00909df0 g     F .text	00000088 ath_tgt_tx_send_normal
005009fa g       *ABS*	00000000 u8UsbInterfaceAlternateSetting
0050d73c g       *ABS*	00000000 __XT_EXCEPTION_DESCS__
0090a2c8 g     F .text	00000092 ath_tgt_handle_aggr
00903240 g       *ABS*	00000000 _text_start
009037e0 g     F .text	00000020 _fw_usbfifo_init
0090a7a4 g     F .text	00000096 owltgt_tx_processq
009033b4 g     F .text	00000006 __adf_nbuf_realloc_tailroom
0090a248 g     F .text	00000033 ath_tgt_handle_normal
00905444 g     F .text	00000015 ar5416StartTxDma
00906258 g     F .text	00000055 ar5416SetRxFilter
00903bdc g     F .text	00000005 ath_hal_free
00904270 g     F .text	0000014e _HTC_SendMsg
009062b0 g     F .text	00000077 ar5416Attach
00903674 g     F .text	00000005 __adf_nbuf_cat
00905430 g     F .text	00000014 ar5416SetTxDP
00908e8c g     F .text	00000013 ath_rate_node_update
00903648 g     F .text	00000019 __adf_nbuf_tailroom
0090366c g     F .text	00000007 __adf_nbuf_clone
008e3ca4 g       *ABS*	00000000 mUsbFIFOConfig
00904a60 g     F .text	0000000a cmnos_clock_init_patch
008e2b58 g       *ABS*	00000000 _HIFusb_isr_handler
009036f4 g     F .text	00000057 _buf_pool_static_create_pool
009036ac g     F .text	00000007 __adf_nbuf_queue_len
00501000 g       *ABS*	00000000 _dport0_literal_start
009063e8 g     F .text	0000000b exit_ath_pci
0050d808 g       *ABS*	00000000 _bss_end
009036ec g     F .text	00000005 _buf_pool_static_shutdown
009053cc g     F .text	00000061 ar5416UpdateTxTrigLevel
0050d78c g     O .bss	0000002c g_poolCtx
0090345c g     F .text	0000000c __adf_nbuf_get_priv
0090412c g     F .text	0000007b HTCProcessConfigPipeMsg
0090374c g     F .text	00000024 _buf_pool_static_alloc_buf
00906064 g     F .text	0000000a ar5416Detach
00905150 g     F .text	0000000f ar5416EnableReceive
005009cc g       *ABS*	00000000 usbFifoConf
005009e0 g       *ABS*	00000000 pu8DescriptorEX
00904a6c g     F .text	0000000a cmnos_refclk_speed_get_patch
00905a78 g     F .text	00000108 ar5416Set11nTxDesc_20
0050cb40 g       *ABS*	00000000 _dram0_data_start
00906358 g     F .text	0000000d init_ath_pci
008e2ec4 g       *ABS*	00000000 bGet_descriptor
0090545c g     F .text	0000002e ar5416NumTxPending
00907e0c g     F .text	00000438 ath_tgt_attach
00903cd8 g     F .text	00000013 _HTC_GetReservedHeadroom
00903328 g     F .text	0000003c Magpie_init
0050d73c g       *ABS*	00000000 __XT_EXCEPTION_DESCS_END__
00903590 g     F .text	0000004c __adf_nbuf_split_to_frag
005009f0 g       *ABS*	00000000 eUsbCxCommand
00904644 g     F .text	00000037 WMI_service_module_install
00903770 g     F .text	00000010 _buf_pool_static_alloc_buf_align
008e4df0 g       *ABS*	00000000 __umodsi3
00501000 g       *ABS*	00000000 _dport0_rodata_start
0050cb40 g       *ABS*	00000000 _dport0_data_start
008e4cac g       *ABS*	00000000 xthal_get_ccount
009033bc g     F .text	00000006 __adf_nbuf_expand
00905090 g     F .text	00000085 ar5416SetInterrupts
00905140 g     F .text	0000000d ar5416SetRxDP
009097c8 g     F .text	00000010 ath_tx_status_clear
0050d76c g     O .bss	00000004 g_wlan_drv_handle
008e2bd4 g       *ABS*	00000000 hif_module_install
00903cec g     F .text	0000002e HTCSendDoneHandler
009046f4 g     F .text	000001c4 _fw_usb_suspend_reboot
008e3cec g       *ABS*	00000000 mUsbEPMxPtSzLow
00905118 g     F .text	00000026 ar5416GetTsf64
0050d774 g     O .bss	00000004 ref_clk
00903edc g     F .text	00000066 HTCCheckAndSendCreditReport
005009c0 g       *ABS*	00000000 ControlCmd
0050cb40 g       *ABS*	00000000 _data_start
005009f6 g       *ABS*	00000000 u8UsbConfigValue
00903bb8 g     F .text	00000022 ath_hal_malloc
00906070 g     F .text	00000021 ar5416StopDmaReceive
00903df4 g     F .text	00000005 _HTC_PauseRecv
0090af84 g     F .text	00000005 __adf_net_unregister_drv
0090826c g     F .text	0000002e __adf_os_dmamem_alloc
008e3c68 g       *ABS*	00000000 mUsbEPMap
009033f0 g     F .text	0000002b __adf_nbuf_pull_head
009063f4 g     F .text	0000000c __adf_os_setup_intr
0050d74c g     O .bss	00000004 m_origUsbfifoRecvCmd
00904a94 g     F .text	0000002b cmnos_tick_patch
00903468 g     F .text	0000001e __adf_nbuf_queue_add
00907264 g     F .text	00000047 wmi_cmd_rsp
00903428 g     F .text	0000000c __adf_nbuf_unshare
0050d7b8 g     O .bss	00000012 UsbDeviceDescriptorPatch
00903780 g     F .text	00000018 _buf_pool_static_free_buf
009036c4 g     F .text	00000010 __adf_nbuf_is_queue_empty
00905078 g     F .text	00000017 ar5416IsInterruptPending
00903be4 g     F .text	00000015 ath_hal_memcpy
00903000 g     F .boot	0000023e app_start
0090548c g     F .text	000001e6 ar5416SetupTxDesc_20
0050088c g       *ABS*	00000000 cticks
008e413c g       *ABS*	00000000 vdesc_module_install
009097d8 g     F .text	000000c3 ath_tx_status_update
0050d73c g       *ABS*	00000000 _data_end
0090b03f g       *ABS*	00000000 _iram0_text_end
0090a35c g     F .text	00000245 ath_tgt_tx_form_aggr
00501592 g       *ABS*	00000000 __XT_EXCEPTION_TABLE__
0090a27c g     F .text	0000004a ath_tx_addto_baw
00903488 g     F .text	00000026 __adf_nbuf_queue_remove
00908244 g     F .text	00000028 ath_detach
00903278 g     F .text	0000004f wlan_task
005015a4 g       *ABS*	00000000 _literals_start
009036d4 g     F .text	00000018 _buf_pool_static_init
00903664 g     F .text	00000008 __adf_nbuf_len
00906150 g     F .text	0000003d ar5416StopTxDma
00903ca8 g     F .text	00000016 wlan_pci_isr
008e519c g       *ABS*	00000000 memset
00501ae0 g       *ABS*	00000000 _literals_end
00903cc0 g     F .text	00000005 _HTC_Shutdown
00904fa4 g     F .text	00000037 ath_hal_getcapability
00903434 g     F .text	00000027 __adf_nbuf_frag_info
00501000 g       *ABS*	00000000 _dport0_rodata_end
00904a78 g     F .text	0000001c cmnos_delay_us_patch
005009ec g       *ABS*	00000000 eUsbCxFinishAction
00903e48 g     F .text	00000016 HTCFreeMsgBuffer
00905e6c g     F .text	00000083 ar5416Set11nAggrMiddle_20
00903684 g     F .text	00000015 __adf_nbuf_peek_header
008e4cec g       *ABS*	00000000 __divsi3
009051f0 g     F .text	000001dc ar5416ProcRxDescFast_20
00501000 g       *ABS*	00000000 _dram0_rodata_start
00501000 g       *ABS*	00000000 _rom_literal_end
00906bbc g     F .text	0000005b wmi_event
00903ca0 g     F .text	00000007 wlan_pci_config_read
00906c18 g     F .text	00000624 ath_intr
00903fac g     F .text	00000010 _HTC_ReturnBuffers
008e1548 g       *ABS*	00000000 athos_indirection_table_install
0090a83c g     F .text	0000006c owl_tgt_tx_tasklet
008e3cc4 g       *ABS*	00000000 mUsbEPMxPtSzHigh
00903ba8 g     F .text	00000010 ath_hal_delay
005009e8 g       *ABS*	00000000 u8ConfigDescriptorEX
00903364 g     F .text	0000003e __adf_nbuf_alloc
009036bc g     F .text	00000007 __adf_nbuf_queue_next
005009f4 g       *ABS*	00000000 UsbChirpFinish
009043c0 g     F .text	000000be HTCMsgRecvHandler
0090989c g     F .text	000000a0 ath_tx_status_update_aggr
009033a4 g     F .text	00000006 __adf_nbuf_free
008e3c84 g       *ABS*	00000000 mUsbFIFOMap
009032c8 g     F .text	00000005 htc_setup_comp
00501594 g       *ABS*	00000000 _bss_table_start
0050cb44 g     O .data	00000238 ar5416_11ng_table
009049d8 g     F .text	00000086 _fw_usb_reset_fifo
009034d8 g     F .text	00000009 __adf_nbuf_unmap
0090363c g     F .text	0000000a __adf_nbuf_headroom
0090ad80 g     F .text	000000b6 ath_tgt_tx_cleanup
008e328c g       *ABS*	00000000 bStandardCommand
008e2f7c g       *ABS*	00000000 bSet_configuration
00903c18 g     F .text	00000080 wlan_pci_probe
00903e04 g     F .text	00000041 htc_module_install
0050cb40 g       *ABS*	00000000 _dport0_data_end
00904ac0 g     F .text	0000000d cmnos_milliseconds_patch
00501000 g       *ABS*	00000000 _rodata_start
00907c50 g     F .text	00000018 ath_get_minrateidx
0050d808 g       .bss	00000000 _end
0090467c g     F .text	00000011 _HIFusb_get_max_msg_len_patch
0090993c g     F .text	00000046 ath_tx_status_send
0090b03f g       *ABS*	00000000 _iram0_text_start
00905ef0 g     F .text	0000007d ar5416Set11nAggrLast_20
00904008 g     F .text	00000043 HTCControlSvcProcessSendComplete
00903e60 g     F .text	00000021 HTCAllocMsgBuffer
0050cd7c g     O .data	00000004 g_pci_init_func
00903cc8 g     F .text	0000000d _HTC_RegisterService
00903b80 g     F .text	00000026 _ath_hal_attach_tgt
0090404c g     F .text	000000e0 HTCProcessConnectMsg
00905f70 g     F .text	0000003e ar5416Clr11nAggr_20
0090898c g     F .text	00000242 rcRateFind_11n
009035f0 g     F .text	00000026 __adf_nbuf_put_tail
00908e10 g     F .text	0000002f ath_rate_findrate
0050d770 g     O .bss	00000004 g_wlan_drv
00905674 g     F .text	00000136 ar5416FillTxDesc_20
00903d1c g     F .text	00000017 HTC_AssembleBuffers
0050d808 g       *ABS*	00000000 _fw_image_end
00903dfc g     F .text	00000005 _HTC_ResumeRecv
00909b94 g     F .text	0000025a ath_tgt_tx_prepare
00903240 g       .text	00000000 _stext
00903a8c g     F .text	00000023 bSet_configuration_patch
00906400 g     F .text	0000000c __adf_os_free_intr
009057ac g     F .text	00000021 ar5416FillKeyTxDesc_20
009032d0 g     F .text	00000057 _wmi_cmd_rsp
00903c98 g     F .text	00000007 wlan_pci_config_write
00903fbc g     F .text	0000004a _HTC_ReturnBuffersList
00904b50 g     F .text	00000444 fw_cmnos_printf
00905178 g     F .text	00000077 ar5416SetupRxDesc_20
008e3d10 g       *ABS*	00000000 mUsbEPinHighBandSet
00908ea0 g     F .text	0000001e ath_rate_newstate
0050cb40 g       *ABS*	00000000 _dport0_bss_start
00501000 g       *ABS*	00000000 _dram0_rodata_end
009057d0 g     F .text	000002a8 ar5416ProcTxDesc_20
00904480 g     F .text	00000005 RedistributeCredit
00903a24 g     F .text	00000042 vUSBFIFO_EP6Cfg_FS_patch
0050cb40 g       *ABS*	00000000 _dport0_bss_end
00903ab0 g     F .text	00000044 bStandardCommand_patch
0050d7ca g     O .bss	0000003c ConfigDescriptorPatch
00906190 g     F .text	000000c7 ar5416GetPendingInterrupts
00501000 g       *ABS*	00000000 _dport0_literal_end
00905b80 g     F .text	00000260 ar5416Set11nRateScenario_20
00905160 g     F .text	00000017 ar5416StopPcuReceive
009048b8 g     F .text	0000011e _fw_usb_fw_task



Disassembly of section .boot:

00903000 <app_start>:

extern BOOLEAN bJumptoFlash;
extern BOOLEAN bEepromExist;

void __section(boot) __noreturn __visible app_start(void)
{
  903000:	6c1004        	entry	a1, 32
#if defined(PROJECT_MAGPIE)
	T_EEP_RET retEEP;
#endif

	/* Zero BSS segment & dynamic memory section. */
	init_mem();
  903003:	58008f        	call8	903240 <_text_start>

#if defined(PROJECT_MAGPIE)
	fatal_exception_func();
#endif

	if( IS_FLASHBOOT() ) {
  903006:	12716b        	l32r	a2, 8df5b4 <_bss_end+0x3d1dac>
  903009:	14716c        	l32r	a4, 8df5bc <_bss_end+0x3d1db4>
  90300c:	0c0200        	memw
  90300f:	8320      	l32i.n	a3, a2, 0
  903011:	12716e        	l32r	a2, 8df5cc <_bss_end+0x3d1dc4>
  903014:	03035f        	extui	a3, a3, 16, 16
  903017:	74393d        	bne	a3, a4, 903058 <app_start+0x58>
		athos_indirection_table_install();
  90301a:	5b794b        	call8	8e1548 <athos_indirection_table_install>
		DBG_MODULE_INSTALL();
		A_CLOCK_INIT(SYSTEM_CLK);
  90301d:	1a716d        	l32r	a10, 8df5d4 <_bss_end+0x3d1dcc>
  903020:	232237        	l32i	a3, a2, 220
  903023:	0b3000        	callx8	a3
		A_UART_INIT();
  903026:	2a2213        	l32i	a10, a2, 76
  903029:	0ba000        	callx8	a10
		A_PRINTF_INIT();
  90302c:	232211        	l32i	a3, a2, 68
  90302f:	0b3000        	callx8	a3
		A_DBG_INIT();
		A_EEP_INIT();
  903032:	23225f        	l32i	a3, a2, 0x17c
  903035:	0b3000        	callx8	a3
		A_TASKLET_INIT();
  903038:	232269        	l32i	a3, a2, 0x1a4
  90303b:	0b3000        	callx8	a3
		_indir_tbl.cmnos.timer._timer_init();
  90303e:	232241        	l32i	a3, a2, 0x104
  903041:	0b3000        	callx8	a3
#if defined(PROJECT_K2)
		/*
		 * WAR: these variable is not initialized when boot from flash
		 *      either re-enumeration or config them to default value = 0 would fix the issue
		 */
		u8UsbInterfaceAlternateSetting = u8UsbConfigValue = u8UsbInterfaceValue = 0;
  903044:	14716f        	l32r	a4, 8df600 <_bss_end+0x3d1df8>
  903047:	c030      	movi.n	a3, 0
  903049:	234500        	s16i	a3, a4, 0
  90304c:	147170        	l32r	a4, 8df60c <_bss_end+0x3d1e04>
  90304f:	234500        	s16i	a3, a4, 0
  903052:	147171        	l32r	a4, 8df618 <_bss_end+0x3d1e10>
  903055:	234500        	s16i	a3, a4, 0
	} else {
		bEepromExist = FALSE;
	}
#endif

	hostif = A_IS_HOST_PRESENT();
  903058:	8a2e      	l32i.n	a10, a2, 56
  90305a:	0ba000        	callx8	a10
  90305d:	d5a0      	mov.n	a5, a10
	return *(const volatile uint16_t *) addr;
}

static inline uint32_t ioread32(const volatile uint32_t addr)
{
	return *(const volatile uint32_t *) addr;
  90305f:	137172        	l32r	a3, 8df628 <_bss_end+0x3d1e20>
#elif defined(PROJECT_K2)
	rst_status = ioread32(MAGPIE_REG_RST_STATUS_ADDR);
#endif /* #if defined(PROJECT_MAGPIE) */


	A_PRINTF(" A_WDT_INIT()\n\r");
  903062:	242212        	l32i	a4, a2, 72
  903065:	1a7173        	l32r	a10, 8df634 <_bss_end+0x3d1e2c>
  903068:	0c0200        	memw
  90306b:	8330      	l32i.n	a3, a3, 0
  90306d:	0b4000        	callx8	a4

#if defined(PROJECT_K2)
	save_cmnos_printf = fw_cmnos_printf;
  903070:	167174        	l32r	a6, 8df640 <_bss_end+0x3d1e38>
  903073:	147175        	l32r	a4, 8df648 <_bss_end+0x3d1e40>
  903076:	246600        	s32i	a4, a6, 0
#endif

	if( hostif == HIF_USB ) {
  903079:	655014        	bnez	a5, 903091 <app_start+0x91>
#if defined(PROJECT_K2)
#if MOVE_PRINT_TO_RAM
		save_cmnos_printf = _indir_tbl.cmnos.printf._printf;
  90307c:	272212        	l32i	a7, a2, 72
		_indir_tbl.cmnos.printf._printf = fw_cmnos_printf;
  90307f:	242612        	s32i	a4, a2, 72
#endif
		_indir_tbl.cmnos.usb._usb_fw_task = _fw_usb_fw_task;
  903082:	147176        	l32r	a4, 8df65c <_bss_end+0x3d1e54>
		save_cmnos_printf = _indir_tbl.cmnos.printf._printf;
  903085:	276600        	s32i	a7, a6, 0
		_indir_tbl.cmnos.usb._usb_fw_task = _fw_usb_fw_task;
  903088:	24261d        	s32i	a4, a2, 116
		_indir_tbl.cmnos.usb._usb_reset_fifo = _fw_usb_reset_fifo;
  90308b:	147177        	l32r	a4, 8df668 <_bss_end+0x3d1e60>
  90308e:	242629        	s32i	a4, a2, 164
#endif
	}

	if( rst_status == WDT_MAGIC_PATTERN ) {
  903091:	147178        	l32r	a4, 8df674 <_bss_end+0x3d1e6c>
  903094:	74391c        	bne	a3, a4, 9030b4 <app_start+0xb4>
		A_PRINTF(" ==>WDT reset<==\n");
  903097:	232212        	l32i	a3, a2, 72
  90309a:	1a7179        	l32r	a10, 8df680 <_bss_end+0x3d1e78>
  90309d:	0b3000        	callx8	a3
#if defined(PROJECT_MAGPIE)
		reset_EP4_FIFO();
#endif
		*((volatile uint32_t*)WATCH_DOG_RESET_COUNTER_ADDR)+=1;
  9030a0:	14717a        	l32r	a4, 8df688 <_bss_end+0x3d1e80>
  9030a3:	0c0200        	memw
  9030a6:	8340      	l32i.n	a3, a4, 0
  9030a8:	b133      	addi.n	a3, a3, 1
  9030aa:	0c0200        	memw
  9030ad:	9340      	s32i.n	a3, a4, 0
  9030af:	60001a        	j	9030cd <app_start+0xcd>
  9030b2:	000014        	srli	a0, a0, 0
	} else if (rst_status == SUS_MAGIC_PATTERN) {
  9030b5:	717b74        	bgeu	a7, a1, 90312d <app_start+0x12d>
  9030b8:	390923        	excw
		A_PRINTF(" ==>warm start<==\n");
  9030bb:	22121a        	l32i	a2, a1, 104
  9030be:	717c60        	bnall	a7, a1, 903122 <app_start+0x122>
  9030c1:	000600        	rsil	a0, 0
	} else
		A_PRINTF(" ==>cold start<==\n");
  9030c4:	232212        	l32i	a3, a2, 72
  9030c7:	1a717d        	l32r	a10, 8df6bc <_bss_end+0x3d1eb4>
  9030ca:	0b3000        	callx8	a3
	*(volatile uint16_t *) addr = b;
}

static inline void iowrite32(volatile uint32_t addr, const uint32_t b)
{
	*(volatile uint32_t *) addr = b;
  9030cd:	147178        	l32r	a4, 8df6b0 <_bss_end+0x3d1ea8>
  9030d0:	137172        	l32r	a3, 8df698 <_bss_end+0x3d1e90>
	SFLASH_MODULE_INSTALL();
	A_SFLASH_INIT();
#endif
#endif

	HIF_MODULE_INSTALL();
  9030d3:	1a717e        	l32r	a10, 8df6cc <_bss_end+0x3d1ec4>
  9030d6:	0c0200        	memw
  9030d9:	9430      	s32i.n	a4, a3, 0
  9030db:	5b7ebe        	call8	8e2bd4 <hif_module_install>
	HTC_MODULE_INSTALL();
  9030de:	1a717f        	l32r	a10, 8df6dc <_bss_end+0x3d1ed4>
  9030e1:	580348        	call8	903e04 <htc_module_install>
	WMI_SERVICE_MODULE_INSTALL();
  9030e4:	1a7180        	l32r	a10, 8df6e4 <_bss_end+0x3d1edc>
  9030e7:	580557        	call8	904644 <WMI_service_module_install>
	BUF_POOL_MODULE_INSTALL();
  9030ea:	1a7181        	l32r	a10, 8df6f0 <_bss_end+0x3d1ee8>
  9030ed:	5801aa        	call8	903798 <buf_pool_module_install>
	VBUF_MODULE_INSTALL();
  9030f0:	1a7182        	l32r	a10, 8df6f8 <_bss_end+0x3d1ef0>
  9030f3:	5b83e6        	call8	8e408c <vbuf_module_install>
	VDESC_MODULE_INSTALL();
  9030f6:	1a7183        	l32r	a10, 8df704 <_bss_end+0x3d1efc>
  9030f9:	5b8410        	call8	8e413c <vdesc_module_install>

	//init each module, should be put together..
	A_PRINTF("ALLOCRAM start 0x%x size %d\n", ALLOCRAM_START, ALLOCRAM_SIZE);
  9030fc:	147184        	l32r	a4, 8df70c <_bss_end+0x3d1f04>
  9030ff:	167185        	l32r	a6, 8df714 <_bss_end+0x3d1f0c>
  903102:	282212        	l32i	a8, a2, 72
  903105:	b443      	addi.n	a3, a4, 4
  903107:	04670c        	sub	a7, a6, a4
  90310a:	1a7186        	l32r	a10, 8df724 <_bss_end+0x3d1f1c>
  90310d:	dc70      	mov.n	a12, a7
  90310f:	db30      	mov.n	a11, a3
  903111:	0b8000        	callx8	a8
	A_ALLOCRAM_INIT(ALLOCRAM_START, ALLOCRAM_SIZE);
  903114:	c78c      	movi.n	a8, -4
  903116:	78410b        	beq	a4, a8, 903125 <app_start+0x125>
  903119:	da30      	mov.n	a10, a3
  90311b:	1b716a        	l32r	a11, 8df6c4 <_bss_end+0x3d1ebc>
  90311e:	764906        	bne	a4, a6, 903128 <app_start+0x128>
  903121:	600006        	j	90312b <app_start+0x12b>
  903124:	001a71        	excw
  903127:	69077b        	bnei	a0, 7, 9031a6 <app_start+0x1a6>
  90312a:	022322        	excw
  90312d:	510b30        	call0	945df0 <_iram0_text_end+0x3adb1>
  903130:	006550        	extui	a5, a0, 22, 1

	if( hostif == HIF_USB ) {
  903133:	b413      	addi.n	a3, a1, 4
		_indir_tbl.hif._get_max_msg_len = _HIFusb_get_max_msg_len_patch;
  903135:	718723        	bbci	a8, 17, 90315c <app_start+0x15c>
  903138:	267e13        	s32c1i	a6, a7, 76
		_indir_tbl.cmnos.usb._usb_reg_out = usb_reg_out_patch;
  90313b:	718823        	bany	a8, a1, 903162 <app_start+0x162>
  90313e:	263213        	l32i	a6, a3, 76
		_indir_tbl.hif._isr_handler = _HIFusb_isr_handler_patch;
  903141:	718923        	bne	a8, a1, 903168 <app_start+0x168>
  903144:	268013        	l8ui	a6, a8, 19
		_indir_tbl.cmnos.usb._usb_set_configuration = bSet_configuration_patch;
  903147:	718a23        	bge	a8, a1, 90316e <app_start+0x16e>
  90314a:	262513        	s16i	a6, a2, 38
		_indir_tbl.cmnos.usb._usb_status_in = usb_status_in_patch;
  90314d:	718b23        	bgeu	a8, a1, 903174 <app_start+0x174>
  903150:	263313        	excw
		_indir_tbl.cmnos.usb._usb_get_descriptor = bGet_descriptor_patch;
  903153:	718c23        	bnall	a8, a1, 90317a <app_start+0x17a>
  903156:	262f13        	s32ri	a6, a2, 76
		_indir_tbl.cmnos.usb._usb_standard_cmd = bStandardCommand_patch;
  903159:	718d23        	bbs	a8, a1, 903180 <app_start+0x180>
  90315c:	262613        	s32i	a6, a2, 76
		_indir_tbl.usbfifo_api._init = _fw_usbfifo_init;
  90315f:	718e23        	bbsi	a8, 1, 903186 <app_start+0x186>
  903162:	269b13        	l32ai	a6, a9, 76
	return *(const volatile uint8_t *) addr;
  903165:	718f23        	bbsi	a8, 17, 90318c <app_start+0x18c>
  903168:	300079        	excw
		_indir_tbl.hif._start = _HIFusb_start_patch;
		_indir_tbl.htc._HTC_MsgRecvHandler = HTCMsgRecvHandler_patch;
		_indir_tbl.htc._HTC_ControlSvcProcessMsg = HTCControlSvcProcessMsg_patch;
#endif

		if (!(ioread8_usb(ZM_MAIN_CTRL_OFFSET) & BIT6))
  90316b:	3f0258        	excw
			vUSBFIFO_EP6Cfg_FS_patch();
  90316e:	022d13        	srai	a13, a2, 18
	return *(const volatile uint32_t *) addr;
  903171:	719024        	bnone	a9, a1, 903199 <app_start+0x199>

#ifdef FUSION_USB_ENABLE_TX_STREAM
		// For K2, enable tx stream mode
		A_PRINTF("Enable Tx Stream mode: 0x%x\r\n",
  903174:	22120c        	l32i	a2, a1, 48
  903177:	02008b        	excw
  90317a:	301a71        	excw
  90317d:	910b      	s32i.n	a1, a0, 44
  90317f:	4000da        	excw
			ioread32_usb(ZM_SOC_USB_MODE_CTRL_OFFSET));

		/* Patch for K2 USB STREAM mode */
		/* disable down stream DMA mode */
		io32_rmw_usb(ZM_SOC_USB_MODE_CTRL_OFFSET, BIT6, BIT0);
  903182:	30c0c1        	excw
  903185:	c4b0      	movi.n	a11, 64
  903187:	581f71        	call8	90af4c <io32_rmw>
#if SYSTEM_MODULE_HP_EP5
		io32_set_usb(ZM_SOC_USB_MODE_CTRL_OFFSET, BIT8);
  90318a:	da30      	mov.n	a10, a3
  90318c:	c0c0      	movi.n	a12, 0
  90318e:	2b1a00        	movi	a11, 0x100
  903191:	581f6e        	call8	90af4c <io32_rmw>
#endif

#if SYSTEM_MODULE_HP_EP6
		io32_set_usb(ZM_SOC_USB_MODE_CTRL_OFFSET, BIT9);
  903194:	da30      	mov.n	a10, a3
  903196:	c0c0      	movi.n	a12, 0
  903198:	2b2a00        	movi	a11, 0x200
  90319b:	581f6c        	call8	90af4c <io32_rmw>
#endif
		/* enable down stream DMA mode */
		io32_set_usb(ZM_SOC_USB_MODE_CTRL_OFFSET, BIT0);
  90319e:	da30      	mov.n	a10, a3
  9031a0:	c0c0      	movi.n	a12, 0
  9031a2:	2b0a01        	movi	a11, 1
  9031a5:	581f69        	call8	90af4c <io32_rmw>
#endif

#ifdef FUSION_USB_ENABLE_RX_STREAM
		/* Patch for K2 USB STREAM mode */
		/* disable upstream DMA mode and enable upstream stream mode */
		io32_clr_usb(ZM_SOC_USB_MODE_CTRL_OFFSET, BIT1 | BIT3);
  9031a8:	da30      	mov.n	a10, a3
  9031aa:	c0ca      	movi.n	a12, 10
  9031ac:	c0b0      	movi.n	a11, 0
  9031ae:	581f67        	call8	90af4c <io32_rmw>

		/* K2, Set maximum IN transfer to 8K */
		io32_rmw_usb(ZM_SOC_USB_MODE_CTRL_OFFSET, 0x20, 0x30);
  9031b1:	da30      	mov.n	a10, a3
  9031b3:	c3c0      	movi.n	a12, 48
  9031b5:	c2b0      	movi.n	a11, 32
  9031b7:	581f65        	call8	90af4c <io32_rmw>

		/* enable upstream DMA mode */
		io32_set_usb(ZM_SOC_USB_MODE_CTRL_OFFSET, BIT1);
  9031ba:	da30      	mov.n	a10, a3
  9031bc:	c0c0      	movi.n	a12, 0
  9031be:	2b0a02        	movi	a11, 2
  9031c1:	581f62        	call8	90af4c <io32_rmw>
	*(volatile uint32_t *) addr = b;
  9031c4:	137192        	l32r	a3, 8df80c <_bss_end+0x3d2004>
  9031c7:	240aa0        	movi	a4, 160
  9031ca:	0c0200        	memw
  9031cd:	9430      	s32i.n	a4, a3, 0
	return *(const volatile uint32_t *) addr;
  9031cf:	137193        	l32r	a3, 8df81c <_bss_end+0x3d2014>
  9031d2:	0c0200        	memw
  9031d5:	8430      	l32i.n	a4, a3, 0
  9031d7:	137194        	l32r	a3, 8df828 <_bss_end+0x3d2020>

		/* set stream mode timeout critirea */
		iowrite32_usb(ZM_SOC_USB_TIME_CTRL_OFFSET, 0xa0);
#if defined(PROJECT_K2)
		/*0x10004020 is vaild in k2 but could be invaild in other chip*/
		if ((ioread32(0x10004020) & 0x2000) != 0) {
  9031da:	724704        	bbci	a4, 18, 9031e2 <app_start+0x1e2>
	*(volatile uint32_t *) addr = b;
  9031dd:	c040      	movi.n	a4, 0
  9031df:	600001        	j	9031e4 <app_start+0x1e4>
  9031e2:	c049      	movi.n	a4, 9
  9031e4:	0c0200        	memw
  9031e7:	9430      	s32i.n	a4, a3, 0
	return *(const volatile uint32_t *) addr;
  9031e9:	137195        	l32r	a3, 8df840 <_bss_end+0x3d2038>
	}
#if defined(PROJECT_MAGPIE) && !defined(ROM_VER_1_1)
	else if (hostif == HIF_PCI )
		hif_pci_patch_install(&_indir_tbl.hif);
#endif
	A_PRINTF("USB mode: 0x%x\r\n", ioread32_usb(0x100));
  9031ec:	1a7196        	l32r	a10, 8df844 <_bss_end+0x3d203c>
  9031ef:	0c0200        	memw
  9031f2:	8b30      	l32i.n	a11, a3, 0
  9031f4:	232212        	l32i	a3, a2, 72
  9031f7:	0b3000        	callx8	a3

	// patch the clock function
	if(1) {
		_indir_tbl.cmnos.clock._clock_init = cmnos_clock_init_patch;
  9031fa:	137197        	l32r	a3, 8df858 <_bss_end+0x3d2050>
		_indir_tbl.cmnos.clock._delay_us = cmnos_delay_us_patch;
		_indir_tbl.cmnos.clock._clock_tick = cmnos_tick_patch;
		_indir_tbl.cmnos.clock._milliseconds = cmnos_milliseconds_patch;

		//default clock, setup initial variable, SYSTEM_FREQ=40
		A_CLOCK_INIT(SYSTEM_FREQ);
  9031fd:	c2a8      	movi.n	a10, 40
		_indir_tbl.cmnos.clock._clock_init = cmnos_clock_init_patch;
  9031ff:	232637        	s32i	a3, a2, 220
		_indir_tbl.cmnos.clock._refclk_speed_get = cmnos_refclk_speed_get_patch;
  903202:	137198        	l32r	a3, 8df864 <_bss_end+0x3d205c>
  903205:	23263c        	s32i	a3, a2, 240
		_indir_tbl.cmnos.clock._delay_us = cmnos_delay_us_patch;
  903208:	137199        	l32r	a3, 8df86c <_bss_end+0x3d2064>
  90320b:	23263a        	s32i	a3, a2, 232
		_indir_tbl.cmnos.clock._clock_tick = cmnos_tick_patch;
  90320e:	13719a        	l32r	a3, 8df878 <_bss_end+0x3d2070>
  903211:	232640        	s32i	a3, a2, 0x100
		_indir_tbl.cmnos.clock._milliseconds = cmnos_milliseconds_patch;
  903214:	13719b        	l32r	a3, 8df880 <_bss_end+0x3d2078>
  903217:	23263d        	s32i	a3, a2, 244
		A_CLOCK_INIT(SYSTEM_FREQ);
  90321a:	580611        	call8	904a60 <cmnos_clock_init_patch>
	}

	Magpie_init();
  90321d:	580042        	call8	903328 <Magpie_init>

#if MAGPIE_ENABLE_WLAN == 1
	io32_clr(MAGPIE_REG_RST_RESET_ADDR, BIT10 | BIT8 | BIT7 | BIT6);
  903220:	1a719c        	l32r	a10, 8df890 <_bss_end+0x3d2088>
  903223:	2c5ac0        	movi	a12, 0x5c0
  903226:	2b0a00        	movi	a11, 0
  903229:	581f48        	call8	90af4c <io32_rmw>
#if defined(PROJECT_MAGPIE)
	io32_set(MAGPIE_REG_AHB_ARB_ADDR, BIT1);
#endif

	wlan_pci_module_init();
  90322c:	580273        	call8	903bfc <wlan_pci_module_init>
	wlan_pci_probe();
  90322f:	58027a        	call8	903c18 <wlan_pci_probe>
#endif


	A_PRINTF("Tgt running\n\r");
  903232:	1a719d        	l32r	a10, 8df8a8 <_bss_end+0x3d20a0>
  903235:	222212        	l32i	a2, a2, 72
  903238:	0b2000        	callx8	a2
		_indir_tbl.cmnos.misc._assfail = exception_reset;
	}

	change_magpie_clk();
#endif
	wlan_task(); //never return
  90323b:	58000f        	call8	903278 <wlan_task>

Disassembly of section .text:

00903240 <init_mem>:
	}
}
#endif

void init_mem()
{
  903240:	6c1004        	entry	a1, 32
	int i = 0;
	uint32_t *temp = (uint32_t *)ALLOCRAM_START;

	/* clear bss segment */
	for(temp = (uint32_t *)&START_BSS; temp < (uint32_t *)&END_BSS; temp++)
  903243:	18719e        	l32r	a8, 8df8bc <_bss_end+0x3d20b4>
  903246:	19719f        	l32r	a9, 8df8c4 <_bss_end+0x3d20bc>
		*temp = 0;
  903249:	c0a0      	movi.n	a10, 0
	for(temp = (uint32_t *)&START_BSS; temp < (uint32_t *)&END_BSS; temp++)
  90324b:	600003        	j	903252 <init_mem+0x12>
		*temp = 0;
  90324e:	9a80      	s32i.n	a10, a8, 0
	for(temp = (uint32_t *)&START_BSS; temp < (uint32_t *)&END_BSS; temp++)
  903250:	b488      	addi.n	a8, a8, 4
  903252:	7983f8        	bltu	a8, a9, 90324e <init_mem+0xe>

	/* clear heap segment */
	for(i = 0; i < ((ALLOCRAM_SIZE - 4)/4); i++)
  903255:	1a7184        	l32r	a10, 8df868 <_bss_end+0x3d2060>
  903258:	1971a0        	l32r	a9, 8df8d8 <_bss_end+0x3d20d0>
  90325b:	0a990c        	sub	a9, a9, a10
  90325e:	092914        	srli	a9, a9, 2
  903261:	0e9911        	slli	a9, a9, 2
  903264:	a989      	add.n	a9, a8, a9
		temp[i] = 0;
  903266:	c0a0      	movi.n	a10, 0
  903268:	600004        	j	903270 <init_mem+0x30>
  90326b:	009a80        	excw
  90326e:	b488      	addi.n	a8, a8, 4
	for(i = 0; i < ((ALLOCRAM_SIZE - 4)/4); i++)
  903270:	7989f8        	bne	a8, a9, 90326c <init_mem+0x2c>
}
  903273:	d10f      	retw.n
  903275:	000000        	ill

00903278 <wlan_task>:
	}
	return;
}

void __noreturn wlan_task(void)
{
  903278:	6c1004        	entry	a1, 32
	loop_low=loop_high=0;
  90327b:	1471a1        	l32r	a4, 8df900 <_bss_end+0x3d20f8>
  90327e:	1371a2        	l32r	a3, 8df908 <_bss_end+0x3d2100>
  903281:	c020      	movi.n	a2, 0
  903283:	9240      	s32i.n	a2, a4, 0
  903285:	9230      	s32i.n	a2, a3, 0

	while(1) {
		/* update wdt timer */
		A_WDT_TASK();
  903287:	12716e        	l32r	a2, 8df840 <_bss_end+0x3d2038>
  90328a:	28225c        	l32i	a8, a2, 0x170
  90328d:	0b8000        	callx8	a8

		/* UPDATE cticks - to be moved to idle_tsk, put here will be easier to read  */
		A_CLOCK_TICK();
  903290:	282240        	l32i	a8, a2, 0x100
  903293:	0b8000        	callx8	a8

		HIF_isr_handler(NULL);
  903296:	282280        	l32i	a8, a2, 0x200
  903299:	c0a0      	movi.n	a10, 0
  90329b:	0b8000        	callx8	a8

#if MAGPIE_ENABLE_WLAN == 1
		wlan_pci_isr();
  90329e:	580282        	call8	903ca8 <wlan_pci_isr>
#endif

		A_TASKLET_RUN();
  9032a1:	28226d        	l32i	a8, a2, 0x1b4
  9032a4:	0b8000        	callx8	a8
		A_TIMER_RUN();
  9032a7:	282245        	l32i	a8, a2, 0x114
  9032aa:	0b8000        	callx8	a8
	if (loop_low == 0xffffffff) {
  9032ad:	8830      	l32i.n	a8, a3, 0
  9032af:	69800d        	bnei	a8, -1, 9032c0 <wlan_task+0x48>
		loop_low = 0;
  9032b2:	c080      	movi.n	a8, 0
  9032b4:	9830      	s32i.n	a8, a3, 0
		loop_high++;
  9032b6:	8840      	l32i.n	a8, a4, 0
  9032b8:	b188      	addi.n	a8, a8, 1
  9032ba:	9840      	s32i.n	a8, a4, 0
  9032bc:	63ffca        	j	90328a <wlan_task+0x12>
  9032bf:	00b188        	excw
		loop_low++;
  9032c2:	9830      	s32i.n	a8, a3, 0
  9032c4:	63ffc2        	j	90328a <wlan_task+0x12>
	...

009032c8 <htc_setup_comp>:
#define MAGPIE 1

#if MAGPIE==1

void htc_setup_comp(void)
{
  9032c8:	6c1004        	entry	a1, 32
  9032cb:	d10f      	retw.n
  9032cd:	000000        	ill

009032d0 <_wmi_cmd_rsp>:
	}
}

void _wmi_cmd_rsp(void *pContext, WMI_COMMAND_ID cmd_id, A_UINT16 SeqNo,
		  A_UINT8 *buffer, int Length)
{
  9032d0:	6c1006        	entry	a1, 48
	adf_nbuf_t netbuf = ADF_NBUF_NULL;
	A_UINT8 *pData;

	netbuf = WMI_AllocEvent(pContext, WMI_EVT_CLASS_CMD_REPLY, sizeof(WMI_CMD_HDR) + Length);
  9032d3:	17716e        	l32r	a7, 8df88c <_bss_end+0x3d2084>
  9032d6:	2c6c04        	addi	a12, a6, 4
  9032d9:	287292        	l32i	a8, a7, 0x248
  9032dc:	c0b1      	movi.n	a11, 1
  9032de:	022a02        	or	a10, a2, a2
  9032e1:	0b8000        	callx8	a8
{
  9032e4:	04044f        	extui	a4, a4, 0, 16
	netbuf = WMI_AllocEvent(pContext, WMI_EVT_CLASS_CMD_REPLY, sizeof(WMI_CMD_HDR) + Length);
  9032e7:	d8a0      	mov.n	a8, a10

	if (netbuf == ADF_NBUF_NULL) {
  9032e9:	cda1      	bnez.n	a10, 9032fe <_wmi_cmd_rsp+0x2e>
		adf_os_print("%s: buffer allocation for event_id %x failed!\n", __FUNCTION__, cmd_id);
  9032eb:	227212        	l32i	a2, a7, 72
  9032ee:	1b71a3        	l32r	a11, 8df97c <_bss_end+0x3d2174>
  9032f1:	1a71a4        	l32r	a10, 8df984 <_bss_end+0x3d217c>
  9032f4:	dc30      	mov.n	a12, a3
  9032f6:	0b2000        	callx8	a2
  9032f9:	63fffc        	j	9032f9 <_wmi_cmd_rsp+0x29>
  9032fc:	0000c9        	excw
		adf_os_assert(0);
		return;
	}

	if (Length != 0 && buffer != NULL) {
  9032ff:	62c950        	j	8efc53 <memset+0xaab7>
 *         put, or NULL if there is not enough room in this buf.
 */
static inline a_uint8_t *
adf_nbuf_put_tail(adf_nbuf_t buf, adf_os_size_t size)
{
    return __adf_nbuf_put_tail(buf, size);
  903302:	db60      	mov.n	a11, a6
  903304:	9a10      	s32i.n	a10, a1, 0
  903306:	5800ba        	call8	9035f0 <__adf_nbuf_put_tail>
}

/* move a memory buffer */
static inline void 		__adf_os_mem_copy(void *dst, const void *src, adf_os_size_t size)
{
    A_MEMCPY(dst,src,size);
  903309:	8975      	l32i.n	a9, a7, 20
  90330b:	dc60      	mov.n	a12, a6
  90330d:	db50      	mov.n	a11, a5
  90330f:	0b9000        	callx8	a9
  903312:	8810      	l32i.n	a8, a1, 0
		pData = (A_UINT8 *)adf_nbuf_put_tail(netbuf, Length);
		adf_os_mem_copy(pData, buffer, Length);
	}

	WMI_SendEvent(pContext, netbuf, cmd_id, SeqNo, Length);
  903314:	257293        	l32i	a5, a7, 0x24c
  903317:	de60      	mov.n	a14, a6
  903319:	dd40      	mov.n	a13, a4
  90331b:	030c4f        	extui	a12, a3, 0, 16
  90331e:	db80      	mov.n	a11, a8
  903320:	da20      	mov.n	a10, a2
  903322:	0b5000        	callx8	a5
  903325:	d10f      	retw.n
	...

00903328 <Magpie_init>:
}


void Magpie_init(void)
{
  903328:	6c1004        	entry	a1, 32
	A_PRINTF("[+++Magpie_init]\n\r");
  90332b:	12716e        	l32r	a2, 8df8e4 <_bss_end+0x3d20dc>
  90332e:	1a71a5        	l32r	a10, 8df9c4 <_bss_end+0x3d21bc>
  903331:	232212        	l32i	a3, a2, 72
  903334:	0b3000        	callx8	a3

	A_PRINTF("[+++VBUF_init(%d)]\n\r", MAX_BUF_NUM);
  903337:	1371a6        	l32r	a3, 8df9d0 <_bss_end+0x3d21c8>
  90333a:	282212        	l32i	a8, a2, 72
  90333d:	2b0a64        	movi	a11, 100
  903340:	da30      	mov.n	a10, a3
  903342:	0b8000        	callx8	a8
	VBUF_init(MAX_BUF_NUM);
  903345:	2822a5        	l32i	a8, a2, 0x294
  903348:	2a0a64        	movi	a10, 100
  90334b:	0b8000        	callx8	a8

	A_PRINTF("[+++VBUF_init(%d)]\n\r", MAX_DESC_NUM);
  90334e:	282212        	l32i	a8, a2, 72
  903351:	2b0a64        	movi	a11, 100
  903354:	da30      	mov.n	a10, a3
  903356:	0b8000        	callx8	a8
	VDESC_init(MAX_DESC_NUM);
  903359:	2222aa        	l32i	a2, a2, 0x2a8
  90335c:	2a0a64        	movi	a10, 100
  90335f:	0b2000        	callx8	a2
  903362:	d10f      	retw.n

00903364 <__adf_nbuf_alloc>:
 * @return newly allocated nbuf
 */
__adf_nbuf_t
__adf_nbuf_alloc(adf_os_size_t size, a_uint32_t reserve,
                 a_uint32_t align)
{
  903364:	6c1004        	entry	a1, 32
    VBUF *buf = NULL;
    VDESC *desc;

    buf = VBUF_alloc_vbuf();
  903367:	15716e        	l32r	a5, 8df920 <_bss_end+0x3d2118>
{
  90336a:	d620      	mov.n	a6, a2
    buf = VBUF_alloc_vbuf();
  90336c:	2a52a6        	l32i	a10, a5, 0x298
  90336f:	0ba000        	callx8	a10
  903372:	d2a0      	mov.n	a2, a10
    if ( buf != NULL ) {
  903374:	64a028        	beqz	a10, 9033a0 <__adf_nbuf_alloc+0x3c>
        desc = VDESC_alloc_vdesc();
  903377:	2a52ab        	l32i	a10, a5, 0x2ac
  90337a:	0ba000        	callx8	a10
        desc->buf_addr = (A_UINT8 *)A_ALLOCRAM(size);
  90337d:	255252        	l32i	a5, a5, 0x148
        desc = VDESC_alloc_vdesc();
  903380:	d4a0      	mov.n	a4, a10
        desc->buf_addr = (A_UINT8 *)A_ALLOCRAM(size);
  903382:	db60      	mov.n	a11, a6
  903384:	c0a0      	movi.n	a10, 0
  903386:	0b5000        	callx8	a5
        desc->buf_size = size;
        desc->next_desc = NULL;
  903389:	c080      	movi.n	a8, 0
        desc->buf_addr = (A_UINT8 *)A_ALLOCRAM(size);
  90338b:	9a41      	s32i.n	a10, a4, 4
        desc->buf_size = size;
  90338d:	264504        	s16i	a6, a4, 8
        desc->next_desc = NULL;
  903390:	9840      	s32i.n	a8, a4, 0
        desc->data_offset = reserve;
  903392:	234505        	s16i	a3, a4, 10
        desc->data_size = 0;
  903395:	284506        	s16i	a8, a4, 12
        desc->control = 0;
  903398:	284507        	s16i	a8, a4, 14

        buf->desc_list = desc;
  90339b:	9420      	s32i.n	a4, a2, 0
        buf->buf_length = 0;
  90339d:	282504        	s16i	a8, a2, 8
    }

    return buf;
}
  9033a0:	d10f      	retw.n
	...

009033a4 <__adf_nbuf_free>:
 * @param hdl
 * @param adf_nbuf
 *
 */
void __adf_nbuf_free(__adf_nbuf_t  buf)
{
  9033a4:	6c1004        	entry	a1, 32
  9033a7:	63fffc        	j	9033a7 <__adf_nbuf_free+0x3>
	...

009033ac <__adf_nbuf_realloc_headroom>:
 *
 * @return new nbuf
 */
__adf_nbuf_t
__adf_nbuf_realloc_headroom(__adf_nbuf_t buf, a_uint32_t headroom)
{
  9033ac:	6c1004        	entry	a1, 32
  9033af:	63fffc        	j	9033af <__adf_nbuf_realloc_headroom+0x3>
	...

009033b4 <__adf_nbuf_realloc_tailroom>:
 *
 * @return struct mbuf * (buffer with the new tailroom)
 */
__adf_nbuf_t
__adf_nbuf_realloc_tailroom(__adf_nbuf_t  buf, a_uint32_t tailroom)
{
  9033b4:	6c1004        	entry	a1, 32
  9033b7:	63fffc        	j	9033b7 <__adf_nbuf_realloc_tailroom+0x3>
	...

009033bc <__adf_nbuf_expand>:
 *
 * @return struct mbuf* (NULL if something goofed up)
 */
__adf_nbuf_t
__adf_nbuf_expand(__adf_nbuf_t buf, a_uint32_t headroom, a_uint32_t tailroom)
{
  9033bc:	6c1004        	entry	a1, 32
  9033bf:	63fffc        	j	9033bf <__adf_nbuf_expand+0x3>
	...

009033c4 <__adf_nbuf_push_head>:
 * @return new data pointer ,NULL if the len is more than the
 *         space available in the head frag.
 */
a_uint8_t *
__adf_nbuf_push_head(__adf_nbuf_t buf, adf_os_size_t len)
{
  9033c4:	6c1004        	entry	a1, 32
    a_uint8_t *ptr = NULL;
    VDESC *desc = buf->desc_list;
  9033c7:	8920      	l32i.n	a9, a2, 0

    desc->data_offset -= len;
  9033c9:	03034f        	extui	a3, a3, 0, 16
    desc->data_size += len;
  9033cc:	2a9106        	l16ui	a10, a9, 12
    desc->data_offset -= len;
  9033cf:	289105        	l16ui	a8, a9, 10
    desc->data_size += len;
  9033d2:	aa3a      	add.n	a10, a3, a10
  9033d4:	2a9506        	s16i	a10, a9, 12
    desc->data_offset -= len;
  9033d7:	03880c        	sub	a8, a8, a3
    buf->buf_length += len;
  9033da:	2a2104        	l16ui	a10, a2, 8
    desc->data_offset -= len;
  9033dd:	08084f        	extui	a8, a8, 0, 16
  9033e0:	289505        	s16i	a8, a9, 10
    buf->buf_length += len;
  9033e3:	aa33      	add.n	a3, a3, a10
  9033e5:	232504        	s16i	a3, a2, 8
    ptr = desc->buf_addr + desc->data_offset;
  9033e8:	8291      	l32i.n	a2, a9, 4
    return(ptr);
}
  9033ea:	a822      	add.n	a2, a2, a8
  9033ec:	d10f      	retw.n
	...

009033f0 <__adf_nbuf_pull_head>:
 *
 * @return new data pointer
 */
a_uint8_t *
__adf_nbuf_pull_head(__adf_nbuf_t buf, adf_os_size_t len)
{
  9033f0:	6c1004        	entry	a1, 32
    a_uint8_t *ptr = NULL;
    VDESC *desc = buf->desc_list;
  9033f3:	8920      	l32i.n	a9, a2, 0

    desc->data_offset += len;
  9033f5:	030a4f        	extui	a10, a3, 0, 16
    desc->data_size -= len;
  9033f8:	239106        	l16ui	a3, a9, 12
    desc->data_offset += len;
  9033fb:	289105        	l16ui	a8, a9, 10
    desc->data_size -= len;
  9033fe:	0a330c        	sub	a3, a3, a10
  903401:	239506        	s16i	a3, a9, 12
    desc->data_offset += len;
  903404:	a8a8      	add.n	a8, a10, a8
    buf->buf_length -= len;
  903406:	232104        	l16ui	a3, a2, 8
    desc->data_offset += len;
  903409:	08084f        	extui	a8, a8, 0, 16
  90340c:	289505        	s16i	a8, a9, 10
    buf->buf_length -= len;
  90340f:	0a330c        	sub	a3, a3, a10
  903412:	232504        	s16i	a3, a2, 8
    ptr = desc->buf_addr + desc->data_offset;
  903415:	8291      	l32i.n	a2, a9, 4

    return ptr;
}
  903417:	a822      	add.n	a2, a2, a8
  903419:	d10f      	retw.n
	...

0090341c <__adf_nbuf_copy>:
  90341c:	6c1004        	entry	a1, 32
  90341f:	cc21      	bnez.n	a2, 903424 <__adf_nbuf_copy+0x8>
  903421:	63fffc        	j	903421 <__adf_nbuf_copy+0x5>
  903424:	c020      	movi.n	a2, 0
  903426:	d10f      	retw.n

00903428 <__adf_nbuf_unshare>:
 *
 * @return new nbuf
 */
__adf_nbuf_t
__adf_nbuf_unshare(__adf_nbuf_t  src)
{
  903428:	6c1004        	entry	a1, 32
    __adf_nbuf_t buf = NULL;

    adf_os_assert(src != NULL);
  90342b:	cc21      	bnez.n	a2, 903430 <__adf_nbuf_unshare+0x8>
  90342d:	63fffc        	j	90342d <__adf_nbuf_unshare+0x5>

    return buf;
}
  903430:	c020      	movi.n	a2, 0
  903432:	d10f      	retw.n

00903434 <__adf_nbuf_frag_info>:
 * @param[out] sg (scatter/gather list of all the frags)
 *
 */
void
__adf_nbuf_frag_info(__adf_nbuf_t buf, adf_os_sglist_t	*sg)
{
  903434:	6c1004        	entry	a1, 32
    VDESC *desc = buf->desc_list;
  903437:	8820      	l32i.n	a8, a2, 0
  903439:	b439      	addi.n	a9, a3, 4
    int count = 0;
  90343b:	c0a0      	movi.n	a10, 0

    while( desc != NULL ) {
  90343d:	600013        	j	903454 <__adf_nbuf_frag_info+0x20>
        sg->sg_segs[count].vaddr = desc->buf_addr + desc->data_offset;
  903440:	2c8105        	l16ui	a12, a8, 10
  903443:	8b81      	l32i.n	a11, a8, 4
        sg->sg_segs[count].len   = desc->data_size;

        count++;
  903445:	b1aa      	addi.n	a10, a10, 1
        sg->sg_segs[count].vaddr = desc->buf_addr + desc->data_offset;
  903447:	acbb      	add.n	a11, a11, a12
  903449:	9b90      	s32i.n	a11, a9, 0
        sg->sg_segs[count].len   = desc->data_size;
  90344b:	2b8106        	l16ui	a11, a8, 12
        desc = desc->next_desc;
  90344e:	8880      	l32i.n	a8, a8, 0
        sg->sg_segs[count].len   = desc->data_size;
  903450:	9b91      	s32i.n	a11, a9, 4
  903452:	b899      	addi.n	a9, a9, 8
    while( desc != NULL ) {
  903454:	658fe8        	bnez	a8, 903440 <__adf_nbuf_frag_info+0xc>
    }

    sg->nsegs = count;
  903457:	9a30      	s32i.n	a10, a3, 0
  903459:	d10f      	retw.n
	...

0090345c <__adf_nbuf_get_priv>:
 *
 * @return uint8_t* ( pointer to the data )
 */
a_uint8_t *
__adf_nbuf_get_priv(__adf_nbuf_t buf)
{
  90345c:	6c1004        	entry	a1, 32
    adf_os_assert(buf != NULL);
  90345f:	cc21      	bnez.n	a2, 903464 <__adf_nbuf_get_priv+0x8>
  903461:	63fffc        	j	903461 <__adf_nbuf_get_priv+0x5>

    return buf->ctx;
}
  903464:	bc22      	addi.n	a2, a2, 12
  903466:	d10f      	retw.n

00903468 <__adf_nbuf_queue_add>:
 *
 */
void
__adf_nbuf_queue_add(__adf_nbuf_qhead_t  *qhead,
                     __adf_nbuf_t  buf)
{
  903468:	6c1004        	entry	a1, 32
    qhead->qlen++;
  90346b:	8822      	l32i.n	a8, a2, 8
  90346d:	b188      	addi.n	a8, a8, 1
  90346f:	9822      	s32i.n	a8, a2, 8

    buf->next_buf = NULL;
  903471:	c080      	movi.n	a8, 0
  903473:	9831      	s32i.n	a8, a3, 4

    if (qhead->head == NULL) {
  903475:	8820      	l32i.n	a8, a2, 0
  903477:	cc83      	bnez.n	a8, 90347e <__adf_nbuf_queue_add+0x16>
        qhead->head = buf;
  903479:	9320      	s32i.n	a3, a2, 0
  90347b:	600003        	j	903482 <__adf_nbuf_queue_add+0x1a>
    }
    else {
        qhead->tail->next_buf = buf;
  90347e:	8821      	l32i.n	a8, a2, 4
  903480:	9381      	s32i.n	a3, a8, 4
    }
    qhead->tail = buf;
  903482:	9321      	s32i.n	a3, a2, 4
  903484:	d10f      	retw.n
	...

00903488 <__adf_nbuf_queue_remove>:
 *
 * @return the nbuf
 */
__adf_nbuf_t
__adf_nbuf_queue_remove(__adf_nbuf_qhead_t *qhead)
{
  903488:	6c1004        	entry	a1, 32
  90348b:	d820      	mov.n	a8, a2
    __adf_nbuf_t  b0 = NULL;

    if (qhead->head) {
  90348d:	8220      	l32i.n	a2, a2, 0
  90348f:	c929      	beqz.n	a2, 9034ac <__adf_nbuf_queue_remove+0x24>
        qhead->qlen--;
  903491:	8982      	l32i.n	a9, a8, 8
        b0 = qhead->head;
        if ( qhead->head == qhead->tail ) {
  903493:	8a81      	l32i.n	a10, a8, 4
        qhead->qlen--;
  903495:	b099      	addi.n	a9, a9, -1
  903497:	9982      	s32i.n	a9, a8, 8
  903499:	c090      	movi.n	a9, 0
        if ( qhead->head == qhead->tail ) {
  90349b:	7a2907        	bne	a2, a10, 9034a6 <__adf_nbuf_queue_remove+0x1e>
            qhead->head = NULL;
  90349e:	9980      	s32i.n	a9, a8, 0
            qhead->tail = NULL;
  9034a0:	9981      	s32i.n	a9, a8, 4
  9034a2:	600004        	j	9034aa <__adf_nbuf_queue_remove+0x22>
  9034a5:	008a21        	excw
        } else {
            qhead->head = qhead->head->next_buf;
  9034a8:	9a80      	s32i.n	a10, a8, 0
        }

        b0->next_buf = NULL;
  9034aa:	9921      	s32i.n	a9, a2, 4
    }
	return b0;
}
  9034ac:	d10f      	retw.n
	...

009034b0 <__adf_nbuf_dmamap_create>:
 *
 * @return a_status_t
 */
a_status_t
__adf_nbuf_dmamap_create(__adf_os_device_t osdev, __adf_os_dma_map_t *dmap)
{
  9034b0:	6c1004        	entry	a1, 32
    a_status_t retval = A_STATUS_OK;

    (*dmap) = A_ALLOCRAM(sizeof(struct __adf_dma_map));
  9034b3:	12716e        	l32r	a2, 8dfa6c <_bss_end+0x3d2264>
  9034b6:	c0bc      	movi.n	a11, 12
  9034b8:	222252        	l32i	a2, a2, 0x148
  9034bb:	c0a0      	movi.n	a10, 0
  9034bd:	0b2000        	callx8	a2
  9034c0:	9a30      	s32i.n	a10, a3, 0
    if(*dmap == NULL)
        return A_STATUS_ENOMEM;
  9034c2:	c023      	movi.n	a2, 3
    if(*dmap == NULL)
  9034c4:	c8a2      	beqz.n	a10, 9034ca <__adf_nbuf_dmamap_create+0x1a>

    (*dmap)->buf = NULL;
  9034c6:	c020      	movi.n	a2, 0
  9034c8:	92a0      	s32i.n	a2, a10, 0
    return retval;
}
  9034ca:	d10f      	retw.n

009034cc <__adf_nbuf_map>:


a_status_t
__adf_nbuf_map(__adf_os_device_t osdev, __adf_os_dma_map_t bmap,
                          __adf_nbuf_t buf, adf_os_dma_dir_t dir)
{
  9034cc:	6c1004        	entry	a1, 32
    bmap->buf = buf;
  9034cf:	9430      	s32i.n	a4, a3, 0

    return A_STATUS_OK;
}
  9034d1:	c020      	movi.n	a2, 0
  9034d3:	d10f      	retw.n
  9034d5:	000000        	ill

009034d8 <__adf_nbuf_unmap>:

void
__adf_nbuf_unmap(__adf_os_device_t osdev, __adf_os_dma_map_t bmap,
                            adf_os_dma_dir_t dir)
{
  9034d8:	6c1004        	entry	a1, 32
    bmap->buf = NULL;
  9034db:	c080      	movi.n	a8, 0
  9034dd:	9830      	s32i.n	a8, a3, 0
  9034df:	d10f      	retw.n
  9034e1:	000000        	ill

009034e4 <__adf_nbuf_dmamap_destroy>:
  9034e4:	6c1004        	entry	a1, 32
  9034e7:	d10f      	retw.n
  9034e9:	000000        	ill

009034ec <__adf_nbuf_dmamap_info>:
 * @param[in]  bmap
 * @param[out] sg (map_info ptr)
 */
void
__adf_nbuf_dmamap_info(__adf_os_dma_map_t bmap, adf_os_dmamap_info_t *sg)
{
  9034ec:	6c1004        	entry	a1, 32
    VDESC *desc = bmap->buf->desc_list;
  9034ef:	8820      	l32i.n	a8, a2, 0
  9034f1:	b439      	addi.n	a9, a3, 4
  9034f3:	8880      	l32i.n	a8, a8, 0
    int count = 0;
  9034f5:	c0a0      	movi.n	a10, 0

    while( desc != NULL ) {
  9034f7:	600015        	j	903510 <__adf_nbuf_dmamap_info+0x24>
  9034fa:	00002c        	excw
        sg->dma_segs[count].paddr = (adf_os_dma_addr_t)(desc->buf_addr + desc->data_offset);
  9034fd:	8105      	l32i.n	a1, a0, 20
  9034ff:	8b81      	l32i.n	a11, a8, 4
        sg->dma_segs[count].len   = desc->data_size;

        count++;
  903501:	b1aa      	addi.n	a10, a10, 1
        sg->dma_segs[count].paddr = (adf_os_dma_addr_t)(desc->buf_addr + desc->data_offset);
  903503:	acbb      	add.n	a11, a11, a12
  903505:	9b90      	s32i.n	a11, a9, 0
        sg->dma_segs[count].len   = desc->data_size;
  903507:	2b8106        	l16ui	a11, a8, 12
        desc = desc->next_desc;
  90350a:	8880      	l32i.n	a8, a8, 0
        sg->dma_segs[count].len   = desc->data_size;
  90350c:	9b91      	s32i.n	a11, a9, 4
  90350e:	b899      	addi.n	a9, a9, 8
    while( desc != NULL ) {
  903510:	658fe8        	bnez	a8, 9034fc <__adf_nbuf_dmamap_info+0x10>
    }

    sg->nsegs = count;
  903513:	9a30      	s32i.n	a10, a3, 0
  903515:	d10f      	retw.n
	...

00903518 <__adf_nbuf_set_rx_cksum>:
  903518:	6c1004        	entry	a1, 32
  90351b:	d10f      	retw.n
  90351d:	000000        	ill

00903520 <__adf_nbuf_get_vlan_info>:
}

a_status_t
__adf_nbuf_get_vlan_info(adf_net_handle_t hdl, __adf_nbuf_t buf,
                         adf_net_vlanhdr_t *vlan)
{
  903520:	6c1004        	entry	a1, 32
    return A_STATUS_OK;
}
  903523:	c020      	movi.n	a2, 0
  903525:	d10f      	retw.n
	...

00903528 <__adf_nbuf_create_frm_frag>:

__adf_nbuf_t
__adf_nbuf_create_frm_frag(__adf_nbuf_queue_t *qhead)
{
  903528:	6c1006        	entry	a1, 48
    VBUF *buf_tmp, *buf_head = NULL;
    VDESC *vdesc_prev = NULL, *vdesc_tmp = NULL;
    a_uint32_t cnt = 0, len = __adf_nbuf_queue_len(qhead);
    a_uint16_t total_len = 0;

    buf_head = VBUF_alloc_vbuf();
  90352b:	14716e        	l32r	a4, 8dfae4 <_bss_end+0x3d22dc>
 *
 */
a_uint32_t
__adf_nbuf_queue_len(__adf_nbuf_qhead_t *qhead)
{
    return qhead->qlen;
  90352e:	8322      	l32i.n	a3, a2, 8
    buf_head = VBUF_alloc_vbuf();
  903530:	2a42a6        	l32i	a10, a4, 0x298
    return qhead->qlen;
  903533:	9310      	s32i.n	a3, a1, 0
    buf_head = VBUF_alloc_vbuf();
  903535:	0ba000        	callx8	a10
  903538:	d7a0      	mov.n	a7, a10
    __adf_os_assert(buf_head);
  90353a:	cca2      	bnez.n	a10, 903540 <__adf_nbuf_create_frm_frag+0x18>
  90353c:	63fffc        	j	90353c <__adf_nbuf_create_frm_frag+0x14>
  90353f:	008320        	excw
    __adf_os_assert(buf_tmp);
  903542:	cc32      	bnez.n	a3, 903548 <__adf_nbuf_create_frm_frag+0x20>
  903544:	63fffc        	j	903544 <__adf_nbuf_create_frm_frag+0x1c>
  903547:	008330        	excw
    buf_head->desc_list = buf_tmp->desc_list;
  90354a:	93a0      	s32i.n	a3, a10, 0
    a_uint16_t total_len = 0;
  90354c:	c030      	movi.n	a3, 0
    a_uint32_t cnt = 0, len = __adf_nbuf_queue_len(qhead);
  90354e:	d530      	mov.n	a5, a3
    VDESC *vdesc_prev = NULL, *vdesc_tmp = NULL;
  903550:	d630      	mov.n	a6, a3
    while ((buf_tmp = __adf_nbuf_queue_remove(qhead)) != NULL) {
  903552:	600022        	j	903578 <__adf_nbuf_create_frm_frag+0x50>
        total_len += buf_tmp->buf_length;
  903555:	28a104        	l16ui	a8, a10, 8
        cnt++;
  903558:	b155      	addi.n	a5, a5, 1
        total_len += buf_tmp->buf_length;
  90355a:	a833      	add.n	a3, a3, a8
  90355c:	03034f        	extui	a3, a3, 0, 16
  90355f:	88a0      	l32i.n	a8, a10, 0
        if (vdesc_prev) {
  903561:	c861      	beqz.n	a6, 903566 <__adf_nbuf_create_frm_frag+0x3e>
            vdesc_prev->next_desc = buf_tmp->desc_list;
  903563:	286600        	s32i	a8, a6, 0
  903566:	d680      	mov.n	a6, a8
        while (vdesc_tmp->next_desc) {
  903568:	8880      	l32i.n	a8, a8, 0
  90356a:	658ff8        	bnez	a8, 903566 <__adf_nbuf_create_frm_frag+0x3e>
        buf_tmp->desc_list = NULL;
  90356d:	98a0      	s32i.n	a8, a10, 0
        buf_tmp->buf_length = 0;
  90356f:	28a504        	s16i	a8, a10, 8
        VBUF_free_vbuf(buf_tmp);
  903572:	2842a8        	l32i	a8, a4, 0x2a0
  903575:	0b8000        	callx8	a8
    while ((buf_tmp = __adf_nbuf_queue_remove(qhead)) != NULL) {
  903578:	da20      	mov.n	a10, a2
  90357a:	5bffc3        	call8	903488 <__adf_nbuf_queue_remove>
  90357d:	65afd4        	bnez	a10, 903555 <__adf_nbuf_create_frm_frag+0x2d>
    if (cnt != len) {
  903580:	8210      	l32i.n	a2, a1, 0
  903582:	725102        	beq	a5, a2, 903588 <__adf_nbuf_create_frm_frag+0x60>
  903585:	63fffc        	j	903585 <__adf_nbuf_create_frm_frag+0x5d>
    buf_head->buf_length = total_len;
  903588:	237504        	s16i	a3, a7, 8
}
  90358b:	d270      	mov.n	a2, a7
  90358d:	d10f      	retw.n
	...

00903590 <__adf_nbuf_split_to_frag>:
{
  903590:	6c1004        	entry	a1, 32
    qhead->qlen = 0;
  903593:	c040      	movi.n	a4, 0
  903595:	9432      	s32i.n	a4, a3, 8
    qhead->head = NULL;
  903597:	9430      	s32i.n	a4, a3, 0
    qhead->tail = NULL;
  903599:	9431      	s32i.n	a4, a3, 4
  90359b:	16716e        	l32r	a6, 8dfb54 <_bss_end+0x3d234c>
    desc_tmp = buf->desc_list;
  90359e:	8420      	l32i.n	a4, a2, 0
    while (desc_tmp /*&& desc_tmp->buf_addr*/) {
  9035a0:	600026        	j	9035ca <__adf_nbuf_split_to_frag+0x3a>
        buf_tmp = VBUF_alloc_vbuf();
  9035a3:	2a62a6        	l32i	a10, a6, 0x298
  9035a6:	0ba000        	callx8	a10
  9035a9:	d5a0      	mov.n	a5, a10
        __adf_os_assert(buf_tmp);
  9035ab:	cca2      	bnez.n	a10, 9035b1 <__adf_nbuf_split_to_frag+0x21>
  9035ad:	63fffc        	j	9035ad <__adf_nbuf_split_to_frag+0x1d>
  9035b0:	002741        	extui	a7, a0, 2, 2
        buf_tmp->buf_length = desc_tmp->data_size;
  9035b3:	0694a0        	excw
  9035b6:	27a504        	s16i	a7, a10, 8
        buf_tmp->next_buf = NULL;
  9035b9:	c070      	movi.n	a7, 0
  9035bb:	97a1      	s32i.n	a7, a10, 4
        __adf_nbuf_queue_add(qhead, buf_tmp);
  9035bd:	dba0      	mov.n	a11, a10
  9035bf:	da30      	mov.n	a10, a3
  9035c1:	5bffa9        	call8	903468 <__adf_nbuf_queue_add>
        buf_tmp->desc_list->next_desc = NULL;
  9035c4:	8550      	l32i.n	a5, a5, 0
        desc_tmp = desc_tmp->next_desc;
  9035c6:	8440      	l32i.n	a4, a4, 0
        buf_tmp->desc_list->next_desc = NULL;
  9035c8:	9750      	s32i.n	a7, a5, 0
    while (desc_tmp /*&& desc_tmp->buf_addr*/) {
  9035ca:	654fd5        	bnez	a4, 9035a3 <__adf_nbuf_split_to_frag+0x13>
    VBUF_free_vbuf(buf);
  9035cd:	2362a8        	l32i	a3, a6, 0x2a0
    buf->desc_list = NULL;
  9035d0:	9420      	s32i.n	a4, a2, 0
    buf->buf_length = 0;
  9035d2:	242504        	s16i	a4, a2, 8
    VBUF_free_vbuf(buf);
  9035d5:	da20      	mov.n	a10, a2
  9035d7:	0b3000        	callx8	a3
  9035da:	d10f      	retw.n

009035dc <__adf_nbuf_last>:
{
  9035dc:	6c1004        	entry	a1, 32
    VDESC *desc = buf->desc_list;
  9035df:	8220      	l32i.n	a2, a2, 0
    while(desc->next_desc != NULL)
  9035e1:	600001        	j	9035e6 <__adf_nbuf_last+0xa>
  9035e4:	d280      	mov.n	a2, a8
  9035e6:	8820      	l32i.n	a8, a2, 0
  9035e8:	658ff8        	bnez	a8, 9035e4 <__adf_nbuf_last+0x8>
}
  9035eb:	d10f      	retw.n
  9035ed:	000000        	ill

009035f0 <__adf_nbuf_put_tail>:
{
  9035f0:	6c1004        	entry	a1, 32
    VDESC *last_desc = __adf_nbuf_last(buf);
  9035f3:	da20      	mov.n	a10, a2
  9035f5:	5bfff9        	call8	9035dc <__adf_nbuf_last>
    tail = last_desc->buf_addr + last_desc->data_offset + last_desc->data_size;
  9035f8:	28a106        	l16ui	a8, a10, 12
  9035fb:	29a105        	l16ui	a9, a10, 10
    last_desc->data_size += len;
  9035fe:	03034f        	extui	a3, a3, 0, 16
    tail = last_desc->buf_addr + last_desc->data_offset + last_desc->data_size;
  903601:	a899      	add.n	a9, a9, a8
    last_desc->data_size += len;
  903603:	a388      	add.n	a8, a8, a3
  903605:	28a506        	s16i	a8, a10, 12
    buf->buf_length += len;
  903608:	282104        	l16ui	a8, a2, 8
    tail = last_desc->buf_addr + last_desc->data_offset + last_desc->data_size;
  90360b:	8ba1      	l32i.n	a11, a10, 4
    buf->buf_length += len;
  90360d:	a833      	add.n	a3, a3, a8
  90360f:	232504        	s16i	a3, a2, 8
}
  903612:	a9b2      	add.n	a2, a11, a9
  903614:	d10f      	retw.n
	...

00903618 <__adf_nbuf_trim_tail>:
{
  903618:	6c1004        	entry	a1, 32
    VDESC *last_desc = __adf_nbuf_last(buf);
  90361b:	da20      	mov.n	a10, a2
  90361d:	5bffef        	call8	9035dc <__adf_nbuf_last>
    adf_os_assert(buf != NULL);
  903620:	cc21      	bnez.n	a2, 903625 <__adf_nbuf_trim_tail+0xd>
  903622:	63fffc        	j	903622 <__adf_nbuf_trim_tail+0xa>
    last_desc->data_size -= len;
  903625:	28a106        	l16ui	a8, a10, 12
  903628:	03034f        	extui	a3, a3, 0, 16
  90362b:	03880c        	sub	a8, a8, a3
  90362e:	28a506        	s16i	a8, a10, 12
    buf->buf_length -= len;
  903631:	282104        	l16ui	a8, a2, 8
  903634:	03830c        	sub	a3, a8, a3
  903637:	232504        	s16i	a3, a2, 8
  90363a:	d10f      	retw.n

0090363c <__adf_nbuf_headroom>:
{
  90363c:	6c1004        	entry	a1, 32
    return buf->desc_list->data_offset;
  90363f:	8820      	l32i.n	a8, a2, 0
}
  903641:	228105        	l16ui	a2, a8, 10
  903644:	d10f      	retw.n
	...

00903648 <__adf_nbuf_tailroom>:
{
  903648:	6c1004        	entry	a1, 32
    VDESC *last_desc = __adf_nbuf_last(buf);
  90364b:	da20      	mov.n	a10, a2
  90364d:	5bffe3        	call8	9035dc <__adf_nbuf_last>
    return last_desc->buf_size - last_desc->data_offset - last_desc->data_size;
  903650:	22a105        	l16ui	a2, a10, 10
  903653:	28a104        	l16ui	a8, a10, 8
  903656:	02880c        	sub	a8, a8, a2
  903659:	22a106        	l16ui	a2, a10, 12
}
  90365c:	02820c        	sub	a2, a8, a2
  90365f:	d10f      	retw.n
  903661:	000000        	ill

00903664 <__adf_nbuf_len>:
{
  903664:	6c1004        	entry	a1, 32
}
  903667:	222104        	l16ui	a2, a2, 8
  90366a:	d10f      	retw.n

0090366c <__adf_nbuf_clone>:
{
  90366c:	6c1004        	entry	a1, 32
}
  90366f:	c020      	movi.n	a2, 0
  903671:	d10f      	retw.n
	...

00903674 <__adf_nbuf_cat>:
{
  903674:	6c1004        	entry	a1, 32
  903677:	d10f      	retw.n
  903679:	000000        	ill

0090367c <__adf_nbuf_is_cloned>:
{
  90367c:	6c1004        	entry	a1, 32
}
  90367f:	c020      	movi.n	a2, 0
  903681:	d10f      	retw.n
	...

00903684 <__adf_nbuf_peek_header>:
{
  903684:	6c1004        	entry	a1, 32
    VDESC *desc = buf->desc_list;
  903687:	8820      	l32i.n	a8, a2, 0
    *addr = desc->buf_addr + desc->data_offset;
  903689:	2a8105        	l16ui	a10, a8, 10
  90368c:	8981      	l32i.n	a9, a8, 4
    *len = desc->data_size;
  90368e:	288106        	l16ui	a8, a8, 12
    *addr = desc->buf_addr + desc->data_offset;
  903691:	aa99      	add.n	a9, a9, a10
  903693:	9930      	s32i.n	a9, a3, 0
    *len = desc->data_size;
  903695:	9840      	s32i.n	a8, a4, 0
  903697:	d10f      	retw.n
  903699:	000000        	ill

0090369c <__adf_nbuf_queue_init>:
{
  90369c:	6c1004        	entry	a1, 32
    qhead->qlen = 0;
  90369f:	c080      	movi.n	a8, 0
  9036a1:	9822      	s32i.n	a8, a2, 8
    qhead->head = NULL;
  9036a3:	9820      	s32i.n	a8, a2, 0
    qhead->tail = NULL;
  9036a5:	9821      	s32i.n	a8, a2, 4
  9036a7:	d10f      	retw.n
  9036a9:	000000        	ill

009036ac <__adf_nbuf_queue_len>:
{
  9036ac:	6c1004        	entry	a1, 32
}
  9036af:	8222      	l32i.n	a2, a2, 8
  9036b1:	d10f      	retw.n
	...

009036b4 <__adf_nbuf_queue_first>:
 *
 * @return (NULL if the Q is empty)
 */
__adf_nbuf_t
__adf_nbuf_queue_first(__adf_nbuf_queue_t *qhead)
{
  9036b4:	6c1004        	entry	a1, 32
    return qhead->head;
}
  9036b7:	8220      	l32i.n	a2, a2, 0
  9036b9:	d10f      	retw.n
	...

009036bc <__adf_nbuf_queue_next>:
 *
 * @return (NULL if no packets are there)
 */
__adf_nbuf_t
__adf_nbuf_queue_next(__adf_nbuf_t  buf)
{
  9036bc:	6c1004        	entry	a1, 32
    return buf->next_buf;
}
  9036bf:	8221      	l32i.n	a2, a2, 4
  9036c1:	d10f      	retw.n
	...

009036c4 <__adf_nbuf_is_queue_empty>:
 *
 * @return a_bool_t
 */
a_bool_t
__adf_nbuf_is_queue_empty(__adf_nbuf_qhead_t *qhead)
{
  9036c4:	6c1004        	entry	a1, 32
    return ((qhead->qlen == 0));
  9036c7:	8222      	l32i.n	a2, a2, 8
  9036c9:	c091      	movi.n	a9, 1
  9036cb:	c080      	movi.n	a8, 0
  9036cd:	029838        	moveqz	a8, a9, a2
  9036d0:	d280      	mov.n	a2, a8
}
  9036d2:	d10f      	retw.n

009036d4 <_buf_pool_static_init>:
    pAPIs->_free_buf = _buf_pool_static_free_buf;
    pAPIs->_shutdown = _buf_pool_static_shutdown;
}

LOCAL pool_handle_t _buf_pool_static_init(adf_os_handle_t handle)
{
  9036d4:	6c1004        	entry	a1, 32
  9036d7:	c080      	movi.n	a8, 0
#if 1
    int i;

    for(i=0; i < POOL_ID_MAX; i++) {
        g_poolCtx.bufQ[i] = NULL;
  9036d9:	1271a7        	l32r	a2, 8dfd78 <_bss_end+0x3d2570>
  9036dc:	db80      	mov.n	a11, a8
    for(i=0; i < POOL_ID_MAX; i++) {
  9036de:	290a0a        	movi	a9, 10
  9036e1:	6d9805        	loop	a9, 9036ea <_buf_pool_static_init+0x16>
        g_poolCtx.bufQ[i] = NULL;
  9036e4:	a28a      	add.n	a10, a8, a2
  9036e6:	9ba0      	s32i.n	a11, a10, 0
  9036e8:	b488      	addi.n	a8, a8, 4
    ctx = (BUF_POOL_STATIC_CONTEXT *)adf_os_mem_alloc(sizeof(BUF_POOL_STATIC_CONTEXT));
    ctx->NetHandle = handle;

    return ctx;
#endif
}
  9036ea:	d10f      	retw.n

009036ec <_buf_pool_static_shutdown>:

LOCAL void _buf_pool_static_shutdown(pool_handle_t handle)
{
  9036ec:	6c1004        	entry	a1, 32
  9036ef:	d10f      	retw.n
  9036f1:	000000        	ill

009036f4 <_buf_pool_static_create_pool>:
    // SHALL NOT BE USED in FW
}

LOCAL void _buf_pool_static_create_pool(pool_handle_t handle, BUF_POOL_ID poolId, int nItems, int nSize)
{
  9036f4:	6c1006        	entry	a1, 48
        desc->data_size = 0;

        buf->buf_length = 0;
        buf->desc_list = desc;

        if ( g_poolCtx.bufQ[poolId] == NULL ) {
  9036f7:	1271a7        	l32r	a2, 8dfd94 <_bss_end+0x3d258c>
  9036fa:	0e3311        	slli	a3, a3, 2
{
  9036fd:	d940      	mov.n	a9, a4
        buf = VBUF_alloc_vbuf();
  9036ff:	16716e        	l32r	a6, 8dfcb8 <_bss_end+0x3d24b0>
    for ( i = 0; i < nItems; i++) {
  903702:	c040      	movi.n	a4, 0
        if ( g_poolCtx.bufQ[poolId] == NULL ) {
  903704:	a323      	add.n	a3, a2, a3
    for ( i = 0; i < nItems; i++) {
  903706:	60003c        	j	903746 <_buf_pool_static_create_pool+0x52>
        buf = VBUF_alloc_vbuf();
  903709:	2a62a6        	l32i	a10, a6, 0x298
  90370c:	9910      	s32i.n	a9, a1, 0
  90370e:	0ba000        	callx8	a10
  903711:	d2a0      	mov.n	a2, a10
        desc = VDESC_alloc_vdesc();
  903713:	2a62ab        	l32i	a10, a6, 0x2ac
  903716:	0ba000        	callx8	a10
    return A_ALLOCRAM(size);
  903719:	286252        	l32i	a8, a6, 0x148
  90371c:	d7a0      	mov.n	a7, a10
  90371e:	db50      	mov.n	a11, a5
  903720:	c0a0      	movi.n	a10, 0
  903722:	0b8000        	callx8	a8
        desc->data_offset = 0;
  903725:	c080      	movi.n	a8, 0
        desc->buf_addr = (A_UINT8 *)adf_os_mem_alloc(nSize);
  903727:	9a71      	s32i.n	a10, a7, 4
        desc->buf_size = nSize;
  903729:	257504        	s16i	a5, a7, 8
        desc->data_offset = 0;
  90372c:	287505        	s16i	a8, a7, 10
        desc->data_size = 0;
  90372f:	287506        	s16i	a8, a7, 12
        buf->desc_list = desc;
  903732:	9720      	s32i.n	a7, a2, 0
        if ( g_poolCtx.bufQ[poolId] == NULL ) {
  903734:	8730      	l32i.n	a7, a3, 0
        buf->buf_length = 0;
  903736:	282504        	s16i	a8, a2, 8
        if ( g_poolCtx.bufQ[poolId] == NULL ) {
  903739:	8910      	l32i.n	a9, a1, 0
  90373b:	cc71      	bnez.n	a7, 903740 <_buf_pool_static_create_pool+0x4c>
  90373d:	600001        	j	903742 <_buf_pool_static_create_pool+0x4e>
            g_poolCtx.bufQ[poolId] = buf;
        } else {
            buf->next_buf = g_poolCtx.bufQ[poolId];
  903740:	9721      	s32i.n	a7, a2, 4
            g_poolCtx.bufQ[poolId] = buf;
  903742:	9230      	s32i.n	a2, a3, 0
    for ( i = 0; i < nItems; i++) {
  903744:	b144      	addi.n	a4, a4, 1
  903746:	7942bf        	blt	a4, a9, 903709 <_buf_pool_static_create_pool+0x15>
        }
    }
}
  903749:	d10f      	retw.n
	...

0090374c <_buf_pool_static_alloc_buf>:

LOCAL adf_nbuf_t  _buf_pool_static_alloc_buf(pool_handle_t handle, BUF_POOL_ID poolId, int reserve)
{
  90374c:	6c1004        	entry	a1, 32
    VBUF *buf;

    buf = g_poolCtx.bufQ[poolId];
  90374f:	1271a7        	l32r	a2, 8dfdec <_bss_end+0x3d25e4>
  903752:	0e3311        	slli	a3, a3, 2
  903755:	a323      	add.n	a3, a2, a3
  903757:	8230      	l32i.n	a2, a3, 0
    if ( buf != NULL ) {
  903759:	c921      	beqz.n	a2, 90376e <_buf_pool_static_alloc_buf+0x22>
        g_poolCtx.bufQ[poolId] = buf->next_buf;
  90375b:	8821      	l32i.n	a8, a2, 4
  90375d:	9830      	s32i.n	a8, a3, 0

        buf->next_buf = NULL;
  90375f:	c030      	movi.n	a3, 0
        buf->desc_list->data_offset = reserve;
  903761:	8820      	l32i.n	a8, a2, 0
        buf->next_buf = NULL;
  903763:	9321      	s32i.n	a3, a2, 4
        buf->desc_list->data_offset = reserve;
  903765:	248505        	s16i	a4, a8, 10
        buf->desc_list->data_size = 0;
  903768:	238506        	s16i	a3, a8, 12
        buf->buf_length = 0;
  90376b:	232504        	s16i	a3, a2, 8
    }

    return buf;
}
  90376e:	d10f      	retw.n

00903770 <_buf_pool_static_alloc_buf_align>:

LOCAL adf_nbuf_t  _buf_pool_static_alloc_buf_align(pool_handle_t handle, BUF_POOL_ID poolId, int reserve, int align)
{
  903770:	6c1004        	entry	a1, 32
    return _buf_pool_static_alloc_buf(handle, poolId, reserve);
  903773:	dc40      	mov.n	a12, a4
  903775:	db30      	mov.n	a11, a3
  903777:	da20      	mov.n	a10, a2
  903779:	5bfff4        	call8	90374c <_buf_pool_static_alloc_buf>
}
  90377c:	d2a0      	mov.n	a2, a10
  90377e:	d10f      	retw.n

00903780 <_buf_pool_static_free_buf>:

LOCAL void _buf_pool_static_free_buf(pool_handle_t handle, BUF_POOL_ID poolId, adf_nbuf_t buf)
{
  903780:	6c1004        	entry	a1, 32
    if ( g_poolCtx.bufQ[poolId] == NULL ) {
  903783:	1871a7        	l32r	a8, 8dfe20 <_bss_end+0x3d2618>
  903786:	0e3311        	slli	a3, a3, 2
  903789:	a383      	add.n	a3, a8, a3
  90378b:	8830      	l32i.n	a8, a3, 0
  90378d:	cc81      	bnez.n	a8, 903792 <_buf_pool_static_free_buf+0x12>
  90378f:	600001        	j	903794 <_buf_pool_static_free_buf+0x14>
        g_poolCtx.bufQ[poolId] = buf;
    } else {
        buf->next_buf = g_poolCtx.bufQ[poolId];
  903792:	9841      	s32i.n	a8, a4, 4
        g_poolCtx.bufQ[poolId] = buf;
  903794:	9430      	s32i.n	a4, a3, 0
  903796:	d10f      	retw.n

00903798 <buf_pool_module_install>:
{
  903798:	6c1004        	entry	a1, 32
    pAPIs->_init = _buf_pool_static_init;
  90379b:	1871a8        	l32r	a8, 8dfe3c <_bss_end+0x3d2634>
  90379e:	9820      	s32i.n	a8, a2, 0
    pAPIs->_create_pool = _buf_pool_static_create_pool;
  9037a0:	1871a9        	l32r	a8, 8dfe44 <_bss_end+0x3d263c>
  9037a3:	9822      	s32i.n	a8, a2, 8
    pAPIs->_alloc_buf = _buf_pool_static_alloc_buf;
  9037a5:	1871aa        	l32r	a8, 8dfe50 <_bss_end+0x3d2648>
  9037a8:	9823      	s32i.n	a8, a2, 12
    pAPIs->_alloc_buf_align = _buf_pool_static_alloc_buf_align;
  9037aa:	1871ab        	l32r	a8, 8dfe58 <_bss_end+0x3d2650>
  9037ad:	9824      	s32i.n	a8, a2, 16
    pAPIs->_free_buf = _buf_pool_static_free_buf;
  9037af:	1871ac        	l32r	a8, 8dfe60 <_bss_end+0x3d2658>
  9037b2:	9825      	s32i.n	a8, a2, 20
    pAPIs->_shutdown = _buf_pool_static_shutdown;
  9037b4:	1871ad        	l32r	a8, 8dfe68 <_bss_end+0x3d2660>
  9037b7:	9821      	s32i.n	a8, a2, 4
  9037b9:	d10f      	retw.n
	...

009037bc <_fw_usbfifo_recv_command>:

typedef void (* USBFIFO_recv_command)(VBUF *cmd);
USBFIFO_recv_command m_origUsbfifoRecvCmd = NULL;

void _fw_usbfifo_recv_command(VBUF *buf)
{
  9037bc:	6c1004        	entry	a1, 32
	uint8_t *cmd_data;
	uint32_t tmp;

	cmd_data = (uint8_t *)(buf->desc_list->buf_addr +
  9037bf:	8920      	l32i.n	a9, a2, 0
{
  9037c1:	da20      	mov.n	a10, a2
				buf->desc_list->data_offset);
  9037c3:	2b9105        	l16ui	a11, a9, 10
	tmp = *((uint32_t *)cmd_data);
  9037c6:	8891      	l32i.n	a8, a9, 4
  9037c8:	ab88      	add.n	a8, a8, a11
	if (tmp == 0xFFFFFFFF)
  9037ca:	8880      	l32i.n	a8, a8, 0
  9037cc:	698004        	bnei	a8, -1, 9037d4 <_fw_usbfifo_recv_command+0x18>
		_fw_usb_suspend_reboot();
  9037cf:	5803c9        	call8	9046f4 <_fw_usb_suspend_reboot>
  9037d2:	d10f      	retw.n
	else
		m_origUsbfifoRecvCmd(buf);
  9037d4:	1871ae        	l32r	a8, 8dfe8c <_bss_end+0x3d2684>
  9037d7:	8880      	l32i.n	a8, a8, 0
  9037d9:	0b8000        	callx8	a8
  9037dc:	d10f      	retw.n
	...

009037e0 <_fw_usbfifo_init>:
}

void _fw_usbfifo_init(USB_FIFO_CONFIG *pConfig)
{
  9037e0:	6c1004        	entry	a1, 32
	m_origUsbfifoRecvCmd = pConfig->recv_command;
  9037e3:	8921      	l32i.n	a9, a2, 4
  9037e5:	1871ae        	l32r	a8, 8dfea0 <_bss_end+0x3d2698>
  9037e8:	9980      	s32i.n	a9, a8, 0

	usbFifoConf.get_command_buf = pConfig->get_command_buf;
  9037ea:	8920      	l32i.n	a9, a2, 0
  9037ec:	1871af        	l32r	a8, 8dfea8 <_bss_end+0x3d26a0>
  9037ef:	9980      	s32i.n	a9, a8, 0
	usbFifoConf.recv_command    = _fw_usbfifo_recv_command;
  9037f1:	1971b0        	l32r	a9, 8dfeb4 <_bss_end+0x3d26ac>
  9037f4:	9981      	s32i.n	a9, a8, 4
	usbFifoConf.get_event_buf   = pConfig->get_event_buf;
  9037f6:	8922      	l32i.n	a9, a2, 8
	usbFifoConf.send_event_done = pConfig->send_event_done;
  9037f8:	8223      	l32i.n	a2, a2, 12
	usbFifoConf.get_event_buf   = pConfig->get_event_buf;
  9037fa:	9982      	s32i.n	a9, a8, 8
	usbFifoConf.send_event_done = pConfig->send_event_done;
  9037fc:	9283      	s32i.n	a2, a8, 12
  9037fe:	d10f      	retw.n

00903800 <cold_reboot>:
}

void cold_reboot(void)
{
  903800:	6c1004        	entry	a1, 32
	A_PRINTF("Cold reboot initiated.");
  903803:	12716e        	l32r	a2, 8dfdbc <_bss_end+0x3d25b4>
  903806:	1a71b1        	l32r	a10, 8dfecc <_bss_end+0x3d26c4>
  903809:	282212        	l32i	a8, a2, 72
  90380c:	0b8000        	callx8	a8
	*(volatile uint32_t *) addr = b;
  90380f:	187172        	l32r	a8, 8dfdd8 <_bss_end+0x3d25d0>
  903812:	c090      	movi.n	a9, 0
#if defined(PROJECT_MAGPIE)
	iowrite32(WATCH_DOG_MAGIC_PATTERN_ADDR, 0);
#elif defined(PROJECT_K2)
	iowrite32(MAGPIE_REG_RST_STATUS_ADDR, 0);
#endif /* #if defined(PROJECT_MAGPIE) */
	A_USB_JUMP_BOOT();
  903814:	22222b        	l32i	a2, a2, 172
  903817:	0c0200        	memw
  90381a:	298600        	s32i	a9, a8, 0
  90381d:	0b2000        	callx8	a2
  903820:	d10f      	retw.n
	...

00903824 <usb_status_in_patch>:

/*
 * support more than 64 bytes command on ep3
 */
void usb_status_in_patch(void)
{
  903824:	6c1004        	entry	a1, 32
	static VBUF *evntbuf = NULL;
	static volatile uint32_t *regaddr;
	static BOOLEAN cmd_is_new = TRUE;
	BOOLEAN cmd_end = FALSE;

	if (cmd_is_new) {
  903827:	1271b2        	l32r	a2, 8dfef0 <_bss_end+0x3d26e8>
  90382a:	282100        	l16ui	a8, a2, 0
  90382d:	648048        	beqz	a8, 903879 <usb_status_in_patch+0x55>
		evntbuf = usbFifoConf.get_event_buf();
  903830:	1871af        	l32r	a8, 8dfeec <_bss_end+0x3d26e4>
  903833:	8a82      	l32i.n	a10, a8, 8
  903835:	0ba000        	callx8	a10
  903838:	1871b3        	l32r	a8, 8dff04 <_bss_end+0x3d26fc>
  90383b:	9a80      	s32i.n	a10, a8, 0
		if (evntbuf != NULL) {
  90383d:	c9af      	beqz.n	a10, 903860 <usb_status_in_patch+0x3c>
			regaddr = (uint32_t *)VBUF_GET_DATA_ADDR(evntbuf);
  90383f:	89a0      	l32i.n	a9, a10, 0
  903841:	2b9105        	l16ui	a11, a9, 10
  903844:	8891      	l32i.n	a8, a9, 4
  903846:	1971b4        	l32r	a9, 8dff18 <_bss_end+0x3d2710>
  903849:	ab88      	add.n	a8, a8, a11
  90384b:	9890      	s32i.n	a8, a9, 0
			buf_len = evntbuf->buf_length;
  90384d:	1871b5        	l32r	a8, 8dff24 <_bss_end+0x3d271c>
  903850:	29a104        	l16ui	a9, a10, 8
  903853:	298500        	s16i	a9, a8, 0
		} else {
			mUSB_STATUS_IN_INT_DISABLE();
			return;
		}

		cmd_is_new = FALSE;
  903856:	c080      	movi.n	a8, 0
  903858:	282500        	s16i	a8, a2, 0
  90385b:	60001a        	j	903879 <usb_status_in_patch+0x55>
  90385e:	000018        	src	a0, a0, a0
	return *(const volatile uint8_t *) addr;
  903861:	71b629        	bbci	a11, 1, 90388e <usb_status_in_patch+0x6a>
			mUSB_STATUS_IN_INT_DISABLE();
  903864:	0ac022        	excw
  903867:	8000      	l32i.n	a0, a0, 0
  903869:	020247        	extui	a2, a2, 0, 8
  90386c:	092202        	or	a2, a2, a9
	*(volatile uint8_t *) addr = b;
  90386f:	0c0200        	memw
  903872:	228400        	s8i	a2, a8, 0
  903875:	d10f      	retw.n
  903877:	00001a        	sll	a0, a0
	}

	if (buf_len > USB_EP3_MAX_PKT_SIZE) {
  90387a:	71b5c4        	bbc	a11, a1, 903842 <usb_status_in_patch+0x1e>
  90387d:	9028      	s32i.n	a0, a2, 32
  90387f:	a100      	add.n	a0, a0, a1
	}
	/* TODO: 64 bytes...
	 * controller supposed will take care of zero-length? */
	else {
		reg_buf_len = buf_len;
		cmd_end = TRUE;
  903881:	c0c1      	movi.n	a12, 1
	if (buf_len > USB_EP3_MAX_PKT_SIZE) {
  903883:	789b09        	bgeu	a9, a8, 903890 <usb_status_in_patch+0x6c>
		buf_len -= USB_EP3_MAX_PKT_SIZE;
  903886:	288cc0        	addi	a8, a8, -64
  903889:	28a500        	s16i	a8, a10, 0
	BOOLEAN cmd_end = FALSE;
  90388c:	c0c0      	movi.n	a12, 0
		reg_buf_len = USB_EP3_MAX_PKT_SIZE;
  90388e:	d890      	mov.n	a8, a9
  903890:	1b71b4        	l32r	a11, 8dff60 <_bss_end+0x3d2758>
  903893:	082914        	srli	a9, a8, 2
  903896:	8ab0      	l32i.n	a10, a11, 0
  903898:	0e9911        	slli	a9, a9, 2
  90389b:	a9a9      	add.n	a9, a10, a9
	}

	/* INT use EP3 */
	for (count = 0; count < (reg_buf_len / 4); count++)
  90389d:	c0d0      	movi.n	a13, 0
  90389f:	1e71b7        	l32r	a14, 8dff7c <_bss_end+0x3d2774>
  9038a2:	c0f1      	movi.n	a15, 1
  9038a4:	60000e        	j	9038b6 <usb_status_in_patch+0x92>
  9038a7:	000c02        	or	a12, a0, a0
	{
		iowrite32_usb(ZM_EP3_DATA_OFFSET, *regaddr);
  9038aa:	008da0        	excw
		regaddr++;
  9038ad:	b4aa      	addi.n	a10, a10, 4
	*(volatile uint32_t *) addr = b;
  9038af:	0c0200        	memw
  9038b2:	9de0      	s32i.n	a13, a14, 0
  9038b4:	ddf0      	mov.n	a13, a15
	for (count = 0; count < (reg_buf_len / 4); count++)
  9038b6:	7a99ee        	bne	a9, a10, 9038a8 <usb_status_in_patch+0x84>
  9038b9:	c8d0      	beqz.n	a13, 9038bd <usb_status_in_patch+0x99>
  9038bb:	99b0      	s32i.n	a9, a11, 0
	}

	remainder = reg_buf_len % 4;
  9038bd:	080841        	extui	a8, a8, 0, 2

	if (remainder) {
  9038c0:	cb81      	beqz.n	a8, 9038f5 <usb_status_in_patch+0xd1>
  9038c2:	197195        	l32r	a9, 8dff18 <_bss_end+0x3d2710>
		switch(remainder) {
  9038c5:	688207        	beqi	a8, 2, 9038d0 <usb_status_in_patch+0xac>
  9038c8:	698309        	bnei	a8, 3, 9038d5 <usb_status_in_patch+0xb1>
  9038cb:	c087      	movi.n	a8, 7
  9038cd:	600006        	j	9038d7 <usb_status_in_patch+0xb3>
  9038d0:	c083      	movi.n	a8, 3
  9038d2:	600001        	j	9038d7 <usb_status_in_patch+0xb3>
  9038d5:	c081      	movi.n	a8, 1
  9038d7:	0c0200        	memw
  9038da:	9890      	s32i.n	a8, a9, 0
		case 1:
			iowrite32_usb(ZM_CBUS_FIFO_SIZE_OFFSET, 0x1);
			break;
		}

		iowrite32_usb(ZM_EP3_DATA_OFFSET, *regaddr);
  9038dc:	88b0      	l32i.n	a8, a11, 0
  9038de:	0c0200        	memw
  9038e1:	8980      	l32i.n	a9, a8, 0
  9038e3:	1871b7        	l32r	a8, 8dffc0 <_bss_end+0x3d27b8>
  9038e6:	0c0200        	memw
  9038e9:	9980      	s32i.n	a9, a8, 0
  9038eb:	187195        	l32r	a8, 8dff40 <_bss_end+0x3d2738>
  9038ee:	c09f      	movi.n	a9, 15
  9038f0:	0c0200        	memw
  9038f3:	9980      	s32i.n	a9, a8, 0
	return *(const volatile uint8_t *) addr;
  9038f5:	1971b8        	l32r	a9, 8dffd8 <_bss_end+0x3d27d0>

		/* Restore CBus FIFO size to word size */
		iowrite32_usb(ZM_CBUS_FIFO_SIZE_OFFSET, 0xF);
	}

	mUSB_EP3_XFER_DONE();
  9038f8:	c0a8      	movi.n	a10, 8
  9038fa:	289000        	l8ui	a8, a9, 0
  9038fd:	080847        	extui	a8, a8, 0, 8
  903900:	0a8802        	or	a8, a8, a10
	*(volatile uint8_t *) addr = b;
  903903:	0c0200        	memw
  903906:	289400        	s8i	a8, a9, 0

	if (evntbuf != NULL && cmd_end) {
  903909:	1871b3        	l32r	a8, 8dffd8 <_bss_end+0x3d27d0>
  90390c:	8a80      	l32i.n	a10, a8, 0
  90390e:	c8af      	beqz.n	a10, 903921 <usb_status_in_patch+0xfd>
  903910:	64c00d        	beqz	a12, 903921 <usb_status_in_patch+0xfd>
		usbFifoConf.send_event_done(evntbuf);
  903913:	1871af        	l32r	a8, 8dffd0 <_bss_end+0x3d27c8>
  903916:	288203        	l32i	a8, a8, 12
  903919:	0b8000        	callx8	a8
		cmd_is_new = TRUE;
  90391c:	c081      	movi.n	a8, 1
  90391e:	282500        	s16i	a8, a2, 0
  903921:	d10f      	retw.n
	...

00903924 <usb_reg_out_patch>:

/*
 * support more than 64 bytes command on ep4
 */
void usb_reg_out_patch(void)
{
  903924:	6c1004        	entry	a1, 32
	return *(const volatile uint8_t *) addr;
  903927:	1271b9        	l32r	a2, 8e000c <_bss_end+0x3d2804>
	static BOOLEAN cmd_is_new = TRUE;

	/* get the size of this transcation */
	usbfifolen = ioread8_usb(ZM_EP4_BYTE_COUNT_LOW_OFFSET);

	if (usbfifolen > USB_EP4_MAX_PKT_SIZE) {
  90392a:	240a40        	movi	a4, 64
  90392d:	222000        	l8ui	a2, a2, 0
  903930:	020247        	extui	a2, a2, 0, 8
	usbfifolen = ioread8_usb(ZM_EP4_BYTE_COUNT_LOW_OFFSET);
  903933:	02034f        	extui	a3, a2, 0, 16
	if (usbfifolen > USB_EP4_MAX_PKT_SIZE) {
  903936:	734b11        	bgeu	a4, a3, 90394b <usb_reg_out_patch+0x27>
		A_PRINTF("EP4 FIFO Bug? Buffer is too big: %x\n", usbfifolen);
  903939:	14716e        	l32r	a4, 8dfef4 <_bss_end+0x3d26ec>
  90393c:	1a71ba        	l32r	a10, 8e0024 <_bss_end+0x3d281c>
  90393f:	244212        	l32i	a4, a4, 72
  903942:	022b02        	or	a11, a2, a2
  903945:	0b4000        	callx8	a4
		cold_reboot();
  903948:	5bffad        	call8	903800 <cold_reboot>
	}

	/* check is command is new */
	if(cmd_is_new) {
  90394b:	1471bb        	l32r	a4, 8e0038 <_bss_end+0x3d2830>
  90394e:	1571bc        	l32r	a5, 8e0040 <_bss_end+0x3d2838>
  903951:	284100        	l16ui	a8, a4, 0
  903954:	ca8d      	beqz.n	a8, 903985 <usb_reg_out_patch+0x61>

		buf = usbFifoConf.get_command_buf();
  903956:	1871af        	l32r	a8, 8e0014 <_bss_end+0x3d280c>
  903959:	8a80      	l32i.n	a10, a8, 0
  90395b:	0ba000        	callx8	a10
		cmd_len = 0;
  90395e:	1971bd        	l32r	a9, 8e0054 <_bss_end+0x3d284c>
  903961:	c080      	movi.n	a8, 0
		buf = usbFifoConf.get_command_buf();
  903963:	9a50      	s32i.n	a10, a5, 0
		cmd_len = 0;
  903965:	289500        	s16i	a8, a9, 0

		if(!buf) {
  903968:	ccad      	bnez.n	a10, 903979 <usb_reg_out_patch+0x55>
			A_PRINTF("%s: Filed to get new buffer.\n", __func__);
  90396a:	12716e        	l32r	a2, 8dff24 <_bss_end+0x3d271c>
  90396d:	1b71be        	l32r	a11, 8e0068 <_bss_end+0x3d2860>
  903970:	222212        	l32i	a2, a2, 72
  903973:	1a71bf        	l32r	a10, 8e0070 <_bss_end+0x3d2868>
  903976:	600031        	j	9039ab <usb_reg_out_patch+0x87>
			goto err;
		}

		/* copy free, assignment buffer of the address */
		regaddr = (uint32_t *)buf->desc_list->buf_addr;
  903979:	89a0      	l32i.n	a9, a10, 0

		cmd_is_new = FALSE;
  90397b:	284500        	s16i	a8, a4, 0
		regaddr = (uint32_t *)buf->desc_list->buf_addr;
  90397e:	8a91      	l32i.n	a10, a9, 4
  903980:	1971c0        	l32r	a9, 8e0080 <_bss_end+0x3d2878>
  903983:	9a90      	s32i.n	a10, a9, 0
	}

	/* just in case, suppose should not happen */
	if(!buf)
  903985:	8a50      	l32i.n	a10, a5, 0
  903987:	caa3      	beqz.n	a10, 9039ae <usb_reg_out_patch+0x8a>
	 */
	if(usbfifolen < USB_EP4_MAX_PKT_SIZE)
		cmd_is_last = TRUE;

	/* accumulate the size */
	cmd_len += usbfifolen;
  903989:	1971bd        	l32r	a9, 8e0080 <_bss_end+0x3d2878>
  90398c:	289100        	l16ui	a8, a9, 0
  90398f:	a838      	add.n	a8, a3, a8
  903991:	08084f        	extui	a8, a8, 0, 16
  903994:	289500        	s16i	a8, a9, 0

	if (cmd_len > buf->desc_list->buf_size) {
  903997:	89a0      	l32i.n	a9, a10, 0
  903999:	259104        	l16ui	a5, a9, 8
  90399c:	785b18        	bgeu	a5, a8, 9039b8 <usb_reg_out_patch+0x94>
		A_PRINTF("%s: Data length on EP4 FIFO is bigger as "
  90399f:	12716e        	l32r	a2, 8dff58 <_bss_end+0x3d2750>
  9039a2:	1b71be        	l32r	a11, 8e009c <_bss_end+0x3d2894>
  9039a5:	222212        	l32i	a2, a2, 72
  9039a8:	1a71c1        	l32r	a10, 8e00ac <_bss_end+0x3d28a4>
  9039ab:	0b2000        	callx8	a2
		usbfifolen = (usbfifolen >> 2) + 1;
	else
		usbfifolen = usbfifolen >> 2;

	/* retrieve the data from fifo */
	for(ii = 0; ii < usbfifolen; ii++) {
  9039ae:	c020      	movi.n	a2, 0
	return *(const volatile uint32_t *) addr;
  9039b0:	1471c2        	l32r	a4, 8e00b8 <_bss_end+0x3d28b0>
  9039b3:	600067        	j	903a1e <usb_reg_out_patch+0xfa>
  9039b6:	000003        	xor	a0, a0, a0
		usbfifolen = (usbfifolen >> 2) + 1;
  9039b9:	2b141c        	s8i	a11, a1, 28
  9039bc:	71c002        	bnone	a12, a1, 9039c2 <usb_reg_out_patch+0x9e>
	if(usbfifolen % 4)
  9039bf:	0241b1        	excw
		usbfifolen = (usbfifolen >> 2) + 1;
  9039c2:	b502      	addi.n	a2, a0, 5
  9039c4:	b538      	addi.n	a8, a3, 5
  9039c6:	8bc0      	l32i.n	a11, a12, 0
  9039c8:	0e5211        	slli	a2, a5, 2
  9039cb:	a2b2      	add.n	a2, a11, a2
	for(ii = 0; ii < usbfifolen; ii++) {
  9039cd:	c0d0      	movi.n	a13, 0
  9039cf:	1571c2        	l32r	a5, 8e00d8 <_bss_end+0x3d28d0>
  9039d2:	c0e1      	movi.n	a14, 1
  9039d4:	60000e        	j	9039e6 <usb_reg_out_patch+0xc2>
  9039d7:	000c02        	or	a12, a0, a0
  9039da:	008d50        	extui	a13, a0, 24, 1
		/* read fifo data out */
		ep4_data = ioread32_usb(ZM_EP4_DATA_OFFSET);
		*regaddr = ep4_data;
  9039dd:	0c0200        	memw
  9039e0:	9db0      	s32i.n	a13, a11, 0
		regaddr++;
  9039e2:	b4bb      	addi.n	a11, a11, 4
  9039e4:	dde0      	mov.n	a13, a14
	for(ii = 0; ii < usbfifolen; ii++) {
  9039e6:	7b29ee        	bne	a2, a11, 9039d8 <usb_reg_out_patch+0xb4>
  9039e9:	c8d0      	beqz.n	a13, 9039ed <usb_reg_out_patch+0xc9>
  9039eb:	92c0      	s32i.n	a2, a12, 0
	}

	/* if this is the last command, callback to HTC */
	if (cmd_is_last) {
  9039ed:	c32f      	movi.n	a2, 63
  9039ef:	73232e        	bltu	a2, a3, 903a21 <usb_reg_out_patch+0xfd>
		buf->desc_list->next_desc = NULL;
  9039f2:	c020      	movi.n	a2, 0
  9039f4:	9290      	s32i.n	a2, a9, 0
		buf->desc_list->data_offset = 0;
  9039f6:	229505        	s16i	a2, a9, 10
		buf->desc_list->data_size = cmd_len;
		buf->desc_list->control = 0;
  9039f9:	229507        	s16i	a2, a9, 14
		buf->desc_list->data_size = cmd_len;
  9039fc:	289506        	s16i	a8, a9, 12
		buf->next_buf = NULL;
  9039ff:	92a1      	s32i.n	a2, a10, 4
		buf->buf_length = cmd_len;

		usbFifoConf.recv_command(buf);
  903a01:	1271af        	l32r	a2, 8e00c0 <_bss_end+0x3d28b8>
		buf->buf_length = cmd_len;
  903a04:	28a504        	s16i	a8, a10, 8
		usbFifoConf.recv_command(buf);
  903a07:	8221      	l32i.n	a2, a2, 4
  903a09:	0b2000        	callx8	a2

		cmd_is_new = TRUE;
  903a0c:	c021      	movi.n	a2, 1
  903a0e:	224500        	s16i	a2, a4, 0
  903a11:	d10f      	retw.n
  903a13:	00b122        	excw
  903a16:	0c0200        	memw
  903a19:	8540      	l32i.n	a5, a4, 0
	goto done;
err:
	/* we might get no command buffer here?
	 * but if we return here, the ep4 fifo will be lock out,
	 * so that we still read them out but just drop it? */
	for(ii = 0; ii < usbfifolen; ii++)
  903a1b:	02024f        	extui	a2, a2, 0, 16
  903a1e:	7323f2        	bltu	a2, a3, 903a14 <usb_reg_out_patch+0xf0>
  903a21:	d10f      	retw.n
	...

00903a24 <vUSBFIFO_EP6Cfg_FS_patch>:
#define FS_C1_I0_A0_EP6_MAP		\
	 (FS_C1_I0_A0_EP6_FIFO_START | (FS_C1_I0_A0_EP6_FIFO_START << 4) | \
	  (MASK_F0 >> (4*FS_C1_I0_A0_EP6_DIRECTION)))

void vUSBFIFO_EP6Cfg_FS_patch(void)
{
  903a24:	6c1004        	entry	a1, 32
#if (FS_C1_I0_A0_EP_NUMBER >= 6)
	int i;

	/* EP0X06 */
	mUsbEPMap(EP6, FS_C1_I0_A0_EP6_MAP);
  903a27:	2b0a6f        	movi	a11, 111
  903a2a:	2a0a06        	movi	a10, 6
  903a2d:	5b808e        	call8	8e3c68 <mUsbEPMap>
	mUsbFIFOMap(FS_C1_I0_A0_EP6_FIFO_START, FS_C1_I0_A0_EP6_FIFO_MAP);
  903a30:	2b0a06        	movi	a11, 6
  903a33:	0bba02        	or	a10, a11, a11
  903a36:	5b8093        	call8	8e3c84 <mUsbFIFOMap>
	mUsbFIFOConfig(FS_C1_I0_A0_EP6_FIFO_START, FS_C1_I0_A0_EP6_FIFO_CONFIG);
  903a39:	2b0a86        	movi	a11, 134
  903a3c:	c0a6      	movi.n	a10, 6
  903a3e:	5b8099        	call8	8e3ca4 <mUsbFIFOConfig>

	for(i = FS_C1_I0_A0_EP6_FIFO_START + 1 ;
            i < FS_C1_I0_A0_EP6_FIFO_START + FS_C1_I0_A0_EP6_FIFO_NO ; i ++)
	{
		mUsbFIFOConfig(i, (FS_C1_I0_A0_EP6_FIFO_CONFIG & (~BIT7)) );
  903a41:	c0b6      	movi.n	a11, 6
  903a43:	c0a7      	movi.n	a10, 7
  903a45:	5b8097        	call8	8e3ca4 <mUsbFIFOConfig>
	}

	mUsbEPMxPtSzHigh(EP6, FS_C1_I0_A0_EP6_DIRECTION,
  903a48:	c4c0      	movi.n	a12, 64
  903a4a:	c0b1      	movi.n	a11, 1
  903a4c:	c0a6      	movi.n	a10, 6
  903a4e:	5b809d        	call8	8e3cc4 <mUsbEPMxPtSzHigh>
			 (FS_C1_I0_A0_EP6_MAX_PACKET & 0x7ff));
	mUsbEPMxPtSzLow(EP6, FS_C1_I0_A0_EP6_DIRECTION,
  903a51:	c4c0      	movi.n	a12, 64
  903a53:	c0b1      	movi.n	a11, 1
  903a55:	c0a6      	movi.n	a10, 6
  903a57:	5b80a5        	call8	8e3cec <mUsbEPMxPtSzLow>
			(FS_C1_I0_A0_EP6_MAX_PACKET & 0x7ff));
	mUsbEPinHighBandSet(EP6, FS_C1_I0_A0_EP6_DIRECTION,
  903a5a:	c4c0      	movi.n	a12, 64
  903a5c:	c0b1      	movi.n	a11, 1
  903a5e:	2a0a06        	movi	a10, 6
  903a61:	5b80ab        	call8	8e3d10 <mUsbEPinHighBandSet>
  903a64:	d10f      	retw.n
	...

00903a68 <vUsbFIFO_EPxCfg_FS_patch>:
			    FS_C1_I0_A0_EP6_MAX_PACKET);
#endif
}

void vUsbFIFO_EPxCfg_FS_patch(void)
{
  903a68:	6c1004        	entry	a1, 32
	switch (u8UsbConfigValue)
  903a6b:	187170        	l32r	a8, 8e002c <_bss_end+0x3d2824>
  903a6e:	288100        	l16ui	a8, a8, 0
  903a71:	698113        	bnei	a8, 1, 903a88 <vUsbFIFO_EPxCfg_FS_patch+0x20>
	{
#if (FS_CONFIGURATION_NUMBER >= 1)
		/* Configuration 0X01 */
        case 0X01:
		switch (u8UsbInterfaceValue)
  903a74:	18716f        	l32r	a8, 8e0030 <_bss_end+0x3d2828>
  903a77:	288100        	l16ui	a8, a8, 0
  903a7a:	cc8a      	bnez.n	a8, 903a88 <vUsbFIFO_EPxCfg_FS_patch+0x20>
		{
#if (FS_C1_INTERFACE_NUMBER >= 1)
			/* Interface 0 */
                case 0:
			switch (u8UsbInterfaceAlternateSetting)
  903a7c:	187171        	l32r	a8, 8e0040 <_bss_end+0x3d2838>
  903a7f:	288100        	l16ui	a8, a8, 0
  903a82:	658002        	bnez	a8, 903a88 <vUsbFIFO_EPxCfg_FS_patch+0x20>
                        case 0:

				/* snapped.... */

				/* patch up this ep6_fs config */
				vUSBFIFO_EP6Cfg_FS_patch();
  903a85:	5bffe7        	call8	903a24 <vUSBFIFO_EP6Cfg_FS_patch>
  903a88:	d10f      	retw.n
	...

00903a8c <bSet_configuration_patch>:
	}
	/* mCHECK_STACK(); */
}

BOOLEAN bSet_configuration_patch(void)
{
  903a8c:	6c1004        	entry	a1, 32
	/* do some defaul configuration */
	bSet_configuration();
  903a8f:	5b7d3b        	call8	8e2f7c <bSet_configuration>

	/* overwrite defaul FIFO configuration for FullSpeed USB */
	if ((mLOW_BYTE(mDEV_REQ_VALUE()) != 0) && !mUsbHighSpeedST())
  903a92:	1271c3        	l32r	a2, 8e01a0 <_bss_end+0x3d2998>
  903a95:	222007        	l8ui	a2, a2, 7
  903a98:	c82a      	beqz.n	a2, 903aa6 <bSet_configuration_patch+0x1a>
	return *(const volatile uint8_t *) addr;
  903a9a:	12718f        	l32r	a2, 8e00d8 <_bss_end+0x3d28d0>
  903a9d:	222000        	l8ui	a2, a2, 0
  903aa0:	792f02        	bbsi	a2, 25, 903aa6 <bSet_configuration_patch+0x1a>
			vUsbFIFO_EPxCfg_FS_patch();
  903aa3:	5bfff1        	call8	903a68 <vUsbFIFO_EPxCfg_FS_patch>

	eUsbCxFinishAction = ACT_DONE;
  903aa6:	1871c4        	l32r	a8, 8e01b8 <_bss_end+0x3d29b0>
  903aa9:	c021      	movi.n	a2, 1
  903aab:	9280      	s32i.n	a2, a8, 0
	return TRUE;
}
  903aad:	d10f      	retw.n
	...

00903ab0 <bStandardCommand_patch>:

extern BOOLEAN bStandardCommand(void);

BOOLEAN bStandardCommand_patch(void)
{
  903ab0:	6c1004        	entry	a1, 32
	if (mDEV_REQ_REQ() == USB_SET_CONFIGURATION) {
  903ab3:	1871c3        	l32r	a8, 8e01c0 <_bss_end+0x3d29b8>
  903ab6:	298102        	l16ui	a9, a8, 4
  903ab9:	280a09        	movi	a8, 9
  903abc:	78992d        	bne	a9, a8, 903aed <bStandardCommand_patch+0x3d>
		A_USB_SET_CONFIG();
  903abf:	18716e        	l32r	a8, 8e0078 <_bss_end+0x3d2870>
  903ac2:	2a8225        	l32i	a10, a8, 148
  903ac5:	0ba000        	callx8	a10

#if ENABLE_SWAP_DATA_MODE
		/* SWAP FUNCTION should be enabled while DMA engine
		 * is not working, the best place to enable it
		 * is before we trigger the DMA */
		MAGPIE_REG_USB_RX0_SWAP_DATA = 0x1;
  903ac8:	1871c5        	l32r	a8, 8e01dc <_bss_end+0x3d29d4>
  903acb:	c0a1      	movi.n	a10, 1
  903acd:	0c0200        	memw
  903ad0:	9a80      	s32i.n	a10, a8, 0
		MAGPIE_REG_USB_TX0_SWAP_DATA = 0x1;
  903ad2:	1871c6        	l32r	a8, 8e01ec <_bss_end+0x3d29e4>
  903ad5:	0c0200        	memw
  903ad8:	9a80      	s32i.n	a10, a8, 0

#if SYSTEM_MODULE_HP_EP5
		MAGPIE_REG_USB_RX1_SWAP_DATA = 0x1;
  903ada:	1871c7        	l32r	a8, 8e01f8 <_bss_end+0x3d29f0>
  903add:	0c0200        	memw
  903ae0:	9a80      	s32i.n	a10, a8, 0
#endif

#if SYSTEM_MODULE_HP_EP6
		MAGPIE_REG_USB_RX2_SWAP_DATA = 0x1;
  903ae2:	1871c8        	l32r	a8, 8e0204 <_bss_end+0x3d29fc>
  903ae5:	0c0200        	memw
  903ae8:	9a80      	s32i.n	a10, a8, 0
#endif

#endif /* ENABLE_SWAP_DATA_MODE */
		return TRUE;
  903aea:	600002        	j	903af0 <bStandardCommand_patch+0x40>
	} else
		return bStandardCommand();
  903aed:	5b7de7        	call8	8e328c <bStandardCommand>
}
  903af0:	d2a0      	mov.n	a2, a10
  903af2:	d10f      	retw.n

00903af4 <bGet_descriptor_patch>:
#define EP3_INT_INTERVAL		19
#define EP4_TRANSFER_TYPE_OFFSET	21
#define EP4_INT_INTERVAL		22

BOOLEAN bGet_descriptor_patch(void)
{
  903af4:	6c1004        	entry	a1, 32
	if (mDEV_REQ_VALUE_HIGH() == 1)
  903af7:	1271c3        	l32r	a2, 8e0204 <_bss_end+0x3d29fc>
  903afa:	282103        	l16ui	a8, a2, 6
  903afd:	088814        	srli	a8, a8, 8
  903b00:	698120        	bnei	a8, 1, 903b24 <bGet_descriptor_patch+0x30>
	{
		uint8_t *p = (uint8_t *)u8UsbDeviceDescriptor;
  903b03:	1471c9        	l32r	a4, 8e0228 <_bss_end+0x3d2a20>

		/* Copy Usb Device Descriptor */
		ath_hal_memcpy(UsbDeviceDescriptorPatch, p,
  903b06:	1371ca        	l32r	a3, 8e0230 <_bss_end+0x3d2a28>
  903b09:	8b40      	l32i.n	a11, a4, 0
  903b0b:	da30      	mov.n	a10, a3
  903b0d:	c1c2      	movi.n	a12, 18
  903b0f:	580035        	call8	903be4 <ath_hal_memcpy>
				sizeof(UsbDeviceDescriptorPatch));

		/* Change bcdDevice. we need it to detect if FW
		 * was uploaded. */
		UsbDeviceDescriptorPatch[BCD_DEVICE_OFFSET] =
  903b12:	c78f      	movi.n	a8, -1
  903b14:	283506        	s16i	a8, a3, 12
			BCD_DEVICE_FW_SIGNATURE;

		pu8DescriptorEX = UsbDeviceDescriptorPatch;
  903b17:	1871cb        	l32r	a8, 8e0244 <_bss_end+0x3d2a3c>
  903b1a:	9380      	s32i.n	a3, a8, 0
		u16TxRxCounter = mTABLE_LEN(u8UsbDeviceDescriptor[0]);
  903b1c:	8340      	l32i.n	a3, a4, 0
  903b1e:	283001        	l8ui	a8, a3, 1
  903b21:	600024        	j	903b49 <bGet_descriptor_patch+0x55>
			u16TxRxCounter = mDEV_REQ_LENGTH();

		A_USB_EP0_TX_DATA();

		return TRUE;
	} else if (mDEV_REQ_VALUE_HIGH() == 2) {
  903b24:	69823e        	bnei	a8, 2, 903b66 <bGet_descriptor_patch+0x72>
		uint8_t *p = (uint8_t *)u8ConfigDescriptorEX;

		/* Copy ConfigDescriptor */
		ath_hal_memcpy(ConfigDescriptorPatch, p,
  903b27:	1471cd        	l32r	a4, 8e025c <_bss_end+0x3d2a54>
  903b2a:	1371ce        	l32r	a3, 8e0264 <_bss_end+0x3d2a5c>
  903b2d:	2b4200        	l32i	a11, a4, 0
  903b30:	2c0a3c        	movi	a12, 60
  903b33:	033a02        	or	a10, a3, a3
  903b36:	58002b        	call8	903be4 <ath_hal_memcpy>
				sizeof(ConfigDescriptorPatch));

		 /* place holder for EPx patches */

		if (mDEV_REQ_VALUE_LOW() == 0) {
  903b39:	242007        	l8ui	a4, a2, 7
			/* configuration no: 0 */
			pu8DescriptorEX = ConfigDescriptorPatch;
			u16TxRxCounter = ConfigDescriptorPatch[1];
		} else
			return FALSE;
  903b3c:	c0a0      	movi.n	a10, 0
		if (mDEV_REQ_VALUE_LOW() == 0) {
  903b3e:	7a4927        	bne	a4, a10, 903b69 <bGet_descriptor_patch+0x75>
			pu8DescriptorEX = ConfigDescriptorPatch;
  903b41:	1471cb        	l32r	a4, 8e0270 <_bss_end+0x3d2a68>
			u16TxRxCounter = ConfigDescriptorPatch[1];
  903b44:	283101        	l16ui	a8, a3, 2
			pu8DescriptorEX = ConfigDescriptorPatch;
  903b47:	9340      	s32i.n	a3, a4, 0
			u16TxRxCounter = ConfigDescriptorPatch[1];
  903b49:	1371cc        	l32r	a3, 8e027c <_bss_end+0x3d2a74>

		if (u16TxRxCounter > mDEV_REQ_LENGTH())
  903b4c:	222105        	l16ui	a2, a2, 10
			u16TxRxCounter = ConfigDescriptorPatch[1];
  903b4f:	283500        	s16i	a8, a3, 0
		if (u16TxRxCounter > mDEV_REQ_LENGTH())
  903b52:	782b02        	bgeu	a2, a8, 903b58 <bGet_descriptor_patch+0x64>
			u16TxRxCounter = mDEV_REQ_LENGTH();
  903b55:	223500        	s16i	a2, a3, 0

		A_USB_EP0_TX_DATA();
  903b58:	12716e        	l32r	a2, 8e0110 <_bss_end+0x3d2908>
  903b5b:	222234        	l32i	a2, a2, 208
  903b5e:	0b2000        	callx8	a2
		return TRUE;
  903b61:	c0a1      	movi.n	a10, 1
  903b63:	600002        	j	903b69 <bGet_descriptor_patch+0x75>
	} else
		return bGet_descriptor();
  903b66:	5b7cd7        	call8	8e2ec4 <bGet_descriptor>
}
  903b69:	d2a0      	mov.n	a2, a10
  903b6b:	d10f      	retw.n
  903b6d:	000000        	ill

00903b70 <ath_hal_getuptime>:
#include<ah_internal.h>
#include "ah_osdep.h"

a_uint32_t __ahdecl
ath_hal_getuptime(struct ath_hal *ah)
{
  903b70:	6c1004        	entry	a1, 32
	return MSEC_TO_TICK(msecs);
}
static inline unsigned long
__adf_os_getuptime(void)
{
    return MSEC_TO_TICK(A_MILLISECONDS());;
  903b73:	18716e        	l32r	a8, 8e012c <_bss_end+0x3d2924>
  903b76:	2a823d        	l32i	a10, a8, 244
  903b79:	0ba000        	callx8	a10
	return adf_os_getuptime();
}
  903b7c:	d2a0      	mov.n	a2, a10
  903b7e:	d10f      	retw.n

00903b80 <_ath_hal_attach_tgt>:

struct ath_hal *
_ath_hal_attach_tgt(a_uint32_t devid, HAL_SOFTC sc,
		    adf_os_device_t dev, a_uint32_t flags, void* s)
{
  903b80:	6c1006        	entry	a1, 48
	HAL_STATUS status;
	struct ath_hal *ah = ath_hal_attach_tgt(devid, sc, dev, flags, &status);
  903b83:	de10      	mov.n	a14, a1
  903b85:	dd50      	mov.n	a13, a5
  903b87:	dc40      	mov.n	a12, a4
  903b89:	db30      	mov.n	a11, a3
  903b8b:	da20      	mov.n	a10, a2
  903b8d:	580501        	call8	904f94 <ath_hal_attach_tgt>
	adf_os_print(" ath_hal = %p \n",ah);
  903b90:	18716e        	l32r	a8, 8e0148 <_bss_end+0x3d2940>
  903b93:	dba0      	mov.n	a11, a10
	struct ath_hal *ah = ath_hal_attach_tgt(devid, sc, dev, flags, &status);
  903b95:	d2a0      	mov.n	a2, a10
	adf_os_print(" ath_hal = %p \n",ah);
  903b97:	288212        	l32i	a8, a8, 72
  903b9a:	1a71cf        	l32r	a10, 8e02d8 <_bss_end+0x3d2ad0>
  903b9d:	0b8000        	callx8	a8
	*(HAL_STATUS *)s = status;
  903ba0:	8810      	l32i.n	a8, a1, 0
  903ba2:	9860      	s32i.n	a8, a6, 0
	return ah;
}
  903ba4:	d10f      	retw.n
	...

00903ba8 <ath_hal_delay>:
/*
 * Delay n microseconds.
 */
void __ahdecl
ath_hal_delay(a_int32_t n)
{
  903ba8:	6c1004        	entry	a1, 32
}

static inline void
__adf_os_udelay(int usecs)
{
    A_DELAY_USECS(usecs);
  903bab:	18716e        	l32r	a8, 8e0164 <_bss_end+0x3d295c>
  903bae:	da20      	mov.n	a10, a2
  903bb0:	28823a        	l32i	a8, a8, 232
  903bb3:	0b8000        	callx8	a8
  903bb6:	d10f      	retw.n

00903bb8 <ath_hal_malloc>:
/*
 * Allocate/free memory.
 */
void * __ahdecl
ath_hal_malloc(adf_os_size_t size)
{
  903bb8:	6c1004        	entry	a1, 32
  903bbb:	14716e        	l32r	a4, 8e0174 <_bss_end+0x3d296c>
  903bbe:	d320      	mov.n	a3, a2
  903bc0:	224252        	l32i	a2, a4, 0x148
  903bc3:	db30      	mov.n	a11, a3
  903bc5:	c0a0      	movi.n	a10, 0
  903bc7:	0b2000        	callx8	a2
  903bca:	d2a0      	mov.n	a2, a10
	void *p;

	p = adf_os_mem_alloc(size);
	if (p)
  903bcc:	c8a8      	beqz.n	a10, 903bd8 <ath_hal_malloc+0x20>
}
/* zero a memory buffer */
static inline void
__adf_os_mem_zero(void *buf, adf_os_size_t size)
{
    A_MEMZERO(buf,size);
  903bce:	8444      	l32i.n	a4, a4, 16
  903bd0:	dc30      	mov.n	a12, a3
  903bd2:	2b0a00        	movi	a11, 0
  903bd5:	0b4000        	callx8	a4
		adf_os_mem_zero(p, size);

	return p;
}
  903bd8:	d10f      	retw.n
	...

00903bdc <ath_hal_free>:

void __ahdecl
ath_hal_free(void* p)
{
  903bdc:	6c1004        	entry	a1, 32
  903bdf:	d10f      	retw.n
  903be1:	000000        	ill

00903be4 <ath_hal_memcpy>:
	adf_os_mem_free(p);
}

void * __ahdecl
ath_hal_memcpy(void *dst, const void *src, adf_os_size_t n)
{
  903be4:	6c1004        	entry	a1, 32
    A_MEMCPY(dst,src,size);
  903be7:	18716e        	l32r	a8, 8e01a0 <_bss_end+0x3d2998>
  903bea:	dc40      	mov.n	a12, a4
  903bec:	8885      	l32i.n	a8, a8, 20
  903bee:	db30      	mov.n	a11, a3
  903bf0:	da20      	mov.n	a10, a2
  903bf2:	0b8000        	callx8	a8
	adf_os_mem_copy(dst, src, n);
	return 0;
}
  903bf5:	c020      	movi.n	a2, 0
  903bf7:	d10f      	retw.n
  903bf9:	000000        	ill

00903bfc <wlan_pci_module_init>:
adf_drv_info_t* g_wlan_drv = NULL;
adf_drv_handle_t g_wlan_drv_handle = NULL;
adf_os_drv_intr g_wlan_intr = NULL;

void wlan_pci_module_init(void)
{
  903bfc:	6c1004        	entry	a1, 32
	if (g_pci_init_func != NULL) {
  903bff:	1871d0        	l32r	a8, 8e0340 <_bss_end+0x3d2b38>
  903c02:	8a80      	l32i.n	a10, a8, 0
  903c04:	c8a1      	beqz.n	a10, 903c09 <wlan_pci_module_init+0xd>
		g_pci_init_func();
  903c06:	0ba000        	callx8	a10
  903c09:	d10f      	retw.n
	...

00903c0c <wlan_pci_register_drv>:
	}
}

void wlan_pci_register_drv(adf_drv_info_t *drv)
{
  903c0c:	6c1004        	entry	a1, 32
	g_wlan_drv = drv;
  903c0f:	1871d1        	l32r	a8, 8e0354 <_bss_end+0x3d2b4c>
  903c12:	9280      	s32i.n	a2, a8, 0
  903c14:	d10f      	retw.n
	...

00903c18 <wlan_pci_probe>:

#define ATHEROS_VENDOR_ID 0x168c
#define AR5416_DEVID_PCIE 0x24

void wlan_pci_probe(void)
{
  903c18:	6c100a        	entry	a1, 80
	__adf_softc_t           *sc;
	adf_os_resource_t       drv_res = {0};
  903c1b:	c1c8      	movi.n	a12, 24
  903c1d:	2b0a00        	movi	a11, 0
  903c20:	011a02        	or	a10, a1, a1
  903c23:	5b855e        	call8	8e519c <memset>
	adf_os_attach_data_t    drv_data = {{0}};
  903c26:	c1c0      	movi.n	a12, 16
  903c28:	c0b0      	movi.n	a11, 0
  903c2a:	2a1c18        	addi	a10, a1, 24
  903c2d:	5b855b        	call8	8e519c <memset>
	int vendor_id;
	int device_id;

	A_PRINTF("<wlan_pci_probe>: Attaching the driver\n");
  903c30:	12716e        	l32r	a2, 8e01e8 <_bss_end+0x3d29e0>
  903c33:	1a71d2        	l32r	a10, 8e037c <_bss_end+0x3d2b74>
  903c36:	232212        	l32i	a3, a2, 72
  903c39:	0b3000        	callx8	a3
	device_id = AR5416_DEVID_PCIE;
#else
	vendor_id = wlan_pci_config_read(0, 2);
	device_id = wlan_pci_config_read(2, 2);
#endif
	A_PRINTF("<wlan_pci_probe>: Vendor id 0x%x Dev id 0x%x\n", vendor_id, device_id);
  903c3c:	1371d3        	l32r	a3, 8e0388 <_bss_end+0x3d2b80>
  903c3f:	282212        	l32i	a8, a2, 72
  903c42:	1a71d4        	l32r	a10, 8e0394 <_bss_end+0x3d2b8c>
  903c45:	db30      	mov.n	a11, a3
  903c47:	c2c4      	movi.n	a12, 36
  903c49:	0b8000        	callx8	a8
	}

	/**
	 * Allocate the sc & zero down
	 */
	sc = A_ALLOCRAM(sizeof(__adf_softc_t));
  903c4c:	282252        	l32i	a8, a2, 0x148
  903c4f:	c0b4      	movi.n	a11, 4
  903c51:	c0a0      	movi.n	a10, 0
  903c53:	0b8000        	callx8	a8
	if (!sc) {
  903c56:	ccaa      	bnez.n	a10, 903c64 <wlan_pci_probe+0x4c>
		A_PRINTF("Cannot malloc softc\n");
  903c58:	222212        	l32i	a2, a2, 72
  903c5b:	1a71d5        	l32r	a10, 8e03b0 <_bss_end+0x3d2ba8>
  903c5e:	0b2000        	callx8	a2

	g_wlan_drv_handle = g_wlan_drv->drv_attach(&drv_res, 1, &drv_data, NULL);

	return;
mem_fail:
	return;
  903c61:	d10f      	retw.n
  903c63:	00c224        	excw
	drv_data.pci.device    = AR5416_DEVID_PCIE;
  903c66:	9217      	s32i.n	a2, a1, 28
	g_wlan_drv_handle = g_wlan_drv->drv_attach(&drv_res, 1, &drv_data, NULL);
  903c68:	1271d1        	l32r	a2, 8e03ac <_bss_end+0x3d2ba4>
	drv_data.pci.subvendor = 0;
  903c6b:	c0d0      	movi.n	a13, 0
	g_wlan_drv_handle = g_wlan_drv->drv_attach(&drv_res, 1, &drv_data, NULL);
  903c6d:	8220      	l32i.n	a2, a2, 0
	drv_res.start  = (a_uint32_t) 0;
  903c6f:	1871d6        	l32r	a8, 8e03c8 <_bss_end+0x3d2bc0>
  903c72:	1971d6        	l32r	a9, 8e03cc <_bss_end+0x3d2bc4>
	drv_data.pci.vendor    = 0x168c;
  903c75:	9316      	s32i.n	a3, a1, 24
	drv_data.pci.subvendor = 0;
  903c77:	9d18      	s32i.n	a13, a1, 32
	drv_data.pci.subdevice = 0;
  903c79:	9d19      	s32i.n	a13, a1, 36
	g_wlan_drv_handle = g_wlan_drv->drv_attach(&drv_res, 1, &drv_data, NULL);
  903c7b:	8220      	l32i.n	a2, a2, 0
	drv_res.start  = (a_uint32_t) 0;
  903c7d:	9810      	s32i.n	a8, a1, 0
  903c7f:	9911      	s32i.n	a9, a1, 4
	drv_res.end    = 0;
  903c81:	9812      	s32i.n	a8, a1, 8
  903c83:	9913      	s32i.n	a9, a1, 12
	drv_res.type   = ADF_OS_RESOURCE_TYPE_MEM;
  903c85:	9d14      	s32i.n	a13, a1, 16
	g_wlan_drv_handle = g_wlan_drv->drv_attach(&drv_res, 1, &drv_data, NULL);
  903c87:	2c1c18        	addi	a12, a1, 24
  903c8a:	c0b1      	movi.n	a11, 1
  903c8c:	da10      	mov.n	a10, a1
  903c8e:	0b2000        	callx8	a2
  903c91:	1271d7        	l32r	a2, 8e03f0 <_bss_end+0x3d2be8>
  903c94:	9a20      	s32i.n	a10, a2, 0
  903c96:	d10f      	retw.n

00903c98 <wlan_pci_config_write>:
}

int wlan_pci_config_write(int offset, a_uint32_t val, int width)
{
  903c98:	6c1004        	entry	a1, 32
		ptr[idx + i] = valptr[3-i];
	}
#endif

	return 0;
}
  903c9b:	c020      	movi.n	a2, 0
  903c9d:	d10f      	retw.n
	...

00903ca0 <wlan_pci_config_read>:

int wlan_pci_config_read(int offset, int width)
{
  903ca0:	6c1004        	entry	a1, 32
		result |= (ptr[ 3 - (idx + i)] << (8*i));
	}

	return result;
#endif
}
  903ca3:	c020      	movi.n	a2, 0
  903ca5:	d10f      	retw.n
	...

00903ca8 <wlan_pci_isr>:

void wlan_pci_isr()
{
  903ca8:	6c1004        	entry	a1, 32
	if (g_wlan_intr != NULL && g_wlan_drv_handle != NULL) {
  903cab:	1871d8        	l32r	a8, 8e040c <_bss_end+0x3d2c04>
  903cae:	8880      	l32i.n	a8, a8, 0
  903cb0:	c888      	beqz.n	a8, 903cbc <wlan_pci_isr+0x14>
  903cb2:	1971d7        	l32r	a9, 8e0410 <_bss_end+0x3d2c08>
  903cb5:	8a90      	l32i.n	a10, a9, 0
  903cb7:	c8a1      	beqz.n	a10, 903cbc <wlan_pci_isr+0x14>
		g_wlan_intr(g_wlan_drv_handle);
  903cb9:	0b8000        	callx8	a8
  903cbc:	d10f      	retw.n
	...

00903cc0 <_HTC_Shutdown>:

	return pHTC;
}

LOCAL void _HTC_Shutdown(htc_handle_t htcHandle)
{
  903cc0:	6c1004        	entry	a1, 32
  903cc3:	d10f      	retw.n
  903cc5:	000000        	ill

00903cc8 <_HTC_RegisterService>:

	adf_os_mem_free(pHTC);
}

LOCAL void _HTC_RegisterService(htc_handle_t htcHandle, HTC_SERVICE *pService)
{
  903cc8:	6c1004        	entry	a1, 32
	HTC_CONTEXT *pHTC = (HTC_CONTEXT *)htcHandle;

        /* add it to the list */
	pService->pNext = pHTC->pServiceList;
  903ccb:	282290        	l32i	a8, a2, 0x240
  903cce:	9830      	s32i.n	a8, a3, 0
	pHTC->pServiceList = pService;
  903cd0:	232690        	s32i	a3, a2, 0x240
  903cd3:	d10f      	retw.n
  903cd5:	000000        	ill

00903cd8 <_HTC_GetReservedHeadroom>:
void _HTC_ResumeRecv(HTC_ENDPOINT_ID EndpointID)
{
}

int _HTC_GetReservedHeadroom(htc_handle_t htcHandle)
{
  903cd8:	6c1004        	entry	a1, 32
	HTC_CONTEXT *pHTC = (HTC_CONTEXT *)htcHandle;

	return HTC_HDR_LENGTH + HIF_get_reserved_headroom(pHTC->hifHandle);
  903cdb:	18716e        	l32r	a8, 8e0294 <_bss_end+0x3d2a8c>
  903cde:	2a229a        	l32i	a10, a2, 0x268
  903ce1:	28827f        	l32i	a8, a8, 0x1fc
  903ce4:	0b8000        	callx8	a8
}
  903ce7:	b8a2      	addi.n	a2, a10, 8
  903ce9:	d10f      	retw.n
	...

00903cec <HTCSendDoneHandler>:
		HTCCheckAndSendCreditReport(pHTC, HTC_ANY_ENDPOINT_MASK,NULL,ENDPOINT_MAX);
	}
}

LOCAL void HTCSendDoneHandler(adf_nbuf_t buf, void *context)
{
  903cec:	6c1004        	entry	a1, 32
 * @return data pointer to typecast into your priv structure
 */
static inline a_uint8_t *
adf_nbuf_get_priv(adf_nbuf_t buf)
{
    return (__adf_nbuf_get_priv(buf));
  903cef:	022a02        	or	a10, a2, a2
  903cf2:	5bfdda        	call8	90345c <__adf_nbuf_get_priv>
	A_UINT8 current_eid;
	HTC_CONTEXT *pHTC = (HTC_CONTEXT *)context;
	HTC_BUF_CONTEXT *ctx;

	ctx = (HTC_BUF_CONTEXT *)adf_nbuf_get_priv(buf);
	current_eid = ctx->end_point;
  903cf5:	24a000        	l8ui	a4, a10, 0
    return __adf_nbuf_pull_head(buf, size);
  903cf8:	c0b8      	movi.n	a11, 8
  903cfa:	022a02        	or	a10, a2, a2
  903cfd:	5bfdbc        	call8	9033f0 <__adf_nbuf_pull_head>
	/* Walk through the buffers and fixup the ones we used for HTC headers.
	 * The buffer list may contain more than one string of HTC buffers comprising of an
	 * HTC message so we need to check every buffer */
	adf_nbuf_pull_head(buf, HTC_HDR_LENGTH);

	pHTC->Endpoints[current_eid].pService->
  903d00:	0f4811        	slli	a8, a4, 1
  903d03:	a488      	add.n	a8, a8, a4
  903d05:	0d8811        	slli	a8, a8, 3
  903d08:	a833      	add.n	a3, a3, a8
  903d0a:	8332      	l32i.n	a3, a3, 8
  903d0c:	db20      	mov.n	a11, a2
  903d0e:	8832      	l32i.n	a8, a3, 8
  903d10:	8c36      	l32i.n	a12, a3, 24
  903d12:	044a02        	or	a10, a4, a4
  903d15:	0b8000        	callx8	a8
  903d18:	d10f      	retw.n
	...

00903d1c <HTC_AssembleBuffers>:
{
  903d1c:	6c1004        	entry	a1, 32
	BUF_Pool_create_pool(pHTC->PoolHandle, POOL_ID_HTC_CONTROL, Count, Size);
  903d1f:	18716e        	l32r	a8, 8e02d8 <_bss_end+0x3d2ad0>
  903d22:	2a229b        	l32i	a10, a2, 0x26c
  903d25:	2882a0        	l32i	a8, a8, 0x280
  903d28:	dd40      	mov.n	a13, a4
  903d2a:	dc30      	mov.n	a12, a3
  903d2c:	c0b0      	movi.n	a11, 0
  903d2e:	0b8000        	callx8	a8
  903d31:	d10f      	retw.n
	...

00903d34 <_HTC_Init>:
{
  903d34:	6c1006        	entry	a1, 48
    return A_ALLOCRAM(size);
  903d37:	14716e        	l32r	a4, 8e02f0 <_bss_end+0x3d2ae8>
  903d3a:	022502        	or	a5, a2, a2
  903d3d:	224252        	l32i	a2, a4, 0x148
  903d40:	2b2a74        	movi	a11, 0x274
  903d43:	c0a0      	movi.n	a10, 0
  903d45:	0b2000        	callx8	a2
    A_MEMZERO(buf,size);
  903d48:	8844      	l32i.n	a8, a4, 16
  903d4a:	2c2a74        	movi	a12, 0x274
  903d4d:	c0b0      	movi.n	a11, 0
    return A_ALLOCRAM(size);
  903d4f:	d2a0      	mov.n	a2, a10
    A_MEMZERO(buf,size);
  903d51:	0b8000        	callx8	a8
	pHTC->OSHandle = pConfig->OSHandle;
  903d54:	8832      	l32i.n	a8, a3, 8
	pHTC->hifHandle = pConfig->HIFHandle;
  903d56:	8a33      	l32i.n	a10, a3, 12
	pHTC->OSHandle = pConfig->OSHandle;
  903d58:	9820      	s32i.n	a8, a2, 0
	pHTC->PoolHandle = pConfig->PoolHandle;
  903d5a:	8834      	l32i.n	a8, a3, 16
	HIF_register_callback(pConfig->HIFHandle, &hifCBConfig);
  903d5c:	db10      	mov.n	a11, a1
	pHTC->PoolHandle = pConfig->PoolHandle;
  903d5e:	28269b        	s32i	a8, a2, 0x26c
	hifCBConfig.send_buf_done = A_INDIR(htc._HTC_SendDoneHandler);
  903d61:	28428c        	l32i	a8, a4, 0x230
	pHTC->hifHandle = pConfig->HIFHandle;
  903d64:	2a269a        	s32i	a10, a2, 0x268
	hifCBConfig.send_buf_done = A_INDIR(htc._HTC_SendDoneHandler);
  903d67:	9810      	s32i.n	a8, a1, 0
	hifCBConfig.recv_buf = A_INDIR(htc._HTC_MsgRecvHandler);
  903d69:	28428b        	l32i	a8, a4, 0x22c
	hifCBConfig.context = pHTC;
  903d6c:	9212      	s32i.n	a2, a1, 8
	hifCBConfig.recv_buf = A_INDIR(htc._HTC_MsgRecvHandler);
  903d6e:	9811      	s32i.n	a8, a1, 4
	HIF_register_callback(pConfig->HIFHandle, &hifCBConfig);
  903d70:	284277        	l32i	a8, a4, 0x1dc
  903d73:	0b8000        	callx8	a8
		pHTC->NumBuffersForCreditRpts = HTC_DEFAULT_NUM_CTRL_BUFFERS;
  903d76:	c086      	movi.n	a8, 6
  903d78:	282696        	s32i	a8, a2, 0x258
		pHTC->MaxEpPendingCreditRpts = HTC_DEFAULT_MAX_EP_PENDING_CREDIT_REPORTS;
  903d7b:	c083      	movi.n	a8, 3
  903d7d:	282699        	s32i	a8, a2, 0x264
	pHTC->CtrlBufferAllocSize = MIN_CREDIT_BUFFER_ALLOC_SIZE * pHTC->NumBuffersForCreditRpts;
  903d80:	280ad8        	movi	a8, 216
  903d83:	282697        	s32i	a8, a2, 0x25c
	pHTC->RecvBufferSize = pConfig->CreditSize; //RecvBufferSize;
  903d86:	8830      	l32i.n	a8, a3, 0
	pHTC->TotalCredits = pConfig->CreditNumber;
  903d88:	8331      	l32i.n	a3, a3, 4
	pHTC->RecvBufferSize = pConfig->CreditSize; //RecvBufferSize;
  903d8a:	282691        	s32i	a8, a2, 0x244
	pHTC->TotalCredits = pConfig->CreditNumber;
  903d8d:	232694        	s32i	a3, a2, 0x250
	pHTC->TotalCreditsAssigned = 0;
  903d90:	c030      	movi.n	a3, 0
  903d92:	232695        	s32i	a3, a2, 0x254
	pHTC->HTCControlService.ProcessRecvMsg = A_INDIR(htc._HTC_ControlSvcProcessMsg);
  903d95:	23428d        	l32i	a3, a4, 0x234
	pHTC->HTCControlService.TrailerSpcCheckLimit = HTC_CTRL_BUFFER_CHECK_SIZE;
  903d98:	c18c      	movi.n	a8, 28
	pHTC->HTCControlService.ProcessRecvMsg = A_INDIR(htc._HTC_ControlSvcProcessMsg);
  903d9a:	23268a        	s32i	a3, a2, 0x228
	pHTC->HTCControlService.ProcessSendBufferComplete = A_INDIR(htc._HTC_ControlSvcProcessSendComplete);
  903d9d:	23428e        	l32i	a3, a4, 0x238
	HIF_get_default_pipe(pHTC->hifHandle, &pHTC->Endpoints[ENDPOINT0].UpLinkPipeID,
  903da0:	2a229a        	l32i	a10, a2, 0x268
	pHTC->HTCControlService.ProcessSendBufferComplete = A_INDIR(htc._HTC_ControlSvcProcessSendComplete);
  903da3:	23268b        	s32i	a3, a2, 0x22c
	pHTC->HTCControlService.TrailerSpcCheckLimit = HTC_CTRL_BUFFER_CHECK_SIZE;
  903da6:	232d02        	addmi	a3, a2, 0x200
  903da9:	28351d        	s16i	a8, a3, 58
	pHTC->HTCControlService.MaxSvcMsgSize = MAX_HTC_SETUP_MSG_SIZE;
  903dac:	c480      	movi.n	a8, 64
  903dae:	28351c        	s16i	a8, a3, 56
	pHTC->Endpoints[ENDPOINT0].pService = &pHTC->HTCControlService;
  903db1:	232a24        	movi	a3, 0x224
  903db4:	032308        	add	a3, a2, a3
  903db7:	9322      	s32i.n	a3, a2, 8
	HIF_get_default_pipe(pHTC->hifHandle, &pHTC->Endpoints[ENDPOINT0].UpLinkPipeID,
  903db9:	234281        	l32i	a3, a4, 0x204
  903dbc:	2c2c18        	addi	a12, a2, 24
  903dbf:	2b2c19        	addi	a11, a2, 25
	pHTC->HTCControlService.ServiceCtx = pHTC;
  903dc2:	22268f        	s32i	a2, a2, 0x23c
	HIF_get_default_pipe(pHTC->hifHandle, &pHTC->Endpoints[ENDPOINT0].UpLinkPipeID,
  903dc5:	0b3000        	callx8	a3
	HIF_config_pipe(pHTC->hifHandle, pHTC->Endpoints[ENDPOINT0].UpLinkPipeID, 1);
  903dc8:	2b2019        	l8ui	a11, a2, 25
  903dcb:	23427a        	l32i	a3, a4, 0x1e8
  903dce:	2a229a        	l32i	a10, a2, 0x268
  903dd1:	c0c1      	movi.n	a12, 1
  903dd3:	0b3000        	callx8	a3
	pHTC->CurrentEpIndex = ENDPOINT1;
  903dd6:	c031      	movi.n	a3, 1
  903dd8:	232688        	s32i	a3, a2, 0x220
	HTC_AssembleBuffers(pHTC, 4, MAX_HTC_SETUP_MSG_SIZE);
  903ddb:	da20      	mov.n	a10, a2
	pHTC->SetupCompleteCb = SetupComplete;
  903ddd:	252693        	s32i	a5, a2, 0x24c
	HTC_AssembleBuffers(pHTC, 4, MAX_HTC_SETUP_MSG_SIZE);
  903de0:	c4c0      	movi.n	a12, 64
  903de2:	2b0a04        	movi	a11, 4
  903de5:	5bffcd        	call8	903d1c <HTC_AssembleBuffers>
	HIF_start(pHTC->hifHandle);
  903de8:	2a229a        	l32i	a10, a2, 0x268
  903deb:	234279        	l32i	a3, a4, 0x1e4
  903dee:	0b3000        	callx8	a3
}
  903df1:	d10f      	retw.n
	...

00903df4 <_HTC_PauseRecv>:
  903df4:	6c1004        	entry	a1, 32
  903df7:	d10f      	retw.n
  903df9:	000000        	ill

00903dfc <_HTC_ResumeRecv>:
{
  903dfc:	6c1004        	entry	a1, 32
  903dff:	d10f      	retw.n
  903e01:	000000        	ill

00903e04 <htc_module_install>:
{
  903e04:	6c1004        	entry	a1, 32
	pAPIs->_HTC_Init = _HTC_Init;
  903e07:	1871d9        	l32r	a8, 8e056c <_bss_end+0x3d2d64>
  903e0a:	9820      	s32i.n	a8, a2, 0
	pAPIs->_HTC_ReturnBuffers = _HTC_ReturnBuffers;
  903e0c:	1871da        	l32r	a8, 8e0574 <_bss_end+0x3d2d6c>
  903e0f:	9824      	s32i.n	a8, a2, 16
	pAPIs->_HTC_ReturnBuffersList = _HTC_ReturnBuffersList;
  903e11:	1871db        	l32r	a8, 8e0580 <_bss_end+0x3d2d78>
  903e14:	9825      	s32i.n	a8, a2, 20
	pAPIs->_HTC_Ready = _HTC_Ready;
  903e16:	1871dc        	l32r	a8, 8e0588 <_bss_end+0x3d2d80>
  903e19:	9823      	s32i.n	a8, a2, 12
	pAPIs->_HTC_RegisterService = _HTC_RegisterService;
  903e1b:	1871dd        	l32r	a8, 8e0590 <_bss_end+0x3d2d88>
  903e1e:	9822      	s32i.n	a8, a2, 8
	pAPIs->_HTC_SendMsg = _HTC_SendMsg;
  903e20:	1871de        	l32r	a8, 8e0598 <_bss_end+0x3d2d90>
  903e23:	9826      	s32i.n	a8, a2, 24
	pAPIs->_HTC_Shutdown = _HTC_Shutdown;
  903e25:	1871df        	l32r	a8, 8e05a4 <_bss_end+0x3d2d9c>
  903e28:	9821      	s32i.n	a8, a2, 4
	pAPIs->_HTC_GetReservedHeadroom = _HTC_GetReservedHeadroom;
  903e2a:	1871e0        	l32r	a8, 8e05ac <_bss_end+0x3d2da4>
  903e2d:	9827      	s32i.n	a8, a2, 28
	pAPIs->_HTC_MsgRecvHandler = HTCMsgRecvHandler;
  903e2f:	1871e1        	l32r	a8, 8e05b4 <_bss_end+0x3d2dac>
  903e32:	9828      	s32i.n	a8, a2, 32
	pAPIs->_HTC_SendDoneHandler = HTCSendDoneHandler;
  903e34:	1871e2        	l32r	a8, 8e05bc <_bss_end+0x3d2db4>
  903e37:	9829      	s32i.n	a8, a2, 36
	pAPIs->_HTC_ControlSvcProcessMsg = HTCControlSvcProcessMsg;
  903e39:	1871e3        	l32r	a8, 8e05c8 <_bss_end+0x3d2dc0>
  903e3c:	982a      	s32i.n	a8, a2, 40
	pAPIs->_HTC_ControlSvcProcessSendComplete = HTCControlSvcProcessSendComplete;
  903e3e:	1871e4        	l32r	a8, 8e05d0 <_bss_end+0x3d2dc8>
  903e41:	982b      	s32i.n	a8, a2, 44
  903e43:	d10f      	retw.n
  903e45:	000000        	ill

00903e48 <HTCFreeMsgBuffer>:
{
  903e48:	6c1004        	entry	a1, 32
	BUF_Pool_free_buf(pHTC->PoolHandle, POOL_ID_HTC_CONTROL, buf);
  903e4b:	18716e        	l32r	a8, 8e0404 <_bss_end+0x3d2bfc>
  903e4e:	2a229b        	l32i	a10, a2, 0x26c
  903e51:	2882a3        	l32i	a8, a8, 0x28c
  903e54:	dc30      	mov.n	a12, a3
  903e56:	2b0a00        	movi	a11, 0
  903e59:	0b8000        	callx8	a8
  903e5c:	d10f      	retw.n
	...

00903e60 <HTCAllocMsgBuffer>:
{
  903e60:	6c1004        	entry	a1, 32
	return BUF_Pool_alloc_buf(pHTC->PoolHandle,
  903e63:	18716e        	l32r	a8, 8e041c <_bss_end+0x3d2c14>
{
  903e66:	da20      	mov.n	a10, a2
	return BUF_Pool_alloc_buf(pHTC->PoolHandle,
  903e68:	2282a1        	l32i	a2, a8, 0x284
  903e6b:	28828a        	l32i	a8, a8, 0x228
  903e6e:	23a29b        	l32i	a3, a10, 0x26c
  903e71:	0b8000        	callx8	a8
  903e74:	dca0      	mov.n	a12, a10
  903e76:	c0b0      	movi.n	a11, 0
  903e78:	da30      	mov.n	a10, a3
  903e7a:	0b2000        	callx8	a2
}
  903e7d:	d2a0      	mov.n	a2, a10
  903e7f:	d10f      	retw.n
  903e81:	000000        	ill

00903e84 <_HTC_Ready>:
{
  903e84:	6c1004        	entry	a1, 32
	pBuffer = HTCAllocMsgBuffer(pHTC);
  903e87:	022a02        	or	a10, a2, a2
  903e8a:	5bfff5        	call8	903e60 <HTCAllocMsgBuffer>
    return __adf_nbuf_put_tail(buf, size);
  903e8d:	c0b8      	movi.n	a11, 8
  903e8f:	d4a0      	mov.n	a4, a10
  903e91:	5bfdd7        	call8	9035f0 <__adf_nbuf_put_tail>
	A_MEMZERO(pReady,sizeof(HTC_READY_MSG));
  903e94:	15716e        	l32r	a5, 8e044c <_bss_end+0x3d2c44>
  903e97:	c0c8      	movi.n	a12, 8
  903e99:	8854      	l32i.n	a8, a5, 16
  903e9b:	c0b0      	movi.n	a11, 0
  903e9d:	d3a0      	mov.n	a3, a10
  903e9f:	0b8000        	callx8	a8
	pReady->MessageID = adf_os_htons(HTC_MSG_READY_ID);
  903ea2:	c081      	movi.n	a8, 1
  903ea4:	283401        	s8i	a8, a3, 1
	pReady->CreditSize = adf_os_htons((A_UINT16)pHTC->RecvBufferSize);
  903ea7:	282291        	l32i	a8, a2, 0x244
	pReady->MessageID = adf_os_htons(HTC_MSG_READY_ID);
  903eaa:	c0b0      	movi.n	a11, 0
	pReady->CreditSize = adf_os_htons((A_UINT16)pHTC->RecvBufferSize);
  903eac:	08084f        	extui	a8, a8, 0, 16
  903eaf:	088914        	srli	a9, a8, 8
  903eb2:	283405        	s8i	a8, a3, 5
	pReady->CreditCount = adf_os_htons((A_UINT16)pHTC->TotalCredits);
  903eb5:	282294        	l32i	a8, a2, 0x250
	pReady->CreditSize = adf_os_htons((A_UINT16)pHTC->RecvBufferSize);
  903eb8:	293404        	s8i	a9, a3, 4
	pReady->CreditCount = adf_os_htons((A_UINT16)pHTC->TotalCredits);
  903ebb:	08084f        	extui	a8, a8, 0, 16
  903ebe:	088914        	srli	a9, a8, 8
  903ec1:	283403        	s8i	a8, a3, 3
	pReady->MaxEndpoints = ENDPOINT_MAX;
  903ec4:	c186      	movi.n	a8, 22
  903ec6:	283406        	s8i	a8, a3, 6
	pReady->MessageID = adf_os_htons(HTC_MSG_READY_ID);
  903ec9:	2b3400        	s8i	a11, a3, 0
	pReady->CreditCount = adf_os_htons((A_UINT16)pHTC->TotalCredits);
  903ecc:	293402        	s8i	a9, a3, 2
	HTC_SendMsg(pHTC, ENDPOINT0, pBuffer);
  903ecf:	235289        	l32i	a3, a5, 0x224
  903ed2:	dc40      	mov.n	a12, a4
  903ed4:	da20      	mov.n	a10, a2
  903ed6:	0b3000        	callx8	a3
  903ed9:	d10f      	retw.n
	...

00903edc <HTCCheckAndSendCreditReport>:
{
  903edc:	6c1004        	entry	a1, 32
		if (!(pHTC->EpHostNeedsCreditMap & EpMask)) {
  903edf:	282285        	l32i	a8, a2, 0x214
  903ee2:	78305a        	bnone	a3, a8, 903f40 <HTCCheckAndSendCreditReport+0x64>
		if (!(pHTC->EpCreditPendingMap & EpMask)) {
  903ee5:	282286        	l32i	a8, a2, 0x218
  903ee8:	783054        	bnone	a3, a8, 903f40 <HTCCheckAndSendCreditReport+0x64>
		if (pEndpoint != NULL) {
  903eeb:	c945      	beqz.n	a4, 903f04 <HTCCheckAndSendCreditReport+0x28>
			if (pEndpoint->CreditReturnThreshhold != 0) {
  903eed:	234904        	l16si	a3, a4, 8
  903ef0:	c834      	beqz.n	a3, 903ef8 <HTCCheckAndSendCreditReport+0x1c>
				if (pEndpoint->CreditsToReturn < pEndpoint->CreditReturnThreshhold) {
  903ef2:	284900        	l16si	a8, a4, 0
  903ef5:	738247        	blt	a8, a3, 903f40 <HTCCheckAndSendCreditReport+0x64>
			if (pEndpoint->PendingCreditReports >= pHTC->MaxEpPendingCreditRpts) {
  903ef8:	8844      	l32i.n	a8, a4, 16
  903efa:	232299        	l32i	a3, a2, 0x264
  903efd:	738203        	blt	a8, a3, 903f04 <HTCCheckAndSendCreditReport+0x28>
  903f00:	600009        	j	903f0d <HTCCheckAndSendCreditReport+0x31>
  903f03:	00da20        	excw
		pCredBuffer = HTCAllocMsgBuffer(pHTC);
  903f06:	5bffd6        	call8	903e60 <HTCAllocMsgBuffer>
  903f09:	d3a0      	mov.n	a3, a10
		if (NULL == pCredBuffer) {
  903f0b:	ccae      	bnez.n	a10, 903f1d <HTCCheckAndSendCreditReport+0x41>
			pHTC->StateFlags |= HTC_SEND_CREDIT_UPDATE_SOON;
  903f0d:	232292        	l32i	a3, a2, 0x248
  903f10:	c042      	movi.n	a4, 2
  903f12:	043302        	or	a3, a3, a4
  903f15:	232692        	s32i	a3, a2, 0x248
  903f18:	d10f      	retw.n
  903f1a:	000000        	ill
    return (__adf_nbuf_get_priv(buf));
  903f1d:	5bfd4f        	call8	90345c <__adf_nbuf_get_priv>
		if (pEndpoint != NULL) {
  903f20:	c84d      	beqz.n	a4, 903f31 <HTCCheckAndSendCreditReport+0x55>
			pEndpoint->PendingCreditReports++;
  903f22:	8844      	l32i.n	a8, a4, 16
  903f24:	b188      	addi.n	a8, a8, 1
  903f26:	9844      	s32i.n	a8, a4, 16
			ctx->htc_flags = Eid | HTC_FLAGS_CREDIT_RPT;
  903f28:	240a20        	movi	a4, 32
  903f2b:	045502        	or	a5, a5, a4
  903f2e:	25a401        	s8i	a5, a10, 1
		HTC_SendMsg(pHTC, ENDPOINT0, pCredBuffer);
  903f31:	14716e        	l32r	a4, 8e04ec <_bss_end+0x3d2ce4>
  903f34:	dc30      	mov.n	a12, a3
  903f36:	244289        	l32i	a4, a4, 0x224
  903f39:	c0b0      	movi.n	a11, 0
  903f3b:	da20      	mov.n	a10, a2
  903f3d:	0b4000        	callx8	a4
  903f40:	d10f      	retw.n
	...

00903f44 <ReturnBuffers>:
{
  903f44:	6c1004        	entry	a1, 32
    return __adf_nbuf_push_head(buf, size);
  903f47:	c0b8      	movi.n	a11, 8
  903f49:	da40      	mov.n	a10, a4
	HIF_return_recv_buf(pHTC->hifHandle, pHTC->Endpoints[EndpointID].UpLinkPipeID, pBuffers);
  903f4b:	0f3611        	slli	a6, a3, 1
  903f4e:	5bfd1d        	call8	9033c4 <__adf_nbuf_push_head>
  903f51:	a366      	add.n	a6, a6, a3
  903f53:	18716e        	l32r	a8, 8e050c <_bss_end+0x3d2d04>
  903f56:	0d6611        	slli	a6, a6, 3
  903f59:	a627      	add.n	a7, a2, a6
  903f5b:	28827c        	l32i	a8, a8, 0x1f0
  903f5e:	2b7019        	l8ui	a11, a7, 25
  903f61:	2a229a        	l32i	a10, a2, 0x268
  903f64:	dc40      	mov.n	a12, a4
  903f66:	0b8000        	callx8	a8
	if (pHTC->StateFlags & HTC_STATE_SETUP_COMPLETE) {
  903f69:	242292        	l32i	a4, a2, 0x248
  903f6c:	7f4730        	bbci	a4, 31, 903fa0 <ReturnBuffers+0x5c>
		pHTC->Endpoints[EndpointID].CreditsToReturn += (A_INT16)nbufs;
  903f6f:	287102        	l16ui	a8, a7, 4
		A_UINT32    epCreditMask = (1 << EndpointID);
  903f72:	c0b1      	movi.n	a11, 1
		pHTC->Endpoints[EndpointID].CreditsToReturn += (A_INT16)nbufs;
  903f74:	b188      	addi.n	a8, a8, 1
  903f76:	287502        	s16i	a8, a7, 4
		pHTC->Endpoints[EndpointID].CreditsConsumed -= (A_INT16)nbufs;
  903f79:	287107        	l16ui	a8, a7, 14
		A_UINT32    epCreditMask = (1 << EndpointID);
  903f7c:	003104        	ssl	a3
  903f7f:	00bb1a        	sll	a11, a11
		pHTC->Endpoints[EndpointID].CreditsConsumed -= (A_INT16)nbufs;
  903f82:	b088      	addi.n	a8, a8, -1
  903f84:	287507        	s16i	a8, a7, 14
		pHTC->EpCreditPendingMap |= epCreditMask;
  903f87:	272286        	l32i	a7, a2, 0x218
  903f8a:	0b7702        	or	a7, a7, a11
  903f8d:	272686        	s32i	a7, a2, 0x218
		if (sendCreditFlag) {
  903f90:	c954      	beqz.n	a5, 903fa8 <ReturnBuffers+0x64>
			HTCCheckAndSendCreditReport(pHTC, epCreditMask,&pHTC->Endpoints[EndpointID],EndpointID);
  903f92:	b46c      	addi.n	a12, a6, 4
  903f94:	dd30      	mov.n	a13, a3
  903f96:	ac2c      	add.n	a12, a2, a12
  903f98:	da20      	mov.n	a10, a2
  903f9a:	5bffd0        	call8	903edc <HTCCheckAndSendCreditReport>
  903f9d:	d10f      	retw.n
  903f9f:	002322        	excw
		pHTC->TotalCredits += nbufs;
  903fa2:	94b1      	s32i.n	a4, a11, 4
  903fa4:	332326        	excw
  903fa7:	94d1      	s32i.n	a4, a13, 4
  903fa9:	0f0000        	callx12	a0

00903fac <_HTC_ReturnBuffers>:
{
  903fac:	6c1004        	entry	a1, 32
	ReturnBuffers(htcHandle, EndpointID, pBuffers, TRUE);
  903faf:	c0d1      	movi.n	a13, 1
  903fb1:	dc40      	mov.n	a12, a4
  903fb3:	db30      	mov.n	a11, a3
  903fb5:	da20      	mov.n	a10, a2
  903fb7:	5bffe3        	call8	903f44 <ReturnBuffers>
  903fba:	d10f      	retw.n

00903fbc <_HTC_ReturnBuffersList>:
{
  903fbc:	6c1006        	entry	a1, 48
 * @return first buffer in queue
 */
static inline adf_nbuf_t
adf_nbuf_queue_first(adf_nbuf_queue_t *head)
{
    return (__adf_nbuf_queue_first(head));
  903fbf:	da10      	mov.n	a10, a1
  903fc1:	9410      	s32i.n	a4, a1, 0
  903fc3:	9511      	s32i.n	a5, a1, 4
  903fc5:	9612      	s32i.n	a6, a1, 8
  903fc7:	5bfdbb        	call8	9036b4 <__adf_nbuf_queue_first>
  903fca:	d4a0      	mov.n	a4, a10
		ReturnBuffers(htcHandle, EndpointID, tmpNbuf, FALSE);
  903fcc:	c050      	movi.n	a5, 0
	while (netbuf) {
  903fce:	600014        	j	903fe6 <_HTC_ReturnBuffersList+0x2a>
 * @return next buffer/packet
 */
static inline adf_nbuf_t
adf_nbuf_queue_next(adf_nbuf_t buf)
{
    return (__adf_nbuf_queue_next(buf));
  903fd1:	da40      	mov.n	a10, a4
  903fd3:	5bfdba        	call8	9036bc <__adf_nbuf_queue_next>
  903fd6:	d6a0      	mov.n	a6, a10
		ReturnBuffers(htcHandle, EndpointID, tmpNbuf, FALSE);
  903fd8:	dc40      	mov.n	a12, a4
  903fda:	dd50      	mov.n	a13, a5
  903fdc:	db30      	mov.n	a11, a3
  903fde:	022a02        	or	a10, a2, a2
  903fe1:	5bffd8        	call8	903f44 <ReturnBuffers>
		netbuf = adf_nbuf_queue_next(netbuf);
  903fe4:	d460      	mov.n	a4, a6
	while (netbuf) {
  903fe6:	654fe7        	bnez	a4, 903fd1 <_HTC_ReturnBuffersList+0x15>
	HTCCheckAndSendCreditReport(pHTC, (1 << EndpointID),&pHTC->Endpoints[EndpointID],EndpointID);
  903fe9:	0f3c11        	slli	a12, a3, 1
  903fec:	a3cc      	add.n	a12, a12, a3
  903fee:	0dcc11        	slli	a12, a12, 3
  903ff1:	b4cc      	addi.n	a12, a12, 4
  903ff3:	c0b1      	movi.n	a11, 1
  903ff5:	dd30      	mov.n	a13, a3
  903ff7:	ac2c      	add.n	a12, a2, a12
  903ff9:	003104        	ssl	a3
  903ffc:	00bb1a        	sll	a11, a11
  903fff:	da20      	mov.n	a10, a2
  904001:	5bffb6        	call8	903edc <HTCCheckAndSendCreditReport>
  904004:	d10f      	retw.n
	...

00904008 <HTCControlSvcProcessSendComplete>:
{
  904008:	6c1004        	entry	a1, 32
    return (__adf_nbuf_get_priv(buf));
  90400b:	da30      	mov.n	a10, a3
  90400d:	5bfd13        	call8	90345c <__adf_nbuf_get_priv>
	if ( ctx->htc_flags & HTC_FLAGS_CREDIT_RPT ) {
  904010:	28a001        	l8ui	a8, a10, 1
  904013:	7a8712        	bbci	a8, 26, 904029 <HTCControlSvcProcessSendComplete+0x21>
		creditRptEndpoint = ctx->htc_flags & HTC_FLAGS_CRPT_EP_MASK;
  904016:	080944        	extui	a9, a8, 0, 5
		pHTC->Endpoints[creditRptEndpoint].PendingCreditReports--;
  904019:	0f9811        	slli	a8, a9, 1
  90401c:	a988      	add.n	a8, a8, a9
  90401e:	0d8811        	slli	a8, a8, 3
  904021:	a848      	add.n	a8, a4, a8
  904023:	8985      	l32i.n	a9, a8, 20
  904025:	b099      	addi.n	a9, a9, -1
  904027:	9985      	s32i.n	a9, a8, 20
	HTCFreeMsgBuffer(pHTC, pBuffers);
  904029:	db30      	mov.n	a11, a3
  90402b:	da40      	mov.n	a10, a4
  90402d:	5bff86        	call8	903e48 <HTCFreeMsgBuffer>
	if (pHTC->StateFlags & HTC_SEND_CREDIT_UPDATE_SOON) {
  904030:	284292        	l32i	a8, a4, 0x248
  904033:	7e8712        	bbci	a8, 30, 904049 <HTCControlSvcProcessSendComplete+0x41>
		pHTC->StateFlags &= ~HTC_SEND_CREDIT_UPDATE_SOON;
  904036:	c73d      	movi.n	a3, -3
  904038:	038801        	and	a8, a8, a3
  90403b:	284692        	s32i	a8, a4, 0x248
		HTCCheckAndSendCreditReport(pHTC, HTC_ANY_ENDPOINT_MASK,NULL,ENDPOINT_MAX);
  90403e:	c1d6      	movi.n	a13, 22
  904040:	c0c0      	movi.n	a12, 0
  904042:	c7bf      	movi.n	a11, -1
  904044:	da40      	mov.n	a10, a4
  904046:	5bffa5        	call8	903edc <HTCCheckAndSendCreditReport>
  904049:	d10f      	retw.n
	...

0090404c <HTCProcessConnectMsg>:
{
  90404c:	6c1008        	entry	a1, 64
	int metaDataOutLen = 0;
  90404f:	c070      	movi.n	a7, 0
  904051:	9710      	s32i.n	a7, a1, 0
	A_UINT16 serviceId = adf_os_ntohs(pMsg->ServiceID);
  904053:	283002        	l8ui	a8, a3, 2
	pBuffer = HTCAllocMsgBuffer(pHTC);
  904056:	da20      	mov.n	a10, a2
	A_UINT16 serviceId = adf_os_ntohs(pMsg->ServiceID);
  904058:	088411        	slli	a4, a8, 8
  90405b:	283003        	l8ui	a8, a3, 3
	HTC_SERVICE *pService = pHTC->pServiceList;
  90405e:	252290        	l32i	a5, a2, 0x240
	A_UINT16 serviceId = adf_os_ntohs(pMsg->ServiceID);
  904061:	048802        	or	a8, a8, a4
	pBuffer = HTCAllocMsgBuffer(pHTC);
  904064:	9814      	s32i.n	a8, a1, 16
  904066:	5bff7e        	call8	903e60 <HTCAllocMsgBuffer>
    return __adf_nbuf_put_tail(buf, size);
  904069:	c0ba      	movi.n	a11, 10
  90406b:	d6a0      	mov.n	a6, a10
  90406d:	5bfd60        	call8	9035f0 <__adf_nbuf_put_tail>
	A_MEMZERO(pRspMsg,sizeof(HTC_CONNECT_SERVICE_RESPONSE_MSG));
  904070:	19716e        	l32r	a9, 8e0628 <_bss_end+0x3d2e20>
  904073:	c0ca      	movi.n	a12, 10
  904075:	8d94      	l32i.n	a13, a9, 16
  904077:	db70      	mov.n	a11, a7
  904079:	d4a0      	mov.n	a4, a10
  90407b:	0bd000        	callx8	a13
	pRspMsg->ServiceID = adf_os_htons(serviceId);
  90407e:	8814      	l32i.n	a8, a1, 16
	pRspMsg->MessageID = adf_os_htons(HTC_MSG_CONNECT_SERVICE_RESPONSE_ID);
  904080:	c093      	movi.n	a9, 3
  904082:	294401        	s8i	a9, a4, 1
	pRspMsg->ServiceID = adf_os_htons(serviceId);
  904085:	088914        	srli	a9, a8, 8
  904088:	294402        	s8i	a9, a4, 2
	pRspMsg->MessageID = adf_os_htons(HTC_MSG_CONNECT_SERVICE_RESPONSE_ID);
  90408b:	274400        	s8i	a7, a4, 0
	pRspMsg->ServiceID = adf_os_htons(serviceId);
  90408e:	284403        	s8i	a8, a4, 3
		if (pHTC->CurrentEpIndex >= ENDPOINT_MAX) {
  904091:	c195      	movi.n	a9, 21
	while (pService) {
  904093:	600077        	j	90410e <HTCProcessConnectMsg+0xc2>
		if (pHTC->CurrentEpIndex >= ENDPOINT_MAX) {
  904096:	2b2288        	l32i	a11, a2, 0x220
  904099:	7b9279        	blt	a9, a11, 904116 <HTCProcessConnectMsg+0xca>
		if (serviceId == pService->ServiceID) {
  90409c:	2a5108        	l16ui	a10, a5, 16
  90409f:	78a969        	bne	a10, a8, 90410c <HTCProcessConnectMsg+0xc0>
			if (pMsg->ServiceMetaLength != 0) {
  9040a2:	2d3008        	l8ui	a13, a3, 8
				pMetaDataIN = ((A_UINT8 *)pMsg) + sizeof(HTC_CONNECT_SERVICE_MSG);
  9040a5:	c080      	movi.n	a8, 0
  9040a7:	ba3c      	addi.n	a12, a3, 10
  9040a9:	0d8c38        	moveqz	a12, a8, a13
			connectStatus = pService->ProcessConnect(pService,
  9040ac:	8853      	l32i.n	a8, a5, 12
  9040ae:	df10      	mov.n	a15, a1
  9040b0:	ba4e      	addi.n	a14, a4, 10
  9040b2:	055a02        	or	a10, a5, a5
  9040b5:	0b8000        	callx8	a8
			if (HTC_SERVICE_SUCCESS == connectStatus) {
  9040b8:	65a05c        	bnez	a10, 904118 <HTCProcessConnectMsg+0xcc>
				pRspMsg->ServiceMetaLength = (A_UINT8)metaDataOutLen;
  9040bb:	8810      	l32i.n	a8, a1, 0
  9040bd:	284408        	s8i	a8, a4, 8
				pRspMsg->EndpointID = pHTC->CurrentEpIndex;
  9040c0:	292288        	l32i	a9, a2, 0x220
  9040c3:	294405        	s8i	a9, a4, 5
				pRspMsg->MaxMsgSize = adf_os_htons((A_UINT16)pService->MaxSvcMsgSize);
  9040c6:	285014        	l8ui	a8, a5, 20
  9040c9:	284406        	s8i	a8, a4, 6
  9040cc:	285015        	l8ui	a8, a5, 21
  9040cf:	284407        	s8i	a8, a4, 7
  9040d2:	0f9811        	slli	a8, a9, 1
  9040d5:	a988      	add.n	a8, a8, a9
  9040d7:	0d8811        	slli	a8, a8, 3
  9040da:	a828      	add.n	a8, a2, a8
				pHTC->Endpoints[pHTC->CurrentEpIndex].pService = pService;
  9040dc:	9582      	s32i.n	a5, a8, 8
				pHTC->Endpoints[pHTC->CurrentEpIndex].ConnectionFlags = pMsg->ConnectionFlags;
  9040de:	2b3004        	l8ui	a11, a3, 4
  9040e1:	08bc11        	slli	a12, a11, 8
  9040e4:	2b3005        	l8ui	a11, a3, 5
  9040e7:	0cbb02        	or	a11, a11, a12
  9040ea:	2b8508        	s16i	a11, a8, 16
				pHTC->Endpoints[pHTC->CurrentEpIndex].DownLinkPipeID = pMsg->DownLinkPipeID;
  9040ed:	2b3006        	l8ui	a11, a3, 6
  9040f0:	2b8418        	s8i	a11, a8, 24
				pHTC->Endpoints[pHTC->CurrentEpIndex].UpLinkPipeID = pMsg->UpLinkPipeID;
  9040f3:	233007        	l8ui	a3, a3, 7
  9040f6:	238419        	s8i	a3, a8, 25
				pService->ServiceFlags |= HTC_SERVICE_FLAGS_CONNECTED;
  9040f9:	235109        	l16ui	a3, a5, 18
  9040fc:	c081      	movi.n	a8, 1
  9040fe:	083302        	or	a3, a3, a8
  904101:	235509        	s16i	a3, a5, 18
				pHTC->CurrentEpIndex++;
  904104:	b193      	addi.n	a3, a9, 1
  904106:	232688        	s32i	a3, a2, 0x220
  904109:	60000b        	j	904118 <HTCProcessConnectMsg+0xcc>
		pService = pService->pNext;
  90410c:	8550      	l32i.n	a5, a5, 0
	while (pService) {
  90410e:	655f84        	bnez	a5, 904096 <HTCProcessConnectMsg+0x4a>
	A_UINT8 connectStatus = HTC_SERVICE_NOT_FOUND;
  904111:	c0a1      	movi.n	a10, 1
  904113:	600001        	j	904118 <HTCProcessConnectMsg+0xcc>
			connectStatus = HTC_SERVICE_NO_RESOURCES;
  904116:	c0a3      	movi.n	a10, 3
	pRspMsg->Status = connectStatus;
  904118:	2a4404        	s8i	a10, a4, 4
	HTC_SendMsg(pHTC, ENDPOINT0, pBuffer);
  90411b:	14716e        	l32r	a4, 8e06d4 <_bss_end+0x3d2ecc>
  90411e:	dc60      	mov.n	a12, a6
  904120:	234289        	l32i	a3, a4, 0x224
  904123:	c0b0      	movi.n	a11, 0
  904125:	da20      	mov.n	a10, a2
  904127:	0b3000        	callx8	a3
  90412a:	d10f      	retw.n

0090412c <HTCProcessConfigPipeMsg>:
{
  90412c:	6c1004        	entry	a1, 32
	pBuffer = HTCAllocMsgBuffer(pHTC);
  90412f:	022a02        	or	a10, a2, a2
  904132:	5bff4b        	call8	903e60 <HTCAllocMsgBuffer>
  904135:	c0b4      	movi.n	a11, 4
  904137:	d6a0      	mov.n	a6, a10
  904139:	5bfd2d        	call8	9035f0 <__adf_nbuf_put_tail>
	A_MEMZERO(pRspMsg,sizeof(HTC_CONFIG_PIPE_RESPONSE_MSG));
  90413c:	15716e        	l32r	a5, 8e06f4 <_bss_end+0x3d2eec>
  90413f:	c0b0      	movi.n	a11, 0
  904141:	8854      	l32i.n	a8, a5, 16
  904143:	c0c4      	movi.n	a12, 4
  904145:	d4a0      	mov.n	a4, a10
  904147:	0b8000        	callx8	a8
	pRspMsg->MessageID = adf_os_htons(HTC_MSG_CONFIG_PIPE_RESPONSE_ID);
  90414a:	c080      	movi.n	a8, 0
  90414c:	284400        	s8i	a8, a4, 0
  90414f:	280a06        	movi	a8, 6
  904152:	284401        	s8i	a8, a4, 1
	pRspMsg->PipeID = pMsg->PipeID;
  904155:	2b3002        	l8ui	a11, a3, 2
  904158:	2b4402        	s8i	a11, a4, 2
	if ( HIF_is_pipe_supported(pHTC->hifHandle, pMsg->PipeID) ) {
  90415b:	28527d        	l32i	a8, a5, 0x1f4
  90415e:	2a229a        	l32i	a10, a2, 0x268
  904161:	0b8000        	callx8	a8
  904164:	c9a4      	beqz.n	a10, 90417c <HTCProcessConfigPipeMsg+0x50>
		pRspMsg->Status = 0;
  904166:	c080      	movi.n	a8, 0
  904168:	284403        	s8i	a8, a4, 3
	if ( (pHTC->TotalCreditsAssigned + pMsg->CreditCount) <= pHTC->TotalCredits ) {
  90416b:	2c3003        	l8ui	a12, a3, 3
  90416e:	282295        	l32i	a8, a2, 0x254
  904171:	292294        	l32i	a9, a2, 0x250
  904174:	a8c8      	add.n	a8, a12, a8
  904176:	78921a        	blt	a9, a8, 904194 <HTCProcessConfigPipeMsg+0x68>
  904179:	600004        	j	904181 <HTCProcessConfigPipeMsg+0x55>
		pRspMsg->Status = 1;
  90417c:	c031      	movi.n	a3, 1
  90417e:	600014        	j	904196 <HTCProcessConfigPipeMsg+0x6a>
		pHTC->TotalCreditsAssigned += pMsg->CreditCount;
  904181:	282695        	s32i	a8, a2, 0x254
	HIF_config_pipe(pHTC->hifHandle, pMsg->PipeID, pMsg->CreditCount);
  904184:	24527a        	l32i	a4, a5, 0x1e8
  904187:	2b3002        	l8ui	a11, a3, 2
  90418a:	2a229a        	l32i	a10, a2, 0x268
  90418d:	0b4000        	callx8	a4
  904190:	600005        	j	904199 <HTCProcessConfigPipeMsg+0x6d>
  904193:	00c032        	sext	a0, a12, 7
		pRspMsg->Status = 2;
  904196:	234403        	s8i	a3, a4, 3
	HTC_SendMsg(pHTC, ENDPOINT0, pBuffer);
  904199:	235289        	l32i	a3, a5, 0x224
  90419c:	dc60      	mov.n	a12, a6
  90419e:	c0b0      	movi.n	a11, 0
  9041a0:	da20      	mov.n	a10, a2
  9041a2:	0b3000        	callx8	a3
  9041a5:	d10f      	retw.n
	...

009041a8 <HTCControlSvcProcessMsg>:
{
  9041a8:	6c1006        	entry	a1, 48
	adf_os_assert(hdr_buf == ADF_NBUF_NULL);
  9041ab:	c832      	beqz.n	a3, 9041b1 <HTCControlSvcProcessMsg+0x9>
  9041ad:	63fffc        	j	9041ad <HTCControlSvcProcessMsg+0x5>
  9041b0:	00b41b        	excw
    __adf_nbuf_peek_header(buf, addr, len);
  9041b3:	dc10      	mov.n	a12, a1
  9041b5:	da40      	mov.n	a10, a4
  9041b7:	5bfd33        	call8	903684 <__adf_nbuf_peek_header>
	pMsg = (HTC_UNKNOWN_MSG *)anbdata;
  9041ba:	8b11      	l32i.n	a11, a1, 4
	switch ( adf_os_ntohs(pMsg->MessageID) ) {
  9041bc:	28b000        	l8ui	a8, a11, 0
  9041bf:	088611        	slli	a6, a8, 8
  9041c2:	28b001        	l8ui	a8, a11, 1
  9041c5:	068802        	or	a8, a8, a6
		setupComplete = TRUE;
  9041c8:	c061      	movi.n	a6, 1
	switch ( adf_os_ntohs(pMsg->MessageID) ) {
  9041ca:	688416        	beqi	a8, 4, 9041e4 <HTCControlSvcProcessMsg+0x3c>
  9041cd:	68850c        	beqi	a8, 5, 9041dd <HTCControlSvcProcessMsg+0x35>
  9041d0:	69820e        	bnei	a8, 2, 9041e2 <HTCControlSvcProcessMsg+0x3a>
		HTCProcessConnectMsg(pHTC, (HTC_CONNECT_SERVICE_MSG *)pMsg);
  9041d3:	da50      	mov.n	a10, a5
  9041d5:	5bff9d        	call8	90404c <HTCProcessConnectMsg>
  9041d8:	600006        	j	9041e2 <HTCControlSvcProcessMsg+0x3a>
  9041db:	0000da        	excw
		HTCProcessConfigPipeMsg(pHTC, (HTC_CONFIG_PIPE_MSG *)pMsg);
  9041de:	505bff        	call0	91b1dc <_etext+0x1019d>
  9041e1:	d3d6      	excw
	A_BOOL setupComplete = FALSE;
  9041e3:	302852        	excw
	if (pHTC->StateFlags & HTC_STATE_SETUP_COMPLETE) {
  9041e6:	9213      	s32i.n	a2, a1, 12
  9041e8:	716e7f        	bbsi	a6, 1, 90426b <AdjustCreditThreshold+0x3b>
  9041eb:	870b      	l32i.n	a7, a0, 44
		HTC_ReturnBuffers(pHTC, ENDPOINT0,pBuffers);
  9041ed:	223287        	l32i	a2, a3, 0x21c
  9041f0:	dc40      	mov.n	a12, a4
  9041f2:	c0b0      	movi.n	a11, 0
  9041f4:	da50      	mov.n	a10, a5
  9041f6:	60001b        	j	904215 <HTCControlSvcProcessMsg+0x6d>
    return __adf_nbuf_push_head(buf, size);
  9041f9:	c0b8      	movi.n	a11, 8
  9041fb:	da40      	mov.n	a10, a4
  9041fd:	5bfc71        	call8	9033c4 <__adf_nbuf_push_head>
		HIF_return_recv_buf(pHTC->hifHandle, pHTC->Endpoints[EndpointID].UpLinkPipeID, pBuffers);
  904200:	0f2811        	slli	a8, a2, 1
  904203:	a288      	add.n	a8, a8, a2
  904205:	0d8811        	slli	a8, a8, 3
  904208:	a858      	add.n	a8, a5, a8
  90420a:	22327c        	l32i	a2, a3, 0x1f0
  90420d:	2b8019        	l8ui	a11, a8, 25
  904210:	2a529a        	l32i	a10, a5, 0x268
  904213:	dc40      	mov.n	a12, a4
  904215:	0b2000        	callx8	a2
	if (setupComplete) {
  904218:	c961      	beqz.n	a6, 90422d <HTCControlSvcProcessMsg+0x85>
		pHTC->StateFlags |= HTC_STATE_SETUP_COMPLETE;
  90421a:	225292        	l32i	a2, a5, 0x248
  90421d:	c031      	movi.n	a3, 1
  90421f:	032202        	or	a2, a2, a3
  904222:	225692        	s32i	a2, a5, 0x248
		if (pHTC->SetupCompleteCb != NULL) {
  904225:	225293        	l32i	a2, a5, 0x24c
  904228:	c821      	beqz.n	a2, 90422d <HTCControlSvcProcessMsg+0x85>
			pHTC->SetupCompleteCb();
  90422a:	0b2000        	callx8	a2
  90422d:	d10f      	retw.n
	...

00904230 <AdjustCreditThreshold>:
					  buf,
					  pHTC->Endpoints[current_eid].pService->ServiceCtx);
}

LOCAL void AdjustCreditThreshold(HTC_ENDPOINT  *pEndpoint)
{
  904230:	6c1004        	entry	a1, 32
	A_INT16 creditsOutstanding = pEndpoint->CreditsToReturn + pEndpoint->CreditsConsumed;
  904233:	292105        	l16ui	a9, a2, 10
  904236:	282100        	l16ui	a8, a2, 0
  904239:	a988      	add.n	a8, a8, a9
        /* set the new threshold based on the number of credits that have been consumed
         * and which have not been returned by the app.
         * Note: it is okay for this threshold to be zero which indicates no threshold
         * is in use */
	switch (pEndpoint->ConnectionFlags & HTC_CONNECT_FLAGS_THRESHOLD_LEVEL_MASK) {
  90423b:	292106        	l16ui	a9, a2, 12
	A_INT16 creditsOutstanding = pEndpoint->CreditsToReturn + pEndpoint->CreditsConsumed;
  90423e:	088832        	sext	a8, a8, 15
	switch (pEndpoint->ConnectionFlags & HTC_CONNECT_FLAGS_THRESHOLD_LEVEL_MASK) {
  904241:	090941        	extui	a9, a9, 0, 2
  904244:	689110        	beqi	a9, 1, 904258 <AdjustCreditThreshold+0x28>
  904247:	c895      	beqz.n	a9, 904250 <AdjustCreditThreshold+0x20>
  904249:	689213        	beqi	a9, 2, 904260 <AdjustCreditThreshold+0x30>
  90424c:	60001b        	j	90426b <AdjustCreditThreshold+0x3b>
  90424f:	000828        	mull	a8, a0, a0
        case HTC_CONNECT_FLAGS_THRESHOLD_LEVEL_ONE_FOURTH :
		creditsOutstanding >>= 2;
  904252:	126000        	l32r	a2, 8dc254 <_bss_end+0x3cea4c>
		break;
  904255:	140000        	l32r	a4, 8c4258 <_bss_end+0x3b6a50>
        case HTC_CONNECT_FLAGS_THRESHOLD_LEVEL_ONE_HALF :
		creditsOutstanding >>= 1;
  904258:	081812        	srai	a8, a8, 1
		break;
  90425b:	60000c        	j	90426b <AdjustCreditThreshold+0x3b>
  90425e:	00000f        	subx8	a0, a0, a0
        case HTC_CONNECT_FLAGS_THRESHOLD_LEVEL_THREE_FOURTHS :
		creditsOutstanding = (creditsOutstanding * 3) >> 2;
  904261:	8911      	l32i.n	a9, a1, 4
  904263:	a898      	add.n	a8, a9, a8
  904265:	082812        	srai	a8, a8, 2
  904268:	088832        	sext	a8, a8, 15
		break;
		/* default case is unity */
	}

	pEndpoint->CreditReturnThreshhold = creditsOutstanding;
  90426b:	282504        	s16i	a8, a2, 8
  90426e:	d10f      	retw.n

00904270 <_HTC_SendMsg>:
{
  904270:	6c1008        	entry	a1, 64
    return (__adf_nbuf_get_priv(buf));
  904273:	044a02        	or	a10, a4, a4
  904276:	5bfc79        	call8	90345c <__adf_nbuf_get_priv>
  904279:	d5a0      	mov.n	a5, a10
    return (__adf_nbuf_len(buf));
  90427b:	da40      	mov.n	a10, a4
  90427d:	5bfcf9        	call8	903664 <__adf_nbuf_len>
  904280:	9a10      	s32i.n	a10, a1, 0
    return __adf_nbuf_push_head(buf, size);
  904282:	c0b8      	movi.n	a11, 8
  904284:	da40      	mov.n	a10, a4
  904286:	5bfc4f        	call8	9033c4 <__adf_nbuf_push_head>
	ctx->htc_flags |= HTC_FLAGS_BUF_HDR;
  904289:	285001        	l8ui	a8, a5, 1
  90428c:	c490      	movi.n	a9, 64
  90428e:	098802        	or	a8, a8, a9
  904291:	285401        	s8i	a8, a5, 1
	ctx->end_point = EndpointID;
  904294:	030847        	extui	a8, a3, 0, 8
  904297:	285400        	s8i	a8, a5, 0
	pHTCHdr->Flags = 0;
  90429a:	c050      	movi.n	a5, 0
  90429c:	25a401        	s8i	a5, a10, 1
		pipeMaxLen = HIF_get_max_msg_len(pHTC->hifHandle,
  90429f:	0f3511        	slli	a5, a3, 1
  9042a2:	a355      	add.n	a5, a5, a3
	pHTCHdr->EndpointID = EndpointID;
  9042a4:	28a400        	s8i	a8, a10, 0
		pipeMaxLen = HIF_get_max_msg_len(pHTC->hifHandle,
  9042a7:	0d5511        	slli	a5, a5, 3
  9042aa:	18716e        	l32r	a8, 8e0864 <_bss_end+0x3d305c>
  9042ad:	a525      	add.n	a5, a2, a5
  9042af:	2b5018        	l8ui	a11, a5, 24
  9042b2:	28827e        	l32i	a8, a8, 0x1f8
  9042b5:	d6a0      	mov.n	a6, a10
  9042b7:	2a229a        	l32i	a10, a2, 0x268
  9042ba:	0b8000        	callx8	a8
  9042bd:	d5a0      	mov.n	a5, a10
    return (__adf_nbuf_headroom(buf));
  9042bf:	da40      	mov.n	a10, a4
  9042c1:	5bfcde        	call8	90363c <__adf_nbuf_headroom>
		roomForPipeMaxLen = pipeMaxLen - adf_nbuf_headroom(pBuffers) - adf_nbuf_len(pBuffers);
  9042c4:	0a550c        	sub	a5, a5, a10
    return (__adf_nbuf_len(buf));
  9042c7:	da40      	mov.n	a10, a4
  9042c9:	5bfce6        	call8	903664 <__adf_nbuf_len>
  9042cc:	0a550c        	sub	a5, a5, a10
    return (__adf_nbuf_tailroom(buf));
  9042cf:	da40      	mov.n	a10, a4
  9042d1:	5bfcdd        	call8	903648 <__adf_nbuf_tailroom>
		room = adf_os_min( adf_nbuf_tailroom(pBuffers), roomForPipeMaxLen);
  9042d4:	75ab06        	bgeu	a10, a5, 9042de <_HTC_SendMsg+0x6e>
  9042d7:	da40      	mov.n	a10, a4
  9042d9:	5bfcdb        	call8	903648 <__adf_nbuf_tailroom>
  9042dc:	d5a0      	mov.n	a5, a10
		if (room < (int)(sizeof(HTC_CREDIT_REPORT) + sizeof(HTC_RECORD_HDR))) {
  9042de:	6b5402        	bgei	a5, 4, 9042e4 <_HTC_SendMsg+0x74>
  9042e1:	6000ad        	j	904392 <_HTC_SendMsg+0x122>
		creditsPendingMap = pHTC->EpCreditPendingMap;
  9042e4:	272286        	l32i	a7, a2, 0x218
		if (creditsPendingMap) {
  9042e7:	6470a7        	beqz	a7, 904392 <_HTC_SendMsg+0x122>
    return __adf_nbuf_put_tail(buf, size);
  9042ea:	c0b2      	movi.n	a11, 2
  9042ec:	da40      	mov.n	a10, a4
  9042ee:	5bfcc0        	call8	9035f0 <__adf_nbuf_put_tail>
			pRecHdr->RecordID = HTC_RECORD_CREDITS;
  9042f1:	c091      	movi.n	a9, 1
  9042f3:	29a400        	s8i	a9, a10, 0
			pRecHdr->Length = 0;
  9042f6:	c090      	movi.n	a9, 0
  9042f8:	29a401        	s8i	a9, a10, 1
  9042fb:	dea0      	mov.n	a14, a10
			room -= sizeof(HTC_RECORD_HDR);
  9042fd:	255cfe        	addi	a5, a5, -2
  904300:	b429      	addi.n	a9, a2, 4
			totalReportBytes += sizeof(HTC_RECORD_HDR);
  904302:	c0c2      	movi.n	a12, 2
			for (i = 0;
  904304:	c0d0      	movi.n	a13, 0
  904306:	600069        	j	904373 <_HTC_SendMsg+0x103>
				compareMask = (1 << i);
  904309:	c081      	movi.n	a8, 1
  90430b:	00d104        	ssl	a13
  90430e:	008f1a        	sll	a15, a8
				if (compareMask & creditsPendingMap) {
  904311:	7f7059        	bnone	a7, a15, 90436e <_HTC_SendMsg+0xfe>
  904314:	c0b2      	movi.n	a11, 2
  904316:	da40      	mov.n	a10, a4
  904318:	9915      	s32i.n	a9, a1, 20
  90431a:	9c13      	s32i.n	a12, a1, 12
  90431c:	9d12      	s32i.n	a13, a1, 8
  90431e:	9e14      	s32i.n	a14, a1, 16
  904320:	9f11      	s32i.n	a15, a1, 4
  904322:	5bfcb3        	call8	9035f0 <__adf_nbuf_put_tail>
					pCreditRpt->EndpointID = i;
  904325:	8d12      	l32i.n	a13, a1, 8
					creditsPendingMap &= ~(compareMask);
  904327:	8f11      	l32i.n	a15, a1, 4
					pCreditRpt->EndpointID = i;
  904329:	2da400        	s8i	a13, a10, 0
					pCreditRpt->Credits = (A_UINT8)pHTC->Endpoints[i].CreditsToReturn;
  90432c:	8915      	l32i.n	a9, a1, 20
					creditsPendingMap &= ~(compareMask);
  90432e:	c7bf      	movi.n	a11, -1
  904330:	0fbf03        	xor	a15, a11, a15
					pCreditRpt->Credits = (A_UINT8)pHTC->Endpoints[i].CreditsToReturn;
  904333:	2b9100        	l16ui	a11, a9, 0
					creditsPendingMap &= ~(compareMask);
  904336:	0f7701        	and	a7, a7, a15
					pCreditRpt->Credits = (A_UINT8)pHTC->Endpoints[i].CreditsToReturn;
  904339:	2ba401        	s8i	a11, a10, 1
					pHTC->Endpoints[i].CreditsToReturn = 0;
  90433c:	c0a0      	movi.n	a10, 0
  90433e:	2a9500        	s16i	a10, a9, 0
					CHECK_AND_ADJUST_CREDIT_THRESHOLD(&pHTC->Endpoints[i]);
  904341:	2a9106        	l16ui	a10, a9, 12
  904344:	8c13      	l32i.n	a12, a1, 12
  904346:	8e14      	l32i.n	a14, a1, 16
  904348:	7da710        	bbci	a10, 29, 90435c <_HTC_SendMsg+0xec>
  90434b:	da90      	mov.n	a10, a9
  90434d:	9915      	s32i.n	a9, a1, 20
  90434f:	9d12      	s32i.n	a13, a1, 8
  904351:	5bffb7        	call8	904230 <AdjustCreditThreshold>
  904354:	8e14      	l32i.n	a14, a1, 16
  904356:	8d12      	l32i.n	a13, a1, 8
  904358:	8c13      	l32i.n	a12, a1, 12
  90435a:	8915      	l32i.n	a9, a1, 20
					pRecHdr->Length += sizeof(HTC_CREDIT_REPORT);
  90435c:	2ae001        	l8ui	a10, a14, 1
					room -= sizeof(HTC_CREDIT_REPORT);
  90435f:	255cfe        	addi	a5, a5, -2
					pRecHdr->Length += sizeof(HTC_CREDIT_REPORT);
  904362:	2aac02        	addi	a10, a10, 2
  904365:	2ae401        	s8i	a10, a14, 1
					totalReportBytes += sizeof(HTC_CREDIT_REPORT);
  904368:	2ccc02        	addi	a12, a12, 2
					if ( room < sizeof(HTC_CREDIT_REPORT) ) {
  90436b:	6e5209        	bltui	a5, 2, 904378 <_HTC_SendMsg+0x108>
			     i++) {
  90436e:	b1dd      	addi.n	a13, a13, 1
  904370:	299c18        	addi	a9, a9, 24
			for (i = 0;
  904373:	c871      	beqz.n	a7, 904378 <_HTC_SendMsg+0x108>
			     (creditsPendingMap != 0) && (room >= (int)sizeof(HTC_CREDIT_REPORT));
  904375:	6b5290        	bgei	a5, 2, 904309 <_HTC_SendMsg+0x99>
			pHTC->EpCreditPendingMap = creditsPendingMap;
  904378:	272686        	s32i	a7, a2, 0x218
		if (totalReportBytes <= 0) {
  90437b:	6ac113        	blti	a12, 1, 904392 <_HTC_SendMsg+0x122>
		pHTCHdr->Flags |= HTC_FLAGS_RECV_TRAILER;
  90437e:	256001        	l8ui	a5, a6, 1
  904381:	c082      	movi.n	a8, 2
  904383:	085502        	or	a5, a5, a8
  904386:	256401        	s8i	a5, a6, 1
		totsz += totalReportBytes;
  904389:	8510      	l32i.n	a5, a1, 0
		pHTCHdr->ControlBytes[0] = totalReportBytes;
  90438b:	2c6404        	s8i	a12, a6, 4
		totsz += totalReportBytes;
  90438e:	ac55      	add.n	a5, a5, a12
  904390:	9510      	s32i.n	a5, a1, 0
	pHTCHdr->PayloadLen = adf_os_htons(totsz);
  904392:	8810      	l32i.n	a8, a1, 0
	HIF_send_buffer(pHTC->hifHandle, pHTC->Endpoints[EndpointID].DownLinkPipeID, pBuffers);
  904394:	2a229a        	l32i	a10, a2, 0x268
	pHTCHdr->PayloadLen = adf_os_htons(totsz);
  904397:	08074f        	extui	a7, a8, 0, 16
  90439a:	078514        	srli	a5, a7, 8
  90439d:	256402        	s8i	a5, a6, 2
	HIF_send_buffer(pHTC->hifHandle, pHTC->Endpoints[EndpointID].DownLinkPipeID, pBuffers);
  9043a0:	0f3511        	slli	a5, a3, 1
  9043a3:	a353      	add.n	a3, a5, a3
  9043a5:	0d3311        	slli	a3, a3, 3
  9043a8:	15716e        	l32r	a5, 8e0960 <_bss_end+0x3d3158>
	pHTCHdr->PayloadLen = adf_os_htons(totsz);
  9043ab:	276403        	s8i	a7, a6, 3
	HIF_send_buffer(pHTC->hifHandle, pHTC->Endpoints[EndpointID].DownLinkPipeID, pBuffers);
  9043ae:	a323      	add.n	a3, a2, a3
  9043b0:	25527b        	l32i	a5, a5, 0x1ec
  9043b3:	2b3018        	l8ui	a11, a3, 24
  9043b6:	044c02        	or	a12, a4, a4
  9043b9:	0b5000        	callx8	a5
  9043bc:	d10f      	retw.n
	...

009043c0 <HTCMsgRecvHandler>:

}

/* callback from the mailbox hardware layer when a full message arrives */
LOCAL void HTCMsgRecvHandler(adf_nbuf_t hdr_buf, adf_nbuf_t buffer, void *context)
{
  9043c0:	6c1008        	entry	a1, 64
  9043c3:	9315      	s32i.n	a3, a1, 20
	a_uint32_t anblen;
	HTC_FRAME_HDR *pHTCHdr;
	HTC_CONTEXT *pHTC = (HTC_CONTEXT *)context;
	adf_nbuf_t tmp_nbuf;

	if (hdr_buf == ADF_NBUF_NULL) {
  9043c5:	022339        	movnez	a3, a2, a2
    __adf_nbuf_peek_header(buf, addr, len);
  9043c8:	dc10      	mov.n	a12, a1
  9043ca:	b41b      	addi.n	a11, a1, 4
  9043cc:	da30      	mov.n	a10, a3
  9043ce:	5bfcad        	call8	903684 <__adf_nbuf_peek_header>
	else {
		tmp_nbuf = hdr_buf;
	}

	adf_nbuf_peek_header(tmp_nbuf, &anbdata, &anblen);
	pHTCHdr = (HTC_FRAME_HDR *)anbdata;
  9043d1:	8511      	l32i.n	a5, a1, 4
	if (hdr_buf == ADF_NBUF_NULL) {
  9043d3:	d730      	mov.n	a7, a3
	eid = pHTCHdr->EndpointID;

	pEndpoint = &pHTC->Endpoints[eid];
	eidMask = 1 << eid;

	if (pHTCHdr->Flags & HTC_FLAGS_CREDIT_REDISTRIBUTION) {
  9043d5:	265001        	l8ui	a6, a5, 1
  9043d8:	7d6702        	bbci	a6, 29, 9043de <HTCMsgRecvHandler+0x1e>
  9043db:	60009d        	j	90447c <HTCMsgRecvHandler+0xbc>
	eid = pHTCHdr->EndpointID;
  9043de:	235000        	l8ui	a3, a5, 0
		 * Byte 0 */
		RedistributeCredit(tmp_nbuf, pHTCHdr->ControlBytes[0]);
		return;
	}

	if (pHTC->StateFlags & HTC_STATE_SETUP_COMPLETE) {
  9043e1:	254292        	l32i	a5, a4, 0x248
  9043e4:	03094f        	extui	a9, a3, 0, 16
  9043e7:	7f5711        	bbci	a5, 31, 9043fc <HTCMsgRecvHandler+0x3c>
  9043ea:	0f9511        	slli	a5, a9, 1
  9043ed:	a955      	add.n	a5, a5, a9
  9043ef:	0d5511        	slli	a5, a5, 3
  9043f2:	a545      	add.n	a5, a4, a5
		/* after setup we keep track of credit consumption to allow us to
		 * adjust thresholds to reduce credit dribbling */
		pEndpoint->CreditsConsumed ++;
  9043f4:	2a5107        	l16ui	a10, a5, 14
  9043f7:	b1aa      	addi.n	a10, a10, 1
  9043f9:	2a5507        	s16i	a10, a5, 14
	pEndpoint = &pHTC->Endpoints[eid];
  9043fc:	0f9511        	slli	a5, a9, 1
  9043ff:	a955      	add.n	a5, a5, a9
  904401:	0d5511        	slli	a5, a5, 3
  904404:	b455      	addi.n	a5, a5, 4
	eidMask = 1 << eid;
  904406:	c091      	movi.n	a9, 1
	pEndpoint = &pHTC->Endpoints[eid];
  904408:	a545      	add.n	a5, a4, a5
  90440a:	9514      	s32i.n	a5, a1, 16
	/* from the design document, we put the endpoint into a "host-needs-credit" state
	 * when we receive a frame with the NEED_CREDIT_UPDATE flag set .
	 * if the host received credits through an opportunistic path, then it can
	 * issue a another frame with this bit cleared, this signals the target to clear
	 * the "host-needs-credit" state */
	if (pHTCHdr->Flags & HTC_FLAGS_NEED_CREDIT_UPDATE) {
  90440c:	096b01        	and	a11, a6, a9
	eidMask = 1 << eid;
  90440f:	003104        	ssl	a3
  904412:	00951a        	sll	a5, a9
  904415:	2a4285        	l32i	a10, a4, 0x214
  904418:	009104        	ssl	a9
  90441b:	00361a        	sll	a6, a3
	if (pHTCHdr->Flags & HTC_FLAGS_NEED_CREDIT_UPDATE) {
  90441e:	c9bb      	beqz.n	a11, 90443d <HTCMsgRecvHandler+0x7d>
		/* the host is running low (or is out) of credits on this
		 * endpoint, update mask */
		pHTC->EpHostNeedsCreditMap |= eidMask;
  904420:	05aa02        	or	a10, a10, a5
  904423:	2a4685        	s32i	a10, a4, 0x214
		/* check and set new threshold since host has reached a low credit situation */
		CHECK_AND_ADJUST_CREDIT_THRESHOLD(pEndpoint);
  904426:	a36a      	add.n	a10, a6, a3
  904428:	0daa11        	slli	a10, a10, 3
  90442b:	aa4a      	add.n	a10, a4, a10
  90442d:	2aa108        	l16ui	a10, a10, 16
  904430:	7da71e        	bbci	a10, 29, 904452 <HTCMsgRecvHandler+0x92>
  904433:	8a14      	l32i.n	a10, a1, 16
  904435:	5bff7e        	call8	904230 <AdjustCreditThreshold>
  904438:	600016        	j	904452 <HTCMsgRecvHandler+0x92>
  90443b:	0000c7        	excw
	} else {
		/* clear the flag */
		pHTC->EpHostNeedsCreditMap &= ~(eidMask);
  90443e:	cf05      	bnez.n	a0, 904477 <HTCMsgRecvHandler+0xb7>
  904440:	cc03      	bnez.n	a0, 904447 <HTCMsgRecvHandler+0x87>
  904442:	0caa01        	and	a10, a10, a12
  904445:	2a4685        	s32i	a10, a4, 0x214
		pEndpoint->CreditReturnThreshhold = 0;
  904448:	a36a      	add.n	a10, a6, a3
  90444a:	0daa11        	slli	a10, a10, 3
  90444d:	aa4a      	add.n	a10, a4, a10
  90444f:	2ba506        	s16i	a11, a10, 12
	 *        as the result of parsing this message.  In either case, if there are
	 *        pending credits and the host needs them, a credit report will be sent either through
	 *        the response message trailer or a NULL message through HTC_ReturnBuffers().
	 */

	pEndpoint->pService->ProcessRecvMsg(eid, hdr_buf, buffer, pEndpoint->pService->ServiceCtx);
  904452:	a366      	add.n	a6, a6, a3
  904454:	0d6611        	slli	a6, a6, 3
    return __adf_nbuf_pull_head(buf, size);
  904457:	c0b8      	movi.n	a11, 8
  904459:	da70      	mov.n	a10, a7
  90445b:	064608        	add	a6, a4, a6
  90445e:	5bfbe4        	call8	9033f0 <__adf_nbuf_pull_head>
  904461:	8662      	l32i.n	a6, a6, 8
  904463:	8c15      	l32i.n	a12, a1, 20
  904465:	8d66      	l32i.n	a13, a6, 24
  904467:	8761      	l32i.n	a7, a6, 4
  904469:	db20      	mov.n	a11, a2
  90446b:	033a02        	or	a10, a3, a3
  90446e:	0b7000        	callx8	a7

	/* Calls to HTC_ReturnBuffers drives the endpoint credit reporting state machine.
	 * We do not want to delay credits for too long in the event that the application is
	 * holding onto buffers for excessive periods of time.  This gives us "some" better
	 * opportunities to send up credits. */
	HTCCheckAndSendCreditReport(pHTC, eidMask, pEndpoint, eid);
  904471:	8c14      	l32i.n	a12, a1, 16
  904473:	dd30      	mov.n	a13, a3
  904475:	db50      	mov.n	a11, a5
  904477:	da40      	mov.n	a10, a4
  904479:	5bfe98        	call8	903edc <HTCCheckAndSendCreditReport>
  90447c:	d10f      	retw.n
	...

00904480 <RedistributeCredit>:
{
  904480:	6c1004        	entry	a1, 32
  904483:	d10f      	retw.n
  904485:	000000        	ill

00904488 <WMIServiceConnect>:
                                 HTC_ENDPOINT_ID eid,
                                 A_UINT8 *pDataIn,
                                 int LengthIn,
                                 A_UINT8 *pDataOut,
                                 int *pLengthOut)
{
  904488:	6c1004        	entry	a1, 32
	WMI_SVC_CONTEXT *pWMI = (WMI_SVC_CONTEXT *)pService->ServiceCtx;

        /* save the eid to use */
	pWMI->ControlEp = eid;
  90448b:	8826      	l32i.n	a8, a2, 24
  90448d:	938a      	s32i.n	a3, a8, 40
	return HTC_SERVICE_SUCCESS;
}
  90448f:	c020      	movi.n	a2, 0
  904491:	d10f      	retw.n
	...

00904494 <_WMI_GetPendingEventsCount>:

	return pWMI;
}

static int _WMI_GetPendingEventsCount(wmi_handle_t handle)
{
  904494:	6c1004        	entry	a1, 32
	WMI_SVC_CONTEXT *pWMI = (WMI_SVC_CONTEXT *)handle;
	return pWMI->PendingEvents;
}
  904497:	8222      	l32i.n	a2, a2, 8
  904499:	d10f      	retw.n
	...

0090449c <_WMI_GetControlEp>:

static int  _WMI_GetControlEp(wmi_handle_t handle)
{
  90449c:	6c1004        	entry	a1, 32
	WMI_SVC_CONTEXT *pWMI = (WMI_SVC_CONTEXT *)handle;
	return pWMI->ControlEp;
}
  90449f:	822a      	l32i.n	a2, a2, 40
  9044a1:	d10f      	retw.n
	...

009044a4 <_WMI_RegisterDispatchTable>:

static void _WMI_RegisterDispatchTable(wmi_handle_t handle,
				       WMI_DISPATCH_TABLE *pDispatchTable)
{
  9044a4:	6c1004        	entry	a1, 32
	WMI_SVC_CONTEXT *pWMI = (WMI_SVC_CONTEXT *)handle;

	if (NULL == pWMI->pDispatchHead) {
  9044a7:	882b      	l32i.n	a8, a2, 44
  9044a9:	cc83      	bnez.n	a8, 9044b0 <_WMI_RegisterDispatchTable+0xc>
		pWMI->pDispatchHead = pDispatchTable;
  9044ab:	932b      	s32i.n	a3, a2, 44
  9044ad:	600003        	j	9044b4 <_WMI_RegisterDispatchTable+0x10>
		pWMI->pDispatchTail = pDispatchTable;
	} else {
		/* link to the tail */
		pWMI->pDispatchTail->pNext = pDispatchTable;
  9044b0:	882c      	l32i.n	a8, a2, 48
  9044b2:	9380      	s32i.n	a3, a8, 0
		pWMI->pDispatchTail = pDispatchTable;
  9044b4:	932c      	s32i.n	a3, a2, 48
  9044b6:	d10f      	retw.n

009044b8 <_WMI_Shutdown>:

	HTC_SendMsg(pWMI->HtcHandle, pWMI->ControlEp, pEvt);
}

static void _WMI_Shutdown(wmi_handle_t handle)
{
  9044b8:	6c1004        	entry	a1, 32
  9044bb:	d10f      	retw.n
  9044bd:	000000        	ill

009044c0 <WMIRecvMessageHandler>:
{
  9044c0:	6c1006        	entry	a1, 48
	adf_os_assert(hdr_buf == ADF_NBUF_NULL);
  9044c3:	c832      	beqz.n	a3, 9044c9 <WMIRecvMessageHandler+0x9>
  9044c5:	63fffc        	j	9044c5 <WMIRecvMessageHandler+0x5>
  9044c8:	00da40        	extui	a10, a0, 13, 1
    return (__adf_nbuf_len(buf));
  9044cb:	5bfc66        	call8	903664 <__adf_nbuf_len>
  9044ce:	d3a0      	mov.n	a3, a10
		if (length < sizeof(WMI_CMD_HDR)) {
  9044d0:	6ea459        	bltui	a10, 4, 90452d <WMIRecvMessageHandler+0x6d>
    __adf_nbuf_peek_header(buf, addr, len);
  9044d3:	dc10      	mov.n	a12, a1
  9044d5:	b41b      	addi.n	a11, a1, 4
  9044d7:	da40      	mov.n	a10, a4
  9044d9:	5bfc6a        	call8	903684 <__adf_nbuf_peek_header>
		cmdHdr = (WMI_CMD_HDR *)anbdata;
  9044dc:	8d11      	l32i.n	a13, a1, 4
		length = length - sizeof(WMI_CMD_HDR);
  9044de:	2e3cfc        	addi	a14, a3, -4
		cmd = adf_os_ntohs(cmdHdr->commandId);
  9044e1:	2bd000        	l8ui	a11, a13, 0
  9044e4:	23d001        	l8ui	a3, a13, 1
		seq = adf_os_ntohs(cmdHdr->seqNo);
  9044e7:	2cd002        	l8ui	a12, a13, 2
		cmd = adf_os_ntohs(cmdHdr->commandId);
  9044ea:	08bb11        	slli	a11, a11, 8
  9044ed:	0b3b02        	or	a11, a3, a11
		seq = adf_os_ntohs(cmdHdr->seqNo);
  9044f0:	23d003        	l8ui	a3, a13, 3
  9044f3:	08cc11        	slli	a12, a12, 8
		pCurrentTable = pWMI->pDispatchHead;
  9044f6:	895b      	l32i.n	a9, a5, 44
		seq = adf_os_ntohs(cmdHdr->seqNo);
  9044f8:	0c3c02        	or	a12, a3, a12
		pCmdBuffer = anbdata + sizeof(WMI_CMD_HDR);
  9044fb:	b4dd      	addi.n	a13, a13, 4
		while (pCurrentTable != NULL) {
  9044fd:	600029        	j	90452a <WMIRecvMessageHandler+0x6a>
			pCurrentEntry = pCurrentTable->pTable;
  904500:	8893      	l32i.n	a8, a9, 12
			for (i = 0; i < pCurrentTable->NumberOfEntries; i++, pCurrentEntry++) {
  904502:	8392      	l32i.n	a3, a9, 8
  904504:	c0a0      	movi.n	a10, 0
  904506:	600016        	j	904520 <WMIRecvMessageHandler+0x60>
				if (pCurrentEntry->CmdID == cmd) {
  904509:	2f8102        	l16ui	a15, a8, 4
  90450c:	7bf90c        	bne	a15, a11, 90451c <WMIRecvMessageHandler+0x5c>
					pCmdHandler = pCurrentEntry->pCmdHandler;
  90450f:	8f80      	l32i.n	a15, a8, 0
					if ((pCurrentEntry->CheckLength != 0) &&
  904511:	288103        	l16ui	a8, a8, 6
  904514:	c88e      	beqz.n	a8, 904526 <WMIRecvMessageHandler+0x66>
  904516:	78e20e        	blt	a14, a8, 904528 <WMIRecvMessageHandler+0x68>
  904519:	600009        	j	904526 <WMIRecvMessageHandler+0x66>
			for (i = 0; i < pCurrentTable->NumberOfEntries; i++, pCurrentEntry++) {
  90451c:	b1aa      	addi.n	a10, a10, 1
  90451e:	b888      	addi.n	a8, a8, 8
  904520:	73a2e5        	blt	a10, a3, 904509 <WMIRecvMessageHandler+0x49>
  904523:	600001        	j	904528 <WMIRecvMessageHandler+0x68>
			if (pCmdHandler != NULL) {
  904526:	cdf4      	bnez.n	a15, 90453e <WMIRecvMessageHandler+0x7e>
			pCurrentTable = pCurrentTable->pNext;
  904528:	8990      	l32i.n	a9, a9, 0
		while (pCurrentTable != NULL) {
  90452a:	659fd2        	bnez	a9, 904500 <WMIRecvMessageHandler+0x40>
	HTC_ReturnBuffers(pWMI->HtcHandle, EndPt, pHTCBuf);
  90452d:	13716e        	l32r	a3, 8e0ae8 <_bss_end+0x3d32e0>
  904530:	8a50      	l32i.n	a10, a5, 0
  904532:	233287        	l32i	a3, a3, 0x21c
  904535:	dc40      	mov.n	a12, a4
  904537:	db20      	mov.n	a11, a2
  904539:	0b3000        	callx8	a3
}
  90453c:	d10f      	retw.n
		pCmdHandler(pContext, cmd, seq, pCmdBuffer, length);
  90453e:	8a91      	l32i.n	a10, a9, 4
  904540:	0bf000        	callx8	a15
  904543:	63ffe6        	j	90452d <WMIRecvMessageHandler+0x6d>
	...

00904548 <_WMI_SendCompleteHandler>:
{
  904548:	6c1004        	entry	a1, 32
    return (__adf_nbuf_get_priv(buf));
  90454b:	da30      	mov.n	a10, a3
  90454d:	5bfbc3        	call8	90345c <__adf_nbuf_get_priv>
	if ( ctx->EventClass == WMI_EVT_CLASS_CMD_EVENT ) {
  904550:	8ba1      	l32i.n	a11, a10, 4
		poolId = POOL_ID_WMI_SVC_CMD_REPLY;
  904552:	c091      	movi.n	a9, 1
  904554:	c080      	movi.n	a8, 0
  904556:	0b9838        	moveqz	a8, a9, a11
  904559:	db80      	mov.n	a11, a8
	BUF_Pool_free_buf(pWMI->PoolHandle, poolId, pHTCBuf);
  90455b:	18716e        	l32r	a8, 8e0b14 <_bss_end+0x3d330c>
  90455e:	8a41      	l32i.n	a10, a4, 4
  904560:	2882a3        	l32i	a8, a8, 0x28c
  904563:	dc30      	mov.n	a12, a3
  904565:	a9bb      	add.n	a11, a11, a9
  904567:	0b8000        	callx8	a8
  90456a:	d10f      	retw.n

0090456c <_WMI_AllocEvent>:
{
  90456c:	6c1004        	entry	a1, 32
	buf = BUF_Pool_alloc_buf(pWMI->PoolHandle,
  90456f:	18716e        	l32r	a8, 8e0b28 <_bss_end+0x3d3320>
		poolId = POOL_ID_WMI_SVC_CMD_REPLY;
  904572:	c0b0      	movi.n	a11, 0
	buf = BUF_Pool_alloc_buf(pWMI->PoolHandle,
  904574:	2582a1        	l32i	a5, a8, 0x284
  904577:	8a20      	l32i.n	a10, a2, 0
  904579:	28828a        	l32i	a8, a8, 0x228
		poolId = POOL_ID_WMI_SVC_CMD_REPLY;
  90457c:	c041      	movi.n	a4, 1
  90457e:	03b439        	movnez	a4, a11, a3
	buf = BUF_Pool_alloc_buf(pWMI->PoolHandle,
  904581:	8621      	l32i.n	a6, a2, 4
		poolId = POOL_ID_WMI_SVC_CMD_REPLY;
  904583:	b144      	addi.n	a4, a4, 1
	buf = BUF_Pool_alloc_buf(pWMI->PoolHandle,
  904585:	0b8000        	callx8	a8
  904588:	b4ac      	addi.n	a12, a10, 4
  90458a:	db40      	mov.n	a11, a4
  90458c:	da60      	mov.n	a10, a6
  90458e:	0b5000        	callx8	a5
  904591:	d2a0      	mov.n	a2, a10
	if ( buf != NULL ) {
  904593:	c8a3      	beqz.n	a10, 90459a <_WMI_AllocEvent+0x2e>
  904595:	5bfbb1        	call8	90345c <__adf_nbuf_get_priv>
		ctx->EventClass = EventClass;
  904598:	93a1      	s32i.n	a3, a10, 4
}
  90459a:	d10f      	retw.n

0090459c <_WMI_SendEvent>:
{
  90459c:	6c1004        	entry	a1, 32
    return __adf_nbuf_push_head(buf, size);
  90459f:	2b0a04        	movi	a11, 4
  9045a2:	033a02        	or	a10, a3, a3
  9045a5:	5bfb87        	call8	9033c4 <__adf_nbuf_push_head>
  9045a8:	04044f        	extui	a4, a4, 0, 16
  9045ab:	05054f        	extui	a5, a5, 0, 16
	A_SET_UINT16_FIELD(pBuffer, WMI_CMD_HDR, commandId, adf_os_htons(EventId));
  9045ae:	24a401        	s8i	a4, a10, 1
  9045b1:	048814        	srli	a8, a4, 8
	A_SET_UINT16_FIELD(pBuffer, WMI_CMD_HDR, seqNo, adf_os_htons(SeqNo));
  9045b4:	058414        	srli	a4, a5, 8
  9045b7:	24a402        	s8i	a4, a10, 2
	HTC_SendMsg(pWMI->HtcHandle, pWMI->ControlEp, pEvt);
  9045ba:	14716e        	l32r	a4, 8e0b74 <_bss_end+0x3d336c>
	A_SET_UINT16_FIELD(pBuffer, WMI_CMD_HDR, commandId, adf_os_htons(EventId));
  9045bd:	28a400        	s8i	a8, a10, 0
	A_SET_UINT16_FIELD(pBuffer, WMI_CMD_HDR, seqNo, adf_os_htons(SeqNo));
  9045c0:	25a403        	s8i	a5, a10, 3
	HTC_SendMsg(pWMI->HtcHandle, pWMI->ControlEp, pEvt);
  9045c3:	244289        	l32i	a4, a4, 0x224
  9045c6:	8b2a      	l32i.n	a11, a2, 40
  9045c8:	8a20      	l32i.n	a10, a2, 0
  9045ca:	033c02        	or	a12, a3, a3
  9045cd:	0b4000        	callx8	a4
  9045d0:	d10f      	retw.n
	...

009045d4 <_WMI_Init>:
{
  9045d4:	6c1004        	entry	a1, 32
    return A_ALLOCRAM(size);
  9045d7:	13716e        	l32r	a3, 8e0b90 <_bss_end+0x3d3388>
  9045da:	d420      	mov.n	a4, a2
  9045dc:	223252        	l32i	a2, a3, 0x148
  9045df:	c3b8      	movi.n	a11, 56
  9045e1:	c0a0      	movi.n	a10, 0
  9045e3:	0b2000        	callx8	a2
  9045e6:	d2a0      	mov.n	a2, a10
	if (pWMI == NULL) {
  9045e8:	64a055        	beqz	a10, 904641 <_WMI_Init+0x6d>
	pWMI->pDispatchHead = NULL;
  9045eb:	c080      	movi.n	a8, 0
  9045ed:	98ab      	s32i.n	a8, a10, 44
	pWMI->HtcHandle = pWmiConfig->HtcHandle;
  9045ef:	8840      	l32i.n	a8, a4, 0
	pWMI->PoolHandle = pWmiConfig->PoolHandle;
  9045f1:	8a41      	l32i.n	a10, a4, 4
	BUF_Pool_create_pool(pWmiConfig->PoolHandle, POOL_ID_WMI_SVC_CMD_REPLY,
  9045f3:	8c42      	l32i.n	a12, a4, 8
	pWMI->HtcHandle = pWmiConfig->HtcHandle;
  9045f5:	9820      	s32i.n	a8, a2, 0
	BUF_Pool_create_pool(pWmiConfig->PoolHandle, POOL_ID_WMI_SVC_CMD_REPLY,
  9045f7:	2832a0        	l32i	a8, a3, 0x280
	pWMI->PoolHandle = pWmiConfig->PoolHandle;
  9045fa:	9a21      	s32i.n	a10, a2, 4
	BUF_Pool_create_pool(pWmiConfig->PoolHandle, POOL_ID_WMI_SVC_CMD_REPLY,
  9045fc:	2d0a70        	movi	a13, 112
  9045ff:	2b0a01        	movi	a11, 1
  904602:	0b8000        	callx8	a8
	BUF_Pool_create_pool(pWmiConfig->PoolHandle, POOL_ID_WMI_SVC_EVENT,
  904605:	2832a0        	l32i	a8, a3, 0x280
  904608:	8a41      	l32i.n	a10, a4, 4
  90460a:	8c43      	l32i.n	a12, a4, 12
  90460c:	c0b2      	movi.n	a11, 2
  90460e:	2d0a70        	movi	a13, 112
  904611:	0b8000        	callx8	a8
	pWMI->WMIControlService.ProcessRecvMsg = A_INDIR(wmi_svc_api._WMI_RecvMessageHandler);
  904614:	283298        	l32i	a8, a3, 0x260
	HTC_RegisterService(pWmiConfig->HtcHandle, &pWMI->WMIControlService);
  904617:	8a40      	l32i.n	a10, a4, 0
	pWMI->WMIControlService.ProcessRecvMsg = A_INDIR(wmi_svc_api._WMI_RecvMessageHandler);
  904619:	9824      	s32i.n	a8, a2, 16
	pWMI->WMIControlService.ProcessSendBufferComplete = A_INDIR(wmi_svc_api._WMI_SendCompleteHandler);
  90461b:	283295        	l32i	a8, a3, 0x254
	HTC_RegisterService(pWmiConfig->HtcHandle, &pWMI->WMIControlService);
  90461e:	bc2b      	addi.n	a11, a2, 12
	pWMI->WMIControlService.ProcessSendBufferComplete = A_INDIR(wmi_svc_api._WMI_SendCompleteHandler);
  904620:	9825      	s32i.n	a8, a2, 20
	pWMI->WMIControlService.ProcessConnect = A_INDIR(wmi_svc_api._WMI_ServiceConnect);
  904622:	283299        	l32i	a8, a3, 0x264
	HTC_RegisterService(pWmiConfig->HtcHandle, &pWMI->WMIControlService);
  904625:	233285        	l32i	a3, a3, 0x214
	pWMI->WMIControlService.ProcessConnect = A_INDIR(wmi_svc_api._WMI_ServiceConnect);
  904628:	9826      	s32i.n	a8, a2, 24
	pWMI->WMIControlService.MaxSvcMsgSize = WMI_SVC_MSG_SIZE + sizeof(WMI_CMD_HDR);
  90462a:	286a04        	movi	a8, 0x604
  90462d:	282510        	s16i	a8, a2, 32
	pWMI->WMIControlService.TrailerSpcCheckLimit = WMI_SVC_MAX_BUFFERED_EVENT_SIZE;
  904630:	280a64        	movi	a8, 100
  904633:	282511        	s16i	a8, a2, 34
	pWMI->WMIControlService.ServiceID = WMI_CONTROL_SVC;
  904636:	281a00        	movi	a8, 0x100
  904639:	28250e        	s16i	a8, a2, 28
	pWMI->WMIControlService.ServiceCtx = pWMI;
  90463c:	9229      	s32i.n	a2, a2, 36
	HTC_RegisterService(pWmiConfig->HtcHandle, &pWMI->WMIControlService);
  90463e:	0b3000        	callx8	a3
}
  904641:	d10f      	retw.n
	...

00904644 <WMI_service_module_install>:

	adf_os_mem_free(pWMI);
}

void WMI_service_module_install(WMI_SVC_APIS *pTbl)
{
  904644:	6c1004        	entry	a1, 32
	pTbl->_WMI_Init                     = _WMI_Init;
  904647:	1871e5        	l32r	a8, 8e0ddc <_bss_end+0x3d35d4>
  90464a:	9820      	s32i.n	a8, a2, 0
	pTbl->_WMI_RegisterDispatchTable    = _WMI_RegisterDispatchTable;
  90464c:	1871e6        	l32r	a8, 8e0de4 <_bss_end+0x3d35dc>
  90464f:	9821      	s32i.n	a8, a2, 4
	pTbl->_WMI_AllocEvent               = _WMI_AllocEvent;
  904651:	1871e7        	l32r	a8, 8e0df0 <_bss_end+0x3d35e8>
  904654:	9822      	s32i.n	a8, a2, 8
	pTbl->_WMI_SendEvent                = _WMI_SendEvent;
  904656:	1871e8        	l32r	a8, 8e0df8 <_bss_end+0x3d35f0>
  904659:	9823      	s32i.n	a8, a2, 12
	pTbl->_WMI_SendCompleteHandler      = _WMI_SendCompleteHandler;
  90465b:	1871e9        	l32r	a8, 8e0e00 <_bss_end+0x3d35f8>
  90465e:	9825      	s32i.n	a8, a2, 20
	pTbl->_WMI_GetPendingEventsCount    = _WMI_GetPendingEventsCount;
  904660:	1871ea        	l32r	a8, 8e0e08 <_bss_end+0x3d3600>
  904663:	9824      	s32i.n	a8, a2, 16
	pTbl->_WMI_GetControlEp             = _WMI_GetControlEp;
  904665:	1871eb        	l32r	a8, 8e0e14 <_bss_end+0x3d360c>
  904668:	9826      	s32i.n	a8, a2, 24
	pTbl->_WMI_Shutdown                 = _WMI_Shutdown;
  90466a:	1871ec        	l32r	a8, 8e0e1c <_bss_end+0x3d3614>
  90466d:	9827      	s32i.n	a8, a2, 28
	pTbl->_WMI_RecvMessageHandler       = WMIRecvMessageHandler;
  90466f:	1871ed        	l32r	a8, 8e0e24 <_bss_end+0x3d361c>
  904672:	9828      	s32i.n	a8, a2, 32
	pTbl->_WMI_ServiceConnect           = WMIServiceConnect;
  904674:	1871ee        	l32r	a8, 8e0e2c <_bss_end+0x3d3624>
  904677:	9829      	s32i.n	a8, a2, 36
  904679:	d10f      	retw.n
	...

0090467c <_HIFusb_get_max_msg_len_patch>:

/*
 * -- support more than 64 bytes command on ep4 --
 */
int _HIFusb_get_max_msg_len_patch(hif_handle_t handle, int pipe)
{
  90467c:	6c1004        	entry	a1, 32
    switch(pipe) {
  90467f:	233cfd        	addi	a3, a3, -3
        case HIF_USB_PIPE_INTERRUPT:
        case HIF_USB_PIPE_COMMAND:
            return 512;

        default:
            return 1600;
  904682:	226a40        	movi	a2, 0x640
    switch(pipe) {
  904685:	6f3202        	bgeui	a3, 2, 90468b <_HIFusb_get_max_msg_len_patch+0xf>
            return 512;
  904688:	222a00        	movi	a2, 0x200
    }
}
  90468b:	d10f      	retw.n
  90468d:	000000        	ill

00904690 <_HIFusb_isr_handler_patch>:

/*
 * -- move the usb_task to here --
 */
void _HIFusb_isr_handler_patch(hif_handle_t h)
{
  904690:	6c1004        	entry	a1, 32
    A_USB_FW_TASK();
  904693:	18716e        	l32r	a8, 8e0c4c <_bss_end+0x3d3444>
  904696:	28821d        	l32i	a8, a8, 116
  904699:	0b8000        	callx8	a8

    _HIFusb_isr_handler(h);
  90469c:	da20      	mov.n	a10, a2
  90469e:	5b792e        	call8	8e2b58 <_HIFusb_isr_handler>
  9046a1:	d10f      	retw.n
	...

009046a4 <io8_rmw>:
}

static inline void io8_rmw(volatile uint32_t addr,
			    const uint8_t set, const uint8_t clr)
{
  9046a4:	6c1006        	entry	a1, 48
  9046a7:	0c0200        	memw
  9046aa:	9210      	s32i.n	a2, a1, 0
	uint8_t val;

	val = ioread8(addr);
  9046ac:	0c0200        	memw
  9046af:	8810      	l32i.n	a8, a1, 0
	return *(const volatile uint8_t *) addr;
  9046b1:	298000        	l8ui	a9, a8, 0
	val &= ~clr;
  9046b4:	c78f      	movi.n	a8, -1
  9046b6:	048403        	xor	a4, a8, a4
	return *(const volatile uint8_t *) addr;
  9046b9:	090947        	extui	a9, a9, 0, 8
	val &= ~clr;
  9046bc:	094401        	and	a4, a4, a9
	val |= set;
	iowrite8(addr, val);
  9046bf:	0c0200        	memw
  9046c2:	8810      	l32i.n	a8, a1, 0
	val |= set;
  9046c4:	034402        	or	a4, a4, a3
	*(volatile uint8_t *) addr = b;
  9046c7:	0c0200        	memw
  9046ca:	248400        	s8i	a4, a8, 0
  9046cd:	d10f      	retw.n
	...

009046d0 <io32_rmw$constprop$0>:
}

static inline void io32_rmw(volatile uint32_t addr,
  9046d0:	6c1006        	entry	a1, 48
  9046d3:	0c0200        	memw
  9046d6:	9210      	s32i.n	a2, a1, 0
			    const uint32_t set, const uint32_t clr)
{
	uint32_t val;

	val = ioread32(addr);
  9046d8:	0c0200        	memw
  9046db:	8810      	l32i.n	a8, a1, 0
	return *(const volatile uint32_t *) addr;
  9046dd:	0c0200        	memw
  9046e0:	8880      	l32i.n	a8, a8, 0
	val &= ~clr;
	val |= set;
  9046e2:	038302        	or	a3, a8, a3
	iowrite32(addr, val);
  9046e5:	0c0200        	memw
  9046e8:	8810      	l32i.n	a8, a1, 0
	*(volatile uint32_t *) addr = b;
  9046ea:	0c0200        	memw
  9046ed:	9380      	s32i.n	a3, a8, 0
  9046ef:	d10f      	retw.n
  9046f1:	000000        	ill

009046f4 <_fw_usb_suspend_reboot>:
#if SYSTEM_MODULE_USB

#define CHECK_SOF_LOOP_CNT    50

void _fw_usb_suspend_reboot()
{
  9046f4:	6c1008        	entry	a1, 64
	volatile uint32_t gpio_in = 0;
  9046f7:	c020      	movi.n	a2, 0
  9046f9:	0c0200        	memw
  9046fc:	9214      	s32i.n	a2, a1, 16
	volatile uint32_t pupd = 0;
  9046fe:	0c0200        	memw
  904701:	9213      	s32i.n	a2, a1, 12
	volatile uint32_t t = 0;
  904703:	0c0200        	memw
  904706:	9212      	s32i.n	a2, a1, 8
	volatile uint32_t sof_no=0,sof_no_new=0;
	/* Set GO_TO_SUSPEND bit to USB main control register */
	io8_clr_usb(ZM_INTR_SOURCE_7_OFFSET, BIT2);
  904708:	1a71ef        	l32r	a10, 8e0ec4 <_bss_end+0x3d36bc>
  90470b:	c0c4      	movi.n	a12, 4
  90470d:	db20      	mov.n	a11, a2
	volatile uint32_t sof_no=0,sof_no_new=0;
  90470f:	0c0200        	memw
  904712:	9211      	s32i.n	a2, a1, 4
  904714:	0c0200        	memw
  904717:	9210      	s32i.n	a2, a1, 0
	io8_clr_usb(ZM_INTR_SOURCE_7_OFFSET, BIT2);
  904719:	5bffe2        	call8	9046a4 <io8_rmw>
	A_PRINTF("!USB suspend\n\r");
  90471c:	13716e        	l32r	a3, 8e0cd4 <_bss_end+0x3d34cc>
  90471f:	1a71f0        	l32r	a10, 8e0ee0 <_bss_end+0x3d36d8>
  904722:	243212        	l32i	a4, a3, 72
  904725:	0b4000        	callx8	a4
  904728:	18717b        	l32r	a8, 8e0d14 <_bss_end+0x3d350c>
  90472b:	147172        	l32r	a4, 8e0cf4 <_bss_end+0x3d34ec>
  90472e:	0c0200        	memw
  904731:	9840      	s32i.n	a8, a4, 0
#elif defined(PROJECT_K2)
	iowrite32(MAGPIE_REG_RST_STATUS_ADDR, SUS_MAGIC_PATTERN);
#endif /* #if defined(PROJECT_MAGPIE) */

	/* Reset USB FIFO */
	A_USB_RESET_FIFO();
  904733:	243229        	l32i	a4, a3, 164
  904736:	0b4000        	callx8	a4

	/* Turn off power */
	A_USB_POWER_OFF();
  904739:	243228        	l32i	a4, a3, 160
  90473c:	0b4000        	callx8	a4

	DEBUG_SYSTEM_STATE = (DEBUG_SYSTEM_STATE&(~0xffff)) | 0x1000;
  90473f:	14716b        	l32r	a4, 8e0cec <_bss_end+0x3d34e4>
  904742:	1971f1        	l32r	a9, 8e0f08 <_bss_end+0x3d3700>
  904745:	0c0200        	memw
  904748:	8840      	l32i.n	a8, a4, 0
  90474a:	098801        	and	a8, a8, a9
  90474d:	1971f2        	l32r	a9, 8e0f18 <_bss_end+0x3d3710>
  904750:	098802        	or	a8, a8, a9
  904753:	0c0200        	memw
  904756:	9840      	s32i.n	a8, a4, 0
	return *(const volatile uint32_t *) addr;
  904758:	1471f3        	l32r	a4, 8e0f24 <_bss_end+0x3d371c>
  90475b:	0c0200        	memw
  90475e:	8840      	l32i.n	a8, a4, 0
	/* disable SPI */
	spi = ioread32(0x50040);
	iowrite32(0x50040, spi & ~BIT8);
#endif
	/* set all GPIO to input */
	gpio_in = ioread32(0x1000404c);
  904760:	0c0200        	memw
  904763:	9814      	s32i.n	a8, a1, 16
	*(volatile uint32_t *) addr = b;
  904765:	0c0200        	memw
  904768:	9240      	s32i.n	a2, a4, 0
	return *(const volatile uint32_t *) addr;
  90476a:	1471f4        	l32r	a4, 8e0f3c <_bss_end+0x3d3734>
  90476d:	0c0200        	memw
  904770:	8840      	l32i.n	a8, a4, 0
	iowrite32(0x1000404c, 0x0);

	/* set PU/PD for all GPIO except two UART pins */
	pupd = ioread32(0x10004088);
  904772:	0c0200        	memw
  904775:	9813      	s32i.n	a8, a1, 12
	*(volatile uint32_t *) addr = b;
  904777:	1871f5        	l32r	a8, 8e0f4c <_bss_end+0x3d3744>
  90477a:	0c0200        	memw
  90477d:	9840      	s32i.n	a8, a4, 0
	return *(const volatile uint32_t *) addr;
  90477f:	1471f6        	l32r	a4, 8e0f58 <_bss_end+0x3d3750>
  904782:	0c0200        	memw
  904785:	8440      	l32i.n	a4, a4, 0
	iowrite32(0x10004088, 0xA982AA6A);

	sof_no = ioread32(0x10004);
  904787:	0c0200        	memw
  90478a:	9411      	s32i.n	a4, a1, 4
	for (t = 0; t < CHECK_SOF_LOOP_CNT; t++)
  90478c:	0c0200        	memw
  90478f:	9212      	s32i.n	a2, a1, 8
  904791:	c341      	movi.n	a4, 49
  904793:	60004f        	j	9047e6 <_fw_usb_suspend_reboot+0xf2>
  904796:	000022        	excw
	{
		A_DELAY_USECS(1000);    /* delay 1ms */
  904799:	323a2a        	excw
  90479c:	3ae80b        	excw
  90479f:	200012        	l8ui	a0, a0, 18
  9047a2:	71f60c        	bbci	a15, 1, 9047b2 <_fw_usb_suspend_reboot+0xbe>
  9047a5:	020082        	excw
  9047a8:	200c02        	addi	a0, a0, 2
		sof_no_new = ioread32(0x10004);
  9047ab:	009210        	slli	a2, a9, 32

		if(sof_no_new == sof_no)
  9047ae:	0c0200        	memw
  9047b1:	8810      	l32i.n	a8, a1, 0
  9047b3:	0c0200        	memw
  9047b6:	8211      	l32i.n	a2, a1, 4
  9047b8:	728914        	bne	a8, a2, 9047d0 <_fw_usb_suspend_reboot+0xdc>
	 * Reset "printf" module patch point(RAM to ROM)
	 * when K2 warm start or suspend,
	 * which fixed the error issue cause by redownload
	 * another different firmware.
	 */
	_indir_tbl.cmnos.printf._printf = save_cmnos_printf;
  9047bb:	127174        	l32r	a2, 8e0d8c <_bss_end+0x3d3584>

	/* !!!!!!!!!!!!!!!!!!!!!!!!!!!!!!!!!!!!!!!!!!!!!!!!!!!!!
	 * setting the go suspend here, power down right away!!!
	 */
	if (t != CHECK_SOF_LOOP_CNT)   /* not time out */
  9047be:	0c0200        	memw
  9047c1:	8412      	l32i.n	a4, a1, 8
	_indir_tbl.cmnos.printf._printf = save_cmnos_printf;
  9047c3:	8220      	l32i.n	a2, a2, 0
  9047c5:	223612        	s32i	a2, a3, 72
	if (t != CHECK_SOF_LOOP_CNT)   /* not time out */
  9047c8:	c322      	movi.n	a2, 50
  9047ca:	724923        	bne	a4, a2, 9047f1 <_fw_usb_suspend_reboot+0xfd>
  9047cd:	600028        	j	9047f9 <_fw_usb_suspend_reboot+0x105>
		sof_no = sof_no_new;
  9047d0:	0c0200        	memw
  9047d3:	8210      	l32i.n	a2, a1, 0
  9047d5:	0c0200        	memw
  9047d8:	9211      	s32i.n	a2, a1, 4
	for (t = 0; t < CHECK_SOF_LOOP_CNT; t++)
  9047da:	0c0200        	memw
  9047dd:	8212      	l32i.n	a2, a1, 8
  9047df:	b122      	addi.n	a2, a2, 1
  9047e1:	0c0200        	memw
  9047e4:	9212      	s32i.n	a2, a1, 8
  9047e6:	0c0200        	memw
  9047e9:	8212      	l32i.n	a2, a1, 8
  9047eb:	724ba9        	bgeu	a4, a2, 904798 <_fw_usb_suspend_reboot+0xa4>
  9047ee:	63ffc9        	j	9047bb <_fw_usb_suspend_reboot+0xc7>
		io32_set(0x10000, BIT3);
  9047f1:	1a71f7        	l32r	a10, 8e0fd0 <_bss_end+0x3d37c8>
  9047f4:	c0b8      	movi.n	a11, 8
  9047f6:	5bffb6        	call8	9046d0 <io32_rmw$constprop$0>

	DEBUG_SYSTEM_STATE = (DEBUG_SYSTEM_STATE&(~0xffff)) | 0x1100;
  9047f9:	12716b        	l32r	a2, 8e0da8 <_bss_end+0x3d35a0>
  9047fc:	1471f1        	l32r	a4, 8e0fc0 <_bss_end+0x3d37b8>
  9047ff:	0c0200        	memw
  904802:	8920      	l32i.n	a9, a2, 0
  904804:	1871f8        	l32r	a8, 8e0fe4 <_bss_end+0x3d37dc>
  904807:	049901        	and	a9, a9, a4
  90480a:	089902        	or	a9, a9, a8
  90480d:	0c0200        	memw
  904810:	9920      	s32i.n	a9, a2, 0

	/* restore gpio setting */
	iowrite32(0x10004054, jtag);
	iowrite32(0x50040, spi);
#endif
	iowrite32(0x1000404c, gpio_in);
  904812:	0c0200        	memw
  904815:	8914      	l32i.n	a9, a1, 16
  904817:	1871f3        	l32r	a8, 8e0fe4 <_bss_end+0x3d37dc>
	/* since we still need to touch mac_base address after resuming back,
	 * so that reset mac can't be done in ResetFifo function,
	 * move to here... whole mac control reset.... (bit1)
	 */
	iowrite32(MAGPIE_REG_RST_PWDN_CTRL_ADDR, BIT1);
	io32_set(MAGPIE_REG_RST_PWDN_CTRL_ADDR, BIT0);
  90481a:	c0b1      	movi.n	a11, 1
	*(volatile uint32_t *) addr = b;
  90481c:	0c0200        	memw
  90481f:	9980      	s32i.n	a9, a8, 0
	iowrite32(0x10004088, pupd);
  904821:	0c0200        	memw
  904824:	8913      	l32i.n	a9, a1, 12
  904826:	1871f4        	l32r	a8, 8e0ff8 <_bss_end+0x3d37f0>
  904829:	0c0200        	memw
  90482c:	9980      	s32i.n	a9, a8, 0
	DEBUG_SYSTEM_STATE = (DEBUG_SYSTEM_STATE&(~0xffff)) | 0x1200;
  90482e:	0c0200        	memw
  904831:	8820      	l32i.n	a8, a2, 0
  904833:	048801        	and	a8, a8, a4
  904836:	1471f9        	l32r	a4, 8e101c <_bss_end+0x3d3814>
  904839:	048802        	or	a8, a8, a4
  90483c:	1471fa        	l32r	a4, 8e1024 <_bss_end+0x3d381c>
  90483f:	0c0200        	memw
  904842:	9820      	s32i.n	a8, a2, 0
  904844:	c082      	movi.n	a8, 2
  904846:	0c0200        	memw
  904849:	9840      	s32i.n	a8, a4, 0
	io32_set(MAGPIE_REG_RST_PWDN_CTRL_ADDR, BIT0);
  90484b:	da40      	mov.n	a10, a4
  90484d:	5bffa0        	call8	9046d0 <io32_rmw$constprop$0>
  904850:	c080      	movi.n	a8, 0
  904852:	0c0200        	memw
  904855:	9840      	s32i.n	a8, a4, 0
	iowrite32(MAGPIE_REG_RST_PWDN_CTRL_ADDR, 0);
	A_DELAY_USECS(1000);
  904857:	24323a        	l32i	a4, a3, 232
  90485a:	2a3ae8        	movi	a10, 0x3e8
  90485d:	0b4000        	callx8	a4
	return *(const volatile uint8_t *) addr;
  904860:	1471b6        	l32r	a4, 8e0f38 <_bss_end+0x3d3730>

	/* disable ep3 int enable, so that resume back won't
	 * send wdt magic pattern out!!! */
	mUSB_STATUS_IN_INT_DISABLE();
  904863:	290ac0        	movi	a9, 192
  904866:	284000        	l8ui	a8, a4, 0
  904869:	080847        	extui	a8, a8, 0, 8
  90486c:	098802        	or	a8, a8, a9
	*(volatile uint8_t *) addr = b;
  90486f:	0c0200        	memw
  904872:	284400        	s8i	a8, a4, 0

	MAGPIE_REG_USB_RX0_SWAP_DATA = 0x1;
  904875:	1471c5        	l32r	a4, 8e0f8c <_bss_end+0x3d3784>
  904878:	c081      	movi.n	a8, 1
  90487a:	0c0200        	memw
  90487d:	9840      	s32i.n	a8, a4, 0
	MAGPIE_REG_USB_TX0_SWAP_DATA = 0x1;
  90487f:	1471c6        	l32r	a4, 8e0f98 <_bss_end+0x3d3790>
  904882:	0c0200        	memw
  904885:	9840      	s32i.n	a8, a4, 0
	MAGPIE_REG_USB_RX1_SWAP_DATA = 0x1;
  904887:	1471c7        	l32r	a4, 8e0fa4 <_bss_end+0x3d379c>
  90488a:	0c0200        	memw
  90488d:	9840      	s32i.n	a8, a4, 0
	MAGPIE_REG_USB_RX2_SWAP_DATA = 0x1;
  90488f:	1471c8        	l32r	a4, 8e0fb0 <_bss_end+0x3d37a8>
  904892:	0c0200        	memw
  904895:	9840      	s32i.n	a8, a4, 0

	if (((DEBUG_SYSTEM_STATE&~(0x0000ffff))>>16 == 0x5342)) {
  904897:	0c0200        	memw
  90489a:	8220      	l32i.n	a2, a2, 0
  90489c:	14716c        	l32r	a4, 8e0e4c <_bss_end+0x3d3644>
  90489f:	02025f        	extui	a2, a2, 16, 16
  9048a2:	74290a        	bne	a2, a4, 9048b0 <_fw_usb_suspend_reboot+0x1bc>
	*(volatile uint32_t *) addr = b;
  9048a5:	1271fb        	l32r	a2, 8e1094 <_bss_end+0x3d388c>
  9048a8:	243a00        	movi	a4, 0x300
  9048ab:	0c0200        	memw
  9048ae:	9420      	s32i.n	a4, a2, 0
		/* UART_SEL and SPI_SEL */
		iowrite32(0x50040, 0x300 | 0 | (1 >> 1) << 12);
	}

	/* Jump to boot code */
	A_USB_JUMP_BOOT();
  9048b0:	22322b        	l32i	a2, a3, 172
  9048b3:	0b2000        	callx8	a2
  9048b6:	d10f      	retw.n

009048b8 <_fw_usb_fw_task>:
 * usb zero length interrupt should not clear by s/w, h/w will handle that
 * complete suspend handle, configure gpio, turn off related function,
 * slow down the pll for stable issue
 */
void _fw_usb_fw_task(void)
{
  9048b8:	6c1004        	entry	a1, 32
	return *(const volatile uint8_t *) addr;
  9048bb:	1271fc        	l32r	a2, 8e10ac <_bss_end+0x3d38a4>
  9048be:	222000        	l8ui	a2, a2, 0
  9048c1:	020247        	extui	a2, a2, 0, 8
	if (usb_interrupt_level1 & BIT5)
	{
		vUsb_Data_In();
	}
#endif
	if (usb_interrupt_level1 & BIT4) {
  9048c4:	7b2711        	bbci	a2, 27, 9048d9 <_fw_usb_fw_task+0x21>
  9048c7:	1371fd        	l32r	a3, 8e10bc <_bss_end+0x3d38b4>
  9048ca:	233000        	l8ui	a3, a3, 0
		usb_interrupt_level2 =
			ioread8_usb(ZM_INTR_SOURCE_4_OFFSET);

		if(usb_interrupt_level2 & BIT6)
  9048cd:	793708        	bbci	a3, 25, 9048d9 <_fw_usb_fw_task+0x21>
			A_USB_REG_OUT(); /* vUsb_Reg_Out() */
  9048d0:	13716e        	l32r	a3, 8e0e88 <_bss_end+0x3d3680>
  9048d3:	233232        	l32i	a3, a3, 200
  9048d6:	0b3000        	callx8	a3
	}

	if (usb_interrupt_level1 & BIT6) {
  9048d9:	c480      	movi.n	a8, 64
  9048db:	782014        	bnone	a2, a8, 9048f3 <_fw_usb_fw_task+0x3b>
  9048de:	1371fe        	l32r	a3, 8e10d8 <_bss_end+0x3d38d0>
  9048e1:	233000        	l8ui	a3, a3, 0
  9048e4:	030347        	extui	a3, a3, 0, 8
		/* zfGenWatchDogEvent(); ?? */
		usb_interrupt_level2 =
			ioread8_usb(ZM_INTR_SOURCE_6_OFFSET);
		if(usb_interrupt_level2 & BIT6)
  9048e7:	783008        	bnone	a3, a8, 9048f3 <_fw_usb_fw_task+0x3b>
			A_USB_STATUS_IN(); /* vUsb_Status_In() */
  9048ea:	13716e        	l32r	a3, 8e0ea4 <_bss_end+0x3d369c>
  9048ed:	233233        	l32i	a3, a3, 204
  9048f0:	0b3000        	callx8	a3
	}

	if (usb_interrupt_level1 & BIT0) {
  9048f3:	7f2f02        	bbsi	a2, 31, 9048f9 <_fw_usb_fw_task+0x41>
  9048f6:	60008e        	j	904988 <_fw_usb_fw_task+0xd0>
  9048f9:	1a71ff        	l32r	a10, 8e10f8 <_bss_end+0x3d38f0>
  9048fc:	28a000        	l8ui	a8, a10, 0
			ioread8_usb(ZM_INTR_SOURCE_0_OFFSET);

		/* refer to FUSB200, p 48, offset:21H, bit7 description,
		 * should clear the command abort interrupt first!?
		 */
		if (usb_interrupt_level2 & BIT7) {
  9048ff:	080347        	extui	a3, a8, 0, 8
  904902:	788713        	bbci	a8, 24, 904919 <_fw_usb_fw_task+0x61>
			/* Handle command abort */
			io8_clr_usb(ZM_INTR_SOURCE_0_OFFSET, BIT7);
  904905:	2c0a80        	movi	a12, 128
  904908:	c0b0      	movi.n	a11, 0
  90490a:	5bff66        	call8	9046a4 <io8_rmw>
			A_PRINTF("![SOURCE_0] bit7 on\n\r");
  90490d:	18716e        	l32r	a8, 8e0ec8 <_bss_end+0x3d36c0>
  904910:	1a7200        	l32r	a10, 8e1110 <_bss_end+0x3d3908>
  904913:	288212        	l32i	a8, a8, 72
  904916:	0b8000        	callx8	a8
		}

		if (usb_interrupt_level2 & BIT1)
  904919:	7e3708        	bbci	a3, 30, 904925 <_fw_usb_fw_task+0x6d>
			A_USB_EP0_TX(); /* USB EP0 tx interrupt */
  90491c:	18716e        	l32r	a8, 8e0ed4 <_bss_end+0x3d36cc>
  90491f:	288220        	l32i	a8, a8, 128
  904922:	0b8000        	callx8	a8

		if (usb_interrupt_level2 & BIT2)
  904925:	7d3708        	bbci	a3, 29, 904931 <_fw_usb_fw_task+0x79>
			A_USB_EP0_RX(); /* USB EP0 rx interrupt */
  904928:	18716e        	l32r	a8, 8e0ee0 <_bss_end+0x3d36d8>
  90492b:	288221        	l32i	a8, a8, 132
  90492e:	0b8000        	callx8	a8

		if (usb_interrupt_level2 & BIT0) {
  904931:	7f3708        	bbci	a3, 31, 90493d <_fw_usb_fw_task+0x85>
			A_USB_EP0_SETUP();
  904934:	18716e        	l32r	a8, 8e0eec <_bss_end+0x3d36e4>
  904937:	28821f        	l32i	a8, a8, 124
  90493a:	0b8000        	callx8	a8
			/* vWriteUSBFakeData() */
		}

		if (usb_interrupt_level2 & BIT3) {
  90493d:	7c3713        	bbci	a3, 28, 904954 <_fw_usb_fw_task+0x9c>
			/* vUsb_ep0end */
			eUsbCxCommand = CMD_VOID;
  904940:	187201        	l32r	a8, 8e1144 <_bss_end+0x3d393c>
  904943:	c090      	movi.n	a9, 0
  904945:	298600        	s32i	a9, a8, 0
	*(volatile uint8_t *) addr = b;
  904948:	187202        	l32r	a8, 8e1150 <_bss_end+0x3d3948>
  90494b:	290a01        	movi	a9, 1
  90494e:	0c0200        	memw
  904951:	298400        	s8i	a9, a8, 0
			iowrite8_usb(ZM_CX_CONFIG_STATUS_OFFSET, 0x01);
		}

		/* EP0 fail */
	        if (usb_interrupt_level2 & BIT4)
  904954:	7b370a        	bbci	a3, 27, 904962 <_fw_usb_fw_task+0xaa>
  904957:	137202        	l32r	a3, 8e1160 <_bss_end+0x3d3958>
  90495a:	c084      	movi.n	a8, 4
  90495c:	0c0200        	memw
  90495f:	283400        	s8i	a8, a3, 0
			iowrite8_usb(ZM_CX_CONFIG_STATUS_OFFSET, 0x04);

		if (eUsbCxFinishAction == ACT_STALL) {
  904962:	1871c4        	l32r	a8, 8e1074 <_bss_end+0x3d386c>
  904965:	8380      	l32i.n	a3, a8, 0
  904967:	69320d        	bnei	a3, 2, 904978 <_fw_usb_fw_task+0xc0>
  90496a:	137202        	l32r	a3, 8e1174 <_bss_end+0x3d396c>
  90496d:	c094      	movi.n	a9, 4
  90496f:	0c0200        	memw
  904972:	293400        	s8i	a9, a3, 0
  904975:	60000b        	j	904984 <_fw_usb_fw_task+0xcc>
			/* set CX_STL to stall Endpoint0 &
			 * will also clear FIFO0 */
			iowrite8_usb(ZM_CX_CONFIG_STATUS_OFFSET, 0x04);
		} else if (eUsbCxFinishAction == ACT_DONE) {
  904978:	693108        	bnei	a3, 1, 904984 <_fw_usb_fw_task+0xcc>
  90497b:	197202        	l32r	a9, 8e1184 <_bss_end+0x3d397c>
  90497e:	0c0200        	memw
  904981:	239400        	s8i	a3, a9, 0
			/* set CX_DONE to indicate the transmistion
			 * of control frame */
			iowrite8_usb(ZM_CX_CONFIG_STATUS_OFFSET, 0x01);
		}
		eUsbCxFinishAction = ACT_IDLE;
  904984:	c030      	movi.n	a3, 0
  904986:	9380      	s32i.n	a3, a8, 0
	}

	if (usb_interrupt_level1 & BIT7) {
  904988:	002232        	sext	a2, a2, 7
  90498b:	672045        	bgez	a2, 9049d4 <_fw_usb_fw_task+0x11c>
	return *(const volatile uint8_t *) addr;
  90498e:	1a71ef        	l32r	a10, 8e114c <_bss_end+0x3d3944>
  904991:	22a000        	l8ui	a2, a10, 0
  904994:	020247        	extui	a2, a2, 0, 8

	if (usb_interrupt_level2 & BIT6)
		vUsb_Data_In0Byte();
#endif

		if (usb_interrupt_level2 & BIT1) {
  904997:	7e271a        	bbci	a2, 30, 9049b5 <_fw_usb_fw_task+0xfd>
			io8_clr_usb(ZM_INTR_SOURCE_7_OFFSET, BIT1);
  90499a:	c0c2      	movi.n	a12, 2
  90499c:	c0b0      	movi.n	a11, 0
  90499e:	5bff41        	call8	9046a4 <io8_rmw>
			UsbChirpFinish = FALSE;
  9049a1:	137203        	l32r	a3, 8e11b0 <_bss_end+0x3d39a8>
  9049a4:	c080      	movi.n	a8, 0
  9049a6:	283500        	s16i	a8, a3, 0
			A_PRINTF("!USB reset\n\r");
  9049a9:	13716e        	l32r	a3, 8e0f64 <_bss_end+0x3d375c>
  9049ac:	1a7204        	l32r	a10, 8e11bc <_bss_end+0x3d39b4>
  9049af:	233212        	l32i	a3, a3, 72
  9049b2:	0b3000        	callx8	a3
		}
		if (usb_interrupt_level2 & BIT2) {
  9049b5:	7d2702        	bbci	a2, 29, 9049bb <_fw_usb_fw_task+0x103>
			/* TBD: the suspend resume code should put here,
			 * Ryan, 07/18
			 * issue, jump back to rom code and what peripherals
			 * should we reset here? */
			_fw_usb_suspend_reboot();
  9049b8:	5bff4e        	call8	9046f4 <_fw_usb_suspend_reboot>
		}
		if (usb_interrupt_level2 & BIT3) {
  9049bb:	7c2715        	bbci	a2, 28, 9049d4 <_fw_usb_fw_task+0x11c>
			io8_clr_usb(ZM_INTR_SOURCE_7_OFFSET, BIT3);
  9049be:	1a71ef        	l32r	a10, 8e117c <_bss_end+0x3d3974>
  9049c1:	c0c8      	movi.n	a12, 8
  9049c3:	c0b0      	movi.n	a11, 0
  9049c5:	5bff37        	call8	9046a4 <io8_rmw>
			A_PRINTF("!USB resume\n\r");
  9049c8:	12716e        	l32r	a2, 8e0f80 <_bss_end+0x3d3778>
  9049cb:	1a7205        	l32r	a10, 8e11e0 <_bss_end+0x3d39d8>
  9049ce:	222212        	l32i	a2, a2, 72
  9049d1:	0b2000        	callx8	a2
  9049d4:	d10f      	retw.n
	...

009049d8 <_fw_usb_reset_fifo>:
	}
}


void _fw_usb_reset_fifo(void)
{
  9049d8:	6c1004        	entry	a1, 32
	io8_set(0x100ae, 0x10);
  9049db:	1a7206        	l32r	a10, 8e11f4 <_bss_end+0x3d39ec>
  9049de:	c0c0      	movi.n	a12, 0
  9049e0:	c1b0      	movi.n	a11, 16
  9049e2:	5bff30        	call8	9046a4 <io8_rmw>
	io8_set(0x100af, 0x10);
  9049e5:	1a7207        	l32r	a10, 8e1204 <_bss_end+0x3d39fc>
  9049e8:	c0c0      	movi.n	a12, 0
  9049ea:	2b0a10        	movi	a11, 16
  9049ed:	5bff2d        	call8	9046a4 <io8_rmw>
  9049f0:	1271b6        	l32r	a2, 8e10c8 <_bss_end+0x3d38c0>

	/* disable ep3 int enable, so that resume back won't
	 * send wdt magic pattern out!!!
	 */
	mUSB_STATUS_IN_INT_DISABLE();
  9049f3:	230ac0        	movi	a3, 192
  9049f6:	282000        	l8ui	a8, a2, 0
	*(volatile uint32_t *) addr = b;
  9049f9:	c040      	movi.n	a4, 0
	return *(const volatile uint8_t *) addr;
  9049fb:	080847        	extui	a8, a8, 0, 8
  9049fe:	038802        	or	a8, a8, a3
	*(volatile uint8_t *) addr = b;
  904a01:	0c0200        	memw
  904a04:	282400        	s8i	a8, a2, 0
	*(volatile uint32_t *) addr = b;
  904a07:	13717b        	l32r	a3, 8e0ff4 <_bss_end+0x3d37ec>
  904a0a:	127172        	l32r	a2, 8e0fd4 <_bss_end+0x3d37cc>
  904a0d:	c084      	movi.n	a8, 4
  904a0f:	0c0200        	memw
  904a12:	9320      	s32i.n	a3, a2, 0
  904a14:	137208        	l32r	a3, 8e1234 <_bss_end+0x3d3a2c>
  904a17:	1271fa        	l32r	a2, 8e1200 <_bss_end+0x3d39f8>
  904a1a:	0c0200        	memw
  904a1d:	9430      	s32i.n	a4, a3, 0
  904a1f:	0c0200        	memw
  904a22:	9820      	s32i.n	a8, a2, 0
	 */
	iowrite32_usb(ZM_SOC_USB_DMA_RESET_OFFSET, 0x0);

	/* reset both usb(bit2)/wlan(bit1) dma */
	iowrite32(MAGPIE_REG_RST_PWDN_CTRL_ADDR, BIT2);
	io32_set(MAGPIE_REG_RST_PWDN_CTRL_ADDR, BIT0);
  904a24:	2b0a01        	movi	a11, 1
  904a27:	022a02        	or	a10, a2, a2
  904a2a:	5bff29        	call8	9046d0 <io32_rmw$constprop$0>
  904a2d:	0c0200        	memw
  904a30:	9420      	s32i.n	a4, a2, 0
  904a32:	c021      	movi.n	a2, 1
  904a34:	0c0200        	memw
  904a37:	9230      	s32i.n	a2, a3, 0

	//*reg_data = 0x00000000;

	//while (*reg_data)   ;

	A_PRINTF("\n change clock to 22 and go to suspend now!");
  904a39:	12716e        	l32r	a2, 8e0ff4 <_bss_end+0x3d37ec>
  904a3c:	1a7209        	l32r	a10, 8e1260 <_bss_end+0x3d3a58>
  904a3f:	232212        	l32i	a3, a2, 72
  904a42:	242a00        	movi	a4, 0x200
  904a45:	0b3000        	callx8	a3
  904a48:	1371fb        	l32r	a3, 8e1234 <_bss_end+0x3d3a2c>

	/* UART_SEL */
	iowrite32(0x50040, 0x200 | 0 | (1 >> 1) << 12);
	A_UART_HWINIT((22*1000*1000), 19200);
  904a4b:	22221a        	l32i	a2, a2, 104
  904a4e:	1b720a        	l32r	a11, 8e1278 <_bss_end+0x3d3a70>
  904a51:	1a720b        	l32r	a10, 8e1280 <_bss_end+0x3d3a78>
  904a54:	0c0200        	memw
  904a57:	9430      	s32i.n	a4, a3, 0
  904a59:	0b2000        	callx8	a2
  904a5c:	d10f      	retw.n
	...

00904a60 <cmnos_clock_init_patch>:
extern a_uint32_t cticks;

// clock change
//
void cmnos_clock_init_patch(a_uint32_t refclk)
{
  904a60:	6c1004        	entry	a1, 32
    ref_clk = refclk;
  904a63:	18720c        	l32r	a8, 8e1294 <_bss_end+0x3d3a8c>
  904a66:	9280      	s32i.n	a2, a8, 0
  904a68:	d10f      	retw.n
	...

00904a6c <cmnos_refclk_speed_get_patch>:
}

// retrieve current clock setting
//
a_uint32_t cmnos_refclk_speed_get_patch(void)
{
  904a6c:	6c1004        	entry	a1, 32
    return ref_clk;
}
  904a6f:	18720c        	l32r	a8, 8e12a0 <_bss_end+0x3d3a98>
  904a72:	8280      	l32i.n	a2, a8, 0
  904a74:	d10f      	retw.n
	...

00904a78 <cmnos_delay_us_patch>:


// software emulate delay function
//
void cmnos_delay_us_patch(int us)
{
  904a78:	6c1004        	entry	a1, 32
    a_uint32_t start_time = NOW();
  904a7b:	5b808c        	call8	8e4cac <xthal_get_ccount>
    unsigned int num_ticks = us*ref_clk; // system_freq == number of ticks per 1us
  904a7e:	18720c        	l32r	a8, 8e12b0 <_bss_end+0x3d3aa8>
    a_uint32_t start_time = NOW();
  904a81:	d3a0      	mov.n	a3, a10
    unsigned int num_ticks = us*ref_clk; // system_freq == number of ticks per 1us
  904a83:	288200        	l32i	a8, a8, 0
  904a86:	082228        	mull	a2, a2, a8

    while ( (NOW() - start_time) < num_ticks) {
  904a89:	5b8088        	call8	8e4cac <xthal_get_ccount>
  904a8c:	03aa0c        	sub	a10, a10, a3
  904a8f:	72a3f6        	bltu	a10, a2, 904a89 <cmnos_delay_us_patch+0x11>
        /* busy spin */
        ;
    }
}
  904a92:	d10f      	retw.n

00904a94 <cmnos_tick_patch>:


// software emulate microsecond ticks
//
void cmnos_tick_patch(void)
{
  904a94:	6c1004        	entry	a1, 32
    static a_uint32_t last_tick = 0;
    a_uint32_t current_tick = NOW();
  904a97:	5b8085        	call8	8e4cac <xthal_get_ccount>
    a_uint32_t delta_tick;

    delta_tick = (A_UINT32 ) (current_tick - last_tick)/(ref_clk<<10);
  904a9a:	18720c        	l32r	a8, 8e12cc <_bss_end+0x3d3ac4>
  904a9d:	12720d        	l32r	a2, 8e12d4 <_bss_end+0x3d3acc>
    a_uint32_t current_tick = NOW();
  904aa0:	d3a0      	mov.n	a3, a10
    delta_tick = (A_UINT32 ) (current_tick - last_tick)/(ref_clk<<10);
  904aa2:	8b80      	l32i.n	a11, a8, 0
  904aa4:	2a2200        	l32i	a10, a2, 0
  904aa7:	06bb11        	slli	a11, a11, 10
  904aaa:	0a3a0c        	sub	a10, a3, a10
  904aad:	5b80bc        	call8	8e4da0 <__udivsi3>

    if( delta_tick > 0 )
  904ab0:	c8a0      	beqz.n	a10, 904ab4 <cmnos_tick_patch+0x20>
        last_tick = current_tick;
  904ab2:	9320      	s32i.n	a3, a2, 0

    cticks += delta_tick;
  904ab4:	19720e        	l32r	a9, 8e12ec <_bss_end+0x3d3ae4>
  904ab7:	8890      	l32i.n	a8, a9, 0
  904ab9:	aa8a      	add.n	a10, a8, a10
  904abb:	9a90      	s32i.n	a10, a9, 0
  904abd:	d10f      	retw.n
	...

00904ac0 <cmnos_milliseconds_patch>:
}

// get current sysmem up time in milliseconds based
//
a_uint32_t cmnos_milliseconds_patch(void)
{
  904ac0:	6c1004        	entry	a1, 32
    cmnos_tick_patch();
  904ac3:	5bfff4        	call8	904a94 <cmnos_tick_patch>

    return (cticks);
}
  904ac6:	18720e        	l32r	a8, 8e1300 <_bss_end+0x3d3af8>
  904ac9:	8280      	l32i.n	a2, a8, 0
  904acb:	d10f      	retw.n
  904acd:	000000        	ill

00904ad0 <_cvt>:
LOCAL void
(*_putc)(char c) = cmnos_write_char;

LOCAL int
_cvt(unsigned long val, char *buf, long radix, char *digits)
{
  904ad0:	6c100e        	entry	a1, 112
    char temp[80];
    char *cp = temp;
    int length = 0;

    if (val == 0) {
  904ad3:	cc2d      	bnez.n	a2, 904ae4 <_cvt+0x14>
        /* Special case */
        *cp++ = '0';
  904ad5:	c320      	movi.n	a2, 48
  904ad7:	221400        	s8i	a2, a1, 0
  904ada:	b116      	addi.n	a6, a1, 1
  904adc:	d830      	mov.n	a8, a3
  904ade:	d260      	mov.n	a2, a6
  904ae0:	60002e        	j	904b12 <_cvt+0x42>
  904ae3:	00d710        	slli	a7, a13, 32
    } else {
        while (val) {
            *cp++ = digits[val % radix];
  904ae6:	db40      	mov.n	a11, a4
  904ae8:	da20      	mov.n	a10, a2
  904aea:	5b80c1        	call8	8e4df0 <__umodsi3>
  904aed:	aa5a      	add.n	a10, a5, a10
  904aef:	28a000        	l8ui	a8, a10, 0
            val /= radix;
  904af2:	db40      	mov.n	a11, a4
            *cp++ = digits[val % radix];
  904af4:	287400        	s8i	a8, a7, 0
            val /= radix;
  904af7:	da20      	mov.n	a10, a2
            *cp++ = digits[val % radix];
  904af9:	b176      	addi.n	a6, a7, 1
            val /= radix;
  904afb:	5b80a9        	call8	8e4da0 <__udivsi3>
  904afe:	d2a0      	mov.n	a2, a10
            *cp++ = digits[val % radix];
  904b00:	d760      	mov.n	a7, a6
        while (val) {
  904b02:	65afe0        	bnez	a10, 904ae6 <_cvt+0x16>
  904b05:	63ffd3        	j	904adc <_cvt+0xc>
        }
    }
    while (cp != temp) {
        *buf++ = *--cp;
  904b08:	b022      	addi.n	a2, a2, -1
  904b0a:	242000        	l8ui	a4, a2, 0
  904b0d:	248400        	s8i	a4, a8, 0
  904b10:	b188      	addi.n	a8, a8, 1
    while (cp != temp) {
  904b12:	7219f2        	bne	a1, a2, 904b08 <_cvt+0x38>
  904b15:	01620c        	sub	a2, a6, a1
        length++;
    }
    *buf = '\0';
  904b18:	a233      	add.n	a3, a3, a2
  904b1a:	c040      	movi.n	a4, 0
  904b1c:	243400        	s8i	a4, a3, 0
    return (length);
}
  904b1f:	d10f      	retw.n
  904b21:	000000        	ill

00904b24 <cmnos_write_char>:
{
  904b24:	6c1004        	entry	a1, 32
  904b27:	020247        	extui	a2, a2, 0, 8
    if (c == '\n') {
  904b2a:	69290e        	bnei	a2, 10, 904b3c <cmnos_write_char+0x18>
        A_PUTC('\r');
  904b2d:	13716e        	l32r	a3, 8e10e8 <_bss_end+0x3d38e0>
  904b30:	c0ad      	movi.n	a10, 13
  904b32:	283214        	l32i	a8, a3, 80
  904b35:	0b8000        	callx8	a8
  904b38:	600008        	j	904b44 <cmnos_write_char+0x20>
  904b3b:	00c03d        	excw
    } else if (c == '\r') {
  904b3e:	73210a        	beq	a2, a3, 904b4c <cmnos_write_char+0x28>
      A_PUTC(c);
  904b41:	13716e        	l32r	a3, 8e10fc <_bss_end+0x3d38f4>
  904b44:	233214        	l32i	a3, a3, 80
  904b47:	da20      	mov.n	a10, a2
  904b49:	0b3000        	callx8	a3
  904b4c:	d10f      	retw.n
	...

00904b50 <fw_cmnos_printf>:
    return (res);
}

int
fw_cmnos_printf(const char *fmt, ...)
{
  904b50:	6c1012        	entry	a1, 144
    va_list ap;
    int ret;

    va_start(ap, fmt);
  904b53:	951f      	s32i.n	a5, a1, 60
{
  904b55:	d520      	mov.n	a5, a2
    va_start(ap, fmt);
  904b57:	221c30        	addi	a2, a1, 48
  904b5a:	931d      	s32i.n	a3, a1, 52
  904b5c:	941e      	s32i.n	a4, a1, 56
  904b5e:	9219      	s32i.n	a2, a1, 36
    int res = 0, length = 0;
  904b60:	c040      	movi.n	a4, 0
    va_start(ap, fmt);
  904b62:	c024      	movi.n	a2, 4
  904b64:	231c70        	addi	a3, a1, 112
  904b67:	261610        	s32i	a6, a1, 64
  904b6a:	921a      	s32i.n	a2, a1, 40
  904b6c:	221614        	s32i	a2, a1, 80
  904b6f:	271611        	s32i	a7, a1, 68
  904b72:	9318      	s32i.n	a3, a1, 32
    int res = 0, length = 0;
  904b74:	d240      	mov.n	a2, a4
    long val = 0;
  904b76:	241615        	s32i	a4, a1, 84
    char c, sign, *cp=buf;
  904b79:	d610      	mov.n	a6, a1
  904b7b:	60039e        	j	904f1d <fw_cmnos_printf+0x3cd>
        if (c == '%') {
  904b7e:	c285      	movi.n	a8, 37
  904b80:	78a102        	beq	a10, a8, 904b86 <fw_cmnos_printf+0x36>
  904b83:	60038f        	j	904f16 <fw_cmnos_printf+0x3c6>
            c = *fmt++;
  904b86:	285001        	l8ui	a8, a5, 1
            if (c == '-') {
  904b89:	c23d      	movi.n	a3, 45
  904b8b:	738109        	beq	a8, a3, 904b98 <fw_cmnos_printf+0x48>
            left_prec = right_prec = pad_on_right = islong = islonglong = 0;
  904b8e:	c090      	movi.n	a9, 0
            c = *fmt++;
  904b90:	b257      	addi.n	a7, a5, 2
            left_prec = right_prec = pad_on_right = islong = islonglong = 0;
  904b92:	291617        	s32i	a9, a1, 92
  904b95:	600009        	j	904ba2 <fw_cmnos_printf+0x52>
                pad_on_right++;
  904b98:	c031      	movi.n	a3, 1
                c = *fmt++;
  904b9a:	285002        	l8ui	a8, a5, 2
  904b9d:	b357      	addi.n	a7, a5, 3
                pad_on_right++;
  904b9f:	231617        	s32i	a3, a1, 92
                zero_fill = FALSE;
  904ba2:	c050      	movi.n	a5, 0
            if (c == '0') {
  904ba4:	c330      	movi.n	a3, 48
                zero_fill = FALSE;
  904ba6:	251616        	s32i	a5, a1, 88
            if (c == '0') {
  904ba9:	738909        	bne	a8, a3, 904bb6 <fw_cmnos_printf+0x66>
                zero_fill = TRUE;
  904bac:	c091      	movi.n	a9, 1
                c = *fmt++;
  904bae:	287000        	l8ui	a8, a7, 0
                zero_fill = TRUE;
  904bb1:	291616        	s32i	a9, a1, 88
                c = *fmt++;
  904bb4:	b177      	addi.n	a7, a7, 1
                zero_fill = TRUE;
  904bb6:	c030      	movi.n	a3, 0
            while (is_digit(c)) {
  904bb8:	c0b9      	movi.n	a11, 9
  904bba:	60000e        	j	904bcc <fw_cmnos_printf+0x7c>
                left_prec = (left_prec * 10) + (c - '0');
  904bbd:	0e3511        	slli	a5, a3, 2
  904bc0:	a353      	add.n	a3, a5, a3
  904bc2:	0f3311        	slli	a3, a3, 1
                c = *fmt++;
  904bc5:	287000        	l8ui	a8, a7, 0
                left_prec = (left_prec * 10) + (c - '0');
  904bc8:	a393      	add.n	a3, a9, a3
  904bca:	b177      	addi.n	a7, a7, 1
            while (is_digit(c)) {
  904bcc:	298cd0        	addi	a9, a8, -48
  904bcf:	090a47        	extui	a10, a9, 0, 8
  904bd2:	d570      	mov.n	a5, a7
  904bd4:	7abbe5        	bgeu	a11, a10, 904bbd <fw_cmnos_printf+0x6d>
            if (c == '.') {
  904bd7:	c29e      	movi.n	a9, 46
  904bd9:	798923        	bne	a8, a9, 904c00 <fw_cmnos_printf+0xb0>
                zero_fill++;
  904bdc:	251216        	l32i	a5, a1, 88
                c = *fmt++;
  904bdf:	287000        	l8ui	a8, a7, 0
                zero_fill++;
  904be2:	b155      	addi.n	a5, a5, 1
  904be4:	251616        	s32i	a5, a1, 88
                c = *fmt++;
  904be7:	b177      	addi.n	a7, a7, 1
                while (is_digit(c)) {
  904be9:	c0a9      	movi.n	a10, 9
  904beb:	600006        	j	904bf5 <fw_cmnos_printf+0xa5>
  904bee:	000028        	mull	a0, a0, a0
                    c = *fmt++;
  904bf1:	7000b1        	bnone	a0, a0, 904ba6 <fw_cmnos_printf+0x56>
  904bf4:	77298c        	bne	a2, a7, 904b84 <fw_cmnos_printf+0x34>
                while (is_digit(c)) {
  904bf7:	d009      	excw
  904bf9:	0947d5        	excw
  904bfc:	7079ab        	bne	a7, a0, 904bab <fw_cmnos_printf+0x5b>
  904bff:	ef          	.byte 0xef
            if (c == 'l') {
  904c00:	290a6c        	movi	a9, 108
  904c03:	270a62        	movi	a7, 98
  904c06:	798102        	beq	a8, a9, 904c0c <fw_cmnos_printf+0xbc>
  904c09:	600323        	j	904f30 <fw_cmnos_printf+0x3e0>
                c = *fmt++;
  904c0c:	285000        	l8ui	a8, a5, 0
                if (c == 'l') {
  904c0f:	798105        	beq	a8, a9, 904c18 <fw_cmnos_printf+0xc8>
                c = *fmt++;
  904c12:	b155      	addi.n	a5, a5, 1
  904c14:	600318        	j	904f30 <fw_cmnos_printf+0x3e0>
  904c17:	002850        	extui	a8, a0, 18, 1
                    c = *fmt++;
  904c1a:	01b259        	extui	a2, a1, 27, 10
            switch (c) {
  904c1d:	778137        	beq	a8, a7, 904c58 <fw_cmnos_printf+0x108>
  904c20:	787318        	bltu	a7, a8, 904c3c <fw_cmnos_printf+0xec>
  904c23:	c454      	movi.n	a5, 68
  904c25:	75812f        	beq	a8, a5, 904c58 <fw_cmnos_printf+0x108>
  904c28:	785304        	bltu	a5, a8, 904c30 <fw_cmnos_printf+0xe0>
  904c2b:	c452      	movi.n	a5, 66
  904c2d:	600024        	j	904c55 <fw_cmnos_printf+0x105>
  904c30:	c555      	movi.n	a5, 85
  904c32:	758122        	beq	a8, a5, 904c58 <fw_cmnos_printf+0x108>
  904c35:	c558      	movi.n	a5, 88
  904c37:	60001a        	j	904c55 <fw_cmnos_printf+0x105>
  904c3a:	000025        	excw
  904c3d:	0a7075        	excw
  904c40:	8115      	l32i.n	a1, a1, 20
  904c42:	785306        	bltu	a5, a8, 904c4c <fw_cmnos_printf+0xfc>
  904c45:	250a64        	movi	a5, 100
  904c48:	600009        	j	904c55 <fw_cmnos_printf+0x105>
  904c4b:	00250a        	addx4	a5, a2, a0
  904c4e:	757581        	bbc	a7, a5, 904bd3 <fw_cmnos_printf+0x83>
  904c51:	05250a        	addx4	a5, a2, a5
  904c54:	787589        	bbc	a7, a8, 904be1 <fw_cmnos_printf+0x91>
  904c57:	6d2512        	excw
                    val = va_arg(ap, long);
  904c5a:	14c1a8        	l32r	a4, 8f52fc <memset+0x10160>
  904c5d:	b457      	addi.n	a7, a5, 4
  904c5f:	251c30        	addi	a5, a1, 48
  904c62:	77aa0a        	bge	a10, a7, 904c70 <fw_cmnos_printf+0x120>
  904c65:	251214        	l32i	a5, a1, 80
  904c68:	75a201        	blt	a10, a5, 904c6d <fw_cmnos_printf+0x11d>
  904c6b:	c274      	movi.n	a7, 36
  904c6d:	251c70        	addi	a5, a1, 112
  904c70:	a755      	add.n	a5, a5, a7
  904c72:	255cfc        	addi	a5, a5, -4
  904c75:	8550      	l32i.n	a5, a5, 0
  904c77:	271614        	s32i	a7, a1, 80
  904c7a:	251615        	s32i	a5, a1, 84
  904c7d:	d590      	mov.n	a5, a9
  904c7f:	600026        	j	904ca9 <fw_cmnos_printf+0x159>
  904c82:	00002a        	muluh	a0, a0, a0
                    val = (long)va_arg(ap, int);
  904c85:	121427        	l32r	a2, 8c9d24 <_bss_end+0x3bc51c>
  904c88:	1c30b4        	l32r	a12, 8d0f58 <_bss_end+0x3c3750>
  904c8b:	a9c1      	add.n	a1, a12, a9
  904c8d:	a879      	add.n	a9, a7, a8
  904c8f:	aa0a      	add.n	a10, a0, a10
  904c91:	2b1214        	l32i	a11, a1, 80
  904c94:	7ba201        	blt	a10, a11, 904c99 <fw_cmnos_printf+0x149>
  904c97:	c294      	movi.n	a9, 36
  904c99:	271c70        	addi	a7, a1, 112
  904c9c:	a977      	add.n	a7, a7, a9
  904c9e:	277cfc        	addi	a7, a7, -4
  904ca1:	8c70      	l32i.n	a12, a7, 0
  904ca3:	291614        	s32i	a9, a1, 80
  904ca6:	2c1615        	s32i	a12, a1, 84
                if ((c == 'd') || (c == 'D')) {
  904ca9:	27fadf        	movi	a7, -33
  904cac:	078701        	and	a7, a8, a7
  904caf:	277cbc        	addi	a7, a7, -68
                    if (val < 0) {
  904cb2:	cd72      	bnez.n	a7, 904cc8 <fw_cmnos_printf+0x178>
  904cb4:	291215        	l32i	a9, a1, 84
  904cb7:	67900d        	bgez	a9, 904cc8 <fw_cmnos_printf+0x178>
                        val = -val;
  904cba:	090906        	neg	a9, a9
  904cbd:	291615        	s32i	a9, a1, 84
                        sign = '-';
  904cc0:	c27d      	movi.n	a7, 45
  904cc2:	600004        	j	904cca <fw_cmnos_printf+0x17a>
  904cc5:	00d590        	l32e	a0, a13, -44
            sign = '\0';
  904cc8:	c070      	movi.n	a7, 0
            switch (c) {
  904cca:	c598      	movi.n	a9, 88
  904ccc:	798902        	bne	a8, a9, 904cd2 <fw_cmnos_printf+0x182>
  904ccf:	600081        	j	904d54 <fw_cmnos_printf+0x204>
  904cd2:	78932f        	bltu	a9, a8, 904d05 <fw_cmnos_printf+0x1b5>
  904cd5:	c493      	movi.n	a9, 67
  904cd7:	798902        	bne	a8, a9, 904cdd <fw_cmnos_printf+0x18d>
  904cda:	60010f        	j	904ded <fw_cmnos_printf+0x29d>
  904cdd:	789309        	bltu	a9, a8, 904cea <fw_cmnos_printf+0x19a>
  904ce0:	c2a5      	movi.n	a10, 37
  904ce2:	c492      	movi.n	a9, 66
  904ce4:	7a8938        	bne	a8, a10, 904d20 <fw_cmnos_printf+0x1d0>
  904ce7:	60015d        	j	904e48 <fw_cmnos_printf+0x2f8>
  904cea:	c593      	movi.n	a9, 83
  904cec:	798902        	bne	a8, a9, 904cf2 <fw_cmnos_printf+0x1a2>
  904cef:	6000b5        	j	904da8 <fw_cmnos_printf+0x258>
  904cf2:	c595      	movi.n	a9, 85
  904cf4:	79815c        	beq	a8, a9, 904d54 <fw_cmnos_printf+0x204>
  904cf7:	c494      	movi.n	a9, 68
  904cf9:	798102        	beq	a8, a9, 904cff <fw_cmnos_printf+0x1af>
  904cfc:	600150        	j	904e50 <fw_cmnos_printf+0x300>
  904cff:	600051        	j	904d54 <fw_cmnos_printf+0x204>
  904d02:	000000        	ill
  904d05:	290a70        	movi	a9, 112
  904d08:	798132        	beq	a8, a9, 904d3e <fw_cmnos_printf+0x1ee>
  904d0b:	78931a        	bltu	a9, a8, 904d29 <fw_cmnos_printf+0x1d9>
  904d0e:	290a63        	movi	a9, 99
  904d11:	798902        	bne	a8, a9, 904d17 <fw_cmnos_printf+0x1c7>
  904d14:	6000d5        	j	904ded <fw_cmnos_printf+0x29d>
  904d17:	290a64        	movi	a9, 100
  904d1a:	798136        	beq	a8, a9, 904d54 <fw_cmnos_printf+0x204>
  904d1d:	290a62        	movi	a9, 98
  904d20:	798902        	bne	a8, a9, 904d26 <fw_cmnos_printf+0x1d6>
  904d23:	6000ef        	j	904e16 <fw_cmnos_printf+0x2c6>
  904d26:	600126        	j	904e50 <fw_cmnos_printf+0x300>
  904d29:	290a75        	movi	a9, 117
  904d2c:	798124        	beq	a8, a9, 904d54 <fw_cmnos_printf+0x204>
  904d2f:	290a78        	movi	a9, 120
  904d32:	79811e        	beq	a8, a9, 904d54 <fw_cmnos_printf+0x204>
  904d35:	290a73        	movi	a9, 115
  904d38:	79816c        	beq	a8, a9, 904da8 <fw_cmnos_printf+0x258>
  904d3b:	600111        	j	904e50 <fw_cmnos_printf+0x300>
                (*putc)('0');
  904d3e:	c3a0      	movi.n	a10, 48
  904d40:	5bff78        	call8	904b24 <cmnos_write_char>
                zero_fill = TRUE;
  904d43:	230a01        	movi	a3, 1
                (*putc)('x');
  904d46:	2a0a78        	movi	a10, 120
  904d49:	5bff76        	call8	904b24 <cmnos_write_char>
                zero_fill = TRUE;
  904d4c:	231616        	s32i	a3, a1, 88
                left_prec = sizeof(unsigned long)*2;
  904d4f:	c038      	movi.n	a3, 8
  904d51:	600040        	j	904d95 <fw_cmnos_printf+0x245>
                switch (c) {
  904d54:	260a64        	movi	a6, 100
  904d57:	768132        	beq	a8, a6, 904d8d <fw_cmnos_printf+0x23d>
  904d5a:	786317        	bltu	a6, a8, 904d75 <fw_cmnos_printf+0x225>
  904d5d:	c565      	movi.n	a6, 85
  904d5f:	76812a        	beq	a8, a6, 904d8d <fw_cmnos_printf+0x23d>
  904d62:	c568      	movi.n	a6, 88
                    length = _cvt(val, buf, 16, "0123456789ABCDEF");
  904d64:	1d7212        	l32r	a13, 8e15ac <athos_indirection_table_install+0x64>
                switch (c) {
  904d67:	76812d        	beq	a8, a6, 904d98 <fw_cmnos_printf+0x248>
  904d6a:	c464      	movi.n	a6, 68
  904d6c:	768102        	beq	a8, a6, 904d72 <fw_cmnos_printf+0x222>
  904d6f:	6000f5        	j	904e68 <fw_cmnos_printf+0x318>
  904d72:	600017        	j	904d8d <fw_cmnos_printf+0x23d>
  904d75:	260a75        	movi	a6, 117
  904d78:	768111        	beq	a8, a6, 904d8d <fw_cmnos_printf+0x23d>
  904d7b:	260a78        	movi	a6, 120
  904d7e:	768113        	beq	a8, a6, 904d95 <fw_cmnos_printf+0x245>
  904d81:	260a70        	movi	a6, 112
  904d84:	768102        	beq	a8, a6, 904d8a <fw_cmnos_printf+0x23a>
  904d87:	6000dd        	j	904e68 <fw_cmnos_printf+0x318>
  904d8a:	600007        	j	904d95 <fw_cmnos_printf+0x245>
                    length = _cvt(val, buf, 10, "0123456789");
  904d8d:	1d7210        	l32r	a13, 8e15d0 <athos_indirection_table_install+0x88>
  904d90:	c0ca      	movi.n	a12, 10
  904d92:	600004        	j	904d9a <fw_cmnos_printf+0x24a>
                    length = _cvt(val, buf, 16, "0123456789abcdef");
  904d95:	1d7211        	l32r	a13, 8e15dc <athos_indirection_table_install+0x94>
  904d98:	c1c0      	movi.n	a12, 16
  904d9a:	2a1215        	l32i	a10, a1, 84
  904d9d:	db10      	mov.n	a11, a1
  904d9f:	5bff4c        	call8	904ad0 <_cvt>
  904da2:	d4a0      	mov.n	a4, a10
  904da4:	6000c0        	j	904e68 <fw_cmnos_printf+0x318>
  904da7:	002412        	srai	a4, a0, 2
                cp = va_arg(ap, char *);
  904daa:	14b446        	l32r	a4, 8f1ec4 <memset+0xcd28>
  904dad:	240a18        	movi	a4, 24
  904db0:	764a11        	bge	a4, a6, 904dc5 <fw_cmnos_printf+0x275>
  904db3:	281214        	l32i	a8, a1, 80
  904db6:	784202        	blt	a4, a8, 904dbc <fw_cmnos_printf+0x26c>
  904db9:	260a24        	movi	a6, 36
  904dbc:	261614        	s32i	a6, a1, 80
  904dbf:	241c70        	addi	a4, a1, 112
  904dc2:	600005        	j	904dcb <fw_cmnos_printf+0x27b>
  904dc5:	261614        	s32i	a6, a1, 80
  904dc8:	241c30        	addi	a4, a1, 48
  904dcb:	a644      	add.n	a4, a4, a6
  904dcd:	244cfc        	addi	a4, a4, -4
  904dd0:	264200        	l32i	a6, a4, 0
                    cp = "<null>";
  904dd3:	14720f        	l32r	a4, 8e1610 <athos_indirection_table_install+0xc8>
  904dd6:	064638        	moveqz	a6, a4, a6
  904dd9:	066802        	or	a8, a6, a6
  904ddc:	06840c        	sub	a4, a8, a6
  904ddf:	b188      	addi.n	a8, a8, 1
                while (cp[length] != '\0') length++;
  904de1:	b089      	addi.n	a9, a8, -1
  904de3:	299000        	l8ui	a9, a9, 0
  904de6:	659ff2        	bnez	a9, 904ddc <fw_cmnos_printf+0x28c>
  904de9:	60007d        	j	904e6a <fw_cmnos_printf+0x31a>
  904dec:	002912        	srai	a9, a0, 2
                c = va_arg(ap, int /*char*/);
  904def:	14c188        	l32r	a4, 8f5410 <memset+0x10274>
  904df2:	b497      	addi.n	a7, a9, 4
  904df4:	231c30        	addi	a3, a1, 48
  904df7:	778a08        	bge	a8, a7, 904e03 <fw_cmnos_printf+0x2b3>
  904dfa:	798202        	blt	a8, a9, 904e00 <fw_cmnos_printf+0x2b0>
  904dfd:	270a24        	movi	a7, 36
  904e00:	231c70        	addi	a3, a1, 112
  904e03:	a733      	add.n	a3, a3, a7
  904e05:	233cfc        	addi	a3, a3, -4
                (*putc)(c);
  904e08:	2a3003        	l8ui	a10, a3, 3
                res++;
  904e0b:	b122      	addi.n	a2, a2, 1
                (*putc)(c);
  904e0d:	5bff45        	call8	904b24 <cmnos_write_char>
                res++;
  904e10:	271614        	s32i	a7, a1, 80
  904e13:	600106        	j	904f1d <fw_cmnos_printf+0x3cd>
                if (left_prec == 0) {
  904e16:	c240      	movi.n	a4, 32
  904e18:	033439        	movnez	a4, a3, a3
                for (i = 0;  i < length-1;  i++) {
  904e1b:	c060      	movi.n	a6, 0
  904e1d:	b049      	addi.n	a9, a4, -1
                    buf[i] = ((val & ((long)1<<i)) ? '1' : '.');
  904e1f:	c2ae      	movi.n	a10, 46
  904e21:	c3b1      	movi.n	a11, 49
  904e23:	60001b        	j	904e42 <fw_cmnos_printf+0x2f2>
  904e26:	00002c        	excw
  904e29:	121500        	l32r	a2, 8ca22c <_bss_end+0x3bca24>
  904e2c:	60040c        	j	90523c <ar5416ProcRxDescFast_20+0x4c>
  904e2f:	081b08        	add	a11, a1, a8
  904e32:	0840dc        	excw
  904e35:	b008      	addi.n	a8, a0, -1
  904e37:	ac38      	add.n	a8, a3, a12
  904e39:	d8c0      	mov.n	a8, a12
  904e3b:	a61c      	add.n	a12, a1, a6
  904e3d:	28c400        	s8i	a8, a12, 0
                for (i = 0;  i < length-1;  i++) {
  904e40:	b166      	addi.n	a6, a6, 1
  904e42:	7962e2        	blt	a6, a9, 904e28 <fw_cmnos_printf+0x2d8>
  904e45:	60001f        	j	904e68 <fw_cmnos_printf+0x318>
                (*putc)('%');
  904e48:	c2a5      	movi.n	a10, 37
  904e4a:	5bff36        	call8	904b24 <cmnos_write_char>
  904e4d:	600019        	j	904e6a <fw_cmnos_printf+0x31a>
                (*putc)('%');
  904e50:	c2a5      	movi.n	a10, 37
  904e52:	281619        	s32i	a8, a1, 100
  904e55:	5bff33        	call8	904b24 <cmnos_write_char>
                (*putc)(c);
  904e58:	281219        	l32i	a8, a1, 100
                res += 2;
  904e5b:	222c02        	addi	a2, a2, 2
                (*putc)(c);
  904e5e:	088a02        	or	a10, a8, a8
  904e61:	5bff30        	call8	904b24 <cmnos_write_char>
  904e64:	600002        	j	904e6a <fw_cmnos_printf+0x31a>
  904e67:	00d610        	slli	a6, a13, 32
            pad = left_prec - length;
  904e6a:	04330c        	sub	a3, a3, a4
            if (sign != '\0') {
  904e6d:	c87b      	beqz.n	a7, 904e7c <fw_cmnos_printf+0x32c>
            if (zero_fill) {
  904e6f:	281216        	l32i	a8, a1, 88
                pad--;
  904e72:	b033      	addi.n	a3, a3, -1
            if (zero_fill) {
  904e74:	648108        	beqz	a8, 904f80 <fw_cmnos_printf+0x430>
  904e77:	60000a        	j	904e85 <fw_cmnos_printf+0x335>
  904e7a:	000029        	excw
  904e7d:	121665        	l32r	a2, 8ca814 <_bss_end+0x3bd00c>
  904e80:	90a2      	s32i.n	a0, a10, 8
  904e82:	600105        	j	904f8b <fw_cmnos_printf+0x43b>
                    (*putc)(sign);
  904e85:	da70      	mov.n	a10, a7
  904e87:	5bff27        	call8	904b24 <cmnos_write_char>
                    res++;
  904e8a:	b122      	addi.n	a2, a2, 1
  904e8c:	600095        	j	904f25 <fw_cmnos_printf+0x3d5>
  904e8f:	002712        	srai	a7, a0, 2
            if (!pad_on_right) {
  904e92:	17c380        	l32r	a7, 8f5c94 <memset+0x10af8>
  904e95:	600001        	j	904e9a <fw_cmnos_printf+0x34a>
  904e98:	c280      	movi.n	a8, 32
  904e9a:	d930      	mov.n	a9, a3
  904e9c:	600014        	j	904eb4 <fw_cmnos_printf+0x364>
  904e9f:	0000da        	excw
                    (*putc)(c);
  904ea2:	8028      	l32i.n	a0, a2, 32
  904ea4:	161929        	l32r	a6, 8cb348 <_bss_end+0x3bdb40>
  904ea7:	16185b        	l32r	a6, 8cb014 <_bss_end+0x3bd80c>
  904eaa:	ff          	.byte 0xff
  904eab:	1e2912        	l32r	a14, 8cf2f4 <_bss_end+0x3c1aec>
  904eae:	182812        	l32r	a8, 8ceef8 <_bss_end+0x3c16f0>
  904eb1:	19b099        	l32r	a9, 8f1118 <memset+0xbf7c>
                while (pad-- > 0) {
  904eb4:	6b91e9        	bgei	a9, 1, 904ea1 <fw_cmnos_printf+0x351>
  904eb7:	c080      	movi.n	a8, 0
  904eb9:	083835        	max	a8, a3, a8
  904ebc:	b033      	addi.n	a3, a3, -1
  904ebe:	a822      	add.n	a2, a2, a8
  904ec0:	08330c        	sub	a3, a3, a8
            if (sign != '\0') {
  904ec3:	c875      	beqz.n	a7, 904ecc <fw_cmnos_printf+0x37c>
                (*putc)(sign);
  904ec5:	da70      	mov.n	a10, a7
  904ec7:	5bff17        	call8	904b24 <cmnos_write_char>
                res++;
  904eca:	b122      	addi.n	a2, a2, 1
  904ecc:	d760      	mov.n	a7, a6
  904ece:	600007        	j	904ed9 <fw_cmnos_printf+0x389>
                (*putc)(c);
  904ed1:	2a7000        	l8ui	a10, a7, 0
  904ed4:	b177      	addi.n	a7, a7, 1
  904ed6:	5bff13        	call8	904b24 <cmnos_write_char>
  904ed9:	07480c        	sub	a8, a4, a7
  904edc:	a868      	add.n	a8, a6, a8
            while (length-- > 0) {
  904ede:	6b81ef        	bgei	a8, 1, 904ed1 <fw_cmnos_printf+0x381>
  904ee1:	c070      	movi.n	a7, 0
            if (pad_on_right) {
  904ee3:	281217        	l32i	a8, a1, 92
  904ee6:	074735        	max	a7, a4, a7
  904ee9:	b044      	addi.n	a4, a4, -1
  904eeb:	a766      	add.n	a6, a6, a7
  904eed:	a722      	add.n	a2, a2, a7
  904eef:	07440c        	sub	a4, a4, a7
  904ef2:	ca87      	beqz.n	a8, 904f1d <fw_cmnos_printf+0x3cd>
  904ef4:	d730      	mov.n	a7, a3
                    (*putc)(' ');
  904ef6:	c280      	movi.n	a8, 32
  904ef8:	60000d        	j	904f09 <fw_cmnos_printf+0x3b9>
  904efb:	00da80        	excw
  904efe:	281619        	s32i	a8, a1, 100
  904f01:	5bff08        	call8	904b24 <cmnos_write_char>
  904f04:	281219        	l32i	a8, a1, 100
  904f07:	b077      	addi.n	a7, a7, -1
                while (pad-- > 0) {
  904f09:	6b71ef        	bgei	a7, 1, 904efc <fw_cmnos_printf+0x3ac>
  904f0c:	c070      	movi.n	a7, 0
  904f0e:	073335        	max	a3, a3, a7
  904f11:	a322      	add.n	a2, a2, a3
  904f13:	600006        	j	904f1d <fw_cmnos_printf+0x3cd>
    while ((c = *fmt++) != '\0') {
  904f16:	b155      	addi.n	a5, a5, 1
            (*putc)(c);
  904f18:	5bff02        	call8	904b24 <cmnos_write_char>
            res++;
  904f1b:	b122      	addi.n	a2, a2, 1
    while ((c = *fmt++) != '\0') {
  904f1d:	2a5000        	l8ui	a10, a5, 0
  904f20:	65ac5a        	bnez	a10, 904b7e <fw_cmnos_printf+0x2e>
  904f23:	d10f      	retw.n
            if (!pad_on_right) {
  904f25:	291217        	l32i	a9, a1, 92
  904f28:	649f64        	beqz	a9, 904e90 <fw_cmnos_printf+0x340>
  904f2b:	63ff9d        	j	904ecc <fw_cmnos_printf+0x37c>
  904f2e:	000077        	excw
            switch (c) {
  904f31:	8902      	l32i.n	a9, a0, 8
  904f33:	63fd4d        	j	904c84 <fw_cmnos_printf+0x134>
  904f36:	78731e        	bltu	a7, a8, 904f58 <fw_cmnos_printf+0x408>
  904f39:	c474      	movi.n	a7, 68
  904f3b:	778902        	bne	a8, a7, 904f41 <fw_cmnos_printf+0x3f1>
  904f3e:	63fd42        	j	904c84 <fw_cmnos_printf+0x134>
  904f41:	787304        	bltu	a7, a8, 904f49 <fw_cmnos_printf+0x3f9>
  904f44:	c472      	movi.n	a7, 66
  904f46:	60002c        	j	904f76 <fw_cmnos_printf+0x426>
  904f49:	c575      	movi.n	a7, 85
  904f4b:	778902        	bne	a8, a7, 904f51 <fw_cmnos_printf+0x401>
  904f4e:	63fd32        	j	904c84 <fw_cmnos_printf+0x134>
  904f51:	c578      	movi.n	a7, 88
  904f53:	60001f        	j	904f76 <fw_cmnos_printf+0x426>
  904f56:	000027        	excw
  904f59:	0a7077        	excw
  904f5c:	8902      	l32i.n	a9, a0, 8
  904f5e:	63fd22        	j	904c84 <fw_cmnos_printf+0x134>
  904f61:	787305        	bltu	a7, a8, 904f6a <fw_cmnos_printf+0x41a>
  904f64:	270a64        	movi	a7, 100
  904f67:	60000b        	j	904f76 <fw_cmnos_printf+0x426>
  904f6a:	270a75        	movi	a7, 117
  904f6d:	778902        	bne	a8, a7, 904f73 <fw_cmnos_printf+0x423>
  904f70:	63fd10        	j	904c84 <fw_cmnos_printf+0x134>
  904f73:	270a78        	movi	a7, 120
  904f76:	778102        	beq	a8, a7, 904f7c <fw_cmnos_printf+0x42c>
  904f79:	63fd4b        	j	904cc8 <fw_cmnos_printf+0x178>
  904f7c:	63fd04        	j	904c84 <fw_cmnos_printf+0x134>
  904f7f:	002912        	srai	a9, a0, 2
            if (!pad_on_right) {
  904f82:	17c280        	l32r	a7, 8f5984 <memset+0x107e8>
  904f85:	649f11        	beqz	a9, 904e9a <fw_cmnos_printf+0x34a>
  904f88:	63ff39        	j	904ec5 <fw_cmnos_printf+0x375>
  904f8b:	281217        	l32i	a8, a1, 92
  904f8e:	658f3a        	bnez	a8, 904ecc <fw_cmnos_printf+0x37c>
  904f91:	63ff03        	j	904e98 <fw_cmnos_printf+0x348>

00904f94 <ath_hal_attach_tgt>:

struct ath_hal*
ath_hal_attach_tgt(a_uint32_t devid,HAL_SOFTC sc,
		   adf_os_device_t dev,
		   a_uint32_t flags, HAL_STATUS *error)
{
  904f94:	6c1004        	entry	a1, 32
	struct ath_hal *ah = AH_NULL;

	ah = ar5416Attach(sc, dev, error);
  904f97:	dc60      	mov.n	a12, a6
  904f99:	db40      	mov.n	a11, a4
  904f9b:	da30      	mov.n	a10, a3
  904f9d:	5804c4        	call8	9062b0 <ar5416Attach>

	return ah;
}
  904fa0:	d2a0      	mov.n	a2, a10
  904fa2:	d10f      	retw.n

00904fa4 <ath_hal_getcapability>:

HAL_STATUS
ath_hal_getcapability(struct ath_hal *ah, HAL_CAPABILITY_TYPE type)
{
  904fa4:	6c1004        	entry	a1, 32
	const HAL_CAPABILITIES *pCap = &AH_PRIVATE(ah)->ah_caps;
	switch (type) {
  904fa7:	683111        	beqi	a3, 1, 904fbc <ath_hal_getcapability+0x18>
  904faa:	c93e      	beqz.n	a3, 904fcc <ath_hal_getcapability+0x28>
	case HAL_CAP_BSSIDMASK:
		return pCap->halBssIdMaskSupport ? HAL_OK : HAL_ENOTSUPP;
	case HAL_CAP_VEOL:
		return pCap->halVEOLSupport ? HAL_OK : HAL_ENOTSUPP;
	default:
		return HAL_EINVAL;
  904fac:	223cfe        	addi	a2, a3, -2
  904faf:	c081      	movi.n	a8, 1
  904fb1:	c030      	movi.n	a3, 0
  904fb3:	028338        	moveqz	a3, a8, a2
  904fb6:	bc32      	addi.n	a2, a3, 12
  904fb8:	d10f      	retw.n
  904fba:	000013        	srai	a0, a0, 16
		return pCap->halBssIdMaskSupport ? HAL_OK : HAL_ENOTSUPP;
  904fbd:	721322        	bltu	a1, a2, 904fe3 <ath_hal_computetxtime+0x7>
  904fc0:	222b03        	l32ai	a2, a2, 12
  904fc3:	2201c0        	l16ui	a2, a0, 0x180
  904fc6:	306000        	excw
  904fc9:	070000        	callx4	a0
		return pCap->halVEOLSupport ? HAL_OK : HAL_ENOTSUPP;
  904fcc:	22222b        	l32i	a2, a2, 172
  904fcf:	02f240        	extui	a2, a2, 15, 1
		return pCap->halBssIdMaskSupport ? HAL_OK : HAL_ENOTSUPP;
  904fd2:	c08d      	movi.n	a8, 13
  904fd4:	028338        	moveqz	a3, a8, a2
  904fd7:	d230      	mov.n	a2, a3
	}
}
  904fd9:	d10f      	retw.n
	...

00904fdc <ath_hal_computetxtime>:

a_uint16_t
ath_hal_computetxtime(struct ath_hal *ah,
		      const HAL_RATE_TABLE *rates, a_uint32_t frameLen, a_uint16_t rateix,
		      HAL_BOOL shortPreamble)
{
  904fdc:	6c1004        	entry	a1, 32
  904fdf:	05054f        	extui	a5, a5, 0, 16
  904fe2:	0c5511        	slli	a5, a5, 4
  904fe5:	a533      	add.n	a3, a3, a5
	a_uint32_t bitsPerSymbol, numBits, numSymbols, phyTime, txTime;
	a_uint32_t kbps;

	kbps = rates->info[rateix].rateKbps;
  904fe7:	8b3b      	l32i.n	a11, a3, 44

	/*
	 * index can be invalid duting dynamic Turbo transitions.
	 */
	if(kbps == 0) return 0;
  904fe9:	c020      	movi.n	a2, 0
  904feb:	72b15a        	beq	a11, a2, 905049 <ath_hal_computetxtime+0x6d>
	switch (rates->info[rateix].phy) {
  904fee:	253029        	l8ui	a5, a3, 41
  904ff1:	725107        	beq	a5, a2, 904ffc <ath_hal_computetxtime+0x20>
  904ff4:	68522d        	beqi	a5, 2, 905025 <ath_hal_computetxtime+0x49>
  904ff7:	60004b        	j	905046 <ath_hal_computetxtime+0x6a>
  904ffa:	000025        	excw

	case IEEE80211_T_CCK:
		phyTime = CCK_PREAMBLE_BITS + CCK_PLCP_BITS;
  904ffd:	0ac0c8        	excw
		if (shortPreamble && rates->info[rateix].shortPreamble)
  905000:	672330        	bgez	a2, 905334 <ar5416ProcRxDescFast_20+0x144>
  905003:	31220a        	excw
			phyTime >>= 1;
  905006:	600325        	j	90532f <ar5416ProcRxDescFast_20+0x13f>
  905009:	390d42        	excw
		numBits = frameLen << 3;
  90500c:	11084a        	l32r	a1, 8c7134 <_bss_end+0x3b992c>
		txTime = phyTime + ((numBits * 1000)/kbps);
  90500f:	1102aa        	l32r	a1, 8c5ab8 <_bss_end+0x3b82b0>
  905012:	0c0eaa        	excw
  905015:	11a2aa        	l32r	a1, 8edac0 <memset+0x8924>
  905018:	0daa11        	slli	a10, a10, 3
  90501b:	5b7f61        	call8	8e4da0 <__udivsi3>
		/* TODO: make sure the same value of txTime can use in all device */
		if (ath_hal_getcapability(ah, HAL_CAP_HT) != HAL_OK)
			txTime = txTime + CCK_SIFS_TIME;
  90501e:	baa2      	addi.n	a2, a10, 10
  905020:	a522      	add.n	a2, a2, a5
  905022:	600020        	j	905046 <ath_hal_computetxtime+0x6a>
		break;
	case IEEE80211_T_OFDM:
		/* full rate channel */
		bitsPerSymbol   = (kbps * OFDM_SYMBOL_TIME) / 1000;
  905025:	0eb211        	slli	a2, a11, 2
  905028:	1b7214        	l32r	a11, 8e1878 <athos_indirection_table_install+0x330>
		HALASSERT(bitsPerSymbol != 0);

		numBits = OFDM_PLCP_BITS + (frameLen << 3);
  90502b:	0d4411        	slli	a4, a4, 3
		bitsPerSymbol   = (kbps * OFDM_SYMBOL_TIME) / 1000;
  90502e:	0b222a        	muluh	a2, a2, a11
		numSymbols = asf_howmany(numBits, bitsPerSymbol);
  905031:	2a4c15        	addi	a10, a4, 21
		bitsPerSymbol   = (kbps * OFDM_SYMBOL_TIME) / 1000;
  905034:	026214        	srli	a2, a2, 6
		numSymbols = asf_howmany(numBits, bitsPerSymbol);
  905037:	022b02        	or	a11, a2, a2
  90503a:	02aa08        	add	a10, a10, a2
  90503d:	5b7f58        	call8	8e4da0 <__udivsi3>
		txTime = OFDM_PREAMBLE_TIME + (numSymbols * OFDM_SYMBOL_TIME);
  905040:	0ea211        	slli	a2, a10, 2
		/* TODO: make sure the same value of txTime can use in all device */
		if (ath_hal_getcapability(ah, HAL_CAP_HT) != HAL_OK)
			txTime = txTime + OFDM_SIFS_TIME;
  905043:	222c24        	addi	a2, a2, 36
		break;
	default:
		txTime = 0;
		break;
	}
	return txTime;
  905046:	02024f        	extui	a2, a2, 0, 16
}
  905049:	d10f      	retw.n
	...

0090504c <ath_hal_wait>:

#endif

HAL_BOOL
ath_hal_wait(struct ath_hal *ah, a_uint32_t reg, a_uint32_t mask, a_uint32_t val)
{
  90504c:	6c1004        	entry	a1, 32
				return AH_TRUE;
			OS_DELAY(10);
		}
	} else {
		for (i = 0; i < AH_TIMEOUT_11G; i++) {
			if ((ioread32_mac(reg) & mask) == val)
  90504f:	187215        	l32r	a8, 8e18a4 <athos_indirection_table_install+0x35c>
{
  905052:	223ae8        	movi	a2, 0x3e8
			if ((ioread32_mac(reg) & mask) == val)
  905055:	083308        	add	a3, a3, a8
	return *(const volatile uint32_t *) addr;
  905058:	0c0200        	memw
  90505b:	8830      	l32i.n	a8, a3, 0
  90505d:	084801        	and	a8, a4, a8
  905060:	78510d        	beq	a5, a8, 905071 <ath_hal_wait+0x25>
				return AH_TRUE;
			OS_DELAY(10);
  905063:	2a0a0a        	movi	a10, 10
  905066:	222cff        	addi	a2, a2, -1
  905069:	5bfacf        	call8	903ba8 <ath_hal_delay>
		for (i = 0; i < AH_TIMEOUT_11G; i++) {
  90506c:	652fe8        	bnez	a2, 905058 <ath_hal_wait+0xc>
  90506f:	d10f      	retw.n
				return AH_TRUE;
  905071:	c021      	movi.n	a2, 1
	}
	return AH_FALSE;

#undef AH_TIMEOUT_11N
#undef AH_TIMEOUT_11G
}
  905073:	d10f      	retw.n
  905075:	000000        	ill

00905078 <ar5416IsInterruptPending>:
/**********************/
/* Interrupt Handling */
/**********************/

HAL_BOOL ar5416IsInterruptPending(struct ath_hal *ah)
{
  905078:	6c1004        	entry	a1, 32
  90507b:	127216        	l32r	a2, 8e18d4 <athos_indirection_table_install+0x38c>
  90507e:	0c0200        	memw
  905081:	8820      	l32i.n	a8, a2, 0
		ioread32_mac(AR_INTR_ASYNC_CAUSE);
	/*
	 * Some platforms trigger our ISR before applying power to
	 * the card, so make sure.
	 */
	return ((host_isr != AR_INTR_SPURIOUS) && (host_isr & AR_INTR_MAC_IRQ));
  905083:	c020      	movi.n	a2, 0
  905085:	081940        	extui	a9, a8, 1, 1
  905088:	b188      	addi.n	a8, a8, 1
  90508a:	089239        	movnez	a2, a9, a8
}
  90508d:	d10f      	retw.n
	...

00905090 <ar5416SetInterrupts>:
	return AH_TRUE;
}

HAL_INT
ar5416SetInterrupts(struct ath_hal *ah, HAL_INT ints)
{
  905090:	6c1004        	entry	a1, 32
	struct ath_hal_5416 *ahp = AH5416(ah);
	a_uint32_t omask = ahp->ah_maskReg;
  905093:	2b2235        	l32i	a11, a2, 212
	a_uint32_t mask;

	if (omask & HAL_INT_GLOBAL) {
  905096:	67b00e        	bgez	a11, 9050a8 <ar5416SetInterrupts+0x18>
  905099:	187217        	l32r	a8, 8e18f8 <athos_indirection_table_install+0x3b0>
	*(volatile uint32_t *) addr = b;
  90509c:	c090      	movi.n	a9, 0
  90509e:	0c0200        	memw
  9050a1:	9980      	s32i.n	a9, a8, 0
	return *(const volatile uint32_t *) addr;
  9050a3:	0c0200        	memw
  9050a6:	8880      	l32i.n	a8, a8, 0
		iowrite32_mac(AR_IER, AR_IER_DISABLE);
		(void) ioread32_mac(AR_IER);
	}

	mask = ints & HAL_INT_COMMON;
  9050a8:	187218        	l32r	a8, 8e1908 <athos_indirection_table_install+0x3c0>
#else
		mask |= AR_IMR_TXOK;
		mask |= AR_IMR_TXDESC;
#endif
		mask |= AR_IMR_TXERR;
		mask |= AR_IMR_TXEOL;
  9050ab:	295ac0        	movi	a9, 0x5c0
	mask = ints & HAL_INT_COMMON;
  9050ae:	083801        	and	a8, a3, a8
	if (ints & HAL_INT_TX) {
  9050b1:	036a40        	extui	a10, a3, 6, 1
		mask |= AR_IMR_TXEOL;
  9050b4:	098902        	or	a9, a8, a9
  9050b7:	0a9839        	movnez	a8, a9, a10
	if (ints & HAL_INT_RX) {
		mask |= AR_IMR_RXERR;
#ifdef AR5416_INT_MITIGATION
		mask |=  AR_IMR_RXMINTR | AR_IMR_RXINTM;
#else
		mask |= AR_IMR_RXOK | AR_IMR_RXDESC;
  9050ba:	c097      	movi.n	a9, 7
  9050bc:	098902        	or	a9, a8, a9
	if (ints & HAL_INT_RX) {
  9050bf:	030a40        	extui	a10, a3, 0, 1
		mask |= AR_IMR_RXOK | AR_IMR_RXDESC;
  9050c2:	0a9839        	movnez	a8, a9, a10
#endif
	}

	if (ints & (HAL_INT_GTT | HAL_INT_CST)) {
  9050c5:	197219        	l32r	a9, 8e192c <athos_indirection_table_install+0x3e4>
  9050c8:	793005        	bnone	a3, a9, 9050d1 <ar5416SetInterrupts+0x41>
		mask |= AR_IMR_BCNMISC;
  9050cb:	19721a        	l32r	a9, 8e1934 <athos_indirection_table_install+0x3ec>
  9050ce:	098802        	or	a8, a8, a9
  9050d1:	19721b        	l32r	a9, 8e1940 <athos_indirection_table_install+0x3f8>
	*(volatile uint32_t *) addr = b;
  9050d4:	0c0200        	memw
  9050d7:	9890      	s32i.n	a8, a9, 0
	return *(const volatile uint32_t *) addr;
  9050d9:	0c0200        	memw
  9050dc:	8890      	l32i.n	a8, a9, 0
	}

	iowrite32_mac(AR_IMR, mask);
	(void) ioread32_mac(AR_IMR);
	ahp->ah_maskReg = ints;
  9050de:	232635        	s32i	a3, a2, 212

	/* Re-enable interrupts if they were enabled before. */
	if (ints & HAL_INT_GLOBAL) {
  9050e1:	67300f        	bgez	a3, 9050f4 <ar5416SetInterrupts+0x64>
  9050e4:	137217        	l32r	a3, 8e1940 <athos_indirection_table_install+0x3f8>
	*(volatile uint32_t *) addr = b;
  9050e7:	c021      	movi.n	a2, 1
  9050e9:	0c0200        	memw
  9050ec:	9230      	s32i.n	a2, a3, 0
	return *(const volatile uint32_t *) addr;
  9050ee:	0c0200        	memw
  9050f1:	223200        	l32i	a2, a3, 0
	*(volatile uint32_t *) addr = b;
  9050f4:	12721c        	l32r	a2, 8e1964 <athos_indirection_table_install+0x41c>
  9050f7:	c032      	movi.n	a3, 2
  9050f9:	0c0200        	memw
  9050fc:	9320      	s32i.n	a3, a2, 0
  9050fe:	12721d        	l32r	a2, 8e1974 <athos_indirection_table_install+0x42c>
  905101:	0c0200        	memw
  905104:	9320      	s32i.n	a3, a2, 0
  905106:	12721e        	l32r	a2, 8e1980 <athos_indirection_table_install+0x438>
  905109:	13721f        	l32r	a3, 8e1988 <athos_indirection_table_install+0x440>
  90510c:	0c0200        	memw
  90510f:	9320      	s32i.n	a3, a2, 0
	iowrite32_mac(AR_INTR_ASYNC_ENABLE, AR_INTR_MAC_IRQ);
	iowrite32_mac(AR_INTR_ASYNC_MASK, AR_INTR_MAC_IRQ);
	iowrite32_mac(AR_INTR_SYNC_ENABLE, AR_INTR_SYNC_ALL);

	return omask;
}
  905111:	d2b0      	mov.n	a2, a11
  905113:	d10f      	retw.n
  905115:	000000        	ill

00905118 <ar5416GetTsf64>:
/****************/

#define ATH9K_HTC_MAX_TSF_READ 3

u_int64_t ar5416GetTsf64(struct ath_hal *ah)
{
  905118:	6c1004        	entry	a1, 32
	return *(const volatile uint32_t *) addr;
  90511b:	187220        	l32r	a8, 8e199c <athos_indirection_table_install+0x454>
  90511e:	1b7221        	l32r	a11, 8e19a4 <athos_indirection_table_install+0x45c>
  905121:	0c0200        	memw
  905124:	8a80      	l32i.n	a10, a8, 0
  905126:	c093      	movi.n	a9, 3
  905128:	0c0200        	memw
  90512b:	83b0      	l32i.n	a3, a11, 0
  90512d:	0c0200        	memw
  905130:	8280      	l32i.n	a2, a8, 0

	tsf_upper1 = ioread32_mac(AR_TSF_U32);
	for (i = 0; i < ATH9K_HTC_MAX_TSF_READ; i++) {
		tsf_lower = ioread32_mac(AR_TSF_L32);
		tsf_upper2 = ioread32_mac(AR_TSF_U32);
		if (tsf_upper2 == tsf_upper1)
  905132:	7a2106        	beq	a2, a10, 90513c <ar5416GetTsf64+0x24>
  905135:	b099      	addi.n	a9, a9, -1
  905137:	da20      	mov.n	a10, a2
	for (i = 0; i < ATH9K_HTC_MAX_TSF_READ; i++) {
  905139:	659feb        	bnez	a9, 905128 <ar5416GetTsf64+0x10>
			break;
		tsf_upper1 = tsf_upper2;
	}

	return (((u_int64_t)tsf_upper2 << 32) | tsf_lower);
}
  90513c:	d10f      	retw.n
	...

00905140 <ar5416SetRxDP>:

/******/
/* RX */
/******/
void ar5416SetRxDP(struct ath_hal *ah, a_uint32_t rxdp)
{
  905140:	6c1004        	entry	a1, 32
  905143:	187222        	l32r	a8, 8e19cc <athos_indirection_table_install+0x484>
	*(volatile uint32_t *) addr = b;
  905146:	0c0200        	memw
  905149:	9380      	s32i.n	a3, a8, 0
  90514b:	d10f      	retw.n
  90514d:	000000        	ill

00905150 <ar5416EnableReceive>:
			     & ~AR_RXCFG_ZLFDMA);
	}
}

void ar5416EnableReceive(struct ath_hal *ah)
{
  905150:	6c1004        	entry	a1, 32
  905153:	187223        	l32r	a8, 8e19e0 <athos_indirection_table_install+0x498>
  905156:	c094      	movi.n	a9, 4
  905158:	0c0200        	memw
  90515b:	9980      	s32i.n	a9, a8, 0
  90515d:	d10f      	retw.n
	...

00905160 <ar5416StopPcuReceive>:
	iowrite32_mac(AR_CR, AR_CR_RXE);
}

void ar5416StopPcuReceive(struct ath_hal *ah)
{
  905160:	6c1004        	entry	a1, 32
	return *(const volatile uint32_t *) addr;
  905163:	197224        	l32r	a9, 8e19f4 <athos_indirection_table_install+0x4ac>
	OS_REG_SET_BIT(ah, AR_DIAG_SW, AR_DIAG_RX_DIS);
  905166:	c2a0      	movi.n	a10, 32
  905168:	0c0200        	memw
  90516b:	8890      	l32i.n	a8, a9, 0
  90516d:	0a8802        	or	a8, a8, a10
	*(volatile uint32_t *) addr = b;
  905170:	0c0200        	memw
  905173:	9890      	s32i.n	a8, a9, 0
  905175:	d10f      	retw.n
	...

00905178 <ar5416SetupRxDesc_20>:
}

HAL_BOOL ar5416SetupRxDesc_20(struct ath_rx_desc *ds,
			      a_uint32_t size, a_uint32_t flags)
{
  905178:	6c1004        	entry	a1, 32
	struct ar5416_desc *ads = AR5416DESC(ds);

	HALASSERT((size &~ AR_BufLen) == 0);

	ads->ds_ctl1 = size & AR_BufLen;
  90517b:	03084b        	extui	a8, a3, 0, 12
	if (flags & HAL_RXDESC_INTREQ)
  90517e:	7a4f16        	bbsi	a4, 26, 905198 <ar5416SetupRxDesc_20+0x20>
	ads->ds_ctl1 = size & AR_BufLen;
  905181:	088957        	extui	a9, a8, 24, 8
  905184:	29240c        	s8i	a9, a2, 12
  905187:	088814        	srli	a8, a8, 8
  90518a:	c090      	movi.n	a9, 0
  90518c:	29240d        	s8i	a9, a2, 13
  90518f:	28240e        	s8i	a8, a2, 14
  905192:	23240f        	s8i	a3, a2, 15
  905195:	60001a        	j	9051b3 <ar5416SetupRxDesc_20+0x3b>
		ads->ds_ctl1 |= AR_RxIntrReq;
  905198:	137225        	l32r	a3, 8e1a2c <athos_indirection_table_install+0x4e4>
  90519b:	038802        	or	a8, a8, a3
  90519e:	088357        	extui	a3, a8, 24, 8
  9051a1:	23240c        	s8i	a3, a2, 12
  9051a4:	080357        	extui	a3, a8, 16, 8
  9051a7:	23240d        	s8i	a3, a2, 13
  9051aa:	088347        	extui	a3, a8, 8, 8
  9051ad:	23240e        	s8i	a3, a2, 14
  9051b0:	28240f        	s8i	a8, a2, 15

	/* this should be enough */
	ads->ds_rxstatus8 &= ~AR_RxDone;
  9051b3:	292030        	l8ui	a9, a2, 48
  9051b6:	c73e      	movi.n	a3, -2
  9051b8:	089810        	slli	a8, a9, 24
  9051bb:	292031        	l8ui	a9, a2, 49
  9051be:	009911        	slli	a9, a9, 16
  9051c1:	089902        	or	a9, a9, a8
  9051c4:	282032        	l8ui	a8, a2, 50
  9051c7:	088811        	slli	a8, a8, 8
  9051ca:	098902        	or	a9, a8, a9
  9051cd:	282033        	l8ui	a8, a2, 51
  9051d0:	098802        	or	a8, a8, a9
  9051d3:	038801        	and	a8, a8, a3
  9051d6:	088357        	extui	a3, a8, 24, 8
  9051d9:	232430        	s8i	a3, a2, 48
  9051dc:	080357        	extui	a3, a8, 16, 8
  9051df:	232431        	s8i	a3, a2, 49
  9051e2:	088347        	extui	a3, a8, 8, 8
  9051e5:	232432        	s8i	a3, a2, 50
  9051e8:	282433        	s8i	a8, a2, 51

	return AH_TRUE;
}
  9051eb:	c021      	movi.n	a2, 1
  9051ed:	d10f      	retw.n
	...

009051f0 <ar5416ProcRxDescFast_20>:

HAL_STATUS ar5416ProcRxDescFast_20(struct ath_hal *ah, struct ath_rx_desc *ds,
				   a_uint32_t pa, struct ath_desc *nds,
				   struct ath_rx_status *rx_stats)
{
  9051f0:	6c1004        	entry	a1, 32
	struct ar5416_desc ads;
	struct ar5416_desc *adsp = AR5416DESC(ds);
	struct ar5416_desc *ands = AR5416DESC(nds);

	if ((adsp->ds_rxstatus8 & AR_RxDone) == 0)
  9051f3:	223030        	l8ui	a2, a3, 48
  9051f6:	082810        	slli	a8, a2, 24
  9051f9:	223031        	l8ui	a2, a3, 49
  9051fc:	002211        	slli	a2, a2, 16
  9051ff:	082202        	or	a2, a2, a8
  905202:	283032        	l8ui	a8, a3, 50
  905205:	088811        	slli	a8, a8, 8
  905208:	028202        	or	a2, a8, a2
  90520b:	283033        	l8ui	a8, a3, 51
  90520e:	028802        	or	a8, a8, a2
		return HAL_EINPROGRESS;
  905211:	c02f      	movi.n	a2, 15
	if ((adsp->ds_rxstatus8 & AR_RxDone) == 0)
  905213:	7f8f02        	bbsi	a8, 31, 905219 <ar5416ProcRxDescFast_20+0x29>
  905216:	6001b0        	j	9053ca <ar5416ProcRxDescFast_20+0x1da>
	/*
	 * Given the use of a self-linked tail be very sure that the hw is
	 * done with this descriptor; the hw may have done this descriptor
	 * once and picked it up again...make sure the hw has moved on.
	 */
	if ((ands->ds_rxstatus8 & AR_RxDone) == 0
  905219:	255033        	l8ui	a5, a5, 51
  90521c:	7f5f0d        	bbsi	a5, 31, 90522d <ar5416ProcRxDescFast_20+0x3d>
	return *(const volatile uint32_t *) addr;
  90521f:	157222        	l32r	a5, 8e1aa8 <athos_indirection_table_install+0x560>
  905222:	0c0200        	memw
  905225:	8550      	l32i.n	a5, a5, 0
	    && ioread32_mac(AR_RXDP) == pa)
  905227:	754902        	bne	a4, a5, 90522d <ar5416ProcRxDescFast_20+0x3d>
  90522a:	60019c        	j	9053ca <ar5416ProcRxDescFast_20+0x1da>
	 * Next we fill in all values in a caller passed stack variable.
	 * This reduces the number of uncached accesses.
	 * Do this copy here, after the check so that when the checks fail, we
	 * dont end up copying the entire stats uselessly.
	 */
	ads.u.rx = adsp->u.rx;
